	.file	"UnicodeLenCounter.cpp"
	.text
.Ltext0:
	.section	.rodata
	.type	_ZStL19piecewise_construct, @object
	.size	_ZStL19piecewise_construct, 1
_ZStL19piecewise_construct:
	.zero	1
	.section	.text._ZNSt11char_traitsIcE6assignERcRKc,"axG",@progbits,_ZNSt11char_traitsIcE6assignERcRKc,comdat
	.weak	_ZNSt11char_traitsIcE6assignERcRKc
	.type	_ZNSt11char_traitsIcE6assignERcRKc, @function
_ZNSt11char_traitsIcE6assignERcRKc:
.LFB336:
	.file 1 "/usr/include/c++/8/bits/char_traits.h"
	.loc 1 284 7
	.cfi_startproc
	pushq	%rbp
	.cfi_def_cfa_offset 16
	.cfi_offset 6, -16
	movq	%rsp, %rbp
	.cfi_def_cfa_register 6
	movq	%rdi, -8(%rbp)
	movq	%rsi, -16(%rbp)
	.loc 1 285 16
	movq	-16(%rbp), %rax
	movzbl	(%rax), %edx
	.loc 1 285 14
	movq	-8(%rbp), %rax
	movb	%dl, (%rax)
	.loc 1 285 22
	nop
	popq	%rbp
	.cfi_def_cfa 7, 8
	ret
	.cfi_endproc
.LFE336:
	.size	_ZNSt11char_traitsIcE6assignERcRKc, .-_ZNSt11char_traitsIcE6assignERcRKc
	.section	.text._ZnwmPv,"axG",@progbits,_ZnwmPv,comdat
	.weak	_ZnwmPv
	.type	_ZnwmPv, @function
_ZnwmPv:
.LFB442:
	.file 2 "/usr/include/c++/8/new"
	.loc 2 169 1
	.cfi_startproc
	pushq	%rbp
	.cfi_def_cfa_offset 16
	.cfi_offset 6, -16
	movq	%rsp, %rbp
	.cfi_def_cfa_register 6
	movq	%rdi, -8(%rbp)
	movq	%rsi, -16(%rbp)
	.loc 2 169 10
	movq	-16(%rbp), %rax
	.loc 2 169 15
	popq	%rbp
	.cfi_def_cfa 7, 8
	ret
	.cfi_endproc
.LFE442:
	.size	_ZnwmPv, .-_ZnwmPv
	.section	.text._ZdlPvS_,"axG",@progbits,_ZdlPvS_,comdat
	.weak	_ZdlPvS_
	.type	_ZdlPvS_, @function
_ZdlPvS_:
.LFB444:
	.loc 2 174 53
	.cfi_startproc
	pushq	%rbp
	.cfi_def_cfa_offset 16
	.cfi_offset 6, -16
	movq	%rsp, %rbp
	.cfi_def_cfa_register 6
	movq	%rdi, -8(%rbp)
	movq	%rsi, -16(%rbp)
	.loc 2 174 55
	nop
	popq	%rbp
	.cfi_def_cfa 7, 8
	ret
	.cfi_endproc
.LFE444:
	.size	_ZdlPvS_, .-_ZdlPvS_
	.section	.text._ZNSt12_Base_bitsetILm1EEC2Ey,"axG",@progbits,_ZNSt12_Base_bitsetILm1EEC5Ey,comdat
	.align 2
	.weak	_ZNSt12_Base_bitsetILm1EEC2Ey
	.type	_ZNSt12_Base_bitsetILm1EEC2Ey, @function
_ZNSt12_Base_bitsetILm1EEC2Ey:
.LFB1037:
	.file 3 "/usr/include/c++/8/bitset"
	.loc 3 386 17
	.cfi_startproc
	pushq	%rbp
	.cfi_def_cfa_offset 16
	.cfi_offset 6, -16
	movq	%rsp, %rbp
	.cfi_def_cfa_register 6
	movq	%rdi, -8(%rbp)
	movq	%rsi, -16(%rbp)
.LBB2:
	.loc 3 390 19
	movq	-8(%rbp), %rax
	movq	-16(%rbp), %rdx
	movq	%rdx, (%rax)
.LBE2:
	.loc 3 391 9
	nop
	popq	%rbp
	.cfi_def_cfa 7, 8
	ret
	.cfi_endproc
.LFE1037:
	.size	_ZNSt12_Base_bitsetILm1EEC2Ey, .-_ZNSt12_Base_bitsetILm1EEC2Ey
	.weak	_ZNSt12_Base_bitsetILm1EEC1Ey
	.set	_ZNSt12_Base_bitsetILm1EEC1Ey,_ZNSt12_Base_bitsetILm1EEC2Ey
	.section	.text._ZNSt12_Base_bitsetILm1EE11_S_whichbitEm,"axG",@progbits,_ZNSt12_Base_bitsetILm1EE11_S_whichbitEm,comdat
	.weak	_ZNSt12_Base_bitsetILm1EE11_S_whichbitEm
	.type	_ZNSt12_Base_bitsetILm1EE11_S_whichbitEm, @function
_ZNSt12_Base_bitsetILm1EE11_S_whichbitEm:
.LFB1041:
	.loc 3 402 7
	.cfi_startproc
	pushq	%rbp
	.cfi_def_cfa_offset 16
	.cfi_offset 6, -16
	movq	%rsp, %rbp
	.cfi_def_cfa_register 6
	movq	%rdi, -8(%rbp)
	.loc 3 403 30
	movq	-8(%rbp), %rax
	andl	$63, %eax
	.loc 3 403 33
	popq	%rbp
	.cfi_def_cfa 7, 8
	ret
	.cfi_endproc
.LFE1041:
	.size	_ZNSt12_Base_bitsetILm1EE11_S_whichbitEm, .-_ZNSt12_Base_bitsetILm1EE11_S_whichbitEm
	.section	.text._ZNSt12_Base_bitsetILm1EE10_S_maskbitEm,"axG",@progbits,_ZNSt12_Base_bitsetILm1EE10_S_maskbitEm,comdat
	.weak	_ZNSt12_Base_bitsetILm1EE10_S_maskbitEm
	.type	_ZNSt12_Base_bitsetILm1EE10_S_maskbitEm, @function
_ZNSt12_Base_bitsetILm1EE10_S_maskbitEm:
.LFB1042:
	.loc 3 406 7
	.cfi_startproc
	pushq	%rbp
	.cfi_def_cfa_offset 16
	.cfi_offset 6, -16
	movq	%rsp, %rbp
	.cfi_def_cfa_register 6
	subq	$16, %rsp
	movq	%rdi, -8(%rbp)
	.loc 3 407 55
	movq	-8(%rbp), %rax
	movq	%rax, %rdi
	call	_ZNSt12_Base_bitsetILm1EE11_S_whichbitEm
	.loc 3 407 61
	movl	$1, %edx
	movl	%eax, %ecx
	salq	%cl, %rdx
	movq	%rdx, %rax
	.loc 3 407 64
	leave
	.cfi_def_cfa 7, 8
	ret
	.cfi_endproc
.LFE1042:
	.size	_ZNSt12_Base_bitsetILm1EE10_S_maskbitEm, .-_ZNSt12_Base_bitsetILm1EE10_S_maskbitEm
	.section	.text._ZNKSt12_Base_bitsetILm1EE10_M_getwordEm,"axG",@progbits,_ZNKSt12_Base_bitsetILm1EE10_M_getwordEm,comdat
	.align 2
	.weak	_ZNKSt12_Base_bitsetILm1EE10_M_getwordEm
	.type	_ZNKSt12_Base_bitsetILm1EE10_M_getwordEm, @function
_ZNKSt12_Base_bitsetILm1EE10_M_getwordEm:
.LFB1044:
	.loc 3 414 7
	.cfi_startproc
	pushq	%rbp
	.cfi_def_cfa_offset 16
	.cfi_offset 6, -16
	movq	%rsp, %rbp
	.cfi_def_cfa_register 6
	movq	%rdi, -8(%rbp)
	movq	%rsi, -16(%rbp)
	.loc 3 415 16
	movq	-8(%rbp), %rax
	movq	(%rax), %rax
	.loc 3 415 22
	popq	%rbp
	.cfi_def_cfa 7, 8
	ret
	.cfi_endproc
.LFE1044:
	.size	_ZNKSt12_Base_bitsetILm1EE10_M_getwordEm, .-_ZNKSt12_Base_bitsetILm1EE10_M_getwordEm
	.section	.text._ZNKSt12_Base_bitsetILm1EE14_M_do_to_ulongEv,"axG",@progbits,_ZNKSt12_Base_bitsetILm1EE14_M_do_to_ulongEv,comdat
	.align 2
	.weak	_ZNKSt12_Base_bitsetILm1EE14_M_do_to_ulongEv
	.type	_ZNKSt12_Base_bitsetILm1EE14_M_do_to_ulongEv, @function
_ZNKSt12_Base_bitsetILm1EE14_M_do_to_ulongEv:
.LFB1060:
	.loc 3 482 7
	.cfi_startproc
	pushq	%rbp
	.cfi_def_cfa_offset 16
	.cfi_offset 6, -16
	movq	%rsp, %rbp
	.cfi_def_cfa_register 6
	movq	%rdi, -8(%rbp)
	.loc 3 483 16
	movq	-8(%rbp), %rax
	movq	(%rax), %rax
	.loc 3 483 22
	popq	%rbp
	.cfi_def_cfa 7, 8
	ret
	.cfi_endproc
.LFE1060:
	.size	_ZNKSt12_Base_bitsetILm1EE14_M_do_to_ulongEv, .-_ZNKSt12_Base_bitsetILm1EE14_M_do_to_ulongEv
	.section	.text._ZStorSt13_Ios_OpenmodeS_,"axG",@progbits,_ZStorSt13_Ios_OpenmodeS_,comdat
	.weak	_ZStorSt13_Ios_OpenmodeS_
	.type	_ZStorSt13_Ios_OpenmodeS_, @function
_ZStorSt13_Ios_OpenmodeS_:
.LFB1277:
	.file 4 "/usr/include/c++/8/bits/ios_base.h"
	.loc 4 130 3
	.cfi_startproc
	pushq	%rbp
	.cfi_def_cfa_offset 16
	.cfi_offset 6, -16
	movq	%rsp, %rbp
	.cfi_def_cfa_register 6
	movl	%edi, -4(%rbp)
	movl	%esi, -8(%rbp)
	.loc 4 130 71
	movl	-4(%rbp), %eax
	orl	-8(%rbp), %eax
	.loc 4 130 74
	popq	%rbp
	.cfi_def_cfa 7, 8
	ret
	.cfi_endproc
.LFE1277:
	.size	_ZStorSt13_Ios_OpenmodeS_, .-_ZStorSt13_Ios_OpenmodeS_
	.section	.text._ZNKSt8ios_base6getlocEv,"axG",@progbits,_ZNKSt8ios_base6getlocEv,comdat
	.align 2
	.weak	_ZNKSt8ios_base6getlocEv
	.type	_ZNKSt8ios_base6getlocEv, @function
_ZNKSt8ios_base6getlocEv:
.LFB1309:
	.loc 4 765 5
	.cfi_startproc
	pushq	%rbp
	.cfi_def_cfa_offset 16
	.cfi_offset 6, -16
	movq	%rsp, %rbp
	.cfi_def_cfa_register 6
	subq	$16, %rsp
	movq	%rdi, -8(%rbp)
	movq	%rsi, -16(%rbp)
	.loc 4 766 14
	movq	-16(%rbp), %rax
	leaq	208(%rax), %rdx
	movq	-8(%rbp), %rax
	movq	%rdx, %rsi
	movq	%rax, %rdi
	call	_ZNSt6localeC1ERKS_
	.loc 4 766 29
	movq	-8(%rbp), %rax
	leave
	.cfi_def_cfa 7, 8
	ret
	.cfi_endproc
.LFE1309:
	.size	_ZNKSt8ios_base6getlocEv, .-_ZNKSt8ios_base6getlocEv
	.section	.text._ZNKSt5ctypeIcE5widenEc,"axG",@progbits,_ZNKSt5ctypeIcE5widenEc,comdat
	.align 2
	.weak	_ZNKSt5ctypeIcE5widenEc
	.type	_ZNKSt5ctypeIcE5widenEc, @function
_ZNKSt5ctypeIcE5widenEc:
.LFB1429:
	.file 5 "/usr/include/c++/8/bits/locale_facets.h"
	.loc 5 872 7
	.cfi_startproc
	pushq	%rbp
	.cfi_def_cfa_offset 16
	.cfi_offset 6, -16
	movq	%rsp, %rbp
	.cfi_def_cfa_register 6
	subq	$16, %rsp
	movq	%rdi, -8(%rbp)
	movl	%esi, %eax
	movb	%al, -12(%rbp)
	.loc 5 874 6
	movq	-8(%rbp), %rax
	movzbl	56(%rax), %eax
	.loc 5 874 2
	testb	%al, %al
	je	.L19
	.loc 5 875 20
	movzbl	-12(%rbp), %eax
	movzbl	%al, %eax
	.loc 5 875 51
	movq	-8(%rbp), %rdx
	cltq
	movzbl	57(%rdx,%rax), %eax
	jmp	.L20
.L19:
	.loc 5 876 21
	movq	-8(%rbp), %rax
	movq	%rax, %rdi
	call	_ZNKSt5ctypeIcE13_M_widen_initEv
	.loc 5 877 27
	movq	-8(%rbp), %rax
	movq	(%rax), %rax
	addq	$48, %rax
	movq	(%rax), %rax
	.loc 5 877 23
	movsbl	-12(%rbp), %ecx
	movq	-8(%rbp), %rdx
	movl	%ecx, %esi
	movq	%rdx, %rdi
	call	*%rax
.LVL0:
	.loc 5 877 27
	nop
.L20:
	.loc 5 878 7
	leave
	.cfi_def_cfa 7, 8
	ret
	.cfi_endproc
.LFE1429:
	.size	_ZNKSt5ctypeIcE5widenEc, .-_ZNKSt5ctypeIcE5widenEc
	.local	_ZStL8__ioinit
	.comm	_ZStL8__ioinit,1,1
	.section	.text._ZNSt18_Rb_tree_node_base10_S_minimumEPS_,"axG",@progbits,_ZNSt18_Rb_tree_node_base10_S_minimumEPS_,comdat
	.weak	_ZNSt18_Rb_tree_node_base10_S_minimumEPS_
	.type	_ZNSt18_Rb_tree_node_base10_S_minimumEPS_, @function
_ZNSt18_Rb_tree_node_base10_S_minimumEPS_:
.LFB2203:
	.file 6 "/usr/include/c++/8/bits/stl_tree.h"
	.loc 6 112 5
	.cfi_startproc
	pushq	%rbp
	.cfi_def_cfa_offset 16
	.cfi_offset 6, -16
	movq	%rsp, %rbp
	.cfi_def_cfa_register 6
	movq	%rdi, -8(%rbp)
.L23:
	.loc 6 114 19 discriminator 2
	movq	-8(%rbp), %rax
	movq	16(%rax), %rax
	.loc 6 114 27 discriminator 2
	testq	%rax, %rax
	je	.L22
	.loc 6 114 37 discriminator 1
	movq	-8(%rbp), %rax
	movq	16(%rax), %rax
	movq	%rax, -8(%rbp)
	.loc 6 114 7 discriminator 1
	jmp	.L23
.L22:
	.loc 6 115 14
	movq	-8(%rbp), %rax
	.loc 6 116 5
	popq	%rbp
	.cfi_def_cfa 7, 8
	ret
	.cfi_endproc
.LFE2203:
	.size	_ZNSt18_Rb_tree_node_base10_S_minimumEPS_, .-_ZNSt18_Rb_tree_node_base10_S_minimumEPS_
	.section	.text._ZNSt18_Rb_tree_node_base10_S_maximumEPS_,"axG",@progbits,_ZNSt18_Rb_tree_node_base10_S_maximumEPS_,comdat
	.weak	_ZNSt18_Rb_tree_node_base10_S_maximumEPS_
	.type	_ZNSt18_Rb_tree_node_base10_S_maximumEPS_, @function
_ZNSt18_Rb_tree_node_base10_S_maximumEPS_:
.LFB2205:
	.loc 6 126 5
	.cfi_startproc
	pushq	%rbp
	.cfi_def_cfa_offset 16
	.cfi_offset 6, -16
	movq	%rsp, %rbp
	.cfi_def_cfa_register 6
	movq	%rdi, -8(%rbp)
.L27:
	.loc 6 128 19 discriminator 2
	movq	-8(%rbp), %rax
	movq	24(%rax), %rax
	.loc 6 128 28 discriminator 2
	testq	%rax, %rax
	je	.L26
	.loc 6 128 38 discriminator 1
	movq	-8(%rbp), %rax
	movq	24(%rax), %rax
	movq	%rax, -8(%rbp)
	.loc 6 128 7 discriminator 1
	jmp	.L27
.L26:
	.loc 6 129 14
	movq	-8(%rbp), %rax
	.loc 6 130 5
	popq	%rbp
	.cfi_def_cfa 7, 8
	ret
	.cfi_endproc
.LFE2205:
	.size	_ZNSt18_Rb_tree_node_base10_S_maximumEPS_, .-_ZNSt18_Rb_tree_node_base10_S_maximumEPS_
	.section	.text._ZNSt15_Rb_tree_headerC2Ev,"axG",@progbits,_ZNSt15_Rb_tree_headerC5Ev,comdat
	.align 2
	.weak	_ZNSt15_Rb_tree_headerC2Ev
	.type	_ZNSt15_Rb_tree_headerC2Ev, @function
_ZNSt15_Rb_tree_headerC2Ev:
.LFB2211:
	.loc 6 173 5
	.cfi_startproc
	pushq	%rbp
	.cfi_def_cfa_offset 16
	.cfi_offset 6, -16
	movq	%rsp, %rbp
	.cfi_def_cfa_register 6
	subq	$16, %rsp
	movq	%rdi, -8(%rbp)
.LBB3:
	.loc 6 175 26
	movq	-8(%rbp), %rax
	movl	$0, (%rax)
	.loc 6 176 15
	movq	-8(%rbp), %rax
	movq	%rax, %rdi
	call	_ZNSt15_Rb_tree_header8_M_resetEv
.LBE3:
	.loc 6 177 5
	nop
	leave
	.cfi_def_cfa 7, 8
	ret
	.cfi_endproc
.LFE2211:
	.size	_ZNSt15_Rb_tree_headerC2Ev, .-_ZNSt15_Rb_tree_headerC2Ev
	.weak	_ZNSt15_Rb_tree_headerC1Ev
	.set	_ZNSt15_Rb_tree_headerC1Ev,_ZNSt15_Rb_tree_headerC2Ev
	.section	.text._ZNSt15_Rb_tree_headerC2EOS_,"axG",@progbits,_ZNSt15_Rb_tree_headerC5EOS_,comdat
	.align 2
	.weak	_ZNSt15_Rb_tree_headerC2EOS_
	.type	_ZNSt15_Rb_tree_headerC2EOS_, @function
_ZNSt15_Rb_tree_headerC2EOS_:
.LFB2214:
	.loc 6 180 5
	.cfi_startproc
	.cfi_personality 0x3,__gxx_personality_v0
	.cfi_lsda 0x3,.LLSDA2214
	pushq	%rbp
	.cfi_def_cfa_offset 16
	.cfi_offset 6, -16
	movq	%rsp, %rbp
	.cfi_def_cfa_register 6
	subq	$16, %rsp
	movq	%rdi, -8(%rbp)
	movq	%rsi, -16(%rbp)
.LBB4:
	.loc 6 182 25
	movq	-16(%rbp), %rax
	movq	8(%rax), %rax
	.loc 6 182 7
	testq	%rax, %rax
	je	.L31
	.loc 6 183 14
	movq	-16(%rbp), %rdx
	movq	-8(%rbp), %rax
	movq	%rdx, %rsi
	movq	%rax, %rdi
	call	_ZNSt15_Rb_tree_header12_M_move_dataERS_
.LBE4:
	.loc 6 189 5
	jmp	.L33
.L31:
.LBB5:
	.loc 6 186 23
	movq	-8(%rbp), %rax
	movl	$0, (%rax)
	.loc 6 187 12
	movq	-8(%rbp), %rax
	movq	%rax, %rdi
	call	_ZNSt15_Rb_tree_header8_M_resetEv
.L33:
.LBE5:
	.loc 6 189 5
	nop
	leave
	.cfi_def_cfa 7, 8
	ret
	.cfi_endproc
.LFE2214:
	.globl	__gxx_personality_v0
	.section	.gcc_except_table._ZNSt15_Rb_tree_headerC2EOS_,"aG",@progbits,_ZNSt15_Rb_tree_headerC5EOS_,comdat
.LLSDA2214:
	.byte	0xff
	.byte	0xff
	.byte	0x1
	.uleb128 .LLSDACSE2214-.LLSDACSB2214
.LLSDACSB2214:
.LLSDACSE2214:
	.section	.text._ZNSt15_Rb_tree_headerC2EOS_,"axG",@progbits,_ZNSt15_Rb_tree_headerC5EOS_,comdat
	.size	_ZNSt15_Rb_tree_headerC2EOS_, .-_ZNSt15_Rb_tree_headerC2EOS_
	.weak	_ZNSt15_Rb_tree_headerC1EOS_
	.set	_ZNSt15_Rb_tree_headerC1EOS_,_ZNSt15_Rb_tree_headerC2EOS_
	.section	.text._ZNSt15_Rb_tree_header12_M_move_dataERS_,"axG",@progbits,_ZNSt15_Rb_tree_header12_M_move_dataERS_,comdat
	.align 2
	.weak	_ZNSt15_Rb_tree_header12_M_move_dataERS_
	.type	_ZNSt15_Rb_tree_header12_M_move_dataERS_, @function
_ZNSt15_Rb_tree_header12_M_move_dataERS_:
.LFB2216:
	.loc 6 193 5
	.cfi_startproc
	pushq	%rbp
	.cfi_def_cfa_offset 16
	.cfi_offset 6, -16
	movq	%rsp, %rbp
	.cfi_def_cfa_register 6
	subq	$16, %rsp
	movq	%rdi, -8(%rbp)
	movq	%rsi, -16(%rbp)
	.loc 6 195 45
	movq	-16(%rbp), %rax
	movl	(%rax), %edx
	.loc 6 195 26
	movq	-8(%rbp), %rax
	movl	%edx, (%rax)
	.loc 6 196 46
	movq	-16(%rbp), %rax
	movq	8(%rax), %rdx
	.loc 6 196 27
	movq	-8(%rbp), %rax
	movq	%rdx, 8(%rax)
	.loc 6 197 44
	movq	-16(%rbp), %rax
	movq	16(%rax), %rdx
	.loc 6 197 25
	movq	-8(%rbp), %rax
	movq	%rdx, 16(%rax)
	.loc 6 198 45
	movq	-16(%rbp), %rax
	movq	24(%rax), %rdx
	.loc 6 198 26
	movq	-8(%rbp), %rax
	movq	%rdx, 24(%rax)
	.loc 6 199 17
	movq	-8(%rbp), %rax
	movq	8(%rax), %rax
	.loc 6 199 40
	movq	-8(%rbp), %rdx
	.loc 6 199 38
	movq	%rdx, 8(%rax)
	.loc 6 200 30
	movq	-16(%rbp), %rax
	movq	32(%rax), %rdx
	.loc 6 200 21
	movq	-8(%rbp), %rax
	movq	%rdx, 32(%rax)
	.loc 6 202 22
	movq	-16(%rbp), %rax
	movq	%rax, %rdi
	call	_ZNSt15_Rb_tree_header8_M_resetEv
	.loc 6 203 5
	nop
	leave
	.cfi_def_cfa 7, 8
	ret
	.cfi_endproc
.LFE2216:
	.size	_ZNSt15_Rb_tree_header12_M_move_dataERS_, .-_ZNSt15_Rb_tree_header12_M_move_dataERS_
	.section	.text._ZNSt15_Rb_tree_header8_M_resetEv,"axG",@progbits,_ZNSt15_Rb_tree_header8_M_resetEv,comdat
	.align 2
	.weak	_ZNSt15_Rb_tree_header8_M_resetEv
	.type	_ZNSt15_Rb_tree_header8_M_resetEv, @function
_ZNSt15_Rb_tree_header8_M_resetEv:
.LFB2217:
	.loc 6 206 5
	.cfi_startproc
	pushq	%rbp
	.cfi_def_cfa_offset 16
	.cfi_offset 6, -16
	movq	%rsp, %rbp
	.cfi_def_cfa_register 6
	movq	%rdi, -8(%rbp)
	.loc 6 208 27
	movq	-8(%rbp), %rax
	movq	$0, 8(%rax)
	.loc 6 209 27
	movq	-8(%rbp), %rdx
	.loc 6 209 25
	movq	-8(%rbp), %rax
	movq	%rdx, 16(%rax)
	.loc 6 210 28
	movq	-8(%rbp), %rdx
	.loc 6 210 26
	movq	-8(%rbp), %rax
	movq	%rdx, 24(%rax)
	.loc 6 211 21
	movq	-8(%rbp), %rax
	movq	$0, 32(%rax)
	.loc 6 212 5
	nop
	popq	%rbp
	.cfi_def_cfa 7, 8
	ret
	.cfi_endproc
.LFE2217:
	.size	_ZNSt15_Rb_tree_header8_M_resetEv, .-_ZNSt15_Rb_tree_header8_M_resetEv
	.section	.rodata
	.type	_ZStL13allocator_arg, @object
	.size	_ZStL13allocator_arg, 1
_ZStL13allocator_arg:
	.zero	1
	.type	_ZStL6ignore, @object
	.size	_ZStL6ignore, 1
_ZStL6ignore:
	.zero	1
	.section	.text._ZNSt8_Rb_treeIN3vuh10LenCounter5StateESt4pairIKS2_NSt7__cxx1112basic_stringIcSt11char_traitsIcESaIcEEEESt10_Select1stISB_ESt4lessIS2_ESaISB_EE13_Rb_tree_implISF_Lb1EED2Ev,"axG",@progbits,_ZNSt8_Rb_treeIN3vuh10LenCounter5StateESt4pairIKS2_NSt7__cxx1112basic_stringIcSt11char_traitsIcESaIcEEEESt10_Select1stISB_ESt4lessIS2_ESaISB_EE13_Rb_tree_implISF_Lb1EED5Ev,comdat
	.align 2
	.weak	_ZNSt8_Rb_treeIN3vuh10LenCounter5StateESt4pairIKS2_NSt7__cxx1112basic_stringIcSt11char_traitsIcESaIcEEEESt10_Select1stISB_ESt4lessIS2_ESaISB_EE13_Rb_tree_implISF_Lb1EED2Ev
	.type	_ZNSt8_Rb_treeIN3vuh10LenCounter5StateESt4pairIKS2_NSt7__cxx1112basic_stringIcSt11char_traitsIcESaIcEEEESt10_Select1stISB_ESt4lessIS2_ESaISB_EE13_Rb_tree_implISF_Lb1EED2Ev, @function
_ZNSt8_Rb_treeIN3vuh10LenCounter5StateESt4pairIKS2_NSt7__cxx1112basic_stringIcSt11char_traitsIcESaIcEEEESt10_Select1stISB_ESt4lessIS2_ESaISB_EE13_Rb_tree_implISF_Lb1EED2Ev:
.LFB2760:
	.loc 6 692 9
	.cfi_startproc
	pushq	%rbp
	.cfi_def_cfa_offset 16
	.cfi_offset 6, -16
	movq	%rsp, %rbp
	.cfi_def_cfa_register 6
	subq	$16, %rsp
	movq	%rdi, -8(%rbp)
.LBB6:
	.loc 6 692 9
	movq	-8(%rbp), %rax
	movq	%rax, %rdi
	call	_ZNSaISt13_Rb_tree_nodeISt4pairIKN3vuh10LenCounter5StateENSt7__cxx1112basic_stringIcSt11char_traitsIcESaIcEEEEEED2Ev
.LBE6:
	nop
	leave
	.cfi_def_cfa 7, 8
	ret
	.cfi_endproc
.LFE2760:
	.size	_ZNSt8_Rb_treeIN3vuh10LenCounter5StateESt4pairIKS2_NSt7__cxx1112basic_stringIcSt11char_traitsIcESaIcEEEESt10_Select1stISB_ESt4lessIS2_ESaISB_EE13_Rb_tree_implISF_Lb1EED2Ev, .-_ZNSt8_Rb_treeIN3vuh10LenCounter5StateESt4pairIKS2_NSt7__cxx1112basic_stringIcSt11char_traitsIcESaIcEEEESt10_Select1stISB_ESt4lessIS2_ESaISB_EE13_Rb_tree_implISF_Lb1EED2Ev
	.weak	_ZNSt8_Rb_treeIN3vuh10LenCounter5StateESt4pairIKS2_NSt7__cxx1112basic_stringIcSt11char_traitsIcESaIcEEEESt10_Select1stISB_ESt4lessIS2_ESaISB_EE13_Rb_tree_implISF_Lb1EED1Ev
	.set	_ZNSt8_Rb_treeIN3vuh10LenCounter5StateESt4pairIKS2_NSt7__cxx1112basic_stringIcSt11char_traitsIcESaIcEEEESt10_Select1stISB_ESt4lessIS2_ESaISB_EE13_Rb_tree_implISF_Lb1EED1Ev,_ZNSt8_Rb_treeIN3vuh10LenCounter5StateESt4pairIKS2_NSt7__cxx1112basic_stringIcSt11char_traitsIcESaIcEEEESt10_Select1stISB_ESt4lessIS2_ESaISB_EE13_Rb_tree_implISF_Lb1EED2Ev
	.section	.text._ZNSt8_Rb_treeIN3vuh10LenCounter5StateESt4pairIKS2_NSt7__cxx1112basic_stringIcSt11char_traitsIcESaIcEEEESt10_Select1stISB_ESt4lessIS2_ESaISB_EEC2Ev,"axG",@progbits,_ZNSt8_Rb_treeIN3vuh10LenCounter5StateESt4pairIKS2_NSt7__cxx1112basic_stringIcSt11char_traitsIcESaIcEEEESt10_Select1stISB_ESt4lessIS2_ESaISB_EEC5Ev,comdat
	.align 2
	.weak	_ZNSt8_Rb_treeIN3vuh10LenCounter5StateESt4pairIKS2_NSt7__cxx1112basic_stringIcSt11char_traitsIcESaIcEEEESt10_Select1stISB_ESt4lessIS2_ESaISB_EEC2Ev
	.type	_ZNSt8_Rb_treeIN3vuh10LenCounter5StateESt4pairIKS2_NSt7__cxx1112basic_stringIcSt11char_traitsIcESaIcEEEESt10_Select1stISB_ESt4lessIS2_ESaISB_EEC2Ev, @function
_ZNSt8_Rb_treeIN3vuh10LenCounter5StateESt4pairIKS2_NSt7__cxx1112basic_stringIcSt11char_traitsIcESaIcEEEESt10_Select1stISB_ESt4lessIS2_ESaISB_EEC2Ev:
.LFB2762:
	.loc 6 929 7
	.cfi_startproc
	pushq	%rbp
	.cfi_def_cfa_offset 16
	.cfi_offset 6, -16
	movq	%rsp, %rbp
	.cfi_def_cfa_register 6
	subq	$16, %rsp
	movq	%rdi, -8(%rbp)
.LBB7:
	.loc 6 929 7
	movq	-8(%rbp), %rax
	movq	%rax, %rdi
	call	_ZNSt8_Rb_treeIN3vuh10LenCounter5StateESt4pairIKS2_NSt7__cxx1112basic_stringIcSt11char_traitsIcESaIcEEEESt10_Select1stISB_ESt4lessIS2_ESaISB_EE13_Rb_tree_implISF_Lb1EEC1Ev
.LBE7:
	nop
	leave
	.cfi_def_cfa 7, 8
	ret
	.cfi_endproc
.LFE2762:
	.size	_ZNSt8_Rb_treeIN3vuh10LenCounter5StateESt4pairIKS2_NSt7__cxx1112basic_stringIcSt11char_traitsIcESaIcEEEESt10_Select1stISB_ESt4lessIS2_ESaISB_EEC2Ev, .-_ZNSt8_Rb_treeIN3vuh10LenCounter5StateESt4pairIKS2_NSt7__cxx1112basic_stringIcSt11char_traitsIcESaIcEEEESt10_Select1stISB_ESt4lessIS2_ESaISB_EEC2Ev
	.weak	_ZNSt8_Rb_treeIN3vuh10LenCounter5StateESt4pairIKS2_NSt7__cxx1112basic_stringIcSt11char_traitsIcESaIcEEEESt10_Select1stISB_ESt4lessIS2_ESaISB_EEC1Ev
	.set	_ZNSt8_Rb_treeIN3vuh10LenCounter5StateESt4pairIKS2_NSt7__cxx1112basic_stringIcSt11char_traitsIcESaIcEEEESt10_Select1stISB_ESt4lessIS2_ESaISB_EEC1Ev,_ZNSt8_Rb_treeIN3vuh10LenCounter5StateESt4pairIKS2_NSt7__cxx1112basic_stringIcSt11char_traitsIcESaIcEEEESt10_Select1stISB_ESt4lessIS2_ESaISB_EEC2Ev
	.section	.text._ZNSt3mapIN3vuh10LenCounter5StateENSt7__cxx1112basic_stringIcSt11char_traitsIcESaIcEEESt4lessIS2_ESaISt4pairIKS2_S8_EEEC2Ev,"axG",@progbits,_ZNSt3mapIN3vuh10LenCounter5StateENSt7__cxx1112basic_stringIcSt11char_traitsIcESaIcEEESt4lessIS2_ESaISt4pairIKS2_S8_EEEC5Ev,comdat
	.align 2
	.weak	_ZNSt3mapIN3vuh10LenCounter5StateENSt7__cxx1112basic_stringIcSt11char_traitsIcESaIcEEESt4lessIS2_ESaISt4pairIKS2_S8_EEEC2Ev
	.type	_ZNSt3mapIN3vuh10LenCounter5StateENSt7__cxx1112basic_stringIcSt11char_traitsIcESaIcEEESt4lessIS2_ESaISt4pairIKS2_S8_EEEC2Ev, @function
_ZNSt3mapIN3vuh10LenCounter5StateENSt7__cxx1112basic_stringIcSt11char_traitsIcESaIcEEESt4lessIS2_ESaISt4pairIKS2_S8_EEEC2Ev:
.LFB2764:
	.file 7 "/usr/include/c++/8/bits/stl_map.h"
	.loc 7 183 7
	.cfi_startproc
	pushq	%rbp
	.cfi_def_cfa_offset 16
	.cfi_offset 6, -16
	movq	%rsp, %rbp
	.cfi_def_cfa_register 6
	subq	$16, %rsp
	movq	%rdi, -8(%rbp)
.LBB8:
	.loc 7 183 7
	movq	-8(%rbp), %rax
	movq	%rax, %rdi
	call	_ZNSt8_Rb_treeIN3vuh10LenCounter5StateESt4pairIKS2_NSt7__cxx1112basic_stringIcSt11char_traitsIcESaIcEEEESt10_Select1stISB_ESt4lessIS2_ESaISB_EEC1Ev
.LBE8:
	nop
	leave
	.cfi_def_cfa 7, 8
	ret
	.cfi_endproc
.LFE2764:
	.size	_ZNSt3mapIN3vuh10LenCounter5StateENSt7__cxx1112basic_stringIcSt11char_traitsIcESaIcEEESt4lessIS2_ESaISt4pairIKS2_S8_EEEC2Ev, .-_ZNSt3mapIN3vuh10LenCounter5StateENSt7__cxx1112basic_stringIcSt11char_traitsIcESaIcEEESt4lessIS2_ESaISt4pairIKS2_S8_EEEC2Ev
	.weak	_ZNSt3mapIN3vuh10LenCounter5StateENSt7__cxx1112basic_stringIcSt11char_traitsIcESaIcEEESt4lessIS2_ESaISt4pairIKS2_S8_EEEC1Ev
	.set	_ZNSt3mapIN3vuh10LenCounter5StateENSt7__cxx1112basic_stringIcSt11char_traitsIcESaIcEEESt4lessIS2_ESaISt4pairIKS2_S8_EEEC1Ev,_ZNSt3mapIN3vuh10LenCounter5StateENSt7__cxx1112basic_stringIcSt11char_traitsIcESaIcEEESt4lessIS2_ESaISt4pairIKS2_S8_EEEC2Ev
	.section	.text._ZNSt3mapIN3vuh10LenCounter5StateENSt7__cxx1112basic_stringIcSt11char_traitsIcESaIcEEESt4lessIS2_ESaISt4pairIKS2_S8_EEED2Ev,"axG",@progbits,_ZNSt3mapIN3vuh10LenCounter5StateENSt7__cxx1112basic_stringIcSt11char_traitsIcESaIcEEESt4lessIS2_ESaISt4pairIKS2_S8_EEED5Ev,comdat
	.align 2
	.weak	_ZNSt3mapIN3vuh10LenCounter5StateENSt7__cxx1112basic_stringIcSt11char_traitsIcESaIcEEESt4lessIS2_ESaISt4pairIKS2_S8_EEED2Ev
	.type	_ZNSt3mapIN3vuh10LenCounter5StateENSt7__cxx1112basic_stringIcSt11char_traitsIcESaIcEEESt4lessIS2_ESaISt4pairIKS2_S8_EEED2Ev, @function
_ZNSt3mapIN3vuh10LenCounter5StateENSt7__cxx1112basic_stringIcSt11char_traitsIcESaIcEEESt4lessIS2_ESaISt4pairIKS2_S8_EEED2Ev:
.LFB2767:
	.loc 7 300 7
	.cfi_startproc
	pushq	%rbp
	.cfi_def_cfa_offset 16
	.cfi_offset 6, -16
	movq	%rsp, %rbp
	.cfi_def_cfa_register 6
	subq	$16, %rsp
	movq	%rdi, -8(%rbp)
.LBB9:
	.loc 7 300 7
	movq	-8(%rbp), %rax
	movq	%rax, %rdi
	call	_ZNSt8_Rb_treeIN3vuh10LenCounter5StateESt4pairIKS2_NSt7__cxx1112basic_stringIcSt11char_traitsIcESaIcEEEESt10_Select1stISB_ESt4lessIS2_ESaISB_EED1Ev
.LBE9:
	nop
	leave
	.cfi_def_cfa 7, 8
	ret
	.cfi_endproc
.LFE2767:
	.size	_ZNSt3mapIN3vuh10LenCounter5StateENSt7__cxx1112basic_stringIcSt11char_traitsIcESaIcEEESt4lessIS2_ESaISt4pairIKS2_S8_EEED2Ev, .-_ZNSt3mapIN3vuh10LenCounter5StateENSt7__cxx1112basic_stringIcSt11char_traitsIcESaIcEEESt4lessIS2_ESaISt4pairIKS2_S8_EEED2Ev
	.weak	_ZNSt3mapIN3vuh10LenCounter5StateENSt7__cxx1112basic_stringIcSt11char_traitsIcESaIcEEESt4lessIS2_ESaISt4pairIKS2_S8_EEED1Ev
	.set	_ZNSt3mapIN3vuh10LenCounter5StateENSt7__cxx1112basic_stringIcSt11char_traitsIcESaIcEEESt4lessIS2_ESaISt4pairIKS2_S8_EEED1Ev,_ZNSt3mapIN3vuh10LenCounter5StateENSt7__cxx1112basic_stringIcSt11char_traitsIcESaIcEEESt4lessIS2_ESaISt4pairIKS2_S8_EEED2Ev
	.section	.rodata
.LC0:
	.string	"State value "
.LC1:
	.string	" maps to string "
	.text
	.align 2
	.type	_ZZN3vuh10LenCounterC4EvENKUlSt4pairIKNS0_5StateENSt7__cxx1112basic_stringIcSt11char_traitsIcESaIcEEEEE_clESA_, @function
_ZZN3vuh10LenCounterC4EvENKUlSt4pairIKNS0_5StateENSt7__cxx1112basic_stringIcSt11char_traitsIcESaIcEEEEE_clESA_:
.LFB2769:
	.file 8 "cpp/UnicodeLenCounter.cpp"
	.loc 8 35 102
	.cfi_startproc
	pushq	%rbp
	.cfi_def_cfa_offset 16
	.cfi_offset 6, -16
	movq	%rsp, %rbp
	.cfi_def_cfa_register 6
	subq	$16, %rsp
	movq	%rdi, -8(%rbp)
	movq	%rsi, -16(%rbp)
	.loc 8 37 17
	movl	$.LC0, %esi
	movl	$_ZSt4cout, %edi
	call	_ZStlsISt11char_traitsIcEERSt13basic_ostreamIcT_ES5_PKc
	movq	%rax, %rdx
	.loc 8 37 60
	movq	-16(%rbp), %rax
	movl	(%rax), %eax
	.loc 8 37 100
	movl	%eax, %esi
	movq	%rdx, %rdi
	call	_ZNSolsEi
	movl	$.LC1, %esi
	movq	%rax, %rdi
	call	_ZStlsISt11char_traitsIcEERSt13basic_ostreamIcT_ES5_PKc
	movq	%rax, %rdx
	movq	-16(%rbp), %rax
	addq	$8, %rax
	movq	%rax, %rsi
	movq	%rdx, %rdi
	call	_ZStlsIcSt11char_traitsIcESaIcEERSt13basic_ostreamIT_T0_ES7_RKNSt7__cxx1112basic_stringIS4_S5_T1_EE
	.loc 8 37 115
	movl	$_ZSt4endlIcSt11char_traitsIcEERSt13basic_ostreamIT_T0_ES6_, %esi
	movq	%rax, %rdi
	call	_ZNSolsEPFRSoS_E
	.loc 8 38 3
	nop
	leave
	.cfi_def_cfa 7, 8
	ret
	.cfi_endproc
.LFE2769:
	.size	_ZZN3vuh10LenCounterC4EvENKUlSt4pairIKNS0_5StateENSt7__cxx1112basic_stringIcSt11char_traitsIcESaIcEEEEE_clESA_, .-_ZZN3vuh10LenCounterC4EvENKUlSt4pairIKNS0_5StateENSt7__cxx1112basic_stringIcSt11char_traitsIcESaIcEEEEE_clESA_
	.section	.rodata
.LC2:
	.string	"codepoint_start"
.LC3:
	.string	"twobyte_second"
.LC4:
	.string	"threebyte_second"
.LC5:
	.string	"threebyte_third"
.LC6:
	.string	"fourbyte_second"
.LC7:
	.string	"fourbyte_third"
.LC8:
	.string	"fourbyte_fourth"
	.text
	.align 2
	.globl	_ZN3vuh10LenCounterC2Ev
	.type	_ZN3vuh10LenCounterC2Ev, @function
_ZN3vuh10LenCounterC2Ev:
.LFB2772:
	.loc 8 20 1
	.cfi_startproc
	.cfi_personality 0x3,__gxx_personality_v0
	.cfi_lsda 0x3,.LLSDA2772
	pushq	%rbp
	.cfi_def_cfa_offset 16
	.cfi_offset 6, -16
	movq	%rsp, %rbp
	.cfi_def_cfa_register 6
	pushq	%rbx
	subq	$56, %rsp
	.cfi_offset 3, -24
	movq	%rdi, -56(%rbp)
.LBB10:
	.loc 8 23 11
	movq	-56(%rbp), %rax
	movl	$0, (%rax)
	movq	-56(%rbp), %rax
	movw	$0, 4(%rax)
	movq	-56(%rbp), %rax
	movw	$0, 6(%rax)
	movq	-56(%rbp), %rax
	addq	$8, %rax
	movq	%rax, %rdi
	call	_ZNSt3mapIN3vuh10LenCounter5StateENSt7__cxx1112basic_stringIcSt11char_traitsIcESaIcEEESt4lessIS2_ESaISt4pairIKS2_S8_EEEC1Ev
.LBB11:
	.loc 8 27 28
	movl	$0, -48(%rbp)
	movq	-56(%rbp), %rax
	leaq	8(%rax), %rdx
	leaq	-48(%rbp), %rax
	movq	%rax, %rsi
	movq	%rdx, %rdi
.LEHB0:
	call	_ZNSt3mapIN3vuh10LenCounter5StateENSt7__cxx1112basic_stringIcSt11char_traitsIcESaIcEEESt4lessIS2_ESaISt4pairIKS2_S8_EEEixEOS2_
	.loc 8 27 32
	movl	$.LC2, %esi
	movq	%rax, %rdi
	call	_ZNSt7__cxx1112basic_stringIcSt11char_traitsIcESaIcEEaSEPKc
	.loc 8 28 27 discriminator 4
	movl	$1, -44(%rbp)
	movq	-56(%rbp), %rax
	leaq	8(%rax), %rdx
	leaq	-44(%rbp), %rax
	movq	%rax, %rsi
	movq	%rdx, %rdi
	call	_ZNSt3mapIN3vuh10LenCounter5StateENSt7__cxx1112basic_stringIcSt11char_traitsIcESaIcEEESt4lessIS2_ESaISt4pairIKS2_S8_EEEixEOS2_
	.loc 8 28 31 discriminator 4
	movl	$.LC3, %esi
	movq	%rax, %rdi
	call	_ZNSt7__cxx1112basic_stringIcSt11char_traitsIcESaIcEEaSEPKc
	.loc 8 29 29 discriminator 4
	movl	$2, -40(%rbp)
	movq	-56(%rbp), %rax
	leaq	8(%rax), %rdx
	leaq	-40(%rbp), %rax
	movq	%rax, %rsi
	movq	%rdx, %rdi
	call	_ZNSt3mapIN3vuh10LenCounter5StateENSt7__cxx1112basic_stringIcSt11char_traitsIcESaIcEEESt4lessIS2_ESaISt4pairIKS2_S8_EEEixEOS2_
	.loc 8 29 33 discriminator 4
	movl	$.LC4, %esi
	movq	%rax, %rdi
	call	_ZNSt7__cxx1112basic_stringIcSt11char_traitsIcESaIcEEaSEPKc
	.loc 8 30 28 discriminator 4
	movl	$3, -36(%rbp)
	movq	-56(%rbp), %rax
	leaq	8(%rax), %rdx
	leaq	-36(%rbp), %rax
	movq	%rax, %rsi
	movq	%rdx, %rdi
	call	_ZNSt3mapIN3vuh10LenCounter5StateENSt7__cxx1112basic_stringIcSt11char_traitsIcESaIcEEESt4lessIS2_ESaISt4pairIKS2_S8_EEEixEOS2_
	.loc 8 30 32 discriminator 4
	movl	$.LC5, %esi
	movq	%rax, %rdi
	call	_ZNSt7__cxx1112basic_stringIcSt11char_traitsIcESaIcEEaSEPKc
	.loc 8 31 28 discriminator 4
	movl	$4, -32(%rbp)
	movq	-56(%rbp), %rax
	leaq	8(%rax), %rdx
	leaq	-32(%rbp), %rax
	movq	%rax, %rsi
	movq	%rdx, %rdi
	call	_ZNSt3mapIN3vuh10LenCounter5StateENSt7__cxx1112basic_stringIcSt11char_traitsIcESaIcEEESt4lessIS2_ESaISt4pairIKS2_S8_EEEixEOS2_
	.loc 8 31 32 discriminator 4
	movl	$.LC6, %esi
	movq	%rax, %rdi
	call	_ZNSt7__cxx1112basic_stringIcSt11char_traitsIcESaIcEEaSEPKc
	.loc 8 32 27 discriminator 4
	movl	$5, -28(%rbp)
	movq	-56(%rbp), %rax
	leaq	8(%rax), %rdx
	leaq	-28(%rbp), %rax
	movq	%rax, %rsi
	movq	%rdx, %rdi
	call	_ZNSt3mapIN3vuh10LenCounter5StateENSt7__cxx1112basic_stringIcSt11char_traitsIcESaIcEEESt4lessIS2_ESaISt4pairIKS2_S8_EEEixEOS2_
	.loc 8 32 31 discriminator 4
	movl	$.LC7, %esi
	movq	%rax, %rdi
	call	_ZNSt7__cxx1112basic_stringIcSt11char_traitsIcESaIcEEaSEPKc
	.loc 8 33 28 discriminator 4
	movl	$6, -24(%rbp)
	movq	-56(%rbp), %rax
	leaq	8(%rax), %rdx
	leaq	-24(%rbp), %rax
	movq	%rax, %rsi
	movq	%rdx, %rdi
	call	_ZNSt3mapIN3vuh10LenCounter5StateENSt7__cxx1112basic_stringIcSt11char_traitsIcESaIcEEESt4lessIS2_ESaISt4pairIKS2_S8_EEEixEOS2_
	.loc 8 33 32 discriminator 4
	movl	$.LC8, %esi
	movq	%rax, %rdi
	call	_ZNSt7__cxx1112basic_stringIcSt11char_traitsIcESaIcEEaSEPKc
	.loc 8 39 2 discriminator 4
	movq	-56(%rbp), %rax
	addq	$8, %rax
	movq	%rax, %rdi
	call	_ZNKSt3mapIN3vuh10LenCounter5StateENSt7__cxx1112basic_stringIcSt11char_traitsIcESaIcEEESt4lessIS2_ESaISt4pairIKS2_S8_EEE4cendEv
	movq	%rax, %rbx
	movq	-56(%rbp), %rax
	addq	$8, %rax
	movq	%rax, %rdi
	call	_ZNKSt3mapIN3vuh10LenCounter5StateENSt7__cxx1112basic_stringIcSt11char_traitsIcESaIcEEESt4lessIS2_ESaISt4pairIKS2_S8_EEE6cbeginEv
	movq	%rbx, %rsi
	movq	%rax, %rdi
	call	_ZSt8for_eachISt23_Rb_tree_const_iteratorISt4pairIKN3vuh10LenCounter5StateENSt7__cxx1112basic_stringIcSt11char_traitsIcESaIcEEEEEZNS3_C4EvEUlSC_E_ET0_T_SG_SF_
.LEHE0:
.LBE11:
.LBE10:
	.loc 8 41 1
	jmp	.L44
.L43:
	movq	%rax, %rbx
.LBB12:
	.loc 8 23 11
	movq	-56(%rbp), %rax
	addq	$8, %rax
	movq	%rax, %rdi
	call	_ZNSt3mapIN3vuh10LenCounter5StateENSt7__cxx1112basic_stringIcSt11char_traitsIcESaIcEEESt4lessIS2_ESaISt4pairIKS2_S8_EEED1Ev
	movq	%rbx, %rax
	movq	%rax, %rdi
.LEHB1:
	call	_Unwind_Resume
.LEHE1:
.L44:
.LBE12:
	.loc 8 41 1
	addq	$56, %rsp
	popq	%rbx
	popq	%rbp
	.cfi_def_cfa 7, 8
	ret
	.cfi_endproc
.LFE2772:
	.section	.gcc_except_table,"a",@progbits
.LLSDA2772:
	.byte	0xff
	.byte	0xff
	.byte	0x1
	.uleb128 .LLSDACSE2772-.LLSDACSB2772
.LLSDACSB2772:
	.uleb128 .LEHB0-.LFB2772
	.uleb128 .LEHE0-.LEHB0
	.uleb128 .L43-.LFB2772
	.uleb128 0
	.uleb128 .LEHB1-.LFB2772
	.uleb128 .LEHE1-.LEHB1
	.uleb128 0
	.uleb128 0
.LLSDACSE2772:
	.text
	.size	_ZN3vuh10LenCounterC2Ev, .-_ZN3vuh10LenCounterC2Ev
	.globl	_ZN3vuh10LenCounterC1Ev
	.set	_ZN3vuh10LenCounterC1Ev,_ZN3vuh10LenCounterC2Ev
	.align 2
	.globl	_ZN3vuh10LenCounter5resetEv
	.type	_ZN3vuh10LenCounter5resetEv, @function
_ZN3vuh10LenCounter5resetEv:
.LFB2774:
	.loc 8 48 1
	.cfi_startproc
	pushq	%rbp
	.cfi_def_cfa_offset 16
	.cfi_offset 6, -16
	movq	%rsp, %rbp
	.cfi_def_cfa_register 6
	subq	$16, %rsp
	movq	%rdi, -8(%rbp)
	.loc 8 49 10
	movq	-8(%rbp), %rax
	movl	$0, (%rax)
	.loc 8 50 6
	movq	-8(%rbp), %rax
	movw	$0, 4(%rax)
	.loc 8 51 10
	movq	-8(%rbp), %rax
	movw	$0, 6(%rax)
	.loc 8 53 18
	movq	-8(%rbp), %rax
	addq	$8, %rax
	movq	%rax, %rdi
	call	_ZNSt3mapIN3vuh10LenCounter5StateENSt7__cxx1112basic_stringIcSt11char_traitsIcESaIcEEESt4lessIS2_ESaISt4pairIKS2_S8_EEE5clearEv
	.loc 8 55 1
	nop
	leave
	.cfi_def_cfa 7, 8
	ret
	.cfi_endproc
.LFE2774:
	.size	_ZN3vuh10LenCounter5resetEv, .-_ZN3vuh10LenCounter5resetEv
	.section	.rodata
	.align 8
.LC9:
	.string	"vuh::LenCounter::getNumCodePoints: ncp = "
	.text
	.align 2
	.globl	_ZNK3vuh10LenCounter16getNumCodePointsEv
	.type	_ZNK3vuh10LenCounter16getNumCodePointsEv, @function
_ZNK3vuh10LenCounter16getNumCodePointsEv:
.LFB2775:
	.loc 8 61 1
	.cfi_startproc
	pushq	%rbp
	.cfi_def_cfa_offset 16
	.cfi_offset 6, -16
	movq	%rsp, %rbp
	.cfi_def_cfa_register 6
	subq	$16, %rsp
	movq	%rdi, -8(%rbp)
	.loc 8 63 15
	movl	$.LC9, %esi
	movl	$_ZSt4cout, %edi
	call	_ZStlsISt11char_traitsIcEERSt13basic_ostreamIcT_ES5_PKc
	movq	%rax, %rdx
	.loc 8 63 62
	movq	-8(%rbp), %rax
	movzwl	4(%rax), %eax
	cwtl
	movl	%eax, %esi
	movq	%rdx, %rdi
	call	_ZNSolsEs
	.loc 8 63 74
	movl	$_ZSt4endlIcSt11char_traitsIcEERSt13basic_ostreamIT_T0_ES6_, %esi
	movq	%rax, %rdi
	call	_ZNSolsEPFRSoS_E
	.loc 8 65 9
	movq	-8(%rbp), %rax
	movzwl	4(%rax), %eax
	.loc 8 66 1
	leave
	.cfi_def_cfa 7, 8
	ret
	.cfi_endproc
.LFE2775:
	.size	_ZNK3vuh10LenCounter16getNumCodePointsEv, .-_ZNK3vuh10LenCounter16getNumCodePointsEv
	.section	.text._ZNSt6bitsetILm8EEC1Ey,"axG",@progbits,_ZNSt6bitsetILm8EEC1Ey,comdat
	.align 2
	.weak	_ZNSt6bitsetILm8EEC1Ey
	.type	_ZNSt6bitsetILm8EEC1Ey, @function
_ZNSt6bitsetILm8EEC1Ey:
.LFB2779:
	.loc 3 870 17
	.cfi_startproc
	pushq	%rbp
	.cfi_def_cfa_offset 16
	.cfi_offset 6, -16
	movq	%rsp, %rbp
	.cfi_def_cfa_register 6
	pushq	%rbx
	subq	$24, %rsp
	.cfi_offset 3, -24
	movq	%rdi, -24(%rbp)
	movq	%rsi, -32(%rbp)
.LBB13:
	.loc 3 871 60
	movq	-24(%rbp), %rbx
	movq	-32(%rbp), %rax
	movq	%rax, %rdi
	call	_ZNSt13_Sanitize_valILm8ELb1EE18_S_do_sanitize_valEy
	movq	%rax, %rsi
	movq	%rbx, %rdi
	call	_ZNSt12_Base_bitsetILm1EEC2Ey
.LBE13:
	.loc 3 871 64
	nop
	addq	$24, %rsp
	popq	%rbx
	popq	%rbp
	.cfi_def_cfa 7, 8
	ret
	.cfi_endproc
.LFE2779:
	.size	_ZNSt6bitsetILm8EEC1Ey, .-_ZNSt6bitsetILm8EEC1Ey
	.section	.rodata
	.align 8
.LC10:
	.string	"vuh::LenCounter::operator(): current byte = "
.LC11:
	.string	"\tBits = "
.LC12:
	.string	"\tByte value as int = "
.LC13:
	.string	"\tState at start = "
.LC14:
	.string	"\tSingle-byte codepoint"
.LC15:
	.string	"\t2-byte codepoint"
.LC16:
	.string	"\t3-byte codepoint"
.LC17:
	.string	"\t4-byte codepoint"
	.align 8
.LC18:
	.string	"The second byte of a 2-byte code-point is invalid."
	.align 8
.LC19:
	.string	"\tCodepoint # [not including this one = "
	.align 8
.LC20:
	.string	"\t# of bytes processed (not including this one) = "
.LC21:
	.string	"\tThe value of this byte is: "
	.align 8
.LC22:
	.string	"The second byte of a 3-byte code-point is invalid."
	.align 8
.LC23:
	.string	"# of bytes processed (not including this one) = "
	.align 8
.LC24:
	.string	"The third byte of a 3-byte code-point is invalid."
	.align 8
.LC25:
	.string	"The second byte of a 4-byte code-point is invalid."
	.align 8
.LC26:
	.string	"The third byte of a 4-byte code-point is invalid."
	.align 8
.LC27:
	.string	"The fourth byte of a 4-byte code-point is invalid."
	.align 8
.LC28:
	.string	"Object was moved from! Don't use it!"
	.align 8
.LC29:
	.string	"\tvuh::LenCounter::operator(): state at end = "
.LC30:
	.string	"\tCharacter counter @ end = "
.LC31:
	.string	"\t# of code-points @ end = "
	.text
	.align 2
	.globl	_ZN3vuh10LenCounterclEc
	.type	_ZN3vuh10LenCounterclEc, @function
_ZN3vuh10LenCounterclEc:
.LFB2776:
	.loc 8 72 1
	.cfi_startproc
	.cfi_personality 0x3,__gxx_personality_v0
	.cfi_lsda 0x3,.LLSDA2776
	pushq	%rbp
	.cfi_def_cfa_offset 16
	.cfi_offset 6, -16
	movq	%rsp, %rbp
	.cfi_def_cfa_register 6
	pushq	%rbx
	subq	$744, %rsp
	.cfi_offset 3, -24
	movq	%rdi, -744(%rbp)
	movl	%esi, %eax
	movb	%al, -748(%rbp)
	.loc 8 73 55
	movsbq	-748(%rbp), %rdx
	leaq	-216(%rbp), %rax
	movq	%rdx, %rsi
	movq	%rax, %rdi
	call	_ZNSt6bitsetILm8EEC1Ey
	.loc 8 76 65
	movl	$.LC10, %esi
	movl	$_ZSt4cout, %edi
.LEHB2:
	call	_ZStlsISt11char_traitsIcEERSt13basic_ostreamIcT_ES5_PKc
	movq	%rax, %rdx
	movsbl	-748(%rbp), %eax
	movl	%eax, %esi
	movq	%rdx, %rdi
	call	_ZStlsISt11char_traitsIcEERSt13basic_ostreamIcT_ES5_c
	.loc 8 76 75
	movl	$_ZSt4endlIcSt11char_traitsIcEERSt13basic_ostreamIT_T0_ES6_, %esi
	movq	%rax, %rdi
	call	_ZNSolsEPFRSoS_E
	.loc 8 77 20
	movl	$.LC11, %esi
	movq	%rax, %rdi
	call	_ZStlsISt11char_traitsIcEERSt13basic_ostreamIcT_ES5_PKc
	movq	%rax, %rdx
	leaq	-216(%rbp), %rax
	movq	%rax, %rsi
	movq	%rdx, %rdi
	call	_ZStlsIcSt11char_traitsIcELm8EERSt13basic_ostreamIT_T0_ES6_RKSt6bitsetIXT1_EE
	.loc 8 77 37
	movl	$_ZSt4endlIcSt11char_traitsIcEERSt13basic_ostreamIT_T0_ES6_, %esi
	movq	%rax, %rdi
	call	_ZNSolsEPFRSoS_E
	.loc 8 78 5
	movl	$.LC12, %esi
	movq	%rax, %rdi
	call	_ZStlsISt11char_traitsIcEERSt13basic_ostreamIcT_ES5_PKc
	movq	%rax, %rbx
	.loc 8 78 51
	leaq	-216(%rbp), %rax
	movq	%rax, %rdi
	call	_ZNKSt6bitsetILm8EE8to_ulongEv
	movq	%rax, %rsi
	movq	%rbx, %rdi
	call	_ZNSolsEm
	.loc 8 78 61
	movl	$_ZSt4endlIcSt11char_traitsIcEERSt13basic_ostreamIT_T0_ES6_, %esi
	movq	%rax, %rdi
	call	_ZNSolsEPFRSoS_E
	.loc 8 79 48
	movl	$.LC13, %esi
	movq	%rax, %rdi
	call	_ZStlsISt11char_traitsIcEERSt13basic_ostreamIcT_ES5_PKc
	movq	%rax, %rbx
	.loc 8 79 41
	movq	-744(%rbp), %rax
	.loc 8 79 48
	movq	-744(%rbp), %rdx
	addq	$8, %rdx
	movq	%rax, %rsi
	movq	%rdx, %rdi
	call	_ZNSt3mapIN3vuh10LenCounter5StateENSt7__cxx1112basic_stringIcSt11char_traitsIcESaIcEEESt4lessIS2_ESaISt4pairIKS2_S8_EEEixERSC_
	movq	%rax, %rsi
	movq	%rbx, %rdi
	call	_ZStlsIcSt11char_traitsIcESaIcEERSt13basic_ostreamIT_T0_ES7_RKNSt7__cxx1112basic_stringIS4_S5_T1_EE
	.loc 8 79 58
	movl	$_ZSt4endlIcSt11char_traitsIcEERSt13basic_ostreamIT_T0_ES6_, %esi
	movq	%rax, %rdi
	call	_ZNSolsEPFRSoS_E
	.loc 8 79 71
	movl	$_ZSt4endlIcSt11char_traitsIcEERSt13basic_ostreamIT_T0_ES6_, %esi
	movq	%rax, %rdi
	call	_ZNSolsEPFRSoS_E
.LBB14:
	.loc 8 82 10
	movq	-744(%rbp), %rax
	movl	(%rax), %eax
	.loc 8 82 2
	cmpl	$7, %eax
	ja	.L50
	movl	%eax, %eax
	movq	.L52(,%rax,8), %rax
	jmp	*%rax
	.section	.rodata
	.align 8
	.align 4
.L52:
	.quad	.L59
	.quad	.L58
	.quad	.L57
	.quad	.L56
	.quad	.L55
	.quad	.L54
	.quad	.L53
	.quad	.L51
	.text
.L59:
.LBB15:
	.loc 8 86 22
	leaq	-216(%rbp), %rax
	movl	$7, %esi
	movq	%rax, %rdi
	call	_ZNKSt6bitsetILm8EE4testEm
	.loc 8 86 8
	xorl	$1, %eax
	.loc 8 86 4
	testb	%al, %al
	je	.L60
	.loc 8 89 18
	movl	$.LC14, %esi
	movl	$_ZSt4cout, %edi
	call	_ZStlsISt11char_traitsIcEERSt13basic_ostreamIcT_ES5_PKc
	.loc 8 89 52
	movl	$_ZSt4endlIcSt11char_traitsIcEERSt13basic_ostreamIT_T0_ES6_, %esi
	movq	%rax, %rdi
	call	_ZNSolsEPFRSoS_E
	.loc 8 91 7
	movq	-744(%rbp), %rax
	movzwl	4(%rax), %eax
	.loc 8 91 5
	addl	$1, %eax
	movl	%eax, %edx
	movq	-744(%rbp), %rax
	movw	%dx, 4(%rax)
	.loc 8 118 4
	jmp	.L133
.L60:
	.loc 8 94 26
	leaq	-216(%rbp), %rax
	movl	$7, %esi
	movq	%rax, %rdi
	call	_ZNKSt6bitsetILm8EE4testEm
	.loc 8 94 50
	testb	%al, %al
	je	.L62
	.loc 8 94 46 discriminator 2
	leaq	-216(%rbp), %rax
	movl	$6, %esi
	movq	%rax, %rdi
	call	_ZNKSt6bitsetILm8EE4testEm
	.loc 8 94 30 discriminator 2
	testb	%al, %al
	je	.L62
	.loc 8 94 67 discriminator 5
	leaq	-216(%rbp), %rax
	movl	$5, %esi
	movq	%rax, %rdi
	call	_ZNKSt6bitsetILm8EE4testEm
	.loc 8 94 53 discriminator 5
	xorl	$1, %eax
	.loc 8 94 50 discriminator 5
	testb	%al, %al
	je	.L62
	.loc 8 94 50 is_stmt 0 discriminator 8
	movl	$1, %eax
	jmp	.L63
.L62:
	.loc 8 94 50 discriminator 9
	movl	$0, %eax
.L63:
	.loc 8 94 9 is_stmt 1 discriminator 11
	testb	%al, %al
	je	.L64
	.loc 8 97 18
	movl	$.LC15, %esi
	movl	$_ZSt4cout, %edi
	call	_ZStlsISt11char_traitsIcEERSt13basic_ostreamIcT_ES5_PKc
	.loc 8 97 47
	movl	$_ZSt4endlIcSt11char_traitsIcEERSt13basic_ostreamIT_T0_ES6_, %esi
	movq	%rax, %rdi
	call	_ZNSolsEPFRSoS_E
	.loc 8 99 13
	movq	-744(%rbp), %rax
	movl	$1, (%rax)
	.loc 8 118 4
	jmp	.L133
.L64:
	.loc 8 102 26
	leaq	-216(%rbp), %rax
	movl	$7, %esi
	movq	%rax, %rdi
	call	_ZNKSt6bitsetILm8EE4testEm
	.loc 8 102 70
	testb	%al, %al
	je	.L65
	.loc 8 102 46 discriminator 2
	leaq	-216(%rbp), %rax
	movl	$6, %esi
	movq	%rax, %rdi
	call	_ZNKSt6bitsetILm8EE4testEm
	.loc 8 102 30 discriminator 2
	testb	%al, %al
	je	.L65
	.loc 8 102 66 discriminator 5
	leaq	-216(%rbp), %rax
	movl	$5, %esi
	movq	%rax, %rdi
	call	_ZNKSt6bitsetILm8EE4testEm
	.loc 8 102 50 discriminator 5
	testb	%al, %al
	je	.L65
	.loc 8 102 87 discriminator 8
	leaq	-216(%rbp), %rax
	movl	$4, %esi
	movq	%rax, %rdi
	call	_ZNKSt6bitsetILm8EE4testEm
	.loc 8 102 73 discriminator 8
	xorl	$1, %eax
	.loc 8 102 70 discriminator 8
	testb	%al, %al
	je	.L65
	.loc 8 102 70 is_stmt 0 discriminator 11
	movl	$1, %eax
	jmp	.L66
.L65:
	.loc 8 102 70 discriminator 12
	movl	$0, %eax
.L66:
	.loc 8 102 9 is_stmt 1 discriminator 14
	testb	%al, %al
	je	.L67
	.loc 8 105 18
	movl	$.LC16, %esi
	movl	$_ZSt4cout, %edi
	call	_ZStlsISt11char_traitsIcEERSt13basic_ostreamIcT_ES5_PKc
	.loc 8 105 47
	movl	$_ZSt4endlIcSt11char_traitsIcEERSt13basic_ostreamIT_T0_ES6_, %esi
	movq	%rax, %rdi
	call	_ZNSolsEPFRSoS_E
	.loc 8 107 13
	movq	-744(%rbp), %rax
	movl	$2, (%rax)
	.loc 8 118 4
	jmp	.L133
.L67:
	.loc 8 110 26
	leaq	-216(%rbp), %rax
	movl	$7, %esi
	movq	%rax, %rdi
	call	_ZNKSt6bitsetILm8EE4testEm
	.loc 8 110 90
	testb	%al, %al
	je	.L68
	.loc 8 110 46 discriminator 2
	leaq	-216(%rbp), %rax
	movl	$6, %esi
	movq	%rax, %rdi
	call	_ZNKSt6bitsetILm8EE4testEm
	.loc 8 110 30 discriminator 2
	testb	%al, %al
	je	.L68
	.loc 8 110 66 discriminator 5
	leaq	-216(%rbp), %rax
	movl	$5, %esi
	movq	%rax, %rdi
	call	_ZNKSt6bitsetILm8EE4testEm
	.loc 8 110 50 discriminator 5
	testb	%al, %al
	je	.L68
	.loc 8 110 86 discriminator 8
	leaq	-216(%rbp), %rax
	movl	$4, %esi
	movq	%rax, %rdi
	call	_ZNKSt6bitsetILm8EE4testEm
	.loc 8 110 70 discriminator 8
	testb	%al, %al
	je	.L68
	.loc 8 110 107 discriminator 11
	leaq	-216(%rbp), %rax
	movl	$3, %esi
	movq	%rax, %rdi
	call	_ZNKSt6bitsetILm8EE4testEm
	.loc 8 110 93 discriminator 11
	xorl	$1, %eax
	.loc 8 110 90 discriminator 11
	testb	%al, %al
	je	.L68
	.loc 8 110 90 is_stmt 0 discriminator 14
	movl	$1, %eax
	jmp	.L69
.L68:
	.loc 8 110 90 discriminator 15
	movl	$0, %eax
.L69:
	.loc 8 110 9 is_stmt 1 discriminator 17
	testb	%al, %al
	je	.L133
	.loc 8 113 18
	movl	$.LC17, %esi
	movl	$_ZSt4cout, %edi
	call	_ZStlsISt11char_traitsIcEERSt13basic_ostreamIcT_ES5_PKc
	.loc 8 113 47
	movl	$_ZSt4endlIcSt11char_traitsIcEERSt13basic_ostreamIT_T0_ES6_, %esi
	movq	%rax, %rdi
	call	_ZNSolsEPFRSoS_E
	.loc 8 115 13
	movq	-744(%rbp), %rax
	movl	$4, (%rax)
	.loc 8 118 4
	jmp	.L133
.L58:
.LBB16:
.LBB17:
	.loc 8 123 21
	leaq	-216(%rbp), %rax
	movl	$7, %esi
	movq	%rax, %rdi
	call	_ZNKSt6bitsetILm8EE4testEm
	.loc 8 123 25
	testb	%al, %al
	je	.L70
	.loc 8 123 42 discriminator 2
	leaq	-216(%rbp), %rax
	movl	$6, %esi
	movq	%rax, %rdi
	call	_ZNKSt6bitsetILm8EE4testEm
	.loc 8 123 28 discriminator 2
	xorl	$1, %eax
	.loc 8 123 25 discriminator 2
	testb	%al, %al
	je	.L70
	.loc 8 123 25 is_stmt 0 discriminator 5
	movl	$1, %eax
	jmp	.L71
.L70:
	.loc 8 123 25 discriminator 6
	movl	$0, %eax
.L71:
	.loc 8 123 4 is_stmt 1 discriminator 8
	testb	%al, %al
	je	.L72
	.loc 8 126 7
	movq	-744(%rbp), %rax
	movzwl	4(%rax), %eax
	.loc 8 126 5
	addl	$1, %eax
	movl	%eax, %edx
	movq	-744(%rbp), %rax
	movw	%dx, 4(%rax)
	.loc 8 127 13
	movq	-744(%rbp), %rax
	movl	$0, (%rax)
.LBE17:
	.loc 8 141 4
	jmp	.L50
.L72:
.LBB20:
.LBB18:
	.loc 8 132 23
	movl	$8, %esi
	movl	$16, %edi
	call	_ZStorSt13_Ios_OpenmodeS_
	movl	%eax, %edx
	leaq	-736(%rbp), %rax
	movl	%edx, %esi
	movq	%rax, %rdi
	call	_ZNSt7__cxx1118basic_stringstreamIcSt11char_traitsIcESaIcEEC1ESt13_Ios_Openmode
.LEHE2:
	.loc 8 133 13
	leaq	-736(%rbp), %rax
	addq	$16, %rax
	movl	$.LC18, %esi
	movq	%rax, %rdi
.LEHB3:
	call	_ZStlsISt11char_traitsIcEERSt13basic_ostreamIcT_ES5_PKc
	.loc 8 133 74
	movl	$_ZSt4endlIcSt11char_traitsIcEERSt13basic_ostreamIT_T0_ES6_, %esi
	movq	%rax, %rdi
	call	_ZNSolsEPFRSoS_E
	.loc 8 134 9 discriminator 1
	movl	$.LC19, %esi
	movq	%rax, %rdi
	call	_ZStlsISt11char_traitsIcEERSt13basic_ostreamIcT_ES5_PKc
	.loc 8 134 9 is_stmt 0 discriminator 2
	movq	%rax, %rdx
	.loc 8 134 55 is_stmt 1 discriminator 2
	movq	-744(%rbp), %rax
	movzwl	4(%rax), %eax
	cwtl
	movl	%eax, %esi
	movq	%rdx, %rdi
	call	_ZNSolsEs
	.loc 8 134 67 discriminator 1
	movl	$_ZSt4endlIcSt11char_traitsIcEERSt13basic_ostreamIT_T0_ES6_, %esi
	movq	%rax, %rdi
	call	_ZNSolsEPFRSoS_E
	.loc 8 135 9 discriminator 2
	movl	$.LC20, %esi
	movq	%rax, %rdi
	call	_ZStlsISt11char_traitsIcEERSt13basic_ostreamIcT_ES5_PKc
	.loc 8 135 9 is_stmt 0 discriminator 3
	movq	%rax, %rdx
	.loc 8 135 65 is_stmt 1 discriminator 3
	movq	-744(%rbp), %rax
	movzwl	6(%rax), %eax
	cwtl
	movl	%eax, %esi
	movq	%rdx, %rdi
	call	_ZNSolsEs
	.loc 8 135 81 discriminator 1
	movl	$_ZSt4endlIcSt11char_traitsIcEERSt13basic_ostreamIT_T0_ES6_, %esi
	movq	%rax, %rdi
	call	_ZNSolsEPFRSoS_E
	.loc 8 136 44 discriminator 2
	movl	$.LC21, %esi
	movq	%rax, %rdi
	call	_ZStlsISt11char_traitsIcEERSt13basic_ostreamIcT_ES5_PKc
	.loc 8 136 44 is_stmt 0 discriminator 3
	movq	%rax, %rdx
	leaq	-216(%rbp), %rax
	movq	%rax, %rsi
	movq	%rdx, %rdi
	call	_ZStlsIcSt11char_traitsIcELm8EERSt13basic_ostreamIT_T0_ES6_RKSt6bitsetIXT1_EE
	.loc 8 136 61 is_stmt 1 discriminator 1
	movl	$_ZSt4endlIcSt11char_traitsIcEERSt13basic_ostreamIT_T0_ES6_, %esi
	movq	%rax, %rdi
	call	_ZNSolsEPFRSoS_E
	.loc 8 137 34
	leaq	-208(%rbp), %rax
	leaq	-736(%rbp), %rdx
	movq	%rdx, %rsi
	movq	%rax, %rdi
	call	_ZNKSt7__cxx1118basic_stringstreamIcSt11char_traitsIcESaIcEE3strEv
.LEHE3:
	.loc 8 137 36 discriminator 1
	leaq	-208(%rbp), %rdx
	leaq	-240(%rbp), %rax
	movq	%rdx, %rsi
	movq	%rax, %rdi
.LEHB4:
	call	_ZNSt11logic_errorC1ERKNSt7__cxx1112basic_stringIcSt11char_traitsIcESaIcEEE
.LEHE4:
	leaq	-208(%rbp), %rax
	movq	%rax, %rdi
	call	_ZNSt7__cxx1112basic_stringIcSt11char_traitsIcESaIcEED1Ev
	.loc 8 138 11
	movl	$16, %edi
	call	__cxa_allocate_exception
	movq	%rax, %rbx
	leaq	-240(%rbp), %rax
	movq	%rax, %rsi
	movq	%rbx, %rdi
	call	_ZNSt11logic_errorC1ERKS_
	movl	$_ZNSt11logic_errorD1Ev, %edx
	movl	$_ZTISt11logic_error, %esi
	movq	%rbx, %rdi
.LEHB5:
	call	__cxa_throw
.LEHE5:
.L57:
.LBE18:
.LBE20:
.LBE16:
.LBB22:
.LBB23:
	.loc 8 146 21
	leaq	-216(%rbp), %rax
	movl	$7, %esi
	movq	%rax, %rdi
.LEHB6:
	call	_ZNKSt6bitsetILm8EE4testEm
	.loc 8 146 25
	testb	%al, %al
	je	.L74
	.loc 8 146 42 discriminator 2
	leaq	-216(%rbp), %rax
	movl	$6, %esi
	movq	%rax, %rdi
	call	_ZNKSt6bitsetILm8EE4testEm
	.loc 8 146 28 discriminator 2
	xorl	$1, %eax
	.loc 8 146 25 discriminator 2
	testb	%al, %al
	je	.L74
	.loc 8 146 25 is_stmt 0 discriminator 5
	movl	$1, %eax
	jmp	.L75
.L74:
	.loc 8 146 25 discriminator 6
	movl	$0, %eax
.L75:
	.loc 8 146 4 is_stmt 1 discriminator 8
	testb	%al, %al
	je	.L76
	.loc 8 149 13
	movq	-744(%rbp), %rax
	movl	$3, (%rax)
.LBE23:
	.loc 8 163 4
	jmp	.L50
.L76:
.LBB26:
.LBB24:
	.loc 8 154 23
	movl	$8, %esi
	movl	$16, %edi
	call	_ZStorSt13_Ios_OpenmodeS_
	movl	%eax, %edx
	leaq	-736(%rbp), %rax
	movl	%edx, %esi
	movq	%rax, %rdi
	call	_ZNSt7__cxx1118basic_stringstreamIcSt11char_traitsIcESaIcEEC1ESt13_Ios_Openmode
.LEHE6:
	.loc 8 155 13
	leaq	-736(%rbp), %rax
	addq	$16, %rax
	movl	$.LC22, %esi
	movq	%rax, %rdi
.LEHB7:
	call	_ZStlsISt11char_traitsIcEERSt13basic_ostreamIcT_ES5_PKc
	.loc 8 155 74
	movl	$_ZSt4endlIcSt11char_traitsIcEERSt13basic_ostreamIT_T0_ES6_, %esi
	movq	%rax, %rdi
	call	_ZNSolsEPFRSoS_E
	.loc 8 156 9 discriminator 1
	movl	$.LC19, %esi
	movq	%rax, %rdi
	call	_ZStlsISt11char_traitsIcEERSt13basic_ostreamIcT_ES5_PKc
	.loc 8 156 9 is_stmt 0 discriminator 2
	movq	%rax, %rdx
	.loc 8 156 55 is_stmt 1 discriminator 2
	movq	-744(%rbp), %rax
	movzwl	4(%rax), %eax
	cwtl
	movl	%eax, %esi
	movq	%rdx, %rdi
	call	_ZNSolsEs
	.loc 8 156 67 discriminator 1
	movl	$_ZSt4endlIcSt11char_traitsIcEERSt13basic_ostreamIT_T0_ES6_, %esi
	movq	%rax, %rdi
	call	_ZNSolsEPFRSoS_E
	.loc 8 157 9 discriminator 2
	movl	$.LC23, %esi
	movq	%rax, %rdi
	call	_ZStlsISt11char_traitsIcEERSt13basic_ostreamIcT_ES5_PKc
	.loc 8 157 9 is_stmt 0 discriminator 3
	movq	%rax, %rdx
	.loc 8 157 63 is_stmt 1 discriminator 3
	movq	-744(%rbp), %rax
	movzwl	6(%rax), %eax
	cwtl
	movl	%eax, %esi
	movq	%rdx, %rdi
	call	_ZNSolsEs
	.loc 8 157 79 discriminator 1
	movl	$_ZSt4endlIcSt11char_traitsIcEERSt13basic_ostreamIT_T0_ES6_, %esi
	movq	%rax, %rdi
	call	_ZNSolsEPFRSoS_E
	.loc 8 158 44 discriminator 2
	movl	$.LC21, %esi
	movq	%rax, %rdi
	call	_ZStlsISt11char_traitsIcEERSt13basic_ostreamIcT_ES5_PKc
	.loc 8 158 44 is_stmt 0 discriminator 3
	movq	%rax, %rdx
	leaq	-216(%rbp), %rax
	movq	%rax, %rsi
	movq	%rdx, %rdi
	call	_ZStlsIcSt11char_traitsIcELm8EERSt13basic_ostreamIT_T0_ES6_RKSt6bitsetIXT1_EE
	.loc 8 158 61 is_stmt 1 discriminator 1
	movl	$_ZSt4endlIcSt11char_traitsIcEERSt13basic_ostreamIT_T0_ES6_, %esi
	movq	%rax, %rdi
	call	_ZNSolsEPFRSoS_E
	.loc 8 159 34
	leaq	-176(%rbp), %rax
	leaq	-736(%rbp), %rdx
	movq	%rdx, %rsi
	movq	%rax, %rdi
	call	_ZNKSt7__cxx1118basic_stringstreamIcSt11char_traitsIcESaIcEE3strEv
.LEHE7:
	.loc 8 159 36 discriminator 1
	leaq	-176(%rbp), %rdx
	leaq	-256(%rbp), %rax
	movq	%rdx, %rsi
	movq	%rax, %rdi
.LEHB8:
	call	_ZNSt11logic_errorC1ERKNSt7__cxx1112basic_stringIcSt11char_traitsIcESaIcEEE
.LEHE8:
	leaq	-176(%rbp), %rax
	movq	%rax, %rdi
	call	_ZNSt7__cxx1112basic_stringIcSt11char_traitsIcESaIcEED1Ev
	.loc 8 160 11
	movl	$16, %edi
	call	__cxa_allocate_exception
	movq	%rax, %rbx
	leaq	-256(%rbp), %rax
	movq	%rax, %rsi
	movq	%rbx, %rdi
	call	_ZNSt11logic_errorC1ERKS_
	movl	$_ZNSt11logic_errorD1Ev, %edx
	movl	$_ZTISt11logic_error, %esi
	movq	%rbx, %rdi
.LEHB9:
	call	__cxa_throw
.LEHE9:
.L56:
.LBE24:
.LBE26:
.LBE22:
.LBB28:
.LBB29:
	.loc 8 168 21
	leaq	-216(%rbp), %rax
	movl	$7, %esi
	movq	%rax, %rdi
.LEHB10:
	call	_ZNKSt6bitsetILm8EE4testEm
	.loc 8 168 25
	testb	%al, %al
	je	.L78
	.loc 8 168 42 discriminator 2
	leaq	-216(%rbp), %rax
	movl	$6, %esi
	movq	%rax, %rdi
	call	_ZNKSt6bitsetILm8EE4testEm
	.loc 8 168 28 discriminator 2
	xorl	$1, %eax
	.loc 8 168 25 discriminator 2
	testb	%al, %al
	je	.L78
	.loc 8 168 25 is_stmt 0 discriminator 5
	movl	$1, %eax
	jmp	.L79
.L78:
	.loc 8 168 25 discriminator 6
	movl	$0, %eax
.L79:
	.loc 8 168 4 is_stmt 1 discriminator 8
	testb	%al, %al
	je	.L80
	.loc 8 171 7
	movq	-744(%rbp), %rax
	movzwl	4(%rax), %eax
	.loc 8 171 5
	addl	$1, %eax
	movl	%eax, %edx
	movq	-744(%rbp), %rax
	movw	%dx, 4(%rax)
	.loc 8 172 13
	movq	-744(%rbp), %rax
	movl	$0, (%rax)
.LBE29:
	.loc 8 186 4
	jmp	.L50
.L80:
.LBB32:
.LBB30:
	.loc 8 177 23
	movl	$8, %esi
	movl	$16, %edi
	call	_ZStorSt13_Ios_OpenmodeS_
	movl	%eax, %edx
	leaq	-736(%rbp), %rax
	movl	%edx, %esi
	movq	%rax, %rdi
	call	_ZNSt7__cxx1118basic_stringstreamIcSt11char_traitsIcESaIcEEC1ESt13_Ios_Openmode
.LEHE10:
	.loc 8 178 13
	leaq	-736(%rbp), %rax
	addq	$16, %rax
	movl	$.LC24, %esi
	movq	%rax, %rdi
.LEHB11:
	call	_ZStlsISt11char_traitsIcEERSt13basic_ostreamIcT_ES5_PKc
	.loc 8 178 73
	movl	$_ZSt4endlIcSt11char_traitsIcEERSt13basic_ostreamIT_T0_ES6_, %esi
	movq	%rax, %rdi
	call	_ZNSolsEPFRSoS_E
	.loc 8 179 9 discriminator 1
	movl	$.LC19, %esi
	movq	%rax, %rdi
	call	_ZStlsISt11char_traitsIcEERSt13basic_ostreamIcT_ES5_PKc
	.loc 8 179 9 is_stmt 0 discriminator 2
	movq	%rax, %rdx
	.loc 8 179 55 is_stmt 1 discriminator 2
	movq	-744(%rbp), %rax
	movzwl	4(%rax), %eax
	cwtl
	movl	%eax, %esi
	movq	%rdx, %rdi
	call	_ZNSolsEs
	.loc 8 179 67 discriminator 1
	movl	$_ZSt4endlIcSt11char_traitsIcEERSt13basic_ostreamIT_T0_ES6_, %esi
	movq	%rax, %rdi
	call	_ZNSolsEPFRSoS_E
	.loc 8 180 9 discriminator 2
	movl	$.LC23, %esi
	movq	%rax, %rdi
	call	_ZStlsISt11char_traitsIcEERSt13basic_ostreamIcT_ES5_PKc
	.loc 8 180 9 is_stmt 0 discriminator 3
	movq	%rax, %rdx
	.loc 8 180 63 is_stmt 1 discriminator 3
	movq	-744(%rbp), %rax
	movzwl	6(%rax), %eax
	cwtl
	movl	%eax, %esi
	movq	%rdx, %rdi
	call	_ZNSolsEs
	.loc 8 180 79 discriminator 1
	movl	$_ZSt4endlIcSt11char_traitsIcEERSt13basic_ostreamIT_T0_ES6_, %esi
	movq	%rax, %rdi
	call	_ZNSolsEPFRSoS_E
	.loc 8 181 44 discriminator 2
	movl	$.LC21, %esi
	movq	%rax, %rdi
	call	_ZStlsISt11char_traitsIcEERSt13basic_ostreamIcT_ES5_PKc
	.loc 8 181 44 is_stmt 0 discriminator 3
	movq	%rax, %rdx
	leaq	-216(%rbp), %rax
	movq	%rax, %rsi
	movq	%rdx, %rdi
	call	_ZStlsIcSt11char_traitsIcELm8EERSt13basic_ostreamIT_T0_ES6_RKSt6bitsetIXT1_EE
	.loc 8 181 61 is_stmt 1 discriminator 1
	movl	$_ZSt4endlIcSt11char_traitsIcEERSt13basic_ostreamIT_T0_ES6_, %esi
	movq	%rax, %rdi
	call	_ZNSolsEPFRSoS_E
	.loc 8 182 34
	leaq	-144(%rbp), %rax
	leaq	-736(%rbp), %rdx
	movq	%rdx, %rsi
	movq	%rax, %rdi
	call	_ZNKSt7__cxx1118basic_stringstreamIcSt11char_traitsIcESaIcEE3strEv
.LEHE11:
	.loc 8 182 36 discriminator 1
	leaq	-144(%rbp), %rdx
	leaq	-272(%rbp), %rax
	movq	%rdx, %rsi
	movq	%rax, %rdi
.LEHB12:
	call	_ZNSt11logic_errorC1ERKNSt7__cxx1112basic_stringIcSt11char_traitsIcESaIcEEE
.LEHE12:
	leaq	-144(%rbp), %rax
	movq	%rax, %rdi
	call	_ZNSt7__cxx1112basic_stringIcSt11char_traitsIcESaIcEED1Ev
	.loc 8 183 11
	movl	$16, %edi
	call	__cxa_allocate_exception
	movq	%rax, %rbx
	leaq	-272(%rbp), %rax
	movq	%rax, %rsi
	movq	%rbx, %rdi
	call	_ZNSt11logic_errorC1ERKS_
	movl	$_ZNSt11logic_errorD1Ev, %edx
	movl	$_ZTISt11logic_error, %esi
	movq	%rbx, %rdi
.LEHB13:
	call	__cxa_throw
.LEHE13:
.L55:
.LBE30:
.LBE32:
.LBE28:
.LBB34:
.LBB35:
	.loc 8 191 21
	leaq	-216(%rbp), %rax
	movl	$7, %esi
	movq	%rax, %rdi
.LEHB14:
	call	_ZNKSt6bitsetILm8EE4testEm
	.loc 8 191 25
	testb	%al, %al
	je	.L82
	.loc 8 191 42 discriminator 2
	leaq	-216(%rbp), %rax
	movl	$6, %esi
	movq	%rax, %rdi
	call	_ZNKSt6bitsetILm8EE4testEm
	.loc 8 191 28 discriminator 2
	xorl	$1, %eax
	.loc 8 191 25 discriminator 2
	testb	%al, %al
	je	.L82
	.loc 8 191 25 is_stmt 0 discriminator 5
	movl	$1, %eax
	jmp	.L83
.L82:
	.loc 8 191 25 discriminator 6
	movl	$0, %eax
.L83:
	.loc 8 191 4 is_stmt 1 discriminator 8
	testb	%al, %al
	je	.L84
	.loc 8 194 13
	movq	-744(%rbp), %rax
	movl	$5, (%rax)
.LBE35:
	.loc 8 208 4
	jmp	.L50
.L84:
.LBB38:
.LBB36:
	.loc 8 199 23
	movl	$8, %esi
	movl	$16, %edi
	call	_ZStorSt13_Ios_OpenmodeS_
	movl	%eax, %edx
	leaq	-736(%rbp), %rax
	movl	%edx, %esi
	movq	%rax, %rdi
	call	_ZNSt7__cxx1118basic_stringstreamIcSt11char_traitsIcESaIcEEC1ESt13_Ios_Openmode
.LEHE14:
	.loc 8 200 13
	leaq	-736(%rbp), %rax
	addq	$16, %rax
	movl	$.LC25, %esi
	movq	%rax, %rdi
.LEHB15:
	call	_ZStlsISt11char_traitsIcEERSt13basic_ostreamIcT_ES5_PKc
	.loc 8 200 74
	movl	$_ZSt4endlIcSt11char_traitsIcEERSt13basic_ostreamIT_T0_ES6_, %esi
	movq	%rax, %rdi
	call	_ZNSolsEPFRSoS_E
	.loc 8 201 9 discriminator 1
	movl	$.LC19, %esi
	movq	%rax, %rdi
	call	_ZStlsISt11char_traitsIcEERSt13basic_ostreamIcT_ES5_PKc
	.loc 8 201 9 is_stmt 0 discriminator 2
	movq	%rax, %rdx
	.loc 8 201 55 is_stmt 1 discriminator 2
	movq	-744(%rbp), %rax
	movzwl	4(%rax), %eax
	cwtl
	movl	%eax, %esi
	movq	%rdx, %rdi
	call	_ZNSolsEs
	.loc 8 201 67 discriminator 1
	movl	$_ZSt4endlIcSt11char_traitsIcEERSt13basic_ostreamIT_T0_ES6_, %esi
	movq	%rax, %rdi
	call	_ZNSolsEPFRSoS_E
	.loc 8 202 9 discriminator 2
	movl	$.LC23, %esi
	movq	%rax, %rdi
	call	_ZStlsISt11char_traitsIcEERSt13basic_ostreamIcT_ES5_PKc
	.loc 8 202 9 is_stmt 0 discriminator 3
	movq	%rax, %rdx
	.loc 8 202 63 is_stmt 1 discriminator 3
	movq	-744(%rbp), %rax
	movzwl	6(%rax), %eax
	cwtl
	movl	%eax, %esi
	movq	%rdx, %rdi
	call	_ZNSolsEs
	.loc 8 202 79 discriminator 1
	movl	$_ZSt4endlIcSt11char_traitsIcEERSt13basic_ostreamIT_T0_ES6_, %esi
	movq	%rax, %rdi
	call	_ZNSolsEPFRSoS_E
	.loc 8 203 44 discriminator 2
	movl	$.LC21, %esi
	movq	%rax, %rdi
	call	_ZStlsISt11char_traitsIcEERSt13basic_ostreamIcT_ES5_PKc
	.loc 8 203 44 is_stmt 0 discriminator 3
	movq	%rax, %rdx
	leaq	-216(%rbp), %rax
	movq	%rax, %rsi
	movq	%rdx, %rdi
	call	_ZStlsIcSt11char_traitsIcELm8EERSt13basic_ostreamIT_T0_ES6_RKSt6bitsetIXT1_EE
	.loc 8 203 61 is_stmt 1 discriminator 1
	movl	$_ZSt4endlIcSt11char_traitsIcEERSt13basic_ostreamIT_T0_ES6_, %esi
	movq	%rax, %rdi
	call	_ZNSolsEPFRSoS_E
	.loc 8 204 34
	leaq	-112(%rbp), %rax
	leaq	-736(%rbp), %rdx
	movq	%rdx, %rsi
	movq	%rax, %rdi
	call	_ZNKSt7__cxx1118basic_stringstreamIcSt11char_traitsIcESaIcEE3strEv
.LEHE15:
	.loc 8 204 36 discriminator 1
	leaq	-112(%rbp), %rdx
	leaq	-288(%rbp), %rax
	movq	%rdx, %rsi
	movq	%rax, %rdi
.LEHB16:
	call	_ZNSt11logic_errorC1ERKNSt7__cxx1112basic_stringIcSt11char_traitsIcESaIcEEE
.LEHE16:
	leaq	-112(%rbp), %rax
	movq	%rax, %rdi
	call	_ZNSt7__cxx1112basic_stringIcSt11char_traitsIcESaIcEED1Ev
	.loc 8 205 11
	movl	$16, %edi
	call	__cxa_allocate_exception
	movq	%rax, %rbx
	leaq	-288(%rbp), %rax
	movq	%rax, %rsi
	movq	%rbx, %rdi
	call	_ZNSt11logic_errorC1ERKS_
	movl	$_ZNSt11logic_errorD1Ev, %edx
	movl	$_ZTISt11logic_error, %esi
	movq	%rbx, %rdi
.LEHB17:
	call	__cxa_throw
.LEHE17:
.L54:
.LBE36:
.LBE38:
.LBE34:
.LBB40:
.LBB41:
	.loc 8 213 21
	leaq	-216(%rbp), %rax
	movl	$7, %esi
	movq	%rax, %rdi
.LEHB18:
	call	_ZNKSt6bitsetILm8EE4testEm
	.loc 8 213 25
	testb	%al, %al
	je	.L86
	.loc 8 213 42 discriminator 2
	leaq	-216(%rbp), %rax
	movl	$6, %esi
	movq	%rax, %rdi
	call	_ZNKSt6bitsetILm8EE4testEm
	.loc 8 213 28 discriminator 2
	xorl	$1, %eax
	.loc 8 213 25 discriminator 2
	testb	%al, %al
	je	.L86
	.loc 8 213 25 is_stmt 0 discriminator 5
	movl	$1, %eax
	jmp	.L87
.L86:
	.loc 8 213 25 discriminator 6
	movl	$0, %eax
.L87:
	.loc 8 213 4 is_stmt 1 discriminator 8
	testb	%al, %al
	je	.L88
	.loc 8 216 13
	movq	-744(%rbp), %rax
	movl	$6, (%rax)
.LBE41:
	.loc 8 230 4
	jmp	.L50
.L88:
.LBB44:
.LBB42:
	.loc 8 221 23
	movl	$8, %esi
	movl	$16, %edi
	call	_ZStorSt13_Ios_OpenmodeS_
	movl	%eax, %edx
	leaq	-736(%rbp), %rax
	movl	%edx, %esi
	movq	%rax, %rdi
	call	_ZNSt7__cxx1118basic_stringstreamIcSt11char_traitsIcESaIcEEC1ESt13_Ios_Openmode
.LEHE18:
	.loc 8 222 13
	leaq	-736(%rbp), %rax
	addq	$16, %rax
	movl	$.LC26, %esi
	movq	%rax, %rdi
.LEHB19:
	call	_ZStlsISt11char_traitsIcEERSt13basic_ostreamIcT_ES5_PKc
	.loc 8 222 73
	movl	$_ZSt4endlIcSt11char_traitsIcEERSt13basic_ostreamIT_T0_ES6_, %esi
	movq	%rax, %rdi
	call	_ZNSolsEPFRSoS_E
	.loc 8 223 9 discriminator 1
	movl	$.LC19, %esi
	movq	%rax, %rdi
	call	_ZStlsISt11char_traitsIcEERSt13basic_ostreamIcT_ES5_PKc
	.loc 8 223 9 is_stmt 0 discriminator 2
	movq	%rax, %rdx
	.loc 8 223 55 is_stmt 1 discriminator 2
	movq	-744(%rbp), %rax
	movzwl	4(%rax), %eax
	cwtl
	movl	%eax, %esi
	movq	%rdx, %rdi
	call	_ZNSolsEs
	.loc 8 223 67 discriminator 1
	movl	$_ZSt4endlIcSt11char_traitsIcEERSt13basic_ostreamIT_T0_ES6_, %esi
	movq	%rax, %rdi
	call	_ZNSolsEPFRSoS_E
	.loc 8 224 9 discriminator 2
	movl	$.LC23, %esi
	movq	%rax, %rdi
	call	_ZStlsISt11char_traitsIcEERSt13basic_ostreamIcT_ES5_PKc
	.loc 8 224 9 is_stmt 0 discriminator 3
	movq	%rax, %rdx
	.loc 8 224 63 is_stmt 1 discriminator 3
	movq	-744(%rbp), %rax
	movzwl	6(%rax), %eax
	cwtl
	movl	%eax, %esi
	movq	%rdx, %rdi
	call	_ZNSolsEs
	.loc 8 224 79 discriminator 1
	movl	$_ZSt4endlIcSt11char_traitsIcEERSt13basic_ostreamIT_T0_ES6_, %esi
	movq	%rax, %rdi
	call	_ZNSolsEPFRSoS_E
	.loc 8 225 44 discriminator 2
	movl	$.LC21, %esi
	movq	%rax, %rdi
	call	_ZStlsISt11char_traitsIcEERSt13basic_ostreamIcT_ES5_PKc
	.loc 8 225 44 is_stmt 0 discriminator 3
	movq	%rax, %rdx
	leaq	-216(%rbp), %rax
	movq	%rax, %rsi
	movq	%rdx, %rdi
	call	_ZStlsIcSt11char_traitsIcELm8EERSt13basic_ostreamIT_T0_ES6_RKSt6bitsetIXT1_EE
	.loc 8 225 61 is_stmt 1 discriminator 1
	movl	$_ZSt4endlIcSt11char_traitsIcEERSt13basic_ostreamIT_T0_ES6_, %esi
	movq	%rax, %rdi
	call	_ZNSolsEPFRSoS_E
	.loc 8 226 34
	leaq	-80(%rbp), %rax
	leaq	-736(%rbp), %rdx
	movq	%rdx, %rsi
	movq	%rax, %rdi
	call	_ZNKSt7__cxx1118basic_stringstreamIcSt11char_traitsIcESaIcEE3strEv
.LEHE19:
	.loc 8 226 36 discriminator 1
	leaq	-80(%rbp), %rdx
	leaq	-304(%rbp), %rax
	movq	%rdx, %rsi
	movq	%rax, %rdi
.LEHB20:
	call	_ZNSt11logic_errorC1ERKNSt7__cxx1112basic_stringIcSt11char_traitsIcESaIcEEE
.LEHE20:
	leaq	-80(%rbp), %rax
	movq	%rax, %rdi
	call	_ZNSt7__cxx1112basic_stringIcSt11char_traitsIcESaIcEED1Ev
	.loc 8 227 11
	movl	$16, %edi
	call	__cxa_allocate_exception
	movq	%rax, %rbx
	leaq	-304(%rbp), %rax
	movq	%rax, %rsi
	movq	%rbx, %rdi
	call	_ZNSt11logic_errorC1ERKS_
	movl	$_ZNSt11logic_errorD1Ev, %edx
	movl	$_ZTISt11logic_error, %esi
	movq	%rbx, %rdi
.LEHB21:
	call	__cxa_throw
.LEHE21:
.L53:
.LBE42:
.LBE44:
.LBE40:
.LBB46:
.LBB47:
	.loc 8 235 21
	leaq	-216(%rbp), %rax
	movl	$7, %esi
	movq	%rax, %rdi
.LEHB22:
	call	_ZNKSt6bitsetILm8EE4testEm
	.loc 8 235 25
	testb	%al, %al
	je	.L90
	.loc 8 235 42 discriminator 2
	leaq	-216(%rbp), %rax
	movl	$6, %esi
	movq	%rax, %rdi
	call	_ZNKSt6bitsetILm8EE4testEm
	.loc 8 235 28 discriminator 2
	xorl	$1, %eax
	.loc 8 235 25 discriminator 2
	testb	%al, %al
	je	.L90
	.loc 8 235 25 is_stmt 0 discriminator 5
	movl	$1, %eax
	jmp	.L91
.L90:
	.loc 8 235 25 discriminator 6
	movl	$0, %eax
.L91:
	.loc 8 235 4 is_stmt 1 discriminator 8
	testb	%al, %al
	je	.L92
	.loc 8 238 13
	movq	-744(%rbp), %rax
	movl	$0, (%rax)
	.loc 8 239 7
	movq	-744(%rbp), %rax
	movzwl	4(%rax), %eax
	.loc 8 239 5
	addl	$1, %eax
	movl	%eax, %edx
	movq	-744(%rbp), %rax
	movw	%dx, 4(%rax)
.LBE47:
	.loc 8 253 4
	jmp	.L50
.L92:
.LBB50:
.LBB48:
	.loc 8 244 23
	movl	$8, %esi
	movl	$16, %edi
	call	_ZStorSt13_Ios_OpenmodeS_
	movl	%eax, %edx
	leaq	-736(%rbp), %rax
	movl	%edx, %esi
	movq	%rax, %rdi
	call	_ZNSt7__cxx1118basic_stringstreamIcSt11char_traitsIcESaIcEEC1ESt13_Ios_Openmode
.LEHE22:
	.loc 8 245 13
	leaq	-736(%rbp), %rax
	addq	$16, %rax
	movl	$.LC27, %esi
	movq	%rax, %rdi
.LEHB23:
	call	_ZStlsISt11char_traitsIcEERSt13basic_ostreamIcT_ES5_PKc
	.loc 8 245 74
	movl	$_ZSt4endlIcSt11char_traitsIcEERSt13basic_ostreamIT_T0_ES6_, %esi
	movq	%rax, %rdi
	call	_ZNSolsEPFRSoS_E
	.loc 8 246 9 discriminator 1
	movl	$.LC19, %esi
	movq	%rax, %rdi
	call	_ZStlsISt11char_traitsIcEERSt13basic_ostreamIcT_ES5_PKc
	.loc 8 246 9 is_stmt 0 discriminator 2
	movq	%rax, %rdx
	.loc 8 246 55 is_stmt 1 discriminator 2
	movq	-744(%rbp), %rax
	movzwl	4(%rax), %eax
	cwtl
	movl	%eax, %esi
	movq	%rdx, %rdi
	call	_ZNSolsEs
	.loc 8 246 67 discriminator 1
	movl	$_ZSt4endlIcSt11char_traitsIcEERSt13basic_ostreamIT_T0_ES6_, %esi
	movq	%rax, %rdi
	call	_ZNSolsEPFRSoS_E
	.loc 8 247 9 discriminator 2
	movl	$.LC23, %esi
	movq	%rax, %rdi
	call	_ZStlsISt11char_traitsIcEERSt13basic_ostreamIcT_ES5_PKc
	.loc 8 247 9 is_stmt 0 discriminator 3
	movq	%rax, %rdx
	.loc 8 247 63 is_stmt 1 discriminator 3
	movq	-744(%rbp), %rax
	movzwl	6(%rax), %eax
	cwtl
	movl	%eax, %esi
	movq	%rdx, %rdi
	call	_ZNSolsEs
	.loc 8 247 79 discriminator 1
	movl	$_ZSt4endlIcSt11char_traitsIcEERSt13basic_ostreamIT_T0_ES6_, %esi
	movq	%rax, %rdi
	call	_ZNSolsEPFRSoS_E
	.loc 8 248 44 discriminator 2
	movl	$.LC21, %esi
	movq	%rax, %rdi
	call	_ZStlsISt11char_traitsIcEERSt13basic_ostreamIcT_ES5_PKc
	.loc 8 248 44 is_stmt 0 discriminator 3
	movq	%rax, %rdx
	leaq	-216(%rbp), %rax
	movq	%rax, %rsi
	movq	%rdx, %rdi
	call	_ZStlsIcSt11char_traitsIcELm8EERSt13basic_ostreamIT_T0_ES6_RKSt6bitsetIXT1_EE
	.loc 8 248 61 is_stmt 1 discriminator 1
	movl	$_ZSt4endlIcSt11char_traitsIcEERSt13basic_ostreamIT_T0_ES6_, %esi
	movq	%rax, %rdi
	call	_ZNSolsEPFRSoS_E
	.loc 8 249 34
	leaq	-48(%rbp), %rax
	leaq	-736(%rbp), %rdx
	movq	%rdx, %rsi
	movq	%rax, %rdi
	call	_ZNKSt7__cxx1118basic_stringstreamIcSt11char_traitsIcESaIcEE3strEv
.LEHE23:
	.loc 8 249 36 discriminator 1
	leaq	-48(%rbp), %rdx
	leaq	-320(%rbp), %rax
	movq	%rdx, %rsi
	movq	%rax, %rdi
.LEHB24:
	call	_ZNSt11logic_errorC1ERKNSt7__cxx1112basic_stringIcSt11char_traitsIcESaIcEEE
.LEHE24:
	leaq	-48(%rbp), %rax
	movq	%rax, %rdi
	call	_ZNSt7__cxx1112basic_stringIcSt11char_traitsIcESaIcEED1Ev
	.loc 8 250 11
	movl	$16, %edi
	call	__cxa_allocate_exception
	movq	%rax, %rbx
	leaq	-320(%rbp), %rax
	movq	%rax, %rsi
	movq	%rbx, %rdi
	call	_ZNSt11logic_errorC1ERKS_
	movl	$_ZNSt11logic_errorD1Ev, %edx
	movl	$_ZTISt11logic_error, %esi
	movq	%rbx, %rdi
.LEHB25:
	call	__cxa_throw
.LEHE25:
.L51:
.LBE48:
.LBE50:
.LBE46:
.LBB52:
	.loc 8 258 63
	leaq	-336(%rbp), %rax
	movl	$.LC28, %esi
	movq	%rax, %rdi
.LEHB26:
	call	_ZNSt11logic_errorC1EPKc
.LEHE26:
	.loc 8 259 10
	movl	$16, %edi
	call	__cxa_allocate_exception
	movq	%rax, %rbx
	leaq	-336(%rbp), %rax
	movq	%rax, %rsi
	movq	%rbx, %rdi
	call	_ZNSt11logic_errorC1ERKS_
	movl	$_ZNSt11logic_errorD1Ev, %edx
	movl	$_ZTISt11logic_error, %esi
	movq	%rbx, %rdi
.LEHB27:
	call	__cxa_throw
.LEHE27:
.L133:
.LBE52:
	.loc 8 118 4
	nop
.L50:
.LBE15:
.LBE14:
	.loc 8 264 4
	movq	-744(%rbp), %rax
	movzwl	6(%rax), %eax
	.loc 8 264 2
	addl	$1, %eax
	movl	%eax, %edx
	movq	-744(%rbp), %rax
	movw	%dx, 6(%rax)
	.loc 8 267 85
	movl	$.LC29, %esi
	movl	$_ZSt4cout, %edi
.LEHB28:
	call	_ZStlsISt11char_traitsIcEERSt13basic_ostreamIcT_ES5_PKc
	movq	%rax, %rbx
	.loc 8 267 78
	movq	-744(%rbp), %rax
	.loc 8 267 85
	movq	-744(%rbp), %rdx
	addq	$8, %rdx
	movq	%rax, %rsi
	movq	%rdx, %rdi
	call	_ZNSt3mapIN3vuh10LenCounter5StateENSt7__cxx1112basic_stringIcSt11char_traitsIcESaIcEEESt4lessIS2_ESaISt4pairIKS2_S8_EEEixERSC_
	movq	%rax, %rsi
	movq	%rbx, %rdi
	call	_ZStlsIcSt11char_traitsIcESaIcEERSt13basic_ostreamIT_T0_ES7_RKNSt7__cxx1112basic_stringIS4_S5_T1_EE
	.loc 8 267 95
	movl	$_ZSt4endlIcSt11char_traitsIcEERSt13basic_ostreamIT_T0_ES6_, %esi
	movq	%rax, %rdi
	call	_ZNSolsEPFRSoS_E
	.loc 8 268 5
	movl	$.LC30, %esi
	movq	%rax, %rdi
	call	_ZStlsISt11char_traitsIcEERSt13basic_ostreamIcT_ES5_PKc
	movq	%rax, %rdx
	.loc 8 268 39
	movq	-744(%rbp), %rax
	movzwl	6(%rax), %eax
	cwtl
	movl	%eax, %esi
	movq	%rdx, %rdi
	call	_ZNSolsEs
	.loc 8 268 55
	movl	$_ZSt4endlIcSt11char_traitsIcEERSt13basic_ostreamIT_T0_ES6_, %esi
	movq	%rax, %rdi
	call	_ZNSolsEPFRSoS_E
	.loc 8 269 5
	movl	$.LC31, %esi
	movq	%rax, %rdi
	call	_ZStlsISt11char_traitsIcEERSt13basic_ostreamIcT_ES5_PKc
	movq	%rax, %rdx
	.loc 8 269 38
	movq	-744(%rbp), %rax
	movzwl	4(%rax), %eax
	cwtl
	movl	%eax, %esi
	movq	%rdx, %rdi
	call	_ZNSolsEs
	.loc 8 269 50
	movl	$_ZSt4endlIcSt11char_traitsIcEERSt13basic_ostreamIT_T0_ES6_, %esi
	movq	%rax, %rdi
	call	_ZNSolsEPFRSoS_E
	.loc 8 271 1
	jmp	.L132
.L114:
	movq	%rax, %rbx
.LBB61:
.LBB60:
.LBB53:
.LBB21:
.LBB19:
	leaq	-208(%rbp), %rax
	movq	%rax, %rdi
	call	_ZNSt7__cxx1112basic_stringIcSt11char_traitsIcESaIcEED1Ev
	jmp	.L95
.L115:
	movq	%rax, %rbx
	.loc 8 137 36
	leaq	-240(%rbp), %rax
	movq	%rax, %rdi
	call	_ZNSt11logic_errorD1Ev
	jmp	.L95
.L113:
	movq	%rax, %rbx
.L95:
	.loc 8 132 23
	leaq	-736(%rbp), %rax
	movq	%rax, %rdi
	call	_ZNSt7__cxx1118basic_stringstreamIcSt11char_traitsIcESaIcEED1Ev
	movq	%rbx, %rax
	movq	%rax, %rdi
	call	_Unwind_Resume
.L117:
	movq	%rax, %rbx
.LBE19:
.LBE21:
.LBE53:
.LBB54:
.LBB27:
.LBB25:
	leaq	-176(%rbp), %rax
	movq	%rax, %rdi
	call	_ZNSt7__cxx1112basic_stringIcSt11char_traitsIcESaIcEED1Ev
	jmp	.L98
.L118:
	movq	%rax, %rbx
	.loc 8 159 36
	leaq	-256(%rbp), %rax
	movq	%rax, %rdi
	call	_ZNSt11logic_errorD1Ev
	jmp	.L98
.L116:
	movq	%rax, %rbx
.L98:
	.loc 8 154 23
	leaq	-736(%rbp), %rax
	movq	%rax, %rdi
	call	_ZNSt7__cxx1118basic_stringstreamIcSt11char_traitsIcESaIcEED1Ev
	movq	%rbx, %rax
	movq	%rax, %rdi
	call	_Unwind_Resume
.L120:
	movq	%rax, %rbx
.LBE25:
.LBE27:
.LBE54:
.LBB55:
.LBB33:
.LBB31:
	leaq	-144(%rbp), %rax
	movq	%rax, %rdi
	call	_ZNSt7__cxx1112basic_stringIcSt11char_traitsIcESaIcEED1Ev
	jmp	.L101
.L121:
	movq	%rax, %rbx
	.loc 8 182 36
	leaq	-272(%rbp), %rax
	movq	%rax, %rdi
	call	_ZNSt11logic_errorD1Ev
	jmp	.L101
.L119:
	movq	%rax, %rbx
.L101:
	.loc 8 177 23
	leaq	-736(%rbp), %rax
	movq	%rax, %rdi
	call	_ZNSt7__cxx1118basic_stringstreamIcSt11char_traitsIcESaIcEED1Ev
	movq	%rbx, %rax
	movq	%rax, %rdi
	call	_Unwind_Resume
.L123:
	movq	%rax, %rbx
.LBE31:
.LBE33:
.LBE55:
.LBB56:
.LBB39:
.LBB37:
	leaq	-112(%rbp), %rax
	movq	%rax, %rdi
	call	_ZNSt7__cxx1112basic_stringIcSt11char_traitsIcESaIcEED1Ev
	jmp	.L104
.L124:
	movq	%rax, %rbx
	.loc 8 204 36
	leaq	-288(%rbp), %rax
	movq	%rax, %rdi
	call	_ZNSt11logic_errorD1Ev
	jmp	.L104
.L122:
	movq	%rax, %rbx
.L104:
	.loc 8 199 23
	leaq	-736(%rbp), %rax
	movq	%rax, %rdi
	call	_ZNSt7__cxx1118basic_stringstreamIcSt11char_traitsIcESaIcEED1Ev
	movq	%rbx, %rax
	movq	%rax, %rdi
	call	_Unwind_Resume
.L126:
	movq	%rax, %rbx
.LBE37:
.LBE39:
.LBE56:
.LBB57:
.LBB45:
.LBB43:
	leaq	-80(%rbp), %rax
	movq	%rax, %rdi
	call	_ZNSt7__cxx1112basic_stringIcSt11char_traitsIcESaIcEED1Ev
	jmp	.L107
.L127:
	movq	%rax, %rbx
	.loc 8 226 36
	leaq	-304(%rbp), %rax
	movq	%rax, %rdi
	call	_ZNSt11logic_errorD1Ev
	jmp	.L107
.L125:
	movq	%rax, %rbx
.L107:
	.loc 8 221 23
	leaq	-736(%rbp), %rax
	movq	%rax, %rdi
	call	_ZNSt7__cxx1118basic_stringstreamIcSt11char_traitsIcESaIcEED1Ev
	movq	%rbx, %rax
	movq	%rax, %rdi
	call	_Unwind_Resume
.L129:
	movq	%rax, %rbx
.LBE43:
.LBE45:
.LBE57:
.LBB58:
.LBB51:
.LBB49:
	leaq	-48(%rbp), %rax
	movq	%rax, %rdi
	call	_ZNSt7__cxx1112basic_stringIcSt11char_traitsIcESaIcEED1Ev
	jmp	.L110
.L130:
	movq	%rax, %rbx
	.loc 8 249 36
	leaq	-320(%rbp), %rax
	movq	%rax, %rdi
	call	_ZNSt11logic_errorD1Ev
	jmp	.L110
.L128:
	movq	%rax, %rbx
.L110:
	.loc 8 244 23
	leaq	-736(%rbp), %rax
	movq	%rax, %rdi
	call	_ZNSt7__cxx1118basic_stringstreamIcSt11char_traitsIcESaIcEED1Ev
	movq	%rbx, %rax
	movq	%rax, %rdi
	call	_Unwind_Resume
.L131:
	movq	%rax, %rbx
.LBE49:
.LBE51:
.LBE58:
.LBB59:
	.loc 8 258 63
	leaq	-336(%rbp), %rax
	movq	%rax, %rdi
	call	_ZNSt11logic_errorD1Ev
	movq	%rbx, %rax
	movq	%rax, %rdi
	call	_Unwind_Resume
.LEHE28:
.L132:
.LBE59:
.LBE60:
.LBE61:
	.loc 8 271 1
	addq	$744, %rsp
	popq	%rbx
	popq	%rbp
	.cfi_def_cfa 7, 8
	ret
	.cfi_endproc
.LFE2776:
	.section	.gcc_except_table
.LLSDA2776:
	.byte	0xff
	.byte	0xff
	.byte	0x1
	.uleb128 .LLSDACSE2776-.LLSDACSB2776
.LLSDACSB2776:
	.uleb128 .LEHB2-.LFB2776
	.uleb128 .LEHE2-.LEHB2
	.uleb128 0
	.uleb128 0
	.uleb128 .LEHB3-.LFB2776
	.uleb128 .LEHE3-.LEHB3
	.uleb128 .L113-.LFB2776
	.uleb128 0
	.uleb128 .LEHB4-.LFB2776
	.uleb128 .LEHE4-.LEHB4
	.uleb128 .L114-.LFB2776
	.uleb128 0
	.uleb128 .LEHB5-.LFB2776
	.uleb128 .LEHE5-.LEHB5
	.uleb128 .L115-.LFB2776
	.uleb128 0
	.uleb128 .LEHB6-.LFB2776
	.uleb128 .LEHE6-.LEHB6
	.uleb128 0
	.uleb128 0
	.uleb128 .LEHB7-.LFB2776
	.uleb128 .LEHE7-.LEHB7
	.uleb128 .L116-.LFB2776
	.uleb128 0
	.uleb128 .LEHB8-.LFB2776
	.uleb128 .LEHE8-.LEHB8
	.uleb128 .L117-.LFB2776
	.uleb128 0
	.uleb128 .LEHB9-.LFB2776
	.uleb128 .LEHE9-.LEHB9
	.uleb128 .L118-.LFB2776
	.uleb128 0
	.uleb128 .LEHB10-.LFB2776
	.uleb128 .LEHE10-.LEHB10
	.uleb128 0
	.uleb128 0
	.uleb128 .LEHB11-.LFB2776
	.uleb128 .LEHE11-.LEHB11
	.uleb128 .L119-.LFB2776
	.uleb128 0
	.uleb128 .LEHB12-.LFB2776
	.uleb128 .LEHE12-.LEHB12
	.uleb128 .L120-.LFB2776
	.uleb128 0
	.uleb128 .LEHB13-.LFB2776
	.uleb128 .LEHE13-.LEHB13
	.uleb128 .L121-.LFB2776
	.uleb128 0
	.uleb128 .LEHB14-.LFB2776
	.uleb128 .LEHE14-.LEHB14
	.uleb128 0
	.uleb128 0
	.uleb128 .LEHB15-.LFB2776
	.uleb128 .LEHE15-.LEHB15
	.uleb128 .L122-.LFB2776
	.uleb128 0
	.uleb128 .LEHB16-.LFB2776
	.uleb128 .LEHE16-.LEHB16
	.uleb128 .L123-.LFB2776
	.uleb128 0
	.uleb128 .LEHB17-.LFB2776
	.uleb128 .LEHE17-.LEHB17
	.uleb128 .L124-.LFB2776
	.uleb128 0
	.uleb128 .LEHB18-.LFB2776
	.uleb128 .LEHE18-.LEHB18
	.uleb128 0
	.uleb128 0
	.uleb128 .LEHB19-.LFB2776
	.uleb128 .LEHE19-.LEHB19
	.uleb128 .L125-.LFB2776
	.uleb128 0
	.uleb128 .LEHB20-.LFB2776
	.uleb128 .LEHE20-.LEHB20
	.uleb128 .L126-.LFB2776
	.uleb128 0
	.uleb128 .LEHB21-.LFB2776
	.uleb128 .LEHE21-.LEHB21
	.uleb128 .L127-.LFB2776
	.uleb128 0
	.uleb128 .LEHB22-.LFB2776
	.uleb128 .LEHE22-.LEHB22
	.uleb128 0
	.uleb128 0
	.uleb128 .LEHB23-.LFB2776
	.uleb128 .LEHE23-.LEHB23
	.uleb128 .L128-.LFB2776
	.uleb128 0
	.uleb128 .LEHB24-.LFB2776
	.uleb128 .LEHE24-.LEHB24
	.uleb128 .L129-.LFB2776
	.uleb128 0
	.uleb128 .LEHB25-.LFB2776
	.uleb128 .LEHE25-.LEHB25
	.uleb128 .L130-.LFB2776
	.uleb128 0
	.uleb128 .LEHB26-.LFB2776
	.uleb128 .LEHE26-.LEHB26
	.uleb128 0
	.uleb128 0
	.uleb128 .LEHB27-.LFB2776
	.uleb128 .LEHE27-.LEHB27
	.uleb128 .L131-.LFB2776
	.uleb128 0
	.uleb128 .LEHB28-.LFB2776
	.uleb128 .LEHE28-.LEHB28
	.uleb128 0
	.uleb128 0
.LLSDACSE2776:
	.text
	.size	_ZN3vuh10LenCounterclEc, .-_ZN3vuh10LenCounterclEc
	.section	.text._ZNSt3mapIN3vuh10LenCounter5StateENSt7__cxx1112basic_stringIcSt11char_traitsIcESaIcEEESt4lessIS2_ESaISt4pairIKS2_S8_EEEC2ERKSF_,"axG",@progbits,_ZNSt3mapIN3vuh10LenCounter5StateENSt7__cxx1112basic_stringIcSt11char_traitsIcESaIcEEESt4lessIS2_ESaISt4pairIKS2_S8_EEEC5ERKSF_,comdat
	.align 2
	.weak	_ZNSt3mapIN3vuh10LenCounter5StateENSt7__cxx1112basic_stringIcSt11char_traitsIcESaIcEEESt4lessIS2_ESaISt4pairIKS2_S8_EEEC2ERKSF_
	.type	_ZNSt3mapIN3vuh10LenCounter5StateENSt7__cxx1112basic_stringIcSt11char_traitsIcESaIcEEESt4lessIS2_ESaISt4pairIKS2_S8_EEEC2ERKSF_, @function
_ZNSt3mapIN3vuh10LenCounter5StateENSt7__cxx1112basic_stringIcSt11char_traitsIcESaIcEEESt4lessIS2_ESaISt4pairIKS2_S8_EEEC2ERKSF_:
.LFB2782:
	.loc 7 205 7
	.cfi_startproc
	pushq	%rbp
	.cfi_def_cfa_offset 16
	.cfi_offset 6, -16
	movq	%rsp, %rbp
	.cfi_def_cfa_register 6
	subq	$16, %rsp
	movq	%rdi, -8(%rbp)
	movq	%rsi, -16(%rbp)
.LBB62:
	.loc 7 205 7
	movq	-8(%rbp), %rax
	movq	-16(%rbp), %rdx
	movq	%rdx, %rsi
	movq	%rax, %rdi
	call	_ZNSt8_Rb_treeIN3vuh10LenCounter5StateESt4pairIKS2_NSt7__cxx1112basic_stringIcSt11char_traitsIcESaIcEEEESt10_Select1stISB_ESt4lessIS2_ESaISB_EEC1ERKSH_
.LBE62:
	nop
	leave
	.cfi_def_cfa 7, 8
	ret
	.cfi_endproc
.LFE2782:
	.size	_ZNSt3mapIN3vuh10LenCounter5StateENSt7__cxx1112basic_stringIcSt11char_traitsIcESaIcEEESt4lessIS2_ESaISt4pairIKS2_S8_EEEC2ERKSF_, .-_ZNSt3mapIN3vuh10LenCounter5StateENSt7__cxx1112basic_stringIcSt11char_traitsIcESaIcEEESt4lessIS2_ESaISt4pairIKS2_S8_EEEC2ERKSF_
	.weak	_ZNSt3mapIN3vuh10LenCounter5StateENSt7__cxx1112basic_stringIcSt11char_traitsIcESaIcEEESt4lessIS2_ESaISt4pairIKS2_S8_EEEC1ERKSF_
	.set	_ZNSt3mapIN3vuh10LenCounter5StateENSt7__cxx1112basic_stringIcSt11char_traitsIcESaIcEEESt4lessIS2_ESaISt4pairIKS2_S8_EEEC1ERKSF_,_ZNSt3mapIN3vuh10LenCounter5StateENSt7__cxx1112basic_stringIcSt11char_traitsIcESaIcEEESt4lessIS2_ESaISt4pairIKS2_S8_EEEC2ERKSF_
	.text
	.align 2
	.globl	_ZN3vuh10LenCounterC2ERKS0_
	.type	_ZN3vuh10LenCounterC2ERKS0_, @function
_ZN3vuh10LenCounterC2ERKS0_:
.LFB2784:
	.loc 8 277 1
	.cfi_startproc
	pushq	%rbp
	.cfi_def_cfa_offset 16
	.cfi_offset 6, -16
	movq	%rsp, %rbp
	.cfi_def_cfa_register 6
	subq	$16, %rsp
	movq	%rdi, -8(%rbp)
	movq	%rsi, -16(%rbp)
.LBB63:
	.loc 8 278 16
	movq	-16(%rbp), %rax
	movl	(%rax), %edx
	.loc 8 282 31
	movq	-8(%rbp), %rax
	movl	%edx, (%rax)
	.loc 8 279 12
	movq	-16(%rbp), %rax
	movzwl	4(%rax), %edx
	.loc 8 282 31
	movq	-8(%rbp), %rax
	movw	%dx, 4(%rax)
	.loc 8 280 16
	movq	-16(%rbp), %rax
	movzwl	6(%rax), %edx
	.loc 8 282 31
	movq	-8(%rbp), %rax
	movw	%dx, 6(%rax)
	movq	-8(%rbp), %rax
	addq	$8, %rax
	.loc 8 282 21
	movq	-16(%rbp), %rdx
	addq	$8, %rdx
	.loc 8 282 31
	movq	%rdx, %rsi
	movq	%rax, %rdi
	call	_ZNSt3mapIN3vuh10LenCounter5StateENSt7__cxx1112basic_stringIcSt11char_traitsIcESaIcEEESt4lessIS2_ESaISt4pairIKS2_S8_EEEC1ERKSF_
.LBE63:
	.loc 8 285 1
	nop
	leave
	.cfi_def_cfa 7, 8
	ret
	.cfi_endproc
.LFE2784:
	.size	_ZN3vuh10LenCounterC2ERKS0_, .-_ZN3vuh10LenCounterC2ERKS0_
	.globl	_ZN3vuh10LenCounterC1ERKS0_
	.set	_ZN3vuh10LenCounterC1ERKS0_,_ZN3vuh10LenCounterC2ERKS0_
	.section	.text._ZNSt8_Rb_treeIN3vuh10LenCounter5StateESt4pairIKS2_NSt7__cxx1112basic_stringIcSt11char_traitsIcESaIcEEEESt10_Select1stISB_ESt4lessIS2_ESaISB_EE13_Rb_tree_implISF_Lb1EEC2EOSJ_,"axG",@progbits,_ZNSt8_Rb_treeIN3vuh10LenCounter5StateESt4pairIKS2_NSt7__cxx1112basic_stringIcSt11char_traitsIcESaIcEEEESt10_Select1stISB_ESt4lessIS2_ESaISB_EE13_Rb_tree_implISF_Lb1EEC5EOSJ_,comdat
	.align 2
	.weak	_ZNSt8_Rb_treeIN3vuh10LenCounter5StateESt4pairIKS2_NSt7__cxx1112basic_stringIcSt11char_traitsIcESaIcEEEESt10_Select1stISB_ESt4lessIS2_ESaISB_EE13_Rb_tree_implISF_Lb1EEC2EOSJ_
	.type	_ZNSt8_Rb_treeIN3vuh10LenCounter5StateESt4pairIKS2_NSt7__cxx1112basic_stringIcSt11char_traitsIcESaIcEEEESt10_Select1stISB_ESt4lessIS2_ESaISB_EE13_Rb_tree_implISF_Lb1EEC2EOSJ_, @function
_ZNSt8_Rb_treeIN3vuh10LenCounter5StateESt4pairIKS2_NSt7__cxx1112basic_stringIcSt11char_traitsIcESaIcEEEESt10_Select1stISB_ESt4lessIS2_ESaISB_EE13_Rb_tree_implISF_Lb1EEC2EOSJ_:
.LFB2790:
	.loc 6 716 4
	.cfi_startproc
	pushq	%rbp
	.cfi_def_cfa_offset 16
	.cfi_offset 6, -16
	movq	%rsp, %rbp
	.cfi_def_cfa_register 6
	subq	$16, %rsp
	movq	%rdi, -8(%rbp)
	movq	%rsi, -16(%rbp)
.LBB64:
	.loc 6 716 4
	movq	-16(%rbp), %rdx
	movq	-8(%rbp), %rax
	movq	%rdx, %rsi
	movq	%rax, %rdi
	call	_ZNSaISt13_Rb_tree_nodeISt4pairIKN3vuh10LenCounter5StateENSt7__cxx1112basic_stringIcSt11char_traitsIcESaIcEEEEEEC2ERKSD_
	movq	-8(%rbp), %rax
	movq	-16(%rbp), %rdx
	movq	%rdx, %rsi
	movq	%rax, %rdi
	call	_ZNSt20_Rb_tree_key_compareISt4lessIN3vuh10LenCounter5StateEEEC2EOS5_
	movq	-8(%rbp), %rax
	addq	$8, %rax
	movq	-16(%rbp), %rdx
	addq	$8, %rdx
	movq	%rdx, %rsi
	movq	%rax, %rdi
	call	_ZNSt15_Rb_tree_headerC2EOS_
.LBE64:
	nop
	leave
	.cfi_def_cfa 7, 8
	ret
	.cfi_endproc
.LFE2790:
	.size	_ZNSt8_Rb_treeIN3vuh10LenCounter5StateESt4pairIKS2_NSt7__cxx1112basic_stringIcSt11char_traitsIcESaIcEEEESt10_Select1stISB_ESt4lessIS2_ESaISB_EE13_Rb_tree_implISF_Lb1EEC2EOSJ_, .-_ZNSt8_Rb_treeIN3vuh10LenCounter5StateESt4pairIKS2_NSt7__cxx1112basic_stringIcSt11char_traitsIcESaIcEEEESt10_Select1stISB_ESt4lessIS2_ESaISB_EE13_Rb_tree_implISF_Lb1EEC2EOSJ_
	.weak	_ZNSt8_Rb_treeIN3vuh10LenCounter5StateESt4pairIKS2_NSt7__cxx1112basic_stringIcSt11char_traitsIcESaIcEEEESt10_Select1stISB_ESt4lessIS2_ESaISB_EE13_Rb_tree_implISF_Lb1EEC1EOSJ_
	.set	_ZNSt8_Rb_treeIN3vuh10LenCounter5StateESt4pairIKS2_NSt7__cxx1112basic_stringIcSt11char_traitsIcESaIcEEEESt10_Select1stISB_ESt4lessIS2_ESaISB_EE13_Rb_tree_implISF_Lb1EEC1EOSJ_,_ZNSt8_Rb_treeIN3vuh10LenCounter5StateESt4pairIKS2_NSt7__cxx1112basic_stringIcSt11char_traitsIcESaIcEEEESt10_Select1stISB_ESt4lessIS2_ESaISB_EE13_Rb_tree_implISF_Lb1EEC2EOSJ_
	.section	.text._ZNSt8_Rb_treeIN3vuh10LenCounter5StateESt4pairIKS2_NSt7__cxx1112basic_stringIcSt11char_traitsIcESaIcEEEESt10_Select1stISB_ESt4lessIS2_ESaISB_EEC2EOSH_,"axG",@progbits,_ZNSt8_Rb_treeIN3vuh10LenCounter5StateESt4pairIKS2_NSt7__cxx1112basic_stringIcSt11char_traitsIcESaIcEEEESt10_Select1stISB_ESt4lessIS2_ESaISB_EEC5EOSH_,comdat
	.align 2
	.weak	_ZNSt8_Rb_treeIN3vuh10LenCounter5StateESt4pairIKS2_NSt7__cxx1112basic_stringIcSt11char_traitsIcESaIcEEEESt10_Select1stISB_ESt4lessIS2_ESaISB_EEC2EOSH_
	.type	_ZNSt8_Rb_treeIN3vuh10LenCounter5StateESt4pairIKS2_NSt7__cxx1112basic_stringIcSt11char_traitsIcESaIcEEEESt10_Select1stISB_ESt4lessIS2_ESaISB_EEC2EOSH_, @function
_ZNSt8_Rb_treeIN3vuh10LenCounter5StateESt4pairIKS2_NSt7__cxx1112basic_stringIcSt11char_traitsIcESaIcEEEESt10_Select1stISB_ESt4lessIS2_ESaISB_EEC2EOSH_:
.LFB2792:
	.loc 6 955 7
	.cfi_startproc
	pushq	%rbp
	.cfi_def_cfa_offset 16
	.cfi_offset 6, -16
	movq	%rsp, %rbp
	.cfi_def_cfa_register 6
	subq	$16, %rsp
	movq	%rdi, -8(%rbp)
	movq	%rsi, -16(%rbp)
.LBB65:
	.loc 6 955 7
	movq	-8(%rbp), %rax
	movq	-16(%rbp), %rdx
	movq	%rdx, %rsi
	movq	%rax, %rdi
	call	_ZNSt8_Rb_treeIN3vuh10LenCounter5StateESt4pairIKS2_NSt7__cxx1112basic_stringIcSt11char_traitsIcESaIcEEEESt10_Select1stISB_ESt4lessIS2_ESaISB_EE13_Rb_tree_implISF_Lb1EEC1EOSJ_
.LBE65:
	nop
	leave
	.cfi_def_cfa 7, 8
	ret
	.cfi_endproc
.LFE2792:
	.size	_ZNSt8_Rb_treeIN3vuh10LenCounter5StateESt4pairIKS2_NSt7__cxx1112basic_stringIcSt11char_traitsIcESaIcEEEESt10_Select1stISB_ESt4lessIS2_ESaISB_EEC2EOSH_, .-_ZNSt8_Rb_treeIN3vuh10LenCounter5StateESt4pairIKS2_NSt7__cxx1112basic_stringIcSt11char_traitsIcESaIcEEEESt10_Select1stISB_ESt4lessIS2_ESaISB_EEC2EOSH_
	.weak	_ZNSt8_Rb_treeIN3vuh10LenCounter5StateESt4pairIKS2_NSt7__cxx1112basic_stringIcSt11char_traitsIcESaIcEEEESt10_Select1stISB_ESt4lessIS2_ESaISB_EEC1EOSH_
	.set	_ZNSt8_Rb_treeIN3vuh10LenCounter5StateESt4pairIKS2_NSt7__cxx1112basic_stringIcSt11char_traitsIcESaIcEEEESt10_Select1stISB_ESt4lessIS2_ESaISB_EEC1EOSH_,_ZNSt8_Rb_treeIN3vuh10LenCounter5StateESt4pairIKS2_NSt7__cxx1112basic_stringIcSt11char_traitsIcESaIcEEEESt10_Select1stISB_ESt4lessIS2_ESaISB_EEC2EOSH_
	.section	.text._ZNSt3mapIN3vuh10LenCounter5StateENSt7__cxx1112basic_stringIcSt11char_traitsIcESaIcEEESt4lessIS2_ESaISt4pairIKS2_S8_EEEC2EOSF_,"axG",@progbits,_ZNSt3mapIN3vuh10LenCounter5StateENSt7__cxx1112basic_stringIcSt11char_traitsIcESaIcEEESt4lessIS2_ESaISt4pairIKS2_S8_EEEC5EOSF_,comdat
	.align 2
	.weak	_ZNSt3mapIN3vuh10LenCounter5StateENSt7__cxx1112basic_stringIcSt11char_traitsIcESaIcEEESt4lessIS2_ESaISt4pairIKS2_S8_EEEC2EOSF_
	.type	_ZNSt3mapIN3vuh10LenCounter5StateENSt7__cxx1112basic_stringIcSt11char_traitsIcESaIcEEESt4lessIS2_ESaISt4pairIKS2_S8_EEEC2EOSF_, @function
_ZNSt3mapIN3vuh10LenCounter5StateENSt7__cxx1112basic_stringIcSt11char_traitsIcESaIcEEESt4lessIS2_ESaISt4pairIKS2_S8_EEEC2EOSF_:
.LFB2794:
	.loc 7 213 7
	.cfi_startproc
	pushq	%rbp
	.cfi_def_cfa_offset 16
	.cfi_offset 6, -16
	movq	%rsp, %rbp
	.cfi_def_cfa_register 6
	subq	$16, %rsp
	movq	%rdi, -8(%rbp)
	movq	%rsi, -16(%rbp)
.LBB66:
	.loc 7 213 7
	movq	-8(%rbp), %rax
	movq	-16(%rbp), %rdx
	movq	%rdx, %rsi
	movq	%rax, %rdi
	call	_ZNSt8_Rb_treeIN3vuh10LenCounter5StateESt4pairIKS2_NSt7__cxx1112basic_stringIcSt11char_traitsIcESaIcEEEESt10_Select1stISB_ESt4lessIS2_ESaISB_EEC1EOSH_
.LBE66:
	nop
	leave
	.cfi_def_cfa 7, 8
	ret
	.cfi_endproc
.LFE2794:
	.size	_ZNSt3mapIN3vuh10LenCounter5StateENSt7__cxx1112basic_stringIcSt11char_traitsIcESaIcEEESt4lessIS2_ESaISt4pairIKS2_S8_EEEC2EOSF_, .-_ZNSt3mapIN3vuh10LenCounter5StateENSt7__cxx1112basic_stringIcSt11char_traitsIcESaIcEEESt4lessIS2_ESaISt4pairIKS2_S8_EEEC2EOSF_
	.weak	_ZNSt3mapIN3vuh10LenCounter5StateENSt7__cxx1112basic_stringIcSt11char_traitsIcESaIcEEESt4lessIS2_ESaISt4pairIKS2_S8_EEEC1EOSF_
	.set	_ZNSt3mapIN3vuh10LenCounter5StateENSt7__cxx1112basic_stringIcSt11char_traitsIcESaIcEEESt4lessIS2_ESaISt4pairIKS2_S8_EEEC1EOSF_,_ZNSt3mapIN3vuh10LenCounter5StateENSt7__cxx1112basic_stringIcSt11char_traitsIcESaIcEEESt4lessIS2_ESaISt4pairIKS2_S8_EEEC2EOSF_
	.text
	.align 2
	.globl	_ZN3vuh10LenCounterC2EOS0_
	.type	_ZN3vuh10LenCounterC2EOS0_, @function
_ZN3vuh10LenCounterC2EOS0_:
.LFB2796:
	.loc 8 291 1
	.cfi_startproc
	.cfi_personality 0x3,__gxx_personality_v0
	.cfi_lsda 0x3,.LLSDA2796
	pushq	%rbp
	.cfi_def_cfa_offset 16
	.cfi_offset 6, -16
	movq	%rsp, %rbp
	.cfi_def_cfa_register 6
	pushq	%rbx
	subq	$88, %rsp
	.cfi_offset 3, -24
	movq	%rdi, -88(%rbp)
	movq	%rsi, -96(%rbp)
.LBB67:
	.loc 8 292 39
	movl	$7, -76(%rbp)
	.loc 8 292 30
	movq	-96(%rbp), %rax
	.loc 8 292 23
	leaq	-76(%rbp), %rdx
	movq	%rdx, %rsi
	movq	%rax, %rdi
.LEHB29:
	call	_ZSt8exchangeIN3vuh10LenCounter5StateES2_ET_RS3_OT0_
	movl	%eax, %edx
	.loc 8 296 78
	movq	-88(%rbp), %rax
	movl	%edx, (%rax)
	.loc 8 293 31
	movl	$-1, -72(%rbp)
	.loc 8 293 26
	movq	-96(%rbp), %rax
	leaq	4(%rax), %rdx
	.loc 8 293 19
	leaq	-72(%rbp), %rax
	movq	%rax, %rsi
	movq	%rdx, %rdi
	call	_ZSt8exchangeIsiET_RS0_OT0_
	movl	%eax, %edx
	.loc 8 296 78
	movq	-88(%rbp), %rax
	movw	%dx, 4(%rax)
	.loc 8 294 39
	movl	$-1, -68(%rbp)
	.loc 8 294 30
	movq	-96(%rbp), %rax
	leaq	6(%rax), %rdx
	.loc 8 294 23
	leaq	-68(%rbp), %rax
	movq	%rax, %rsi
	movq	%rdx, %rdi
	call	_ZSt8exchangeIsiET_RS0_OT0_
.LEHE29:
	movl	%eax, %edx
	.loc 8 296 78
	movq	-88(%rbp), %rax
	movw	%dx, 6(%rax)
	.loc 8 296 52
	movl	$0, -56(%rbp)
	movq	$0, -48(%rbp)
	movq	$0, -40(%rbp)
	movq	$0, -32(%rbp)
	movq	$0, -24(%rbp)
	leaq	-64(%rbp), %rax
	movq	%rax, %rdi
	call	_ZNSt3mapIN3vuh10LenCounter5StateENSt7__cxx1112basic_stringIcSt11char_traitsIcESaIcEEESt4lessIS2_ESaISt4pairIKS2_S8_EEEC1Ev
	.loc 8 296 35
	movq	-96(%rbp), %rax
	leaq	8(%rax), %rsi
	.loc 8 296 78
	movq	-88(%rbp), %rax
	leaq	8(%rax), %rcx
	leaq	-64(%rbp), %rax
	movq	%rax, %rdx
	movq	%rcx, %rdi
.LEHB30:
	call	_ZSt8exchangeISt3mapIN3vuh10LenCounter5StateENSt7__cxx1112basic_stringIcSt11char_traitsIcESaIcEEESt4lessIS3_ESaISt4pairIKS3_S9_EEESG_ET_RSH_OT0_
.LEHE30:
	.loc 8 296 52 discriminator 2
	leaq	-64(%rbp), %rax
	movq	%rax, %rdi
	call	_ZNSt3mapIN3vuh10LenCounter5StateENSt7__cxx1112basic_stringIcSt11char_traitsIcESaIcEEESt4lessIS2_ESaISt4pairIKS2_S8_EEED1Ev
.LBE67:
	.loc 8 299 1 discriminator 2
	jmp	.L142
.L141:
	movq	%rax, %rbx
.LBB68:
	.loc 8 296 52
	leaq	-64(%rbp), %rax
	movq	%rax, %rdi
	call	_ZNSt3mapIN3vuh10LenCounter5StateENSt7__cxx1112basic_stringIcSt11char_traitsIcESaIcEEESt4lessIS2_ESaISt4pairIKS2_S8_EEED1Ev
	movq	%rbx, %rax
	movq	%rax, %rdi
.LEHB31:
	call	_Unwind_Resume
.LEHE31:
.L142:
.LBE68:
	.loc 8 299 1
	addq	$88, %rsp
	popq	%rbx
	popq	%rbp
	.cfi_def_cfa 7, 8
	ret
	.cfi_endproc
.LFE2796:
	.section	.gcc_except_table
.LLSDA2796:
	.byte	0xff
	.byte	0xff
	.byte	0x1
	.uleb128 .LLSDACSE2796-.LLSDACSB2796
.LLSDACSB2796:
	.uleb128 .LEHB29-.LFB2796
	.uleb128 .LEHE29-.LEHB29
	.uleb128 0
	.uleb128 0
	.uleb128 .LEHB30-.LFB2796
	.uleb128 .LEHE30-.LEHB30
	.uleb128 .L141-.LFB2796
	.uleb128 0
	.uleb128 .LEHB31-.LFB2796
	.uleb128 .LEHE31-.LEHB31
	.uleb128 0
	.uleb128 0
.LLSDACSE2796:
	.text
	.size	_ZN3vuh10LenCounterC2EOS0_, .-_ZN3vuh10LenCounterC2EOS0_
	.globl	_ZN3vuh10LenCounterC1EOS0_
	.set	_ZN3vuh10LenCounterC1EOS0_,_ZN3vuh10LenCounterC2EOS0_
	.section	.text._ZNSt3mapIN3vuh10LenCounter5StateENSt7__cxx1112basic_stringIcSt11char_traitsIcESaIcEEESt4lessIS2_ESaISt4pairIKS2_S8_EEEaSERKSF_,"axG",@progbits,_ZNSt3mapIN3vuh10LenCounter5StateENSt7__cxx1112basic_stringIcSt11char_traitsIcESaIcEEESt4lessIS2_ESaISt4pairIKS2_S8_EEEaSERKSF_,comdat
	.align 2
	.weak	_ZNSt3mapIN3vuh10LenCounter5StateENSt7__cxx1112basic_stringIcSt11char_traitsIcESaIcEEESt4lessIS2_ESaISt4pairIKS2_S8_EEEaSERKSF_
	.type	_ZNSt3mapIN3vuh10LenCounter5StateENSt7__cxx1112basic_stringIcSt11char_traitsIcESaIcEEESt4lessIS2_ESaISt4pairIKS2_S8_EEEaSERKSF_, @function
_ZNSt3mapIN3vuh10LenCounter5StateENSt7__cxx1112basic_stringIcSt11char_traitsIcESaIcEEESt4lessIS2_ESaISt4pairIKS2_S8_EEEaSERKSF_:
.LFB2799:
	.loc 7 100 11
	.cfi_startproc
	pushq	%rbp
	.cfi_def_cfa_offset 16
	.cfi_offset 6, -16
	movq	%rsp, %rbp
	.cfi_def_cfa_register 6
	subq	$16, %rsp
	movq	%rdi, -8(%rbp)
	movq	%rsi, -16(%rbp)
	.loc 7 100 11
	movq	-16(%rbp), %rdx
	movq	-8(%rbp), %rax
	movq	%rdx, %rsi
	movq	%rax, %rdi
	call	_ZNSt8_Rb_treeIN3vuh10LenCounter5StateESt4pairIKS2_NSt7__cxx1112basic_stringIcSt11char_traitsIcESaIcEEEESt10_Select1stISB_ESt4lessIS2_ESaISB_EEaSERKSH_
	movq	-8(%rbp), %rax
	leave
	.cfi_def_cfa 7, 8
	ret
	.cfi_endproc
.LFE2799:
	.size	_ZNSt3mapIN3vuh10LenCounter5StateENSt7__cxx1112basic_stringIcSt11char_traitsIcESaIcEEESt4lessIS2_ESaISt4pairIKS2_S8_EEEaSERKSF_, .-_ZNSt3mapIN3vuh10LenCounter5StateENSt7__cxx1112basic_stringIcSt11char_traitsIcESaIcEEESt4lessIS2_ESaISt4pairIKS2_S8_EEEaSERKSF_
	.text
	.align 2
	.globl	_ZN3vuh10LenCounteraSERKS0_
	.type	_ZN3vuh10LenCounteraSERKS0_, @function
_ZN3vuh10LenCounteraSERKS0_:
.LFB2798:
	.loc 8 307 1
	.cfi_startproc
	pushq	%rbp
	.cfi_def_cfa_offset 16
	.cfi_offset 6, -16
	movq	%rsp, %rbp
	.cfi_def_cfa_register 6
	subq	$16, %rsp
	movq	%rdi, -8(%rbp)
	movq	%rsi, -16(%rbp)
	.loc 8 308 2
	movq	-8(%rbp), %rax
	cmpq	-16(%rbp), %rax
	je	.L146
	.loc 8 310 19
	movq	-16(%rbp), %rax
	movl	(%rax), %edx
	.loc 8 310 11
	movq	-8(%rbp), %rax
	movl	%edx, (%rax)
	.loc 8 311 15
	movq	-16(%rbp), %rax
	movzwl	4(%rax), %edx
	.loc 8 311 7
	movq	-8(%rbp), %rax
	movw	%dx, 4(%rax)
	.loc 8 312 19
	movq	-16(%rbp), %rax
	movzwl	6(%rax), %edx
	.loc 8 312 11
	movq	-8(%rbp), %rax
	movw	%dx, 6(%rax)
	.loc 8 314 22
	movq	-16(%rbp), %rax
	leaq	8(%rax), %rdx
	movq	-8(%rbp), %rax
	addq	$8, %rax
	movq	%rdx, %rsi
	movq	%rax, %rdi
	call	_ZNSt3mapIN3vuh10LenCounter5StateENSt7__cxx1112basic_stringIcSt11char_traitsIcESaIcEEESt4lessIS2_ESaISt4pairIKS2_S8_EEEaSERKSF_
.L146:
	.loc 8 318 10
	movq	-8(%rbp), %rax
	.loc 8 319 1
	leave
	.cfi_def_cfa 7, 8
	ret
	.cfi_endproc
.LFE2798:
	.size	_ZN3vuh10LenCounteraSERKS0_, .-_ZN3vuh10LenCounteraSERKS0_
	.section	.text._ZN9__gnu_cxx14__alloc_traitsISaISt13_Rb_tree_nodeISt4pairIKN3vuh10LenCounter5StateENSt7__cxx1112basic_stringIcSt11char_traitsIcESaIcEEEEEESE_E15_S_always_equalEv,"axG",@progbits,_ZN9__gnu_cxx14__alloc_traitsISaISt13_Rb_tree_nodeISt4pairIKN3vuh10LenCounter5StateENSt7__cxx1112basic_stringIcSt11char_traitsIcESaIcEEEEEESE_E15_S_always_equalEv,comdat
	.weak	_ZN9__gnu_cxx14__alloc_traitsISaISt13_Rb_tree_nodeISt4pairIKN3vuh10LenCounter5StateENSt7__cxx1112basic_stringIcSt11char_traitsIcESaIcEEEEEESE_E15_S_always_equalEv
	.type	_ZN9__gnu_cxx14__alloc_traitsISaISt13_Rb_tree_nodeISt4pairIKN3vuh10LenCounter5StateENSt7__cxx1112basic_stringIcSt11char_traitsIcESaIcEEEEEESE_E15_S_always_equalEv, @function
_ZN9__gnu_cxx14__alloc_traitsISaISt13_Rb_tree_nodeISt4pairIKN3vuh10LenCounter5StateENSt7__cxx1112basic_stringIcSt11char_traitsIcESaIcEEEEEESE_E15_S_always_equalEv:
.LFB2803:
	.file 9 "/usr/include/c++/8/ext/alloc_traits.h"
	.loc 9 109 27
	.cfi_startproc
	pushq	%rbp
	.cfi_def_cfa_offset 16
	.cfi_offset 6, -16
	movq	%rsp, %rbp
	.cfi_def_cfa_register 6
	.loc 9 110 43
	movl	$1, %eax
	.loc 9 110 50
	popq	%rbp
	.cfi_def_cfa 7, 8
	ret
	.cfi_endproc
.LFE2803:
	.size	_ZN9__gnu_cxx14__alloc_traitsISaISt13_Rb_tree_nodeISt4pairIKN3vuh10LenCounter5StateENSt7__cxx1112basic_stringIcSt11char_traitsIcESaIcEEEEEESE_E15_S_always_equalEv, .-_ZN9__gnu_cxx14__alloc_traitsISaISt13_Rb_tree_nodeISt4pairIKN3vuh10LenCounter5StateENSt7__cxx1112basic_stringIcSt11char_traitsIcESaIcEEEEEESE_E15_S_always_equalEv
	.section	.text._ZNSt3mapIN3vuh10LenCounter5StateENSt7__cxx1112basic_stringIcSt11char_traitsIcESaIcEEESt4lessIS2_ESaISt4pairIKS2_S8_EEEaSEOSF_,"axG",@progbits,_ZNSt3mapIN3vuh10LenCounter5StateENSt7__cxx1112basic_stringIcSt11char_traitsIcESaIcEEESt4lessIS2_ESaISt4pairIKS2_S8_EEEaSEOSF_,comdat
	.align 2
	.weak	_ZNSt3mapIN3vuh10LenCounter5StateENSt7__cxx1112basic_stringIcSt11char_traitsIcESaIcEEESt4lessIS2_ESaISt4pairIKS2_S8_EEEaSEOSF_
	.type	_ZNSt3mapIN3vuh10LenCounter5StateENSt7__cxx1112basic_stringIcSt11char_traitsIcESaIcEEESt4lessIS2_ESaISt4pairIKS2_S8_EEEaSEOSF_, @function
_ZNSt3mapIN3vuh10LenCounter5StateENSt7__cxx1112basic_stringIcSt11char_traitsIcESaIcEEESt4lessIS2_ESaISt4pairIKS2_S8_EEEaSEOSF_:
.LFB2804:
	.loc 7 100 11
	.cfi_startproc
	pushq	%rbp
	.cfi_def_cfa_offset 16
	.cfi_offset 6, -16
	movq	%rsp, %rbp
	.cfi_def_cfa_register 6
	subq	$16, %rsp
	movq	%rdi, -8(%rbp)
	movq	%rsi, -16(%rbp)
	.loc 7 100 11
	movq	-16(%rbp), %rdx
	movq	-8(%rbp), %rax
	movq	%rdx, %rsi
	movq	%rax, %rdi
	call	_ZNSt8_Rb_treeIN3vuh10LenCounter5StateESt4pairIKS2_NSt7__cxx1112basic_stringIcSt11char_traitsIcESaIcEEEESt10_Select1stISB_ESt4lessIS2_ESaISB_EEaSEOSH_
	movq	-8(%rbp), %rax
	leave
	.cfi_def_cfa 7, 8
	ret
	.cfi_endproc
.LFE2804:
	.size	_ZNSt3mapIN3vuh10LenCounter5StateENSt7__cxx1112basic_stringIcSt11char_traitsIcESaIcEEESt4lessIS2_ESaISt4pairIKS2_S8_EEEaSEOSF_, .-_ZNSt3mapIN3vuh10LenCounter5StateENSt7__cxx1112basic_stringIcSt11char_traitsIcESaIcEEESt4lessIS2_ESaISt4pairIKS2_S8_EEEaSEOSF_
	.text
	.align 2
	.globl	_ZN3vuh10LenCounteraSEOS0_
	.type	_ZN3vuh10LenCounteraSEOS0_, @function
_ZN3vuh10LenCounteraSEOS0_:
.LFB2800:
	.loc 8 327 1
	.cfi_startproc
	.cfi_personality 0x3,__gxx_personality_v0
	.cfi_lsda 0x3,.LLSDA2800
	pushq	%rbp
	.cfi_def_cfa_offset 16
	.cfi_offset 6, -16
	movq	%rsp, %rbp
	.cfi_def_cfa_register 6
	pushq	%rbx
	subq	$136, %rsp
	.cfi_offset 3, -24
	movq	%rdi, -136(%rbp)
	movq	%rsi, -144(%rbp)
	.loc 8 328 2
	movq	-136(%rbp), %rax
	cmpq	-144(%rbp), %rax
	je	.L153
	.loc 8 330 42
	movl	$7, -124(%rbp)
	.loc 8 330 33
	movq	-144(%rbp), %rax
	.loc 8 330 26
	leaq	-124(%rbp), %rdx
	movq	%rdx, %rsi
	movq	%rax, %rdi
.LEHB32:
	call	_ZSt8exchangeIN3vuh10LenCounter5StateES2_ET_RS3_OT0_
	movl	%eax, %edx
	.loc 8 330 11
	movq	-136(%rbp), %rax
	movl	%edx, (%rax)
	.loc 8 331 34
	movl	$-1, -120(%rbp)
	.loc 8 331 29
	movq	-144(%rbp), %rax
	leaq	4(%rax), %rdx
	.loc 8 331 22
	leaq	-120(%rbp), %rax
	movq	%rax, %rsi
	movq	%rdx, %rdi
	call	_ZSt8exchangeIsiET_RS0_OT0_
	movl	%eax, %edx
	.loc 8 331 7
	movq	-136(%rbp), %rax
	movw	%dx, 4(%rax)
	.loc 8 332 42
	movl	$-1, -116(%rbp)
	.loc 8 332 33
	movq	-144(%rbp), %rax
	leaq	6(%rax), %rdx
	.loc 8 332 26
	leaq	-116(%rbp), %rax
	movq	%rax, %rsi
	movq	%rdx, %rdi
	call	_ZSt8exchangeIsiET_RS0_OT0_
.LEHE32:
	movl	%eax, %edx
	.loc 8 332 11
	movq	-136(%rbp), %rax
	movw	%dx, 6(%rax)
	.loc 8 334 53
	movl	$0, -56(%rbp)
	movq	$0, -48(%rbp)
	movq	$0, -40(%rbp)
	movq	$0, -32(%rbp)
	movq	$0, -24(%rbp)
	leaq	-64(%rbp), %rax
	movq	%rax, %rdi
	call	_ZNSt3mapIN3vuh10LenCounter5StateENSt7__cxx1112basic_stringIcSt11char_traitsIcESaIcEEESt4lessIS2_ESaISt4pairIKS2_S8_EEEC1Ev
	.loc 8 334 36
	movq	-144(%rbp), %rax
	leaq	8(%rax), %rcx
	.loc 8 334 29
	leaq	-112(%rbp), %rax
	leaq	-64(%rbp), %rdx
	movq	%rcx, %rsi
	movq	%rax, %rdi
.LEHB33:
	call	_ZSt8exchangeISt3mapIN3vuh10LenCounter5StateENSt7__cxx1112basic_stringIcSt11char_traitsIcESaIcEEESt4lessIS3_ESaISt4pairIKS3_S9_EEESG_ET_RSH_OT0_
.LEHE33:
	.loc 8 334 78 discriminator 2
	movq	-136(%rbp), %rax
	leaq	8(%rax), %rdx
	leaq	-112(%rbp), %rax
	movq	%rax, %rsi
	movq	%rdx, %rdi
	call	_ZNSt3mapIN3vuh10LenCounter5StateENSt7__cxx1112basic_stringIcSt11char_traitsIcESaIcEEESt4lessIS2_ESaISt4pairIKS2_S8_EEEaSEOSF_
	.loc 8 334 29 discriminator 2
	leaq	-112(%rbp), %rax
	movq	%rax, %rdi
	call	_ZNSt3mapIN3vuh10LenCounter5StateENSt7__cxx1112basic_stringIcSt11char_traitsIcESaIcEEESt4lessIS2_ESaISt4pairIKS2_S8_EEED1Ev
	.loc 8 334 53 discriminator 2
	leaq	-64(%rbp), %rax
	movq	%rax, %rdi
	call	_ZNSt3mapIN3vuh10LenCounter5StateENSt7__cxx1112basic_stringIcSt11char_traitsIcESaIcEEESt4lessIS2_ESaISt4pairIKS2_S8_EEED1Ev
.L153:
	.loc 8 338 10
	movq	-136(%rbp), %rax
	jmp	.L157
.L156:
	movq	%rax, %rbx
	.loc 8 334 53
	leaq	-64(%rbp), %rax
	movq	%rax, %rdi
	call	_ZNSt3mapIN3vuh10LenCounter5StateENSt7__cxx1112basic_stringIcSt11char_traitsIcESaIcEEESt4lessIS2_ESaISt4pairIKS2_S8_EEED1Ev
	movq	%rbx, %rax
	movq	%rax, %rdi
.LEHB34:
	call	_Unwind_Resume
.LEHE34:
.L157:
	.loc 8 339 1
	addq	$136, %rsp
	popq	%rbx
	popq	%rbp
	.cfi_def_cfa 7, 8
	ret
	.cfi_endproc
.LFE2800:
	.section	.gcc_except_table
.LLSDA2800:
	.byte	0xff
	.byte	0xff
	.byte	0x1
	.uleb128 .LLSDACSE2800-.LLSDACSB2800
.LLSDACSB2800:
	.uleb128 .LEHB32-.LFB2800
	.uleb128 .LEHE32-.LEHB32
	.uleb128 0
	.uleb128 0
	.uleb128 .LEHB33-.LFB2800
	.uleb128 .LEHE33-.LEHB33
	.uleb128 .L156-.LFB2800
	.uleb128 0
	.uleb128 .LEHB34-.LFB2800
	.uleb128 .LEHE34-.LEHB34
	.uleb128 0
	.uleb128 0
.LLSDACSE2800:
	.text
	.size	_ZN3vuh10LenCounteraSEOS0_, .-_ZN3vuh10LenCounteraSEOS0_
	.section	.text._ZNSt8_Rb_treeIN3vuh10LenCounter5StateESt4pairIKS2_NSt7__cxx1112basic_stringIcSt11char_traitsIcESaIcEEEESt10_Select1stISB_ESt4lessIS2_ESaISB_EE13_Rb_tree_implISF_Lb1EEC2Ev,"axG",@progbits,_ZNSt8_Rb_treeIN3vuh10LenCounter5StateESt4pairIKS2_NSt7__cxx1112basic_stringIcSt11char_traitsIcESaIcEEEESt10_Select1stISB_ESt4lessIS2_ESaISB_EE13_Rb_tree_implISF_Lb1EEC5Ev,comdat
	.align 2
	.weak	_ZNSt8_Rb_treeIN3vuh10LenCounter5StateESt4pairIKS2_NSt7__cxx1112basic_stringIcSt11char_traitsIcESaIcEEEESt10_Select1stISB_ESt4lessIS2_ESaISB_EE13_Rb_tree_implISF_Lb1EEC2Ev
	.type	_ZNSt8_Rb_treeIN3vuh10LenCounter5StateESt4pairIKS2_NSt7__cxx1112basic_stringIcSt11char_traitsIcESaIcEEEESt10_Select1stISB_ESt4lessIS2_ESaISB_EE13_Rb_tree_implISF_Lb1EEC2Ev, @function
_ZNSt8_Rb_treeIN3vuh10LenCounter5StateESt4pairIKS2_NSt7__cxx1112basic_stringIcSt11char_traitsIcESaIcEEEESt10_Select1stISB_ESt4lessIS2_ESaISB_EE13_Rb_tree_implISF_Lb1EEC2Ev:
.LFB3042:
	.loc 6 699 4
	.cfi_startproc
	pushq	%rbp
	.cfi_def_cfa_offset 16
	.cfi_offset 6, -16
	movq	%rsp, %rbp
	.cfi_def_cfa_register 6
	subq	$16, %rsp
	movq	%rdi, -8(%rbp)
.LBB69:
	.loc 6 703 22
	movq	-8(%rbp), %rax
	movq	%rax, %rdi
	call	_ZNSaISt13_Rb_tree_nodeISt4pairIKN3vuh10LenCounter5StateENSt7__cxx1112basic_stringIcSt11char_traitsIcESaIcEEEEEEC2Ev
	movq	-8(%rbp), %rax
	movq	%rax, %rdi
	call	_ZNSt20_Rb_tree_key_compareISt4lessIN3vuh10LenCounter5StateEEEC2Ev
	movq	-8(%rbp), %rax
	addq	$8, %rax
	movq	%rax, %rdi
	call	_ZNSt15_Rb_tree_headerC2Ev
.LBE69:
	.loc 6 704 6
	nop
	leave
	.cfi_def_cfa 7, 8
	ret
	.cfi_endproc
.LFE3042:
	.size	_ZNSt8_Rb_treeIN3vuh10LenCounter5StateESt4pairIKS2_NSt7__cxx1112basic_stringIcSt11char_traitsIcESaIcEEEESt10_Select1stISB_ESt4lessIS2_ESaISB_EE13_Rb_tree_implISF_Lb1EEC2Ev, .-_ZNSt8_Rb_treeIN3vuh10LenCounter5StateESt4pairIKS2_NSt7__cxx1112basic_stringIcSt11char_traitsIcESaIcEEEESt10_Select1stISB_ESt4lessIS2_ESaISB_EE13_Rb_tree_implISF_Lb1EEC2Ev
	.weak	_ZNSt8_Rb_treeIN3vuh10LenCounter5StateESt4pairIKS2_NSt7__cxx1112basic_stringIcSt11char_traitsIcESaIcEEEESt10_Select1stISB_ESt4lessIS2_ESaISB_EE13_Rb_tree_implISF_Lb1EEC1Ev
	.set	_ZNSt8_Rb_treeIN3vuh10LenCounter5StateESt4pairIKS2_NSt7__cxx1112basic_stringIcSt11char_traitsIcESaIcEEEESt10_Select1stISB_ESt4lessIS2_ESaISB_EE13_Rb_tree_implISF_Lb1EEC1Ev,_ZNSt8_Rb_treeIN3vuh10LenCounter5StateESt4pairIKS2_NSt7__cxx1112basic_stringIcSt11char_traitsIcESaIcEEEESt10_Select1stISB_ESt4lessIS2_ESaISB_EE13_Rb_tree_implISF_Lb1EEC2Ev
	.section	.text._ZNSaISt13_Rb_tree_nodeISt4pairIKN3vuh10LenCounter5StateENSt7__cxx1112basic_stringIcSt11char_traitsIcESaIcEEEEEED2Ev,"axG",@progbits,_ZNSaISt13_Rb_tree_nodeISt4pairIKN3vuh10LenCounter5StateENSt7__cxx1112basic_stringIcSt11char_traitsIcESaIcEEEEEED5Ev,comdat
	.align 2
	.weak	_ZNSaISt13_Rb_tree_nodeISt4pairIKN3vuh10LenCounter5StateENSt7__cxx1112basic_stringIcSt11char_traitsIcESaIcEEEEEED2Ev
	.type	_ZNSaISt13_Rb_tree_nodeISt4pairIKN3vuh10LenCounter5StateENSt7__cxx1112basic_stringIcSt11char_traitsIcESaIcEEEEEED2Ev, @function
_ZNSaISt13_Rb_tree_nodeISt4pairIKN3vuh10LenCounter5StateENSt7__cxx1112basic_stringIcSt11char_traitsIcESaIcEEEEEED2Ev:
.LFB3045:
	.file 10 "/usr/include/c++/8/bits/allocator.h"
	.loc 10 139 7
	.cfi_startproc
	pushq	%rbp
	.cfi_def_cfa_offset 16
	.cfi_offset 6, -16
	movq	%rsp, %rbp
	.cfi_def_cfa_register 6
	subq	$16, %rsp
	movq	%rdi, -8(%rbp)
.LBB70:
	.loc 10 139 30
	movq	-8(%rbp), %rax
	movq	%rax, %rdi
	call	_ZN9__gnu_cxx13new_allocatorISt13_Rb_tree_nodeISt4pairIKN3vuh10LenCounter5StateENSt7__cxx1112basic_stringIcSt11char_traitsIcESaIcEEEEEED2Ev
.LBE70:
	nop
	leave
	.cfi_def_cfa 7, 8
	ret
	.cfi_endproc
.LFE3045:
	.size	_ZNSaISt13_Rb_tree_nodeISt4pairIKN3vuh10LenCounter5StateENSt7__cxx1112basic_stringIcSt11char_traitsIcESaIcEEEEEED2Ev, .-_ZNSaISt13_Rb_tree_nodeISt4pairIKN3vuh10LenCounter5StateENSt7__cxx1112basic_stringIcSt11char_traitsIcESaIcEEEEEED2Ev
	.weak	_ZNSaISt13_Rb_tree_nodeISt4pairIKN3vuh10LenCounter5StateENSt7__cxx1112basic_stringIcSt11char_traitsIcESaIcEEEEEED1Ev
	.set	_ZNSaISt13_Rb_tree_nodeISt4pairIKN3vuh10LenCounter5StateENSt7__cxx1112basic_stringIcSt11char_traitsIcESaIcEEEEEED1Ev,_ZNSaISt13_Rb_tree_nodeISt4pairIKN3vuh10LenCounter5StateENSt7__cxx1112basic_stringIcSt11char_traitsIcESaIcEEEEEED2Ev
	.section	.text._ZNSt8_Rb_treeIN3vuh10LenCounter5StateESt4pairIKS2_NSt7__cxx1112basic_stringIcSt11char_traitsIcESaIcEEEESt10_Select1stISB_ESt4lessIS2_ESaISB_EED2Ev,"axG",@progbits,_ZNSt8_Rb_treeIN3vuh10LenCounter5StateESt4pairIKS2_NSt7__cxx1112basic_stringIcSt11char_traitsIcESaIcEEEESt10_Select1stISB_ESt4lessIS2_ESaISB_EED5Ev,comdat
	.align 2
	.weak	_ZNSt8_Rb_treeIN3vuh10LenCounter5StateESt4pairIKS2_NSt7__cxx1112basic_stringIcSt11char_traitsIcESaIcEEEESt10_Select1stISB_ESt4lessIS2_ESaISB_EED2Ev
	.type	_ZNSt8_Rb_treeIN3vuh10LenCounter5StateESt4pairIKS2_NSt7__cxx1112basic_stringIcSt11char_traitsIcESaIcEEEESt10_Select1stISB_ESt4lessIS2_ESaISB_EED2Ev, @function
_ZNSt8_Rb_treeIN3vuh10LenCounter5StateESt4pairIKS2_NSt7__cxx1112basic_stringIcSt11char_traitsIcESaIcEEEESt10_Select1stISB_ESt4lessIS2_ESaISB_EED2Ev:
.LFB3048:
	.loc 6 964 7
	.cfi_startproc
	.cfi_personality 0x3,__gxx_personality_v0
	.cfi_lsda 0x3,.LLSDA3048
	pushq	%rbp
	.cfi_def_cfa_offset 16
	.cfi_offset 6, -16
	movq	%rsp, %rbp
	.cfi_def_cfa_register 6
	subq	$16, %rsp
	movq	%rdi, -8(%rbp)
.LBB71:
	.loc 6 965 9
	movq	-8(%rbp), %rax
	movq	%rax, %rdi
	call	_ZNSt8_Rb_treeIN3vuh10LenCounter5StateESt4pairIKS2_NSt7__cxx1112basic_stringIcSt11char_traitsIcESaIcEEEESt10_Select1stISB_ESt4lessIS2_ESaISB_EE8_M_beginEv
	movq	%rax, %rdx
	movq	-8(%rbp), %rax
	movq	%rdx, %rsi
	movq	%rax, %rdi
	call	_ZNSt8_Rb_treeIN3vuh10LenCounter5StateESt4pairIKS2_NSt7__cxx1112basic_stringIcSt11char_traitsIcESaIcEEEESt10_Select1stISB_ESt4lessIS2_ESaISB_EE8_M_eraseEPSt13_Rb_tree_nodeISB_E
	.loc 6 965 31
	movq	-8(%rbp), %rax
	movq	%rax, %rdi
	call	_ZNSt8_Rb_treeIN3vuh10LenCounter5StateESt4pairIKS2_NSt7__cxx1112basic_stringIcSt11char_traitsIcESaIcEEEESt10_Select1stISB_ESt4lessIS2_ESaISB_EE13_Rb_tree_implISF_Lb1EED1Ev
.LBE71:
	nop
	leave
	.cfi_def_cfa 7, 8
	ret
	.cfi_endproc
.LFE3048:
	.section	.gcc_except_table
.LLSDA3048:
	.byte	0xff
	.byte	0xff
	.byte	0x1
	.uleb128 .LLSDACSE3048-.LLSDACSB3048
.LLSDACSB3048:
.LLSDACSE3048:
	.section	.text._ZNSt8_Rb_treeIN3vuh10LenCounter5StateESt4pairIKS2_NSt7__cxx1112basic_stringIcSt11char_traitsIcESaIcEEEESt10_Select1stISB_ESt4lessIS2_ESaISB_EED2Ev,"axG",@progbits,_ZNSt8_Rb_treeIN3vuh10LenCounter5StateESt4pairIKS2_NSt7__cxx1112basic_stringIcSt11char_traitsIcESaIcEEEESt10_Select1stISB_ESt4lessIS2_ESaISB_EED5Ev,comdat
	.size	_ZNSt8_Rb_treeIN3vuh10LenCounter5StateESt4pairIKS2_NSt7__cxx1112basic_stringIcSt11char_traitsIcESaIcEEEESt10_Select1stISB_ESt4lessIS2_ESaISB_EED2Ev, .-_ZNSt8_Rb_treeIN3vuh10LenCounter5StateESt4pairIKS2_NSt7__cxx1112basic_stringIcSt11char_traitsIcESaIcEEEESt10_Select1stISB_ESt4lessIS2_ESaISB_EED2Ev
	.weak	_ZNSt8_Rb_treeIN3vuh10LenCounter5StateESt4pairIKS2_NSt7__cxx1112basic_stringIcSt11char_traitsIcESaIcEEEESt10_Select1stISB_ESt4lessIS2_ESaISB_EED1Ev
	.set	_ZNSt8_Rb_treeIN3vuh10LenCounter5StateESt4pairIKS2_NSt7__cxx1112basic_stringIcSt11char_traitsIcESaIcEEEESt10_Select1stISB_ESt4lessIS2_ESaISB_EED1Ev,_ZNSt8_Rb_treeIN3vuh10LenCounter5StateESt4pairIKS2_NSt7__cxx1112basic_stringIcSt11char_traitsIcESaIcEEEESt10_Select1stISB_ESt4lessIS2_ESaISB_EED2Ev
	.section	.text._ZNSt3mapIN3vuh10LenCounter5StateENSt7__cxx1112basic_stringIcSt11char_traitsIcESaIcEEESt4lessIS2_ESaISt4pairIKS2_S8_EEEixEOS2_,"axG",@progbits,_ZNSt3mapIN3vuh10LenCounter5StateENSt7__cxx1112basic_stringIcSt11char_traitsIcESaIcEEESt4lessIS2_ESaISt4pairIKS2_S8_EEEixEOS2_,comdat
	.align 2
	.weak	_ZNSt3mapIN3vuh10LenCounter5StateENSt7__cxx1112basic_stringIcSt11char_traitsIcESaIcEEESt4lessIS2_ESaISt4pairIKS2_S8_EEEixEOS2_
	.type	_ZNSt3mapIN3vuh10LenCounter5StateENSt7__cxx1112basic_stringIcSt11char_traitsIcESaIcEEESt4lessIS2_ESaISt4pairIKS2_S8_EEEixEOS2_, @function
_ZNSt3mapIN3vuh10LenCounter5StateENSt7__cxx1112basic_stringIcSt11char_traitsIcESaIcEEESt4lessIS2_ESaISt4pairIKS2_S8_EEEixEOS2_:
.LFB3050:
	.loc 7 510 7
	.cfi_startproc
	pushq	%rbp
	.cfi_def_cfa_offset 16
	.cfi_offset 6, -16
	movq	%rsp, %rbp
	.cfi_def_cfa_register 6
	pushq	%rbx
	subq	$72, %rsp
	.cfi_offset 3, -24
	movq	%rdi, -72(%rbp)
	movq	%rsi, -80(%rbp)
	.loc 7 515 11
	movq	-80(%rbp), %rdx
	movq	-72(%rbp), %rax
	movq	%rdx, %rsi
	movq	%rax, %rdi
	call	_ZNSt3mapIN3vuh10LenCounter5StateENSt7__cxx1112basic_stringIcSt11char_traitsIcESaIcEEESt4lessIS2_ESaISt4pairIKS2_S8_EEE11lower_boundERSC_
	movq	%rax, -56(%rbp)
	.loc 7 517 10
	movq	-72(%rbp), %rax
	movq	%rax, %rdi
	call	_ZNSt3mapIN3vuh10LenCounter5StateENSt7__cxx1112basic_stringIcSt11char_traitsIcESaIcEEESt4lessIS2_ESaISt4pairIKS2_S8_EEE3endEv
	movq	%rax, -48(%rbp)
	leaq	-48(%rbp), %rdx
	leaq	-56(%rbp), %rax
	movq	%rdx, %rsi
	movq	%rax, %rdi
	call	_ZNKSt17_Rb_tree_iteratorISt4pairIKN3vuh10LenCounter5StateENSt7__cxx1112basic_stringIcSt11char_traitsIcESaIcEEEEEeqERKSC_
	.loc 7 517 19
	testb	%al, %al
	jne	.L162
	.loc 7 517 32 discriminator 2
	movq	-72(%rbp), %rax
	movq	%rax, %rdi
	call	_ZNKSt3mapIN3vuh10LenCounter5StateENSt7__cxx1112basic_stringIcSt11char_traitsIcESaIcEEESt4lessIS2_ESaISt4pairIKS2_S8_EEE8key_compEv
	.loc 7 517 39 discriminator 2
	leaq	-56(%rbp), %rax
	movq	%rax, %rdi
	call	_ZNKSt17_Rb_tree_iteratorISt4pairIKN3vuh10LenCounter5StateENSt7__cxx1112basic_stringIcSt11char_traitsIcESaIcEEEEEdeEv
	.loc 7 517 45 discriminator 2
	movq	%rax, %rdx
	.loc 7 517 32 discriminator 2
	movq	-80(%rbp), %rcx
	leaq	-34(%rbp), %rax
	movq	%rcx, %rsi
	movq	%rax, %rdi
	call	_ZNKSt4lessIN3vuh10LenCounter5StateEEclERKS2_S5_
	.loc 7 517 19 discriminator 2
	testb	%al, %al
	je	.L163
.L162:
	.loc 7 517 19 is_stmt 0 discriminator 5
	movl	$1, %eax
	jmp	.L164
.L163:
	.loc 7 517 19 discriminator 6
	movl	$0, %eax
.L164:
	.loc 7 517 2 is_stmt 1 discriminator 8
	testb	%al, %al
	je	.L165
	.loc 7 518 8
	movq	-72(%rbp), %rbx
	.loc 7 519 37
	movq	-80(%rbp), %rax
	movq	%rax, %rdi
	call	_ZSt4moveIRN3vuh10LenCounter5StateEEONSt16remove_referenceIT_E4typeEOS5_
	movq	%rax, %rdx
	.loc 7 518 8
	leaq	-32(%rbp), %rax
	movq	%rdx, %rsi
	movq	%rax, %rdi
	call	_ZSt16forward_as_tupleIJN3vuh10LenCounter5StateEEESt5tupleIJDpOT_EES6_
	leaq	-56(%rbp), %rdx
	leaq	-24(%rbp), %rax
	movq	%rdx, %rsi
	movq	%rax, %rdi
	call	_ZNSt23_Rb_tree_const_iteratorISt4pairIKN3vuh10LenCounter5StateENSt7__cxx1112basic_stringIcSt11char_traitsIcESaIcEEEEEC1ERKSt17_Rb_tree_iteratorISB_E
	leaq	-33(%rbp), %rcx
	leaq	-32(%rbp), %rdx
	movq	-24(%rbp), %rax
	movq	%rcx, %r8
	movq	%rdx, %rcx
	movl	$_ZStL19piecewise_construct, %edx
	movq	%rax, %rsi
	movq	%rbx, %rdi
	call	_ZNSt8_Rb_treeIN3vuh10LenCounter5StateESt4pairIKS2_NSt7__cxx1112basic_stringIcSt11char_traitsIcESaIcEEEESt10_Select1stISB_ESt4lessIS2_ESaISB_EE22_M_emplace_hint_uniqueIJRKSt21piecewise_construct_tSt5tupleIJOS2_EESM_IJEEEEESt17_Rb_tree_iteratorISB_ESt23_Rb_tree_const_iteratorISB_EDpOT_
	movq	%rax, -56(%rbp)
.L165:
	.loc 7 521 10
	leaq	-56(%rbp), %rax
	movq	%rax, %rdi
	call	_ZNKSt17_Rb_tree_iteratorISt4pairIKN3vuh10LenCounter5StateENSt7__cxx1112basic_stringIcSt11char_traitsIcESaIcEEEEEdeEv
	.loc 7 521 16
	addq	$8, %rax
	.loc 7 522 7
	addq	$72, %rsp
	popq	%rbx
	popq	%rbp
	.cfi_def_cfa 7, 8
	ret
	.cfi_endproc
.LFE3050:
	.size	_ZNSt3mapIN3vuh10LenCounter5StateENSt7__cxx1112basic_stringIcSt11char_traitsIcESaIcEEESt4lessIS2_ESaISt4pairIKS2_S8_EEEixEOS2_, .-_ZNSt3mapIN3vuh10LenCounter5StateENSt7__cxx1112basic_stringIcSt11char_traitsIcESaIcEEESt4lessIS2_ESaISt4pairIKS2_S8_EEEixEOS2_
	.section	.text._ZNKSt3mapIN3vuh10LenCounter5StateENSt7__cxx1112basic_stringIcSt11char_traitsIcESaIcEEESt4lessIS2_ESaISt4pairIKS2_S8_EEE6cbeginEv,"axG",@progbits,_ZNKSt3mapIN3vuh10LenCounter5StateENSt7__cxx1112basic_stringIcSt11char_traitsIcESaIcEEESt4lessIS2_ESaISt4pairIKS2_S8_EEE6cbeginEv,comdat
	.align 2
	.weak	_ZNKSt3mapIN3vuh10LenCounter5StateENSt7__cxx1112basic_stringIcSt11char_traitsIcESaIcEEESt4lessIS2_ESaISt4pairIKS2_S8_EEE6cbeginEv
	.type	_ZNKSt3mapIN3vuh10LenCounter5StateENSt7__cxx1112basic_stringIcSt11char_traitsIcESaIcEEESt4lessIS2_ESaISt4pairIKS2_S8_EEE6cbeginEv, @function
_ZNKSt3mapIN3vuh10LenCounter5StateENSt7__cxx1112basic_stringIcSt11char_traitsIcESaIcEEESt4lessIS2_ESaISt4pairIKS2_S8_EEE6cbeginEv:
.LFB3052:
	.loc 7 427 7
	.cfi_startproc
	pushq	%rbp
	.cfi_def_cfa_offset 16
	.cfi_offset 6, -16
	movq	%rsp, %rbp
	.cfi_def_cfa_register 6
	subq	$16, %rsp
	movq	%rdi, -8(%rbp)
	.loc 7 428 27
	movq	-8(%rbp), %rax
	movq	%rax, %rdi
	call	_ZNKSt8_Rb_treeIN3vuh10LenCounter5StateESt4pairIKS2_NSt7__cxx1112basic_stringIcSt11char_traitsIcESaIcEEEESt10_Select1stISB_ESt4lessIS2_ESaISB_EE5beginEv
	.loc 7 428 30
	leave
	.cfi_def_cfa 7, 8
	ret
	.cfi_endproc
.LFE3052:
	.size	_ZNKSt3mapIN3vuh10LenCounter5StateENSt7__cxx1112basic_stringIcSt11char_traitsIcESaIcEEESt4lessIS2_ESaISt4pairIKS2_S8_EEE6cbeginEv, .-_ZNKSt3mapIN3vuh10LenCounter5StateENSt7__cxx1112basic_stringIcSt11char_traitsIcESaIcEEESt4lessIS2_ESaISt4pairIKS2_S8_EEE6cbeginEv
	.section	.text._ZNKSt3mapIN3vuh10LenCounter5StateENSt7__cxx1112basic_stringIcSt11char_traitsIcESaIcEEESt4lessIS2_ESaISt4pairIKS2_S8_EEE4cendEv,"axG",@progbits,_ZNKSt3mapIN3vuh10LenCounter5StateENSt7__cxx1112basic_stringIcSt11char_traitsIcESaIcEEESt4lessIS2_ESaISt4pairIKS2_S8_EEE4cendEv,comdat
	.align 2
	.weak	_ZNKSt3mapIN3vuh10LenCounter5StateENSt7__cxx1112basic_stringIcSt11char_traitsIcESaIcEEESt4lessIS2_ESaISt4pairIKS2_S8_EEE4cendEv
	.type	_ZNKSt3mapIN3vuh10LenCounter5StateENSt7__cxx1112basic_stringIcSt11char_traitsIcESaIcEEESt4lessIS2_ESaISt4pairIKS2_S8_EEE4cendEv, @function
_ZNKSt3mapIN3vuh10LenCounter5StateENSt7__cxx1112basic_stringIcSt11char_traitsIcESaIcEEESt4lessIS2_ESaISt4pairIKS2_S8_EEE4cendEv:
.LFB3053:
	.loc 7 436 7
	.cfi_startproc
	pushq	%rbp
	.cfi_def_cfa_offset 16
	.cfi_offset 6, -16
	movq	%rsp, %rbp
	.cfi_def_cfa_register 6
	subq	$16, %rsp
	movq	%rdi, -8(%rbp)
	.loc 7 437 25
	movq	-8(%rbp), %rax
	movq	%rax, %rdi
	call	_ZNKSt8_Rb_treeIN3vuh10LenCounter5StateESt4pairIKS2_NSt7__cxx1112basic_stringIcSt11char_traitsIcESaIcEEEESt10_Select1stISB_ESt4lessIS2_ESaISB_EE3endEv
	.loc 7 437 28
	leave
	.cfi_def_cfa 7, 8
	ret
	.cfi_endproc
.LFE3053:
	.size	_ZNKSt3mapIN3vuh10LenCounter5StateENSt7__cxx1112basic_stringIcSt11char_traitsIcESaIcEEESt4lessIS2_ESaISt4pairIKS2_S8_EEE4cendEv, .-_ZNKSt3mapIN3vuh10LenCounter5StateENSt7__cxx1112basic_stringIcSt11char_traitsIcESaIcEEESt4lessIS2_ESaISt4pairIKS2_S8_EEE4cendEv
	.section	.text._ZNSt4pairIKN3vuh10LenCounter5StateENSt7__cxx1112basic_stringIcSt11char_traitsIcESaIcEEEEC2ERKSA_,"axG",@progbits,_ZNSt4pairIKN3vuh10LenCounter5StateENSt7__cxx1112basic_stringIcSt11char_traitsIcESaIcEEEEC5ERKSA_,comdat
	.align 2
	.weak	_ZNSt4pairIKN3vuh10LenCounter5StateENSt7__cxx1112basic_stringIcSt11char_traitsIcESaIcEEEEC2ERKSA_
	.type	_ZNSt4pairIKN3vuh10LenCounter5StateENSt7__cxx1112basic_stringIcSt11char_traitsIcESaIcEEEEC2ERKSA_, @function
_ZNSt4pairIKN3vuh10LenCounter5StateENSt7__cxx1112basic_stringIcSt11char_traitsIcESaIcEEEEC2ERKSA_:
.LFB3062:
	.file 11 "/usr/include/c++/8/bits/stl_pair.h"
	.loc 11 292 17
	.cfi_startproc
	pushq	%rbp
	.cfi_def_cfa_offset 16
	.cfi_offset 6, -16
	movq	%rsp, %rbp
	.cfi_def_cfa_register 6
	subq	$16, %rsp
	movq	%rdi, -8(%rbp)
	movq	%rsi, -16(%rbp)
.LBB72:
	.loc 11 292 17
	movq	-16(%rbp), %rax
	movl	(%rax), %edx
	movq	-8(%rbp), %rax
	movl	%edx, (%rax)
	movq	-8(%rbp), %rax
	addq	$8, %rax
	movq	-16(%rbp), %rdx
	addq	$8, %rdx
	movq	%rdx, %rsi
	movq	%rax, %rdi
	call	_ZNSt7__cxx1112basic_stringIcSt11char_traitsIcESaIcEEC1ERKS4_
.LBE72:
	nop
	leave
	.cfi_def_cfa 7, 8
	ret
	.cfi_endproc
.LFE3062:
	.size	_ZNSt4pairIKN3vuh10LenCounter5StateENSt7__cxx1112basic_stringIcSt11char_traitsIcESaIcEEEEC2ERKSA_, .-_ZNSt4pairIKN3vuh10LenCounter5StateENSt7__cxx1112basic_stringIcSt11char_traitsIcESaIcEEEEC2ERKSA_
	.weak	_ZNSt4pairIKN3vuh10LenCounter5StateENSt7__cxx1112basic_stringIcSt11char_traitsIcESaIcEEEEC1ERKSA_
	.set	_ZNSt4pairIKN3vuh10LenCounter5StateENSt7__cxx1112basic_stringIcSt11char_traitsIcESaIcEEEEC1ERKSA_,_ZNSt4pairIKN3vuh10LenCounter5StateENSt7__cxx1112basic_stringIcSt11char_traitsIcESaIcEEEEC2ERKSA_
	.section	.text._ZNSt4pairIKN3vuh10LenCounter5StateENSt7__cxx1112basic_stringIcSt11char_traitsIcESaIcEEEED2Ev,"axG",@progbits,_ZNSt4pairIKN3vuh10LenCounter5StateENSt7__cxx1112basic_stringIcSt11char_traitsIcESaIcEEEED5Ev,comdat
	.align 2
	.weak	_ZNSt4pairIKN3vuh10LenCounter5StateENSt7__cxx1112basic_stringIcSt11char_traitsIcESaIcEEEED2Ev
	.type	_ZNSt4pairIKN3vuh10LenCounter5StateENSt7__cxx1112basic_stringIcSt11char_traitsIcESaIcEEEED2Ev, @function
_ZNSt4pairIKN3vuh10LenCounter5StateENSt7__cxx1112basic_stringIcSt11char_traitsIcESaIcEEEED2Ev:
.LFB3065:
	.loc 11 198 12
	.cfi_startproc
	pushq	%rbp
	.cfi_def_cfa_offset 16
	.cfi_offset 6, -16
	movq	%rsp, %rbp
	.cfi_def_cfa_register 6
	subq	$16, %rsp
	movq	%rdi, -8(%rbp)
.LBB73:
	.loc 11 198 12
	movq	-8(%rbp), %rax
	addq	$8, %rax
	movq	%rax, %rdi
	call	_ZNSt7__cxx1112basic_stringIcSt11char_traitsIcESaIcEED1Ev
.LBE73:
	nop
	leave
	.cfi_def_cfa 7, 8
	ret
	.cfi_endproc
.LFE3065:
	.size	_ZNSt4pairIKN3vuh10LenCounter5StateENSt7__cxx1112basic_stringIcSt11char_traitsIcESaIcEEEED2Ev, .-_ZNSt4pairIKN3vuh10LenCounter5StateENSt7__cxx1112basic_stringIcSt11char_traitsIcESaIcEEEED2Ev
	.weak	_ZNSt4pairIKN3vuh10LenCounter5StateENSt7__cxx1112basic_stringIcSt11char_traitsIcESaIcEEEED1Ev
	.set	_ZNSt4pairIKN3vuh10LenCounter5StateENSt7__cxx1112basic_stringIcSt11char_traitsIcESaIcEEEED1Ev,_ZNSt4pairIKN3vuh10LenCounter5StateENSt7__cxx1112basic_stringIcSt11char_traitsIcESaIcEEEED2Ev
	.text
	.type	_ZSt8for_eachISt23_Rb_tree_const_iteratorISt4pairIKN3vuh10LenCounter5StateENSt7__cxx1112basic_stringIcSt11char_traitsIcESaIcEEEEEZNS3_C4EvEUlSC_E_ET0_T_SG_SF_, @function
_ZSt8for_eachISt23_Rb_tree_const_iteratorISt4pairIKN3vuh10LenCounter5StateENSt7__cxx1112basic_stringIcSt11char_traitsIcESaIcEEEEEZNS3_C4EvEUlSC_E_ET0_T_SG_SF_:
.LFB3058:
	.file 12 "/usr/include/c++/8/bits/stl_algo.h"
	.loc 12 3876 5
	.cfi_startproc
	.cfi_personality 0x3,__gxx_personality_v0
	.cfi_lsda 0x3,.LLSDA3058
	pushq	%rbp
	.cfi_def_cfa_offset 16
	.cfi_offset 6, -16
	movq	%rsp, %rbp
	.cfi_def_cfa_register 6
	pushq	%rbx
	subq	$72, %rsp
	.cfi_offset 3, -24
	movq	%rdi, -72(%rbp)
	movq	%rsi, -80(%rbp)
.L175:
	.loc 12 3881 22 discriminator 1
	leaq	-80(%rbp), %rdx
	leaq	-72(%rbp), %rax
	movq	%rdx, %rsi
	movq	%rax, %rdi
	call	_ZNKSt23_Rb_tree_const_iteratorISt4pairIKN3vuh10LenCounter5StateENSt7__cxx1112basic_stringIcSt11char_traitsIcESaIcEEEEEneERKSC_
	testb	%al, %al
	je	.L176
	.loc 12 3882 6
	leaq	-72(%rbp), %rax
	movq	%rax, %rdi
	call	_ZNKSt23_Rb_tree_const_iteratorISt4pairIKN3vuh10LenCounter5StateENSt7__cxx1112basic_stringIcSt11char_traitsIcESaIcEEEEEdeEv
	movq	%rax, %rdx
	.loc 12 3882 5
	leaq	-64(%rbp), %rax
	movq	%rdx, %rsi
	movq	%rax, %rdi
.LEHB35:
	call	_ZNSt4pairIKN3vuh10LenCounter5StateENSt7__cxx1112basic_stringIcSt11char_traitsIcESaIcEEEEC1ERKSA_
.LEHE35:
	leaq	-64(%rbp), %rax
	movq	%rax, %rsi
	leaq	16(%rbp), %rdi
.LEHB36:
	call	_ZZN3vuh10LenCounterC4EvENKUlSt4pairIKNS0_5StateENSt7__cxx1112basic_stringIcSt11char_traitsIcESaIcEEEEE_clESA_
.LEHE36:
	.loc 12 3882 5 is_stmt 0 discriminator 2
	leaq	-64(%rbp), %rax
	movq	%rax, %rdi
	call	_ZNSt4pairIKN3vuh10LenCounter5StateENSt7__cxx1112basic_stringIcSt11char_traitsIcESaIcEEEED1Ev
	.loc 12 3881 33 is_stmt 1 discriminator 2
	leaq	-72(%rbp), %rax
	movq	%rax, %rdi
	call	_ZNSt23_Rb_tree_const_iteratorISt4pairIKN3vuh10LenCounter5StateENSt7__cxx1112basic_stringIcSt11char_traitsIcESaIcEEEEEppEv
	.loc 12 3881 7 discriminator 2
	jmp	.L175
.L176:
	.loc 12 3883 14
	movl	%ebx, %eax
	jmp	.L179
.L178:
	movq	%rax, %rbx
	.loc 12 3882 5
	leaq	-64(%rbp), %rax
	movq	%rax, %rdi
	call	_ZNSt4pairIKN3vuh10LenCounter5StateENSt7__cxx1112basic_stringIcSt11char_traitsIcESaIcEEEED1Ev
	movq	%rbx, %rax
	movq	%rax, %rdi
.LEHB37:
	call	_Unwind_Resume
.LEHE37:
.L179:
	.loc 12 3884 5
	addq	$72, %rsp
	popq	%rbx
	popq	%rbp
	.cfi_def_cfa 7, 8
	ret
	.cfi_endproc
.LFE3058:
	.section	.gcc_except_table
.LLSDA3058:
	.byte	0xff
	.byte	0xff
	.byte	0x1
	.uleb128 .LLSDACSE3058-.LLSDACSB3058
.LLSDACSB3058:
	.uleb128 .LEHB35-.LFB3058
	.uleb128 .LEHE35-.LEHB35
	.uleb128 0
	.uleb128 0
	.uleb128 .LEHB36-.LFB3058
	.uleb128 .LEHE36-.LEHB36
	.uleb128 .L178-.LFB3058
	.uleb128 0
	.uleb128 .LEHB37-.LFB3058
	.uleb128 .LEHE37-.LEHB37
	.uleb128 0
	.uleb128 0
.LLSDACSE3058:
	.text
	.size	_ZSt8for_eachISt23_Rb_tree_const_iteratorISt4pairIKN3vuh10LenCounter5StateENSt7__cxx1112basic_stringIcSt11char_traitsIcESaIcEEEEEZNS3_C4EvEUlSC_E_ET0_T_SG_SF_, .-_ZSt8for_eachISt23_Rb_tree_const_iteratorISt4pairIKN3vuh10LenCounter5StateENSt7__cxx1112basic_stringIcSt11char_traitsIcESaIcEEEEEZNS3_C4EvEUlSC_E_ET0_T_SG_SF_
	.section	.text._ZNSt3mapIN3vuh10LenCounter5StateENSt7__cxx1112basic_stringIcSt11char_traitsIcESaIcEEESt4lessIS2_ESaISt4pairIKS2_S8_EEE5clearEv,"axG",@progbits,_ZNSt3mapIN3vuh10LenCounter5StateENSt7__cxx1112basic_stringIcSt11char_traitsIcESaIcEEESt4lessIS2_ESaISt4pairIKS2_S8_EEE5clearEv,comdat
	.align 2
	.weak	_ZNSt3mapIN3vuh10LenCounter5StateENSt7__cxx1112basic_stringIcSt11char_traitsIcESaIcEEESt4lessIS2_ESaISt4pairIKS2_S8_EEE5clearEv
	.type	_ZNSt3mapIN3vuh10LenCounter5StateENSt7__cxx1112basic_stringIcSt11char_traitsIcESaIcEEESt4lessIS2_ESaISt4pairIKS2_S8_EEE5clearEv, @function
_ZNSt3mapIN3vuh10LenCounter5StateENSt7__cxx1112basic_stringIcSt11char_traitsIcESaIcEEESt4lessIS2_ESaISt4pairIKS2_S8_EEE5clearEv:
.LFB3067:
	.loc 7 1133 7
	.cfi_startproc
	pushq	%rbp
	.cfi_def_cfa_offset 16
	.cfi_offset 6, -16
	movq	%rsp, %rbp
	.cfi_def_cfa_register 6
	subq	$16, %rsp
	movq	%rdi, -8(%rbp)
	.loc 7 1134 9
	movq	-8(%rbp), %rax
	movq	%rax, %rdi
	call	_ZNSt8_Rb_treeIN3vuh10LenCounter5StateESt4pairIKS2_NSt7__cxx1112basic_stringIcSt11char_traitsIcESaIcEEEESt10_Select1stISB_ESt4lessIS2_ESaISB_EE5clearEv
	.loc 7 1134 23
	nop
	leave
	.cfi_def_cfa 7, 8
	ret
	.cfi_endproc
.LFE3067:
	.size	_ZNSt3mapIN3vuh10LenCounter5StateENSt7__cxx1112basic_stringIcSt11char_traitsIcESaIcEEESt4lessIS2_ESaISt4pairIKS2_S8_EEE5clearEv, .-_ZNSt3mapIN3vuh10LenCounter5StateENSt7__cxx1112basic_stringIcSt11char_traitsIcESaIcEEESt4lessIS2_ESaISt4pairIKS2_S8_EEE5clearEv
	.section	.text._ZNSt13_Sanitize_valILm8ELb1EE18_S_do_sanitize_valEy,"axG",@progbits,_ZNSt13_Sanitize_valILm8ELb1EE18_S_do_sanitize_valEy,comdat
	.weak	_ZNSt13_Sanitize_valILm8ELb1EE18_S_do_sanitize_valEy
	.type	_ZNSt13_Sanitize_valILm8ELb1EE18_S_do_sanitize_valEy, @function
_ZNSt13_Sanitize_valILm8ELb1EE18_S_do_sanitize_valEy:
.LFB3068:
	.loc 3 682 7
	.cfi_startproc
	pushq	%rbp
	.cfi_def_cfa_offset 16
	.cfi_offset 6, -16
	movq	%rsp, %rbp
	.cfi_def_cfa_register 6
	movq	%rdi, -8(%rbp)
	.loc 3 683 70
	movq	-8(%rbp), %rax
	movzbl	%al, %eax
	.loc 3 683 73
	popq	%rbp
	.cfi_def_cfa 7, 8
	ret
	.cfi_endproc
.LFE3068:
	.size	_ZNSt13_Sanitize_valILm8ELb1EE18_S_do_sanitize_valEy, .-_ZNSt13_Sanitize_valILm8ELb1EE18_S_do_sanitize_valEy
	.section	.text._ZStlsIcSt11char_traitsIcELm8EERSt13basic_ostreamIT_T0_ES6_RKSt6bitsetIXT1_EE,"axG",@progbits,_ZStlsIcSt11char_traitsIcELm8EERSt13basic_ostreamIT_T0_ES6_RKSt6bitsetIXT1_EE,comdat
	.weak	_ZStlsIcSt11char_traitsIcELm8EERSt13basic_ostreamIT_T0_ES6_RKSt6bitsetIXT1_EE
	.type	_ZStlsIcSt11char_traitsIcELm8EERSt13basic_ostreamIT_T0_ES6_RKSt6bitsetIXT1_EE, @function
_ZStlsIcSt11char_traitsIcELm8EERSt13basic_ostreamIT_T0_ES6_RKSt6bitsetIXT1_EE:
.LFB3070:
	.loc 3 1534 5
	.cfi_startproc
	.cfi_personality 0x3,__gxx_personality_v0
	.cfi_lsda 0x3,.LLSDA3070
	pushq	%rbp
	.cfi_def_cfa_offset 16
	.cfi_offset 6, -16
	movq	%rsp, %rbp
	.cfi_def_cfa_register 6
	pushq	%rbx
	subq	$72, %rsp
	.cfi_offset 3, -24
	movq	%rdi, -72(%rbp)
	movq	%rsi, -80(%rbp)
	.loc 3 1537 42
	leaq	-64(%rbp), %rax
	movq	%rax, %rdi
	call	_ZNSt7__cxx1112basic_stringIcSt11char_traitsIcESaIcEEC1Ev
	.loc 3 1541 60
	movq	-72(%rbp), %rax
	movq	(%rax), %rax
	subq	$24, %rax
	movq	(%rax), %rax
	movq	%rax, %rdx
	movq	-72(%rbp), %rax
	addq	%rax, %rdx
	leaq	-32(%rbp), %rax
	movq	%rdx, %rsi
	movq	%rax, %rdi
	call	_ZNKSt8ios_base6getlocEv
	leaq	-32(%rbp), %rax
	movq	%rax, %rdi
.LEHB38:
	call	_ZSt9use_facetISt5ctypeIcEERKT_RKSt6locale
.LEHE38:
	movq	%rax, -24(%rbp)
	leaq	-32(%rbp), %rax
	movq	%rax, %rdi
	call	_ZNSt6localeD1Ev
	.loc 3 1542 7
	movq	-24(%rbp), %rax
	movl	$49, %esi
	movq	%rax, %rdi
.LEHB39:
	call	_ZNKSt5ctypeIcE5widenEc
	.loc 3 1542 7 is_stmt 0 discriminator 2
	movsbl	%al, %ebx
	movq	-24(%rbp), %rax
	movl	$48, %esi
	movq	%rax, %rdi
	call	_ZNKSt5ctypeIcE5widenEc
	.loc 3 1542 7 discriminator 1
	movsbl	%al, %edx
	leaq	-64(%rbp), %rsi
	movq	-80(%rbp), %rax
	movl	%ebx, %ecx
	movq	%rax, %rdi
	call	_ZNKSt6bitsetILm8EE17_M_copy_to_stringIcSt11char_traitsIcESaIcEEEvRNSt7__cxx1112basic_stringIT_T0_T1_EES7_S7_
	.loc 3 1543 19 is_stmt 1
	leaq	-64(%rbp), %rdx
	movq	-72(%rbp), %rax
	movq	%rdx, %rsi
	movq	%rax, %rdi
	call	_ZStlsIcSt11char_traitsIcESaIcEERSt13basic_ostreamIT_T0_ES7_RKNSt7__cxx1112basic_stringIS4_S5_T1_EE
.LEHE39:
	movq	%rax, %rbx
	.loc 3 1543 22
	nop
	.loc 3 1537 42
	leaq	-64(%rbp), %rax
	movq	%rax, %rdi
	call	_ZNSt7__cxx1112basic_stringIcSt11char_traitsIcESaIcEED1Ev
	.loc 3 1543 22
	movq	%rbx, %rax
	jmp	.L189
.L187:
	movq	%rax, %rbx
	.loc 3 1541 60
	leaq	-32(%rbp), %rax
	movq	%rax, %rdi
	call	_ZNSt6localeD1Ev
	jmp	.L186
.L188:
	movq	%rax, %rbx
.L186:
	.loc 3 1537 42
	leaq	-64(%rbp), %rax
	movq	%rax, %rdi
	call	_ZNSt7__cxx1112basic_stringIcSt11char_traitsIcESaIcEED1Ev
	movq	%rbx, %rax
	movq	%rax, %rdi
.LEHB40:
	call	_Unwind_Resume
.LEHE40:
.L189:
	.loc 3 1544 5
	addq	$72, %rsp
	popq	%rbx
	popq	%rbp
	.cfi_def_cfa 7, 8
	ret
	.cfi_endproc
.LFE3070:
	.section	.gcc_except_table
.LLSDA3070:
	.byte	0xff
	.byte	0xff
	.byte	0x1
	.uleb128 .LLSDACSE3070-.LLSDACSB3070
.LLSDACSB3070:
	.uleb128 .LEHB38-.LFB3070
	.uleb128 .LEHE38-.LEHB38
	.uleb128 .L187-.LFB3070
	.uleb128 0
	.uleb128 .LEHB39-.LFB3070
	.uleb128 .LEHE39-.LEHB39
	.uleb128 .L188-.LFB3070
	.uleb128 0
	.uleb128 .LEHB40-.LFB3070
	.uleb128 .LEHE40-.LEHB40
	.uleb128 0
	.uleb128 0
.LLSDACSE3070:
	.section	.text._ZStlsIcSt11char_traitsIcELm8EERSt13basic_ostreamIT_T0_ES6_RKSt6bitsetIXT1_EE,"axG",@progbits,_ZStlsIcSt11char_traitsIcELm8EERSt13basic_ostreamIT_T0_ES6_RKSt6bitsetIXT1_EE,comdat
	.size	_ZStlsIcSt11char_traitsIcELm8EERSt13basic_ostreamIT_T0_ES6_RKSt6bitsetIXT1_EE, .-_ZStlsIcSt11char_traitsIcELm8EERSt13basic_ostreamIT_T0_ES6_RKSt6bitsetIXT1_EE
	.section	.text._ZNKSt6bitsetILm8EE8to_ulongEv,"axG",@progbits,_ZNKSt6bitsetILm8EE8to_ulongEv,comdat
	.align 2
	.weak	_ZNKSt6bitsetILm8EE8to_ulongEv
	.type	_ZNKSt6bitsetILm8EE8to_ulongEv, @function
_ZNKSt6bitsetILm8EE8to_ulongEv:
.LFB3071:
	.loc 3 1174 7
	.cfi_startproc
	pushq	%rbp
	.cfi_def_cfa_offset 16
	.cfi_offset 6, -16
	movq	%rsp, %rbp
	.cfi_def_cfa_register 6
	subq	$16, %rsp
	movq	%rdi, -8(%rbp)
	.loc 3 1175 37
	movq	-8(%rbp), %rax
	movq	%rax, %rdi
	call	_ZNKSt12_Base_bitsetILm1EE14_M_do_to_ulongEv
	.loc 3 1175 40
	leave
	.cfi_def_cfa 7, 8
	ret
	.cfi_endproc
.LFE3071:
	.size	_ZNKSt6bitsetILm8EE8to_ulongEv, .-_ZNKSt6bitsetILm8EE8to_ulongEv
	.section	.text._ZNSt3mapIN3vuh10LenCounter5StateENSt7__cxx1112basic_stringIcSt11char_traitsIcESaIcEEESt4lessIS2_ESaISt4pairIKS2_S8_EEEixERSC_,"axG",@progbits,_ZNSt3mapIN3vuh10LenCounter5StateENSt7__cxx1112basic_stringIcSt11char_traitsIcESaIcEEESt4lessIS2_ESaISt4pairIKS2_S8_EEEixERSC_,comdat
	.align 2
	.weak	_ZNSt3mapIN3vuh10LenCounter5StateENSt7__cxx1112basic_stringIcSt11char_traitsIcESaIcEEESt4lessIS2_ESaISt4pairIKS2_S8_EEEixERSC_
	.type	_ZNSt3mapIN3vuh10LenCounter5StateENSt7__cxx1112basic_stringIcSt11char_traitsIcESaIcEEESt4lessIS2_ESaISt4pairIKS2_S8_EEEixERSC_, @function
_ZNSt3mapIN3vuh10LenCounter5StateENSt7__cxx1112basic_stringIcSt11char_traitsIcESaIcEEESt4lessIS2_ESaISt4pairIKS2_S8_EEEixERSC_:
.LFB3073:
	.loc 7 490 7
	.cfi_startproc
	pushq	%rbp
	.cfi_def_cfa_offset 16
	.cfi_offset 6, -16
	movq	%rsp, %rbp
	.cfi_def_cfa_register 6
	pushq	%rbx
	subq	$72, %rsp
	.cfi_offset 3, -24
	movq	%rdi, -72(%rbp)
	movq	%rsi, -80(%rbp)
	.loc 7 495 11
	movq	-80(%rbp), %rdx
	movq	-72(%rbp), %rax
	movq	%rdx, %rsi
	movq	%rax, %rdi
	call	_ZNSt3mapIN3vuh10LenCounter5StateENSt7__cxx1112basic_stringIcSt11char_traitsIcESaIcEEESt4lessIS2_ESaISt4pairIKS2_S8_EEE11lower_boundERSC_
	movq	%rax, -56(%rbp)
	.loc 7 497 10
	movq	-72(%rbp), %rax
	movq	%rax, %rdi
	call	_ZNSt3mapIN3vuh10LenCounter5StateENSt7__cxx1112basic_stringIcSt11char_traitsIcESaIcEEESt4lessIS2_ESaISt4pairIKS2_S8_EEE3endEv
	movq	%rax, -48(%rbp)
	leaq	-48(%rbp), %rdx
	leaq	-56(%rbp), %rax
	movq	%rdx, %rsi
	movq	%rax, %rdi
	call	_ZNKSt17_Rb_tree_iteratorISt4pairIKN3vuh10LenCounter5StateENSt7__cxx1112basic_stringIcSt11char_traitsIcESaIcEEEEEeqERKSC_
	.loc 7 497 19
	testb	%al, %al
	jne	.L193
	.loc 7 497 32 discriminator 2
	movq	-72(%rbp), %rax
	movq	%rax, %rdi
	call	_ZNKSt3mapIN3vuh10LenCounter5StateENSt7__cxx1112basic_stringIcSt11char_traitsIcESaIcEEESt4lessIS2_ESaISt4pairIKS2_S8_EEE8key_compEv
	.loc 7 497 39 discriminator 2
	leaq	-56(%rbp), %rax
	movq	%rax, %rdi
	call	_ZNKSt17_Rb_tree_iteratorISt4pairIKN3vuh10LenCounter5StateENSt7__cxx1112basic_stringIcSt11char_traitsIcESaIcEEEEEdeEv
	.loc 7 497 45 discriminator 2
	movq	%rax, %rdx
	.loc 7 497 32 discriminator 2
	movq	-80(%rbp), %rcx
	leaq	-34(%rbp), %rax
	movq	%rcx, %rsi
	movq	%rax, %rdi
	call	_ZNKSt4lessIN3vuh10LenCounter5StateEEclERKS2_S5_
	.loc 7 497 19 discriminator 2
	testb	%al, %al
	je	.L194
.L193:
	.loc 7 497 19 is_stmt 0 discriminator 5
	movl	$1, %eax
	jmp	.L195
.L194:
	.loc 7 497 19 discriminator 6
	movl	$0, %eax
.L195:
	.loc 7 497 2 is_stmt 1 discriminator 8
	testb	%al, %al
	je	.L196
	.loc 7 499 8
	movq	-72(%rbp), %rbx
	movq	-80(%rbp), %rdx
	leaq	-32(%rbp), %rax
	movq	%rdx, %rsi
	movq	%rax, %rdi
	call	_ZNSt5tupleIJRKN3vuh10LenCounter5StateEEEC1IvLb1EEES4_
	leaq	-56(%rbp), %rdx
	leaq	-24(%rbp), %rax
	movq	%rdx, %rsi
	movq	%rax, %rdi
	call	_ZNSt23_Rb_tree_const_iteratorISt4pairIKN3vuh10LenCounter5StateENSt7__cxx1112basic_stringIcSt11char_traitsIcESaIcEEEEEC1ERKSt17_Rb_tree_iteratorISB_E
	leaq	-33(%rbp), %rcx
	leaq	-32(%rbp), %rdx
	movq	-24(%rbp), %rax
	movq	%rcx, %r8
	movq	%rdx, %rcx
	movl	$_ZStL19piecewise_construct, %edx
	movq	%rax, %rsi
	movq	%rbx, %rdi
	call	_ZNSt8_Rb_treeIN3vuh10LenCounter5StateESt4pairIKS2_NSt7__cxx1112basic_stringIcSt11char_traitsIcESaIcEEEESt10_Select1stISB_ESt4lessIS2_ESaISB_EE22_M_emplace_hint_uniqueIJRKSt21piecewise_construct_tSt5tupleIJRS4_EESM_IJEEEEESt17_Rb_tree_iteratorISB_ESt23_Rb_tree_const_iteratorISB_EDpOT_
	movq	%rax, -56(%rbp)
.L196:
	.loc 7 505 10
	leaq	-56(%rbp), %rax
	movq	%rax, %rdi
	call	_ZNKSt17_Rb_tree_iteratorISt4pairIKN3vuh10LenCounter5StateENSt7__cxx1112basic_stringIcSt11char_traitsIcESaIcEEEEEdeEv
	.loc 7 505 16
	addq	$8, %rax
	.loc 7 506 7
	addq	$72, %rsp
	popq	%rbx
	popq	%rbp
	.cfi_def_cfa 7, 8
	ret
	.cfi_endproc
.LFE3073:
	.size	_ZNSt3mapIN3vuh10LenCounter5StateENSt7__cxx1112basic_stringIcSt11char_traitsIcESaIcEEESt4lessIS2_ESaISt4pairIKS2_S8_EEEixERSC_, .-_ZNSt3mapIN3vuh10LenCounter5StateENSt7__cxx1112basic_stringIcSt11char_traitsIcESaIcEEESt4lessIS2_ESaISt4pairIKS2_S8_EEEixERSC_
	.section	.rodata
.LC32:
	.string	"bitset::test"
	.section	.text._ZNKSt6bitsetILm8EE4testEm,"axG",@progbits,_ZNKSt6bitsetILm8EE4testEm,comdat
	.align 2
	.weak	_ZNKSt6bitsetILm8EE4testEm
	.type	_ZNKSt6bitsetILm8EE4testEm, @function
_ZNKSt6bitsetILm8EE4testEm:
.LFB3079:
	.loc 3 1317 7
	.cfi_startproc
	pushq	%rbp
	.cfi_def_cfa_offset 16
	.cfi_offset 6, -16
	movq	%rsp, %rbp
	.cfi_def_cfa_register 6
	subq	$16, %rsp
	movq	%rdi, -8(%rbp)
	movq	%rsi, -16(%rbp)
	.loc 3 1319 2
	movq	-16(%rbp), %rcx
	movq	-8(%rbp), %rax
	movl	$.LC32, %edx
	movq	%rcx, %rsi
	movq	%rax, %rdi
	call	_ZNKSt6bitsetILm8EE8_M_checkEmPKc
	.loc 3 1320 35
	movq	-16(%rbp), %rdx
	movq	-8(%rbp), %rax
	movq	%rdx, %rsi
	movq	%rax, %rdi
	call	_ZNKSt6bitsetILm8EE15_Unchecked_testEm
	.loc 3 1321 7
	leave
	.cfi_def_cfa 7, 8
	ret
	.cfi_endproc
.LFE3079:
	.size	_ZNKSt6bitsetILm8EE4testEm, .-_ZNKSt6bitsetILm8EE4testEm
	.section	.text._ZNSt8_Rb_treeIN3vuh10LenCounter5StateESt4pairIKS2_NSt7__cxx1112basic_stringIcSt11char_traitsIcESaIcEEEESt10_Select1stISB_ESt4lessIS2_ESaISB_EEC2ERKSH_,"axG",@progbits,_ZNSt8_Rb_treeIN3vuh10LenCounter5StateESt4pairIKS2_NSt7__cxx1112basic_stringIcSt11char_traitsIcESaIcEEEESt10_Select1stISB_ESt4lessIS2_ESaISB_EEC5ERKSH_,comdat
	.align 2
	.weak	_ZNSt8_Rb_treeIN3vuh10LenCounter5StateESt4pairIKS2_NSt7__cxx1112basic_stringIcSt11char_traitsIcESaIcEEEESt10_Select1stISB_ESt4lessIS2_ESaISB_EEC2ERKSH_
	.type	_ZNSt8_Rb_treeIN3vuh10LenCounter5StateESt4pairIKS2_NSt7__cxx1112basic_stringIcSt11char_traitsIcESaIcEEEESt10_Select1stISB_ESt4lessIS2_ESaISB_EEC2ERKSH_, @function
_ZNSt8_Rb_treeIN3vuh10LenCounter5StateESt4pairIKS2_NSt7__cxx1112basic_stringIcSt11char_traitsIcESaIcEEEESt10_Select1stISB_ESt4lessIS2_ESaISB_EEC2ERKSH_:
.LFB3093:
	.loc 6 936 7
	.cfi_startproc
	.cfi_personality 0x3,__gxx_personality_v0
	.cfi_lsda 0x3,.LLSDA3093
	pushq	%rbp
	.cfi_def_cfa_offset 16
	.cfi_offset 6, -16
	movq	%rsp, %rbp
	.cfi_def_cfa_register 6
	pushq	%rbx
	subq	$24, %rsp
	.cfi_offset 3, -24
	movq	%rdi, -24(%rbp)
	movq	%rsi, -32(%rbp)
.LBB74:
	.loc 6 937 28
	movq	-24(%rbp), %rax
	.loc 6 937 21
	movq	-32(%rbp), %rdx
	.loc 6 937 28
	movq	%rdx, %rsi
	movq	%rax, %rdi
.LEHB41:
	call	_ZNSt8_Rb_treeIN3vuh10LenCounter5StateESt4pairIKS2_NSt7__cxx1112basic_stringIcSt11char_traitsIcESaIcEEEESt10_Select1stISB_ESt4lessIS2_ESaISB_EE13_Rb_tree_implISF_Lb1EEC1ERKSJ_
.LEHE41:
	.loc 6 939 20
	movq	-32(%rbp), %rax
	movq	%rax, %rdi
	call	_ZNKSt8_Rb_treeIN3vuh10LenCounter5StateESt4pairIKS2_NSt7__cxx1112basic_stringIcSt11char_traitsIcESaIcEEEESt10_Select1stISB_ESt4lessIS2_ESaISB_EE7_M_rootEv
	testq	%rax, %rax
	setne	%al
	.loc 6 939 2
	testb	%al, %al
	je	.L204
	.loc 6 940 14
	movq	-24(%rbp), %rax
	movq	%rax, %rdi
	call	_ZNSt8_Rb_treeIN3vuh10LenCounter5StateESt4pairIKS2_NSt7__cxx1112basic_stringIcSt11char_traitsIcESaIcEEEESt10_Select1stISB_ESt4lessIS2_ESaISB_EE7_M_rootEv
	movq	%rax, %rbx
	movq	-32(%rbp), %rdx
	movq	-24(%rbp), %rax
	movq	%rdx, %rsi
	movq	%rax, %rdi
.LEHB42:
	call	_ZNSt8_Rb_treeIN3vuh10LenCounter5StateESt4pairIKS2_NSt7__cxx1112basic_stringIcSt11char_traitsIcESaIcEEEESt10_Select1stISB_ESt4lessIS2_ESaISB_EE7_M_copyERKSH_
.LEHE42:
	.loc 6 940 4
	movq	%rax, (%rbx)
.LBE74:
	.loc 6 941 7
	jmp	.L204
.L203:
	movq	%rax, %rbx
.LBB75:
	.loc 6 937 28
	movq	-24(%rbp), %rax
	movq	%rax, %rdi
	call	_ZNSt8_Rb_treeIN3vuh10LenCounter5StateESt4pairIKS2_NSt7__cxx1112basic_stringIcSt11char_traitsIcESaIcEEEESt10_Select1stISB_ESt4lessIS2_ESaISB_EE13_Rb_tree_implISF_Lb1EED1Ev
	movq	%rbx, %rax
	movq	%rax, %rdi
.LEHB43:
	call	_Unwind_Resume
.LEHE43:
.L204:
.LBE75:
	.loc 6 941 7
	nop
	addq	$24, %rsp
	popq	%rbx
	popq	%rbp
	.cfi_def_cfa 7, 8
	ret
	.cfi_endproc
.LFE3093:
	.section	.gcc_except_table
.LLSDA3093:
	.byte	0xff
	.byte	0xff
	.byte	0x1
	.uleb128 .LLSDACSE3093-.LLSDACSB3093
.LLSDACSB3093:
	.uleb128 .LEHB41-.LFB3093
	.uleb128 .LEHE41-.LEHB41
	.uleb128 0
	.uleb128 0
	.uleb128 .LEHB42-.LFB3093
	.uleb128 .LEHE42-.LEHB42
	.uleb128 .L203-.LFB3093
	.uleb128 0
	.uleb128 .LEHB43-.LFB3093
	.uleb128 .LEHE43-.LEHB43
	.uleb128 0
	.uleb128 0
.LLSDACSE3093:
	.section	.text._ZNSt8_Rb_treeIN3vuh10LenCounter5StateESt4pairIKS2_NSt7__cxx1112basic_stringIcSt11char_traitsIcESaIcEEEESt10_Select1stISB_ESt4lessIS2_ESaISB_EEC2ERKSH_,"axG",@progbits,_ZNSt8_Rb_treeIN3vuh10LenCounter5StateESt4pairIKS2_NSt7__cxx1112basic_stringIcSt11char_traitsIcESaIcEEEESt10_Select1stISB_ESt4lessIS2_ESaISB_EEC5ERKSH_,comdat
	.size	_ZNSt8_Rb_treeIN3vuh10LenCounter5StateESt4pairIKS2_NSt7__cxx1112basic_stringIcSt11char_traitsIcESaIcEEEESt10_Select1stISB_ESt4lessIS2_ESaISB_EEC2ERKSH_, .-_ZNSt8_Rb_treeIN3vuh10LenCounter5StateESt4pairIKS2_NSt7__cxx1112basic_stringIcSt11char_traitsIcESaIcEEEESt10_Select1stISB_ESt4lessIS2_ESaISB_EEC2ERKSH_
	.weak	_ZNSt8_Rb_treeIN3vuh10LenCounter5StateESt4pairIKS2_NSt7__cxx1112basic_stringIcSt11char_traitsIcESaIcEEEESt10_Select1stISB_ESt4lessIS2_ESaISB_EEC1ERKSH_
	.set	_ZNSt8_Rb_treeIN3vuh10LenCounter5StateESt4pairIKS2_NSt7__cxx1112basic_stringIcSt11char_traitsIcESaIcEEEESt10_Select1stISB_ESt4lessIS2_ESaISB_EEC1ERKSH_,_ZNSt8_Rb_treeIN3vuh10LenCounter5StateESt4pairIKS2_NSt7__cxx1112basic_stringIcSt11char_traitsIcESaIcEEEESt10_Select1stISB_ESt4lessIS2_ESaISB_EEC2ERKSH_
	.section	.text._ZSt8exchangeIN3vuh10LenCounter5StateES2_ET_RS3_OT0_,"axG",@progbits,_ZSt8exchangeIN3vuh10LenCounter5StateES2_ET_RS3_OT0_,comdat
	.weak	_ZSt8exchangeIN3vuh10LenCounter5StateES2_ET_RS3_OT0_
	.type	_ZSt8exchangeIN3vuh10LenCounter5StateES2_ET_RS3_OT0_, @function
_ZSt8exchangeIN3vuh10LenCounter5StateES2_ET_RS3_OT0_:
.LFB3095:
	.file 13 "/usr/include/c++/8/utility"
	.loc 13 283 5
	.cfi_startproc
	pushq	%rbp
	.cfi_def_cfa_offset 16
	.cfi_offset 6, -16
	movq	%rsp, %rbp
	.cfi_def_cfa_register 6
	subq	$16, %rsp
	movq	%rdi, -8(%rbp)
	movq	%rsi, -16(%rbp)
	.loc 13 284 29
	movq	-16(%rbp), %rax
	movq	%rax, %rdi
	call	_ZSt7forwardIN3vuh10LenCounter5StateEEOT_RNSt16remove_referenceIS3_E4typeE
	movq	%rax, %rdx
	movq	-8(%rbp), %rax
	movq	%rdx, %rsi
	movq	%rax, %rdi
	call	_ZSt10__exchangeIN3vuh10LenCounter5StateES2_ET_RS3_OT0_
	.loc 13 284 68
	leave
	.cfi_def_cfa 7, 8
	ret
	.cfi_endproc
.LFE3095:
	.size	_ZSt8exchangeIN3vuh10LenCounter5StateES2_ET_RS3_OT0_, .-_ZSt8exchangeIN3vuh10LenCounter5StateES2_ET_RS3_OT0_
	.section	.text._ZSt8exchangeIsiET_RS0_OT0_,"axG",@progbits,_ZSt8exchangeIsiET_RS0_OT0_,comdat
	.weak	_ZSt8exchangeIsiET_RS0_OT0_
	.type	_ZSt8exchangeIsiET_RS0_OT0_, @function
_ZSt8exchangeIsiET_RS0_OT0_:
.LFB3096:
	.loc 13 283 5
	.cfi_startproc
	pushq	%rbp
	.cfi_def_cfa_offset 16
	.cfi_offset 6, -16
	movq	%rsp, %rbp
	.cfi_def_cfa_register 6
	subq	$16, %rsp
	movq	%rdi, -8(%rbp)
	movq	%rsi, -16(%rbp)
	.loc 13 284 29
	movq	-16(%rbp), %rax
	movq	%rax, %rdi
	call	_ZSt7forwardIiEOT_RNSt16remove_referenceIS0_E4typeE
	movq	%rax, %rdx
	movq	-8(%rbp), %rax
	movq	%rdx, %rsi
	movq	%rax, %rdi
	call	_ZSt10__exchangeIsiET_RS0_OT0_
	.loc 13 284 68
	leave
	.cfi_def_cfa 7, 8
	ret
	.cfi_endproc
.LFE3096:
	.size	_ZSt8exchangeIsiET_RS0_OT0_, .-_ZSt8exchangeIsiET_RS0_OT0_
	.section	.text._ZSt8exchangeISt3mapIN3vuh10LenCounter5StateENSt7__cxx1112basic_stringIcSt11char_traitsIcESaIcEEESt4lessIS3_ESaISt4pairIKS3_S9_EEESG_ET_RSH_OT0_,"axG",@progbits,_ZSt8exchangeISt3mapIN3vuh10LenCounter5StateENSt7__cxx1112basic_stringIcSt11char_traitsIcESaIcEEESt4lessIS3_ESaISt4pairIKS3_S9_EEESG_ET_RSH_OT0_,comdat
	.weak	_ZSt8exchangeISt3mapIN3vuh10LenCounter5StateENSt7__cxx1112basic_stringIcSt11char_traitsIcESaIcEEESt4lessIS3_ESaISt4pairIKS3_S9_EEESG_ET_RSH_OT0_
	.type	_ZSt8exchangeISt3mapIN3vuh10LenCounter5StateENSt7__cxx1112basic_stringIcSt11char_traitsIcESaIcEEESt4lessIS3_ESaISt4pairIKS3_S9_EEESG_ET_RSH_OT0_, @function
_ZSt8exchangeISt3mapIN3vuh10LenCounter5StateENSt7__cxx1112basic_stringIcSt11char_traitsIcESaIcEEESt4lessIS3_ESaISt4pairIKS3_S9_EEESG_ET_RSH_OT0_:
.LFB3097:
	.loc 13 283 5
	.cfi_startproc
	pushq	%rbp
	.cfi_def_cfa_offset 16
	.cfi_offset 6, -16
	movq	%rsp, %rbp
	.cfi_def_cfa_register 6
	subq	$32, %rsp
	movq	%rdi, -8(%rbp)
	movq	%rsi, -16(%rbp)
	movq	%rdx, -24(%rbp)
	.loc 13 284 65
	movq	-24(%rbp), %rax
	movq	%rax, %rdi
	call	_ZSt7forwardISt3mapIN3vuh10LenCounter5StateENSt7__cxx1112basic_stringIcSt11char_traitsIcESaIcEEESt4lessIS3_ESaISt4pairIKS3_S9_EEEEOT_RNSt16remove_referenceISH_E4typeE
	movq	%rax, %rdx
	movq	-8(%rbp), %rax
	movq	-16(%rbp), %rcx
	movq	%rcx, %rsi
	movq	%rax, %rdi
	call	_ZSt10__exchangeISt3mapIN3vuh10LenCounter5StateENSt7__cxx1112basic_stringIcSt11char_traitsIcESaIcEEESt4lessIS3_ESaISt4pairIKS3_S9_EEESG_ET_RSH_OT0_
	.loc 13 284 68
	movq	-8(%rbp), %rax
	leave
	.cfi_def_cfa 7, 8
	ret
	.cfi_endproc
.LFE3097:
	.size	_ZSt8exchangeISt3mapIN3vuh10LenCounter5StateENSt7__cxx1112basic_stringIcSt11char_traitsIcESaIcEEESt4lessIS3_ESaISt4pairIKS3_S9_EEESG_ET_RSH_OT0_, .-_ZSt8exchangeISt3mapIN3vuh10LenCounter5StateENSt7__cxx1112basic_stringIcSt11char_traitsIcESaIcEEESt4lessIS3_ESaISt4pairIKS3_S9_EEESG_ET_RSH_OT0_
	.section	.text._ZNSaISt13_Rb_tree_nodeISt4pairIKN3vuh10LenCounter5StateENSt7__cxx1112basic_stringIcSt11char_traitsIcESaIcEEEEEEC2ERKSD_,"axG",@progbits,_ZNSaISt13_Rb_tree_nodeISt4pairIKN3vuh10LenCounter5StateENSt7__cxx1112basic_stringIcSt11char_traitsIcESaIcEEEEEEC5ERKSD_,comdat
	.align 2
	.weak	_ZNSaISt13_Rb_tree_nodeISt4pairIKN3vuh10LenCounter5StateENSt7__cxx1112basic_stringIcSt11char_traitsIcESaIcEEEEEEC2ERKSD_
	.type	_ZNSaISt13_Rb_tree_nodeISt4pairIKN3vuh10LenCounter5StateENSt7__cxx1112basic_stringIcSt11char_traitsIcESaIcEEEEEEC2ERKSD_, @function
_ZNSaISt13_Rb_tree_nodeISt4pairIKN3vuh10LenCounter5StateENSt7__cxx1112basic_stringIcSt11char_traitsIcESaIcEEEEEEC2ERKSD_:
.LFB3099:
	.loc 10 133 7
	.cfi_startproc
	pushq	%rbp
	.cfi_def_cfa_offset 16
	.cfi_offset 6, -16
	movq	%rsp, %rbp
	.cfi_def_cfa_register 6
	subq	$16, %rsp
	movq	%rdi, -8(%rbp)
	movq	%rsi, -16(%rbp)
.LBB76:
	.loc 10 134 34
	movq	-16(%rbp), %rdx
	movq	-8(%rbp), %rax
	movq	%rdx, %rsi
	movq	%rax, %rdi
	call	_ZN9__gnu_cxx13new_allocatorISt13_Rb_tree_nodeISt4pairIKN3vuh10LenCounter5StateENSt7__cxx1112basic_stringIcSt11char_traitsIcESaIcEEEEEEC2ERKSF_
.LBE76:
	.loc 10 134 38
	nop
	leave
	.cfi_def_cfa 7, 8
	ret
	.cfi_endproc
.LFE3099:
	.size	_ZNSaISt13_Rb_tree_nodeISt4pairIKN3vuh10LenCounter5StateENSt7__cxx1112basic_stringIcSt11char_traitsIcESaIcEEEEEEC2ERKSD_, .-_ZNSaISt13_Rb_tree_nodeISt4pairIKN3vuh10LenCounter5StateENSt7__cxx1112basic_stringIcSt11char_traitsIcESaIcEEEEEEC2ERKSD_
	.weak	_ZNSaISt13_Rb_tree_nodeISt4pairIKN3vuh10LenCounter5StateENSt7__cxx1112basic_stringIcSt11char_traitsIcESaIcEEEEEEC1ERKSD_
	.set	_ZNSaISt13_Rb_tree_nodeISt4pairIKN3vuh10LenCounter5StateENSt7__cxx1112basic_stringIcSt11char_traitsIcESaIcEEEEEEC1ERKSD_,_ZNSaISt13_Rb_tree_nodeISt4pairIKN3vuh10LenCounter5StateENSt7__cxx1112basic_stringIcSt11char_traitsIcESaIcEEEEEEC2ERKSD_
	.section	.text._ZNSt20_Rb_tree_key_compareISt4lessIN3vuh10LenCounter5StateEEEC2EOS5_,"axG",@progbits,_ZNSt20_Rb_tree_key_compareISt4lessIN3vuh10LenCounter5StateEEEC5EOS5_,comdat
	.align 2
	.weak	_ZNSt20_Rb_tree_key_compareISt4lessIN3vuh10LenCounter5StateEEEC2EOS5_
	.type	_ZNSt20_Rb_tree_key_compareISt4lessIN3vuh10LenCounter5StateEEEC2EOS5_, @function
_ZNSt20_Rb_tree_key_compareISt4lessIN3vuh10LenCounter5StateEEEC2EOS5_:
.LFB3102:
	.loc 6 160 7
	.cfi_startproc
	pushq	%rbp
	.cfi_def_cfa_offset 16
	.cfi_offset 6, -16
	movq	%rsp, %rbp
	.cfi_def_cfa_register 6
	movq	%rdi, -8(%rbp)
	movq	%rsi, -16(%rbp)
	.loc 6 163 9
	nop
	popq	%rbp
	.cfi_def_cfa 7, 8
	ret
	.cfi_endproc
.LFE3102:
	.size	_ZNSt20_Rb_tree_key_compareISt4lessIN3vuh10LenCounter5StateEEEC2EOS5_, .-_ZNSt20_Rb_tree_key_compareISt4lessIN3vuh10LenCounter5StateEEEC2EOS5_
	.weak	_ZNSt20_Rb_tree_key_compareISt4lessIN3vuh10LenCounter5StateEEEC1EOS5_
	.set	_ZNSt20_Rb_tree_key_compareISt4lessIN3vuh10LenCounter5StateEEEC1EOS5_,_ZNSt20_Rb_tree_key_compareISt4lessIN3vuh10LenCounter5StateEEEC2EOS5_
	.section	.text._ZN9__gnu_cxx14__alloc_traitsISaISt13_Rb_tree_nodeISt4pairIKN3vuh10LenCounter5StateENSt7__cxx1112basic_stringIcSt11char_traitsIcESaIcEEEEEESE_E27_S_propagate_on_copy_assignEv,"axG",@progbits,_ZN9__gnu_cxx14__alloc_traitsISaISt13_Rb_tree_nodeISt4pairIKN3vuh10LenCounter5StateENSt7__cxx1112basic_stringIcSt11char_traitsIcESaIcEEEEEESE_E27_S_propagate_on_copy_assignEv,comdat
	.weak	_ZN9__gnu_cxx14__alloc_traitsISaISt13_Rb_tree_nodeISt4pairIKN3vuh10LenCounter5StateENSt7__cxx1112basic_stringIcSt11char_traitsIcESaIcEEEEEESE_E27_S_propagate_on_copy_assignEv
	.type	_ZN9__gnu_cxx14__alloc_traitsISaISt13_Rb_tree_nodeISt4pairIKN3vuh10LenCounter5StateENSt7__cxx1112basic_stringIcSt11char_traitsIcESaIcEEEEEESE_E27_S_propagate_on_copy_assignEv, @function
_ZN9__gnu_cxx14__alloc_traitsISaISt13_Rb_tree_nodeISt4pairIKN3vuh10LenCounter5StateENSt7__cxx1112basic_stringIcSt11char_traitsIcESaIcEEEEEESE_E27_S_propagate_on_copy_assignEv:
.LFB3105:
	.loc 9 100 27
	.cfi_startproc
	pushq	%rbp
	.cfi_def_cfa_offset 16
	.cfi_offset 6, -16
	movq	%rsp, %rbp
	.cfi_def_cfa_register 6
	.loc 9 101 66
	movl	$0, %eax
	.loc 9 101 73
	popq	%rbp
	.cfi_def_cfa 7, 8
	ret
	.cfi_endproc
.LFE3105:
	.size	_ZN9__gnu_cxx14__alloc_traitsISaISt13_Rb_tree_nodeISt4pairIKN3vuh10LenCounter5StateENSt7__cxx1112basic_stringIcSt11char_traitsIcESaIcEEEEEESE_E27_S_propagate_on_copy_assignEv, .-_ZN9__gnu_cxx14__alloc_traitsISaISt13_Rb_tree_nodeISt4pairIKN3vuh10LenCounter5StateENSt7__cxx1112basic_stringIcSt11char_traitsIcESaIcEEEEEESE_E27_S_propagate_on_copy_assignEv
	.section	.text._ZNSt8_Rb_treeIN3vuh10LenCounter5StateESt4pairIKS2_NSt7__cxx1112basic_stringIcSt11char_traitsIcESaIcEEEESt10_Select1stISB_ESt4lessIS2_ESaISB_EEaSERKSH_,"axG",@progbits,_ZNSt8_Rb_treeIN3vuh10LenCounter5StateESt4pairIKS2_NSt7__cxx1112basic_stringIcSt11char_traitsIcESaIcEEEESt10_Select1stISB_ESt4lessIS2_ESaISB_EEaSERKSH_,comdat
	.align 2
	.weak	_ZNSt8_Rb_treeIN3vuh10LenCounter5StateESt4pairIKS2_NSt7__cxx1112basic_stringIcSt11char_traitsIcESaIcEEEESt10_Select1stISB_ESt4lessIS2_ESaISB_EEaSERKSH_
	.type	_ZNSt8_Rb_treeIN3vuh10LenCounter5StateESt4pairIKS2_NSt7__cxx1112basic_stringIcSt11char_traitsIcESaIcEEEESt10_Select1stISB_ESt4lessIS2_ESaISB_EEaSERKSH_, @function
_ZNSt8_Rb_treeIN3vuh10LenCounter5StateESt4pairIKS2_NSt7__cxx1112basic_stringIcSt11char_traitsIcESaIcEEEESt10_Select1stISB_ESt4lessIS2_ESaISB_EEaSERKSH_:
.LFB3104:
	.loc 6 1716 5
	.cfi_startproc
	.cfi_personality 0x3,__gxx_personality_v0
	.cfi_lsda 0x3,.LLSDA3104
	pushq	%rbp
	.cfi_def_cfa_offset 16
	.cfi_offset 6, -16
	movq	%rsp, %rbp
	.cfi_def_cfa_register 6
	pushq	%rbx
	subq	$72, %rsp
	.cfi_offset 3, -24
	movq	%rdi, -72(%rbp)
	movq	%rsi, -80(%rbp)
.LBB77:
	.loc 6 1719 7
	movq	-72(%rbp), %rax
	cmpq	-80(%rbp), %rax
	je	.L216
.LBB78:
.LBB79:
	.loc 6 1723 50
	call	_ZN9__gnu_cxx14__alloc_traitsISaISt13_Rb_tree_nodeISt4pairIKN3vuh10LenCounter5StateENSt7__cxx1112basic_stringIcSt11char_traitsIcESaIcEEEEEESE_E27_S_propagate_on_copy_assignEv
	.loc 6 1723 4
	testb	%al, %al
	je	.L217
.LBB80:
	.loc 6 1725 14
	movq	-72(%rbp), %rax
	movq	%rax, %rdi
	call	_ZNSt8_Rb_treeIN3vuh10LenCounter5StateESt4pairIKS2_NSt7__cxx1112basic_stringIcSt11char_traitsIcESaIcEEEESt10_Select1stISB_ESt4lessIS2_ESaISB_EE21_M_get_Node_allocatorEv
	movq	%rax, -24(%rbp)
	.loc 6 1726 14
	movq	-80(%rbp), %rax
	movq	%rax, %rdi
	call	_ZNKSt8_Rb_treeIN3vuh10LenCounter5StateESt4pairIKS2_NSt7__cxx1112basic_stringIcSt11char_traitsIcESaIcEEEESt10_Select1stISB_ESt4lessIS2_ESaISB_EE21_M_get_Node_allocatorEv
	movq	%rax, -32(%rbp)
	.loc 6 1727 43
	call	_ZN9__gnu_cxx14__alloc_traitsISaISt13_Rb_tree_nodeISt4pairIKN3vuh10LenCounter5StateENSt7__cxx1112basic_stringIcSt11char_traitsIcESaIcEEEEEESE_E15_S_always_equalEv
	.loc 6 1727 12
	xorl	$1, %eax
	.loc 6 1728 5
	testb	%al, %al
	je	.L218
	.loc 6 1728 21 discriminator 1
	movq	-32(%rbp), %rdx
	movq	-24(%rbp), %rax
	movq	%rdx, %rsi
	movq	%rax, %rdi
	call	_ZStneISt13_Rb_tree_nodeISt4pairIKN3vuh10LenCounter5StateENSt7__cxx1112basic_stringIcSt11char_traitsIcESaIcEEEEEEbRKSaIT_ESH_
	.loc 6 1728 5 discriminator 1
	testb	%al, %al
	je	.L218
	.loc 6 1728 5 is_stmt 0 discriminator 3
	movl	$1, %eax
	jmp	.L219
.L218:
	.loc 6 1728 5 discriminator 4
	movl	$0, %eax
.L219:
	.loc 6 1727 8 is_stmt 1 discriminator 6
	testb	%al, %al
	je	.L217
	.loc 6 1732 5
	movq	-72(%rbp), %rax
	movq	%rax, %rdi
	call	_ZNSt8_Rb_treeIN3vuh10LenCounter5StateESt4pairIKS2_NSt7__cxx1112basic_stringIcSt11char_traitsIcESaIcEEEESt10_Select1stISB_ESt4lessIS2_ESaISB_EE5clearEv
	.loc 6 1733 25
	movq	-32(%rbp), %rdx
	movq	-24(%rbp), %rax
	movq	%rdx, %rsi
	movq	%rax, %rdi
.LEHB44:
	call	_ZSt15__alloc_on_copyISaISt13_Rb_tree_nodeISt4pairIKN3vuh10LenCounter5StateENSt7__cxx1112basic_stringIcSt11char_traitsIcESaIcEEEEEEEvRT_RKSF_
.LEHE44:
.L217:
.LBE80:
.LBE79:
	.loc 6 1738 25
	movq	-72(%rbp), %rdx
	leaq	-64(%rbp), %rax
	movq	%rdx, %rsi
	movq	%rax, %rdi
	call	_ZNSt8_Rb_treeIN3vuh10LenCounter5StateESt4pairIKS2_NSt7__cxx1112basic_stringIcSt11char_traitsIcESaIcEEEESt10_Select1stISB_ESt4lessIS2_ESaISB_EE20_Reuse_or_alloc_nodeC1ERSH_
	.loc 6 1739 4
	movq	-72(%rbp), %rax
	addq	$8, %rax
	movq	%rax, %rdi
	call	_ZNSt15_Rb_tree_header8_M_resetEv
	.loc 6 1741 22
	movq	-80(%rbp), %rax
	movq	%rax, %rdi
	call	_ZNKSt8_Rb_treeIN3vuh10LenCounter5StateESt4pairIKS2_NSt7__cxx1112basic_stringIcSt11char_traitsIcESaIcEEEESt10_Select1stISB_ESt4lessIS2_ESaISB_EE7_M_rootEv
	testq	%rax, %rax
	setne	%al
	.loc 6 1741 4
	testb	%al, %al
	je	.L221
	.loc 6 1742 16
	movq	-72(%rbp), %rax
	movq	%rax, %rdi
	call	_ZNSt8_Rb_treeIN3vuh10LenCounter5StateESt4pairIKS2_NSt7__cxx1112basic_stringIcSt11char_traitsIcESaIcEEEESt10_Select1stISB_ESt4lessIS2_ESaISB_EE7_M_rootEv
	movq	%rax, %rbx
	leaq	-64(%rbp), %rdx
	movq	-80(%rbp), %rcx
	movq	-72(%rbp), %rax
	movq	%rcx, %rsi
	movq	%rax, %rdi
.LEHB45:
	call	_ZNSt8_Rb_treeIN3vuh10LenCounter5StateESt4pairIKS2_NSt7__cxx1112basic_stringIcSt11char_traitsIcESaIcEEEESt10_Select1stISB_ESt4lessIS2_ESaISB_EE7_M_copyINSH_20_Reuse_or_alloc_nodeEEEPSt13_Rb_tree_nodeISB_ERKSH_RT_
.LEHE45:
	.loc 6 1742 6
	movq	%rax, (%rbx)
.L221:
	.loc 6 1738 25
	leaq	-64(%rbp), %rax
	movq	%rax, %rdi
	call	_ZNSt8_Rb_treeIN3vuh10LenCounter5StateESt4pairIKS2_NSt7__cxx1112basic_stringIcSt11char_traitsIcESaIcEEEESt10_Select1stISB_ESt4lessIS2_ESaISB_EE20_Reuse_or_alloc_nodeD1Ev
.L216:
.LBE78:
.LBE77:
	.loc 6 1745 15
	movq	-72(%rbp), %rax
	jmp	.L225
.L224:
	movq	%rax, %rbx
.LBB82:
.LBB81:
	.loc 6 1738 25
	leaq	-64(%rbp), %rax
	movq	%rax, %rdi
	call	_ZNSt8_Rb_treeIN3vuh10LenCounter5StateESt4pairIKS2_NSt7__cxx1112basic_stringIcSt11char_traitsIcESaIcEEEESt10_Select1stISB_ESt4lessIS2_ESaISB_EE20_Reuse_or_alloc_nodeD1Ev
	movq	%rbx, %rax
	movq	%rax, %rdi
.LEHB46:
	call	_Unwind_Resume
.LEHE46:
.L225:
.LBE81:
.LBE82:
	.loc 6 1746 5
	addq	$72, %rsp
	popq	%rbx
	popq	%rbp
	.cfi_def_cfa 7, 8
	ret
	.cfi_endproc
.LFE3104:
	.section	.gcc_except_table
.LLSDA3104:
	.byte	0xff
	.byte	0xff
	.byte	0x1
	.uleb128 .LLSDACSE3104-.LLSDACSB3104
.LLSDACSB3104:
	.uleb128 .LEHB44-.LFB3104
	.uleb128 .LEHE44-.LEHB44
	.uleb128 0
	.uleb128 0
	.uleb128 .LEHB45-.LFB3104
	.uleb128 .LEHE45-.LEHB45
	.uleb128 .L224-.LFB3104
	.uleb128 0
	.uleb128 .LEHB46-.LFB3104
	.uleb128 .LEHE46-.LEHB46
	.uleb128 0
	.uleb128 0
.LLSDACSE3104:
	.section	.text._ZNSt8_Rb_treeIN3vuh10LenCounter5StateESt4pairIKS2_NSt7__cxx1112basic_stringIcSt11char_traitsIcESaIcEEEESt10_Select1stISB_ESt4lessIS2_ESaISB_EEaSERKSH_,"axG",@progbits,_ZNSt8_Rb_treeIN3vuh10LenCounter5StateESt4pairIKS2_NSt7__cxx1112basic_stringIcSt11char_traitsIcESaIcEEEESt10_Select1stISB_ESt4lessIS2_ESaISB_EEaSERKSH_,comdat
	.size	_ZNSt8_Rb_treeIN3vuh10LenCounter5StateESt4pairIKS2_NSt7__cxx1112basic_stringIcSt11char_traitsIcESaIcEEEESt10_Select1stISB_ESt4lessIS2_ESaISB_EEaSERKSH_, .-_ZNSt8_Rb_treeIN3vuh10LenCounter5StateESt4pairIKS2_NSt7__cxx1112basic_stringIcSt11char_traitsIcESaIcEEEESt10_Select1stISB_ESt4lessIS2_ESaISB_EEaSERKSH_
	.section	.text._ZNSt8_Rb_treeIN3vuh10LenCounter5StateESt4pairIKS2_NSt7__cxx1112basic_stringIcSt11char_traitsIcESaIcEEEESt10_Select1stISB_ESt4lessIS2_ESaISB_EEaSEOSH_,"axG",@progbits,_ZNSt8_Rb_treeIN3vuh10LenCounter5StateESt4pairIKS2_NSt7__cxx1112basic_stringIcSt11char_traitsIcESaIcEEEESt10_Select1stISB_ESt4lessIS2_ESaISB_EEaSEOSH_,comdat
	.align 2
	.weak	_ZNSt8_Rb_treeIN3vuh10LenCounter5StateESt4pairIKS2_NSt7__cxx1112basic_stringIcSt11char_traitsIcESaIcEEEESt10_Select1stISB_ESt4lessIS2_ESaISB_EEaSEOSH_
	.type	_ZNSt8_Rb_treeIN3vuh10LenCounter5StateESt4pairIKS2_NSt7__cxx1112basic_stringIcSt11char_traitsIcESaIcEEEESt10_Select1stISB_ESt4lessIS2_ESaISB_EEaSEOSH_, @function
_ZNSt8_Rb_treeIN3vuh10LenCounter5StateESt4pairIKS2_NSt7__cxx1112basic_stringIcSt11char_traitsIcESaIcEEEESt10_Select1stISB_ESt4lessIS2_ESaISB_EEaSEOSH_:
.LFB3106:
	.loc 6 1676 5
	.cfi_startproc
	.cfi_personality 0x3,__gxx_personality_v0
	.cfi_lsda 0x3,.LLSDA3106
	pushq	%rbp
	.cfi_def_cfa_offset 16
	.cfi_offset 6, -16
	movq	%rsp, %rbp
	.cfi_def_cfa_register 6
	subq	$32, %rsp
	movq	%rdi, -24(%rbp)
	movq	%rsi, -32(%rbp)
	.loc 6 1681 54
	movq	-32(%rbp), %rax
	.loc 6 1681 41
	movq	%rax, %rdi
	call	_ZSt4moveIRSt4lessIN3vuh10LenCounter5StateEEEONSt16remove_referenceIT_E4typeEOS7_
	.loc 6 1682 7
	movq	-32(%rbp), %rdx
	movq	-24(%rbp), %rax
	movq	%rdx, %rsi
	movq	%rax, %rdi
	call	_ZNSt8_Rb_treeIN3vuh10LenCounter5StateESt4pairIKS2_NSt7__cxx1112basic_stringIcSt11char_traitsIcESaIcEEEESt10_Select1stISB_ESt4lessIS2_ESaISB_EE14_M_move_assignERSH_St17integral_constantIbLb1EE
	.loc 6 1683 15
	movq	-24(%rbp), %rax
	.loc 6 1684 5
	leave
	.cfi_def_cfa 7, 8
	ret
	.cfi_endproc
.LFE3106:
	.section	.gcc_except_table
.LLSDA3106:
	.byte	0xff
	.byte	0xff
	.byte	0x1
	.uleb128 .LLSDACSE3106-.LLSDACSB3106
.LLSDACSB3106:
.LLSDACSE3106:
	.section	.text._ZNSt8_Rb_treeIN3vuh10LenCounter5StateESt4pairIKS2_NSt7__cxx1112basic_stringIcSt11char_traitsIcESaIcEEEESt10_Select1stISB_ESt4lessIS2_ESaISB_EEaSEOSH_,"axG",@progbits,_ZNSt8_Rb_treeIN3vuh10LenCounter5StateESt4pairIKS2_NSt7__cxx1112basic_stringIcSt11char_traitsIcESaIcEEEESt10_Select1stISB_ESt4lessIS2_ESaISB_EEaSEOSH_,comdat
	.size	_ZNSt8_Rb_treeIN3vuh10LenCounter5StateESt4pairIKS2_NSt7__cxx1112basic_stringIcSt11char_traitsIcESaIcEEEESt10_Select1stISB_ESt4lessIS2_ESaISB_EEaSEOSH_, .-_ZNSt8_Rb_treeIN3vuh10LenCounter5StateESt4pairIKS2_NSt7__cxx1112basic_stringIcSt11char_traitsIcESaIcEEEESt10_Select1stISB_ESt4lessIS2_ESaISB_EEaSEOSH_
	.section	.text._ZNSaISt13_Rb_tree_nodeISt4pairIKN3vuh10LenCounter5StateENSt7__cxx1112basic_stringIcSt11char_traitsIcESaIcEEEEEEC2Ev,"axG",@progbits,_ZNSaISt13_Rb_tree_nodeISt4pairIKN3vuh10LenCounter5StateENSt7__cxx1112basic_stringIcSt11char_traitsIcESaIcEEEEEEC5Ev,comdat
	.align 2
	.weak	_ZNSaISt13_Rb_tree_nodeISt4pairIKN3vuh10LenCounter5StateENSt7__cxx1112basic_stringIcSt11char_traitsIcESaIcEEEEEEC2Ev
	.type	_ZNSaISt13_Rb_tree_nodeISt4pairIKN3vuh10LenCounter5StateENSt7__cxx1112basic_stringIcSt11char_traitsIcESaIcEEEEEEC2Ev, @function
_ZNSaISt13_Rb_tree_nodeISt4pairIKN3vuh10LenCounter5StateENSt7__cxx1112basic_stringIcSt11char_traitsIcESaIcEEEEEEC2Ev:
.LFB3216:
	.loc 10 131 7
	.cfi_startproc
	pushq	%rbp
	.cfi_def_cfa_offset 16
	.cfi_offset 6, -16
	movq	%rsp, %rbp
	.cfi_def_cfa_register 6
	subq	$16, %rsp
	movq	%rdi, -8(%rbp)
.LBB83:
	.loc 10 131 27
	movq	-8(%rbp), %rax
	movq	%rax, %rdi
	call	_ZN9__gnu_cxx13new_allocatorISt13_Rb_tree_nodeISt4pairIKN3vuh10LenCounter5StateENSt7__cxx1112basic_stringIcSt11char_traitsIcESaIcEEEEEEC2Ev
.LBE83:
	.loc 10 131 29
	nop
	leave
	.cfi_def_cfa 7, 8
	ret
	.cfi_endproc
.LFE3216:
	.size	_ZNSaISt13_Rb_tree_nodeISt4pairIKN3vuh10LenCounter5StateENSt7__cxx1112basic_stringIcSt11char_traitsIcESaIcEEEEEEC2Ev, .-_ZNSaISt13_Rb_tree_nodeISt4pairIKN3vuh10LenCounter5StateENSt7__cxx1112basic_stringIcSt11char_traitsIcESaIcEEEEEEC2Ev
	.weak	_ZNSaISt13_Rb_tree_nodeISt4pairIKN3vuh10LenCounter5StateENSt7__cxx1112basic_stringIcSt11char_traitsIcESaIcEEEEEEC1Ev
	.set	_ZNSaISt13_Rb_tree_nodeISt4pairIKN3vuh10LenCounter5StateENSt7__cxx1112basic_stringIcSt11char_traitsIcESaIcEEEEEEC1Ev,_ZNSaISt13_Rb_tree_nodeISt4pairIKN3vuh10LenCounter5StateENSt7__cxx1112basic_stringIcSt11char_traitsIcESaIcEEEEEEC2Ev
	.section	.text._ZNSt20_Rb_tree_key_compareISt4lessIN3vuh10LenCounter5StateEEEC2Ev,"axG",@progbits,_ZNSt20_Rb_tree_key_compareISt4lessIN3vuh10LenCounter5StateEEEC5Ev,comdat
	.align 2
	.weak	_ZNSt20_Rb_tree_key_compareISt4lessIN3vuh10LenCounter5StateEEEC2Ev
	.type	_ZNSt20_Rb_tree_key_compareISt4lessIN3vuh10LenCounter5StateEEEC2Ev, @function
_ZNSt20_Rb_tree_key_compareISt4lessIN3vuh10LenCounter5StateEEEC2Ev:
.LFB3219:
	.loc 6 146 7
	.cfi_startproc
	pushq	%rbp
	.cfi_def_cfa_offset 16
	.cfi_offset 6, -16
	movq	%rsp, %rbp
	.cfi_def_cfa_register 6
	movq	%rdi, -8(%rbp)
	.loc 6 150 9
	nop
	popq	%rbp
	.cfi_def_cfa 7, 8
	ret
	.cfi_endproc
.LFE3219:
	.size	_ZNSt20_Rb_tree_key_compareISt4lessIN3vuh10LenCounter5StateEEEC2Ev, .-_ZNSt20_Rb_tree_key_compareISt4lessIN3vuh10LenCounter5StateEEEC2Ev
	.weak	_ZNSt20_Rb_tree_key_compareISt4lessIN3vuh10LenCounter5StateEEEC1Ev
	.set	_ZNSt20_Rb_tree_key_compareISt4lessIN3vuh10LenCounter5StateEEEC1Ev,_ZNSt20_Rb_tree_key_compareISt4lessIN3vuh10LenCounter5StateEEEC2Ev
	.section	.text._ZN9__gnu_cxx13new_allocatorISt13_Rb_tree_nodeISt4pairIKN3vuh10LenCounter5StateENSt7__cxx1112basic_stringIcSt11char_traitsIcESaIcEEEEEED2Ev,"axG",@progbits,_ZN9__gnu_cxx13new_allocatorISt13_Rb_tree_nodeISt4pairIKN3vuh10LenCounter5StateENSt7__cxx1112basic_stringIcSt11char_traitsIcESaIcEEEEEED5Ev,comdat
	.align 2
	.weak	_ZN9__gnu_cxx13new_allocatorISt13_Rb_tree_nodeISt4pairIKN3vuh10LenCounter5StateENSt7__cxx1112basic_stringIcSt11char_traitsIcESaIcEEEEEED2Ev
	.type	_ZN9__gnu_cxx13new_allocatorISt13_Rb_tree_nodeISt4pairIKN3vuh10LenCounter5StateENSt7__cxx1112basic_stringIcSt11char_traitsIcESaIcEEEEEED2Ev, @function
_ZN9__gnu_cxx13new_allocatorISt13_Rb_tree_nodeISt4pairIKN3vuh10LenCounter5StateENSt7__cxx1112basic_stringIcSt11char_traitsIcESaIcEEEEEED2Ev:
.LFB3222:
	.file 14 "/usr/include/c++/8/ext/new_allocator.h"
	.loc 14 86 7
	.cfi_startproc
	pushq	%rbp
	.cfi_def_cfa_offset 16
	.cfi_offset 6, -16
	movq	%rsp, %rbp
	.cfi_def_cfa_register 6
	movq	%rdi, -8(%rbp)
	.loc 14 86 35
	nop
	popq	%rbp
	.cfi_def_cfa 7, 8
	ret
	.cfi_endproc
.LFE3222:
	.size	_ZN9__gnu_cxx13new_allocatorISt13_Rb_tree_nodeISt4pairIKN3vuh10LenCounter5StateENSt7__cxx1112basic_stringIcSt11char_traitsIcESaIcEEEEEED2Ev, .-_ZN9__gnu_cxx13new_allocatorISt13_Rb_tree_nodeISt4pairIKN3vuh10LenCounter5StateENSt7__cxx1112basic_stringIcSt11char_traitsIcESaIcEEEEEED2Ev
	.weak	_ZN9__gnu_cxx13new_allocatorISt13_Rb_tree_nodeISt4pairIKN3vuh10LenCounter5StateENSt7__cxx1112basic_stringIcSt11char_traitsIcESaIcEEEEEED1Ev
	.set	_ZN9__gnu_cxx13new_allocatorISt13_Rb_tree_nodeISt4pairIKN3vuh10LenCounter5StateENSt7__cxx1112basic_stringIcSt11char_traitsIcESaIcEEEEEED1Ev,_ZN9__gnu_cxx13new_allocatorISt13_Rb_tree_nodeISt4pairIKN3vuh10LenCounter5StateENSt7__cxx1112basic_stringIcSt11char_traitsIcESaIcEEEEEED2Ev
	.section	.text._ZNSt8_Rb_treeIN3vuh10LenCounter5StateESt4pairIKS2_NSt7__cxx1112basic_stringIcSt11char_traitsIcESaIcEEEESt10_Select1stISB_ESt4lessIS2_ESaISB_EE8_M_eraseEPSt13_Rb_tree_nodeISB_E,"axG",@progbits,_ZNSt8_Rb_treeIN3vuh10LenCounter5StateESt4pairIKS2_NSt7__cxx1112basic_stringIcSt11char_traitsIcESaIcEEEESt10_Select1stISB_ESt4lessIS2_ESaISB_EE8_M_eraseEPSt13_Rb_tree_nodeISB_E,comdat
	.align 2
	.weak	_ZNSt8_Rb_treeIN3vuh10LenCounter5StateESt4pairIKS2_NSt7__cxx1112basic_stringIcSt11char_traitsIcESaIcEEEESt10_Select1stISB_ESt4lessIS2_ESaISB_EE8_M_eraseEPSt13_Rb_tree_nodeISB_E
	.type	_ZNSt8_Rb_treeIN3vuh10LenCounter5StateESt4pairIKS2_NSt7__cxx1112basic_stringIcSt11char_traitsIcESaIcEEEESt10_Select1stISB_ESt4lessIS2_ESaISB_EE8_M_eraseEPSt13_Rb_tree_nodeISB_E, @function
_ZNSt8_Rb_treeIN3vuh10LenCounter5StateESt4pairIKS2_NSt7__cxx1112basic_stringIcSt11char_traitsIcESaIcEEEESt10_Select1stISB_ESt4lessIS2_ESaISB_EE8_M_eraseEPSt13_Rb_tree_nodeISB_E:
.LFB3224:
	.loc 6 1866 5
	.cfi_startproc
	pushq	%rbp
	.cfi_def_cfa_offset 16
	.cfi_offset 6, -16
	movq	%rsp, %rbp
	.cfi_def_cfa_register 6
	subq	$32, %rsp
	movq	%rdi, -24(%rbp)
	movq	%rsi, -32(%rbp)
.L233:
	.loc 6 1870 18
	cmpq	$0, -32(%rbp)
	je	.L234
.LBB84:
	.loc 6 1872 4
	movq	-32(%rbp), %rax
	movq	%rax, %rdi
	call	_ZNSt8_Rb_treeIN3vuh10LenCounter5StateESt4pairIKS2_NSt7__cxx1112basic_stringIcSt11char_traitsIcESaIcEEEESt10_Select1stISB_ESt4lessIS2_ESaISB_EE8_S_rightEPSt18_Rb_tree_node_base
	movq	%rax, %rdx
	movq	-24(%rbp), %rax
	movq	%rdx, %rsi
	movq	%rax, %rdi
	call	_ZNSt8_Rb_treeIN3vuh10LenCounter5StateESt4pairIKS2_NSt7__cxx1112basic_stringIcSt11char_traitsIcESaIcEEEESt10_Select1stISB_ESt4lessIS2_ESaISB_EE8_M_eraseEPSt13_Rb_tree_nodeISB_E
	.loc 6 1873 28
	movq	-32(%rbp), %rax
	movq	%rax, %rdi
	call	_ZNSt8_Rb_treeIN3vuh10LenCounter5StateESt4pairIKS2_NSt7__cxx1112basic_stringIcSt11char_traitsIcESaIcEEEESt10_Select1stISB_ESt4lessIS2_ESaISB_EE7_S_leftEPSt18_Rb_tree_node_base
	movq	%rax, -8(%rbp)
	.loc 6 1874 4
	movq	-32(%rbp), %rdx
	movq	-24(%rbp), %rax
	movq	%rdx, %rsi
	movq	%rax, %rdi
	call	_ZNSt8_Rb_treeIN3vuh10LenCounter5StateESt4pairIKS2_NSt7__cxx1112basic_stringIcSt11char_traitsIcESaIcEEEESt10_Select1stISB_ESt4lessIS2_ESaISB_EE12_M_drop_nodeEPSt13_Rb_tree_nodeISB_E
	.loc 6 1875 4
	movq	-8(%rbp), %rax
	movq	%rax, -32(%rbp)
.LBE84:
	.loc 6 1870 7
	jmp	.L233
.L234:
	.loc 6 1877 5
	nop
	leave
	.cfi_def_cfa 7, 8
	ret
	.cfi_endproc
.LFE3224:
	.size	_ZNSt8_Rb_treeIN3vuh10LenCounter5StateESt4pairIKS2_NSt7__cxx1112basic_stringIcSt11char_traitsIcESaIcEEEESt10_Select1stISB_ESt4lessIS2_ESaISB_EE8_M_eraseEPSt13_Rb_tree_nodeISB_E, .-_ZNSt8_Rb_treeIN3vuh10LenCounter5StateESt4pairIKS2_NSt7__cxx1112basic_stringIcSt11char_traitsIcESaIcEEEESt10_Select1stISB_ESt4lessIS2_ESaISB_EE8_M_eraseEPSt13_Rb_tree_nodeISB_E
	.section	.text._ZNSt8_Rb_treeIN3vuh10LenCounter5StateESt4pairIKS2_NSt7__cxx1112basic_stringIcSt11char_traitsIcESaIcEEEESt10_Select1stISB_ESt4lessIS2_ESaISB_EE8_M_beginEv,"axG",@progbits,_ZNSt8_Rb_treeIN3vuh10LenCounter5StateESt4pairIKS2_NSt7__cxx1112basic_stringIcSt11char_traitsIcESaIcEEEESt10_Select1stISB_ESt4lessIS2_ESaISB_EE8_M_beginEv,comdat
	.align 2
	.weak	_ZNSt8_Rb_treeIN3vuh10LenCounter5StateESt4pairIKS2_NSt7__cxx1112basic_stringIcSt11char_traitsIcESaIcEEEESt10_Select1stISB_ESt4lessIS2_ESaISB_EE8_M_beginEv
	.type	_ZNSt8_Rb_treeIN3vuh10LenCounter5StateESt4pairIKS2_NSt7__cxx1112basic_stringIcSt11char_traitsIcESaIcEEEESt10_Select1stISB_ESt4lessIS2_ESaISB_EE8_M_beginEv, @function
_ZNSt8_Rb_treeIN3vuh10LenCounter5StateESt4pairIKS2_NSt7__cxx1112basic_stringIcSt11char_traitsIcESaIcEEEESt10_Select1stISB_ESt4lessIS2_ESaISB_EE8_M_beginEv:
.LFB3225:
	.loc 6 752 7
	.cfi_startproc
	pushq	%rbp
	.cfi_def_cfa_offset 16
	.cfi_offset 6, -16
	movq	%rsp, %rbp
	.cfi_def_cfa_register 6
	movq	%rdi, -8(%rbp)
	.loc 6 753 73
	movq	-8(%rbp), %rax
	movq	16(%rax), %rax
	.loc 6 753 76
	popq	%rbp
	.cfi_def_cfa 7, 8
	ret
	.cfi_endproc
.LFE3225:
	.size	_ZNSt8_Rb_treeIN3vuh10LenCounter5StateESt4pairIKS2_NSt7__cxx1112basic_stringIcSt11char_traitsIcESaIcEEEESt10_Select1stISB_ESt4lessIS2_ESaISB_EE8_M_beginEv, .-_ZNSt8_Rb_treeIN3vuh10LenCounter5StateESt4pairIKS2_NSt7__cxx1112basic_stringIcSt11char_traitsIcESaIcEEEESt10_Select1stISB_ESt4lessIS2_ESaISB_EE8_M_beginEv
	.section	.text._ZNSt3mapIN3vuh10LenCounter5StateENSt7__cxx1112basic_stringIcSt11char_traitsIcESaIcEEESt4lessIS2_ESaISt4pairIKS2_S8_EEE11lower_boundERSC_,"axG",@progbits,_ZNSt3mapIN3vuh10LenCounter5StateENSt7__cxx1112basic_stringIcSt11char_traitsIcESaIcEEESt4lessIS2_ESaISt4pairIKS2_S8_EEE11lower_boundERSC_,comdat
	.align 2
	.weak	_ZNSt3mapIN3vuh10LenCounter5StateENSt7__cxx1112basic_stringIcSt11char_traitsIcESaIcEEESt4lessIS2_ESaISt4pairIKS2_S8_EEE11lower_boundERSC_
	.type	_ZNSt3mapIN3vuh10LenCounter5StateENSt7__cxx1112basic_stringIcSt11char_traitsIcESaIcEEESt4lessIS2_ESaISt4pairIKS2_S8_EEE11lower_boundERSC_, @function
_ZNSt3mapIN3vuh10LenCounter5StateENSt7__cxx1112basic_stringIcSt11char_traitsIcESaIcEEESt4lessIS2_ESaISt4pairIKS2_S8_EEE11lower_boundERSC_:
.LFB3226:
	.loc 7 1239 7
	.cfi_startproc
	pushq	%rbp
	.cfi_def_cfa_offset 16
	.cfi_offset 6, -16
	movq	%rsp, %rbp
	.cfi_def_cfa_register 6
	subq	$16, %rsp
	movq	%rdi, -8(%rbp)
	movq	%rsi, -16(%rbp)
	.loc 7 1240 36
	movq	-8(%rbp), %rax
	movq	-16(%rbp), %rdx
	movq	%rdx, %rsi
	movq	%rax, %rdi
	call	_ZNSt8_Rb_treeIN3vuh10LenCounter5StateESt4pairIKS2_NSt7__cxx1112basic_stringIcSt11char_traitsIcESaIcEEEESt10_Select1stISB_ESt4lessIS2_ESaISB_EE11lower_boundERS4_
	.loc 7 1240 39
	leave
	.cfi_def_cfa 7, 8
	ret
	.cfi_endproc
.LFE3226:
	.size	_ZNSt3mapIN3vuh10LenCounter5StateENSt7__cxx1112basic_stringIcSt11char_traitsIcESaIcEEESt4lessIS2_ESaISt4pairIKS2_S8_EEE11lower_boundERSC_, .-_ZNSt3mapIN3vuh10LenCounter5StateENSt7__cxx1112basic_stringIcSt11char_traitsIcESaIcEEESt4lessIS2_ESaISt4pairIKS2_S8_EEE11lower_boundERSC_
	.section	.text._ZNSt3mapIN3vuh10LenCounter5StateENSt7__cxx1112basic_stringIcSt11char_traitsIcESaIcEEESt4lessIS2_ESaISt4pairIKS2_S8_EEE3endEv,"axG",@progbits,_ZNSt3mapIN3vuh10LenCounter5StateENSt7__cxx1112basic_stringIcSt11char_traitsIcESaIcEEESt4lessIS2_ESaISt4pairIKS2_S8_EEE3endEv,comdat
	.align 2
	.weak	_ZNSt3mapIN3vuh10LenCounter5StateENSt7__cxx1112basic_stringIcSt11char_traitsIcESaIcEEESt4lessIS2_ESaISt4pairIKS2_S8_EEE3endEv
	.type	_ZNSt3mapIN3vuh10LenCounter5StateENSt7__cxx1112basic_stringIcSt11char_traitsIcESaIcEEESt4lessIS2_ESaISt4pairIKS2_S8_EEE3endEv, @function
_ZNSt3mapIN3vuh10LenCounter5StateENSt7__cxx1112basic_stringIcSt11char_traitsIcESaIcEEESt4lessIS2_ESaISt4pairIKS2_S8_EEE3endEv:
.LFB3227:
	.loc 7 372 7
	.cfi_startproc
	pushq	%rbp
	.cfi_def_cfa_offset 16
	.cfi_offset 6, -16
	movq	%rsp, %rbp
	.cfi_def_cfa_register 6
	subq	$16, %rsp
	movq	%rdi, -8(%rbp)
	.loc 7 373 25
	movq	-8(%rbp), %rax
	movq	%rax, %rdi
	call	_ZNSt8_Rb_treeIN3vuh10LenCounter5StateESt4pairIKS2_NSt7__cxx1112basic_stringIcSt11char_traitsIcESaIcEEEESt10_Select1stISB_ESt4lessIS2_ESaISB_EE3endEv
	.loc 7 373 28
	leave
	.cfi_def_cfa 7, 8
	ret
	.cfi_endproc
.LFE3227:
	.size	_ZNSt3mapIN3vuh10LenCounter5StateENSt7__cxx1112basic_stringIcSt11char_traitsIcESaIcEEESt4lessIS2_ESaISt4pairIKS2_S8_EEE3endEv, .-_ZNSt3mapIN3vuh10LenCounter5StateENSt7__cxx1112basic_stringIcSt11char_traitsIcESaIcEEESt4lessIS2_ESaISt4pairIKS2_S8_EEE3endEv
	.section	.text._ZNKSt17_Rb_tree_iteratorISt4pairIKN3vuh10LenCounter5StateENSt7__cxx1112basic_stringIcSt11char_traitsIcESaIcEEEEEeqERKSC_,"axG",@progbits,_ZNKSt17_Rb_tree_iteratorISt4pairIKN3vuh10LenCounter5StateENSt7__cxx1112basic_stringIcSt11char_traitsIcESaIcEEEEEeqERKSC_,comdat
	.align 2
	.weak	_ZNKSt17_Rb_tree_iteratorISt4pairIKN3vuh10LenCounter5StateENSt7__cxx1112basic_stringIcSt11char_traitsIcESaIcEEEEEeqERKSC_
	.type	_ZNKSt17_Rb_tree_iteratorISt4pairIKN3vuh10LenCounter5StateENSt7__cxx1112basic_stringIcSt11char_traitsIcESaIcEEEEEeqERKSC_, @function
_ZNKSt17_Rb_tree_iteratorISt4pairIKN3vuh10LenCounter5StateENSt7__cxx1112basic_stringIcSt11char_traitsIcESaIcEEEEEeqERKSC_:
.LFB3228:
	.loc 6 315 7
	.cfi_startproc
	pushq	%rbp
	.cfi_def_cfa_offset 16
	.cfi_offset 6, -16
	movq	%rsp, %rbp
	.cfi_def_cfa_register 6
	movq	%rdi, -8(%rbp)
	movq	%rsi, -16(%rbp)
	.loc 6 316 16
	movq	-8(%rbp), %rax
	movq	(%rax), %rdx
	.loc 6 316 31
	movq	-16(%rbp), %rax
	movq	(%rax), %rax
	cmpq	%rax, %rdx
	sete	%al
	.loc 6 316 40
	popq	%rbp
	.cfi_def_cfa 7, 8
	ret
	.cfi_endproc
.LFE3228:
	.size	_ZNKSt17_Rb_tree_iteratorISt4pairIKN3vuh10LenCounter5StateENSt7__cxx1112basic_stringIcSt11char_traitsIcESaIcEEEEEeqERKSC_, .-_ZNKSt17_Rb_tree_iteratorISt4pairIKN3vuh10LenCounter5StateENSt7__cxx1112basic_stringIcSt11char_traitsIcESaIcEEEEEeqERKSC_
	.section	.text._ZNKSt3mapIN3vuh10LenCounter5StateENSt7__cxx1112basic_stringIcSt11char_traitsIcESaIcEEESt4lessIS2_ESaISt4pairIKS2_S8_EEE8key_compEv,"axG",@progbits,_ZNKSt3mapIN3vuh10LenCounter5StateENSt7__cxx1112basic_stringIcSt11char_traitsIcESaIcEEESt4lessIS2_ESaISt4pairIKS2_S8_EEE8key_compEv,comdat
	.align 2
	.weak	_ZNKSt3mapIN3vuh10LenCounter5StateENSt7__cxx1112basic_stringIcSt11char_traitsIcESaIcEEESt4lessIS2_ESaISt4pairIKS2_S8_EEE8key_compEv
	.type	_ZNKSt3mapIN3vuh10LenCounter5StateENSt7__cxx1112basic_stringIcSt11char_traitsIcESaIcEEESt4lessIS2_ESaISt4pairIKS2_S8_EEE8key_compEv, @function
_ZNKSt3mapIN3vuh10LenCounter5StateENSt7__cxx1112basic_stringIcSt11char_traitsIcESaIcEEESt4lessIS2_ESaISt4pairIKS2_S8_EEE8key_compEv:
.LFB3229:
	.loc 7 1142 7
	.cfi_startproc
	pushq	%rbp
	.cfi_def_cfa_offset 16
	.cfi_offset 6, -16
	movq	%rsp, %rbp
	.cfi_def_cfa_register 6
	pushq	%rbx
	subq	$24, %rsp
	.cfi_offset 3, -24
	movq	%rdi, -24(%rbp)
	.loc 7 1143 30
	movq	-24(%rbp), %rax
	movq	%rax, %rdi
	call	_ZNKSt8_Rb_treeIN3vuh10LenCounter5StateESt4pairIKS2_NSt7__cxx1112basic_stringIcSt11char_traitsIcESaIcEEEESt10_Select1stISB_ESt4lessIS2_ESaISB_EE8key_compEv
	movl	%ebx, %eax
	.loc 7 1143 33
	addq	$24, %rsp
	popq	%rbx
	popq	%rbp
	.cfi_def_cfa 7, 8
	ret
	.cfi_endproc
.LFE3229:
	.size	_ZNKSt3mapIN3vuh10LenCounter5StateENSt7__cxx1112basic_stringIcSt11char_traitsIcESaIcEEESt4lessIS2_ESaISt4pairIKS2_S8_EEE8key_compEv, .-_ZNKSt3mapIN3vuh10LenCounter5StateENSt7__cxx1112basic_stringIcSt11char_traitsIcESaIcEEESt4lessIS2_ESaISt4pairIKS2_S8_EEE8key_compEv
	.section	.text._ZNKSt17_Rb_tree_iteratorISt4pairIKN3vuh10LenCounter5StateENSt7__cxx1112basic_stringIcSt11char_traitsIcESaIcEEEEEdeEv,"axG",@progbits,_ZNKSt17_Rb_tree_iteratorISt4pairIKN3vuh10LenCounter5StateENSt7__cxx1112basic_stringIcSt11char_traitsIcESaIcEEEEEdeEv,comdat
	.align 2
	.weak	_ZNKSt17_Rb_tree_iteratorISt4pairIKN3vuh10LenCounter5StateENSt7__cxx1112basic_stringIcSt11char_traitsIcESaIcEEEEEdeEv
	.type	_ZNKSt17_Rb_tree_iteratorISt4pairIKN3vuh10LenCounter5StateENSt7__cxx1112basic_stringIcSt11char_traitsIcESaIcEEEEEdeEv, @function
_ZNKSt17_Rb_tree_iteratorISt4pairIKN3vuh10LenCounter5StateENSt7__cxx1112basic_stringIcSt11char_traitsIcESaIcEEEEEdeEv:
.LFB3230:
	.loc 6 277 7
	.cfi_startproc
	pushq	%rbp
	.cfi_def_cfa_offset 16
	.cfi_offset 6, -16
	movq	%rsp, %rbp
	.cfi_def_cfa_register 6
	subq	$16, %rsp
	movq	%rdi, -8(%rbp)
	.loc 6 278 41
	movq	-8(%rbp), %rax
	movq	(%rax), %rax
	.loc 6 278 16
	movq	%rax, %rdi
	call	_ZNSt13_Rb_tree_nodeISt4pairIKN3vuh10LenCounter5StateENSt7__cxx1112basic_stringIcSt11char_traitsIcESaIcEEEEE9_M_valptrEv
	.loc 6 278 64
	leave
	.cfi_def_cfa 7, 8
	ret
	.cfi_endproc
.LFE3230:
	.size	_ZNKSt17_Rb_tree_iteratorISt4pairIKN3vuh10LenCounter5StateENSt7__cxx1112basic_stringIcSt11char_traitsIcESaIcEEEEEdeEv, .-_ZNKSt17_Rb_tree_iteratorISt4pairIKN3vuh10LenCounter5StateENSt7__cxx1112basic_stringIcSt11char_traitsIcESaIcEEEEEdeEv
	.section	.text._ZNKSt4lessIN3vuh10LenCounter5StateEEclERKS2_S5_,"axG",@progbits,_ZNKSt4lessIN3vuh10LenCounter5StateEEclERKS2_S5_,comdat
	.align 2
	.weak	_ZNKSt4lessIN3vuh10LenCounter5StateEEclERKS2_S5_
	.type	_ZNKSt4lessIN3vuh10LenCounter5StateEEclERKS2_S5_, @function
_ZNKSt4lessIN3vuh10LenCounter5StateEEclERKS2_S5_:
.LFB3231:
	.file 15 "/usr/include/c++/8/bits/stl_function.h"
	.loc 15 385 7
	.cfi_startproc
	pushq	%rbp
	.cfi_def_cfa_offset 16
	.cfi_offset 6, -16
	movq	%rsp, %rbp
	.cfi_def_cfa_register 6
	movq	%rdi, -8(%rbp)
	movq	%rsi, -16(%rbp)
	movq	%rdx, -24(%rbp)
	.loc 15 386 20
	movq	-16(%rbp), %rax
	movl	(%rax), %eax
	movl	%eax, %edx
	movq	-24(%rbp), %rax
	movl	(%rax), %eax
	.loc 15 386 22
	cmpl	%eax, %edx
	setl	%al
	.loc 15 386 27
	popq	%rbp
	.cfi_def_cfa 7, 8
	ret
	.cfi_endproc
.LFE3231:
	.size	_ZNKSt4lessIN3vuh10LenCounter5StateEEclERKS2_S5_, .-_ZNKSt4lessIN3vuh10LenCounter5StateEEclERKS2_S5_
	.section	.text._ZSt4moveIRN3vuh10LenCounter5StateEEONSt16remove_referenceIT_E4typeEOS5_,"axG",@progbits,_ZSt4moveIRN3vuh10LenCounter5StateEEONSt16remove_referenceIT_E4typeEOS5_,comdat
	.weak	_ZSt4moveIRN3vuh10LenCounter5StateEEONSt16remove_referenceIT_E4typeEOS5_
	.type	_ZSt4moveIRN3vuh10LenCounter5StateEEONSt16remove_referenceIT_E4typeEOS5_, @function
_ZSt4moveIRN3vuh10LenCounter5StateEEONSt16remove_referenceIT_E4typeEOS5_:
.LFB3232:
	.file 16 "/usr/include/c++/8/bits/move.h"
	.loc 16 99 5
	.cfi_startproc
	pushq	%rbp
	.cfi_def_cfa_offset 16
	.cfi_offset 6, -16
	movq	%rsp, %rbp
	.cfi_def_cfa_register 6
	movq	%rdi, -8(%rbp)
	.loc 16 100 74
	movq	-8(%rbp), %rax
	.loc 16 100 77
	popq	%rbp
	.cfi_def_cfa 7, 8
	ret
	.cfi_endproc
.LFE3232:
	.size	_ZSt4moveIRN3vuh10LenCounter5StateEEONSt16remove_referenceIT_E4typeEOS5_, .-_ZSt4moveIRN3vuh10LenCounter5StateEEONSt16remove_referenceIT_E4typeEOS5_
	.section	.text._ZNSt5tupleIJON3vuh10LenCounter5StateEEEC2EOS4_,"axG",@progbits,_ZNSt5tupleIJON3vuh10LenCounter5StateEEEC5EOS4_,comdat
	.align 2
	.weak	_ZNSt5tupleIJON3vuh10LenCounter5StateEEEC2EOS4_
	.type	_ZNSt5tupleIJON3vuh10LenCounter5StateEEEC2EOS4_, @function
_ZNSt5tupleIJON3vuh10LenCounter5StateEEEC2EOS4_:
.LFB3247:
	.file 17 "/usr/include/c++/8/tuple"
	.loc 17 662 17
	.cfi_startproc
	pushq	%rbp
	.cfi_def_cfa_offset 16
	.cfi_offset 6, -16
	movq	%rsp, %rbp
	.cfi_def_cfa_register 6
	subq	$16, %rsp
	movq	%rdi, -8(%rbp)
	movq	%rsi, -16(%rbp)
.LBB85:
	.loc 17 662 17
	movq	-8(%rbp), %rax
	movq	-16(%rbp), %rdx
	movq	%rdx, %rsi
	movq	%rax, %rdi
	call	_ZNSt11_Tuple_implILm0EJON3vuh10LenCounter5StateEEEC2EOS4_
.LBE85:
	nop
	leave
	.cfi_def_cfa 7, 8
	ret
	.cfi_endproc
.LFE3247:
	.size	_ZNSt5tupleIJON3vuh10LenCounter5StateEEEC2EOS4_, .-_ZNSt5tupleIJON3vuh10LenCounter5StateEEEC2EOS4_
	.weak	_ZNSt5tupleIJON3vuh10LenCounter5StateEEEC1EOS4_
	.set	_ZNSt5tupleIJON3vuh10LenCounter5StateEEEC1EOS4_,_ZNSt5tupleIJON3vuh10LenCounter5StateEEEC2EOS4_
	.section	.text._ZSt16forward_as_tupleIJN3vuh10LenCounter5StateEEESt5tupleIJDpOT_EES6_,"axG",@progbits,_ZSt16forward_as_tupleIJN3vuh10LenCounter5StateEEESt5tupleIJDpOT_EES6_,comdat
	.weak	_ZSt16forward_as_tupleIJN3vuh10LenCounter5StateEEESt5tupleIJDpOT_EES6_
	.type	_ZSt16forward_as_tupleIJN3vuh10LenCounter5StateEEESt5tupleIJDpOT_EES6_, @function
_ZSt16forward_as_tupleIJN3vuh10LenCounter5StateEEESt5tupleIJDpOT_EES6_:
.LFB3233:
	.loc 17 1475 5
	.cfi_startproc
	.cfi_personality 0x3,__gxx_personality_v0
	.cfi_lsda 0x3,.LLSDA3233
	pushq	%rbp
	.cfi_def_cfa_offset 16
	.cfi_offset 6, -16
	movq	%rsp, %rbp
	.cfi_def_cfa_register 6
	subq	$16, %rsp
	movq	%rdi, -8(%rbp)
	movq	%rsi, -16(%rbp)
	.loc 17 1476 70
	movq	-16(%rbp), %rax
	movq	%rax, %rdi
	call	_ZSt7forwardIN3vuh10LenCounter5StateEEOT_RNSt16remove_referenceIS3_E4typeE
	movq	%rax, %rdx
	movq	-8(%rbp), %rax
	movq	%rdx, %rsi
	movq	%rax, %rdi
	call	_ZNSt5tupleIJON3vuh10LenCounter5StateEEEC1IJS2_ELb1EEEDpOT_
	.loc 17 1476 73
	movq	-8(%rbp), %rax
	leave
	.cfi_def_cfa 7, 8
	ret
	.cfi_endproc
.LFE3233:
	.section	.gcc_except_table
.LLSDA3233:
	.byte	0xff
	.byte	0xff
	.byte	0x1
	.uleb128 .LLSDACSE3233-.LLSDACSB3233
.LLSDACSB3233:
.LLSDACSE3233:
	.section	.text._ZSt16forward_as_tupleIJN3vuh10LenCounter5StateEEESt5tupleIJDpOT_EES6_,"axG",@progbits,_ZSt16forward_as_tupleIJN3vuh10LenCounter5StateEEESt5tupleIJDpOT_EES6_,comdat
	.size	_ZSt16forward_as_tupleIJN3vuh10LenCounter5StateEEESt5tupleIJDpOT_EES6_, .-_ZSt16forward_as_tupleIJN3vuh10LenCounter5StateEEESt5tupleIJDpOT_EES6_
	.section	.text._ZNSt23_Rb_tree_const_iteratorISt4pairIKN3vuh10LenCounter5StateENSt7__cxx1112basic_stringIcSt11char_traitsIcESaIcEEEEEC2ERKSt17_Rb_tree_iteratorISB_E,"axG",@progbits,_ZNSt23_Rb_tree_const_iteratorISt4pairIKN3vuh10LenCounter5StateENSt7__cxx1112basic_stringIcSt11char_traitsIcESaIcEEEEEC5ERKSt17_Rb_tree_iteratorISB_E,comdat
	.align 2
	.weak	_ZNSt23_Rb_tree_const_iteratorISt4pairIKN3vuh10LenCounter5StateENSt7__cxx1112basic_stringIcSt11char_traitsIcESaIcEEEEEC2ERKSt17_Rb_tree_iteratorISB_E
	.type	_ZNSt23_Rb_tree_const_iteratorISt4pairIKN3vuh10LenCounter5StateENSt7__cxx1112basic_stringIcSt11char_traitsIcESaIcEEEEEC2ERKSt17_Rb_tree_iteratorISB_E, @function
_ZNSt23_Rb_tree_const_iteratorISt4pairIKN3vuh10LenCounter5StateENSt7__cxx1112basic_stringIcSt11char_traitsIcESaIcEEEEEC2ERKSt17_Rb_tree_iteratorISB_E:
.LFB3250:
	.loc 6 348 7
	.cfi_startproc
	pushq	%rbp
	.cfi_def_cfa_offset 16
	.cfi_offset 6, -16
	movq	%rsp, %rbp
	.cfi_def_cfa_register 6
	movq	%rdi, -8(%rbp)
	movq	%rsi, -16(%rbp)
.LBB86:
	.loc 6 349 22
	movq	-16(%rbp), %rax
	movq	(%rax), %rdx
	.loc 6 349 29
	movq	-8(%rbp), %rax
	movq	%rdx, (%rax)
.LBE86:
	.loc 6 349 33
	nop
	popq	%rbp
	.cfi_def_cfa 7, 8
	ret
	.cfi_endproc
.LFE3250:
	.size	_ZNSt23_Rb_tree_const_iteratorISt4pairIKN3vuh10LenCounter5StateENSt7__cxx1112basic_stringIcSt11char_traitsIcESaIcEEEEEC2ERKSt17_Rb_tree_iteratorISB_E, .-_ZNSt23_Rb_tree_const_iteratorISt4pairIKN3vuh10LenCounter5StateENSt7__cxx1112basic_stringIcSt11char_traitsIcESaIcEEEEEC2ERKSt17_Rb_tree_iteratorISB_E
	.weak	_ZNSt23_Rb_tree_const_iteratorISt4pairIKN3vuh10LenCounter5StateENSt7__cxx1112basic_stringIcSt11char_traitsIcESaIcEEEEEC1ERKSt17_Rb_tree_iteratorISB_E
	.set	_ZNSt23_Rb_tree_const_iteratorISt4pairIKN3vuh10LenCounter5StateENSt7__cxx1112basic_stringIcSt11char_traitsIcESaIcEEEEEC1ERKSt17_Rb_tree_iteratorISB_E,_ZNSt23_Rb_tree_const_iteratorISt4pairIKN3vuh10LenCounter5StateENSt7__cxx1112basic_stringIcSt11char_traitsIcESaIcEEEEEC2ERKSt17_Rb_tree_iteratorISB_E
	.section	.text._ZNSt8_Rb_treeIN3vuh10LenCounter5StateESt4pairIKS2_NSt7__cxx1112basic_stringIcSt11char_traitsIcESaIcEEEESt10_Select1stISB_ESt4lessIS2_ESaISB_EE22_M_emplace_hint_uniqueIJRKSt21piecewise_construct_tSt5tupleIJOS2_EESM_IJEEEEESt17_Rb_tree_iteratorISB_ESt23_Rb_tree_const_iteratorISB_EDpOT_,"axG",@progbits,_ZNSt8_Rb_treeIN3vuh10LenCounter5StateESt4pairIKS2_NSt7__cxx1112basic_stringIcSt11char_traitsIcESaIcEEEESt10_Select1stISB_ESt4lessIS2_ESaISB_EE22_M_emplace_hint_uniqueIJRKSt21piecewise_construct_tSt5tupleIJOS2_EESM_IJEEEEESt17_Rb_tree_iteratorISB_ESt23_Rb_tree_const_iteratorISB_EDpOT_,comdat
	.align 2
	.weak	_ZNSt8_Rb_treeIN3vuh10LenCounter5StateESt4pairIKS2_NSt7__cxx1112basic_stringIcSt11char_traitsIcESaIcEEEESt10_Select1stISB_ESt4lessIS2_ESaISB_EE22_M_emplace_hint_uniqueIJRKSt21piecewise_construct_tSt5tupleIJOS2_EESM_IJEEEEESt17_Rb_tree_iteratorISB_ESt23_Rb_tree_const_iteratorISB_EDpOT_
	.type	_ZNSt8_Rb_treeIN3vuh10LenCounter5StateESt4pairIKS2_NSt7__cxx1112basic_stringIcSt11char_traitsIcESaIcEEEESt10_Select1stISB_ESt4lessIS2_ESaISB_EE22_M_emplace_hint_uniqueIJRKSt21piecewise_construct_tSt5tupleIJOS2_EESM_IJEEEEESt17_Rb_tree_iteratorISB_ESt23_Rb_tree_const_iteratorISB_EDpOT_, @function
_ZNSt8_Rb_treeIN3vuh10LenCounter5StateESt4pairIKS2_NSt7__cxx1112basic_stringIcSt11char_traitsIcESaIcEEEESt10_Select1stISB_ESt4lessIS2_ESaISB_EE22_M_emplace_hint_uniqueIJRKSt21piecewise_construct_tSt5tupleIJOS2_EESM_IJEEEEESt17_Rb_tree_iteratorISB_ESt23_Rb_tree_const_iteratorISB_EDpOT_:
.LFB3252:
	.loc 6 2411 7
	.cfi_startproc
	.cfi_personality 0x3,__gxx_personality_v0
	.cfi_lsda 0x3,.LLSDA3252
	pushq	%rbp
	.cfi_def_cfa_offset 16
	.cfi_offset 6, -16
	movq	%rsp, %rbp
	.cfi_def_cfa_register 6
	pushq	%r12
	pushq	%rbx
	subq	$80, %rsp
	.cfi_offset 12, -24
	.cfi_offset 3, -32
	movq	%rdi, -56(%rbp)
	movq	%rsi, -64(%rbp)
	movq	%rdx, -72(%rbp)
	movq	%rcx, -80(%rbp)
	movq	%r8, -88(%rbp)
	.loc 6 2414 13
	movq	-88(%rbp), %rax
	movq	%rax, %rdi
	call	_ZSt7forwardISt5tupleIJEEEOT_RNSt16remove_referenceIS2_E4typeE
	movq	%rax, %r12
	movq	-80(%rbp), %rax
	movq	%rax, %rdi
	call	_ZSt7forwardISt5tupleIJON3vuh10LenCounter5StateEEEEOT_RNSt16remove_referenceIS6_E4typeE
	movq	%rax, %rbx
	movq	-72(%rbp), %rax
	movq	%rax, %rdi
	call	_ZSt7forwardIRKSt21piecewise_construct_tEOT_RNSt16remove_referenceIS3_E4typeE
	movq	%rax, %rsi
	movq	-56(%rbp), %rax
	movq	%r12, %rcx
	movq	%rbx, %rdx
	movq	%rax, %rdi
.LEHB47:
	call	_ZNSt8_Rb_treeIN3vuh10LenCounter5StateESt4pairIKS2_NSt7__cxx1112basic_stringIcSt11char_traitsIcESaIcEEEESt10_Select1stISB_ESt4lessIS2_ESaISB_EE14_M_create_nodeIJRKSt21piecewise_construct_tSt5tupleIJOS2_EESM_IJEEEEEPSt13_Rb_tree_nodeISB_EDpOT_
.LEHE47:
	movq	%rax, -24(%rbp)
.LBB87:
	.loc 6 2418 62
	movq	-24(%rbp), %rax
	movq	%rax, %rdi
.LEHB48:
	call	_ZNSt8_Rb_treeIN3vuh10LenCounter5StateESt4pairIKS2_NSt7__cxx1112basic_stringIcSt11char_traitsIcESaIcEEEESt10_Select1stISB_ESt4lessIS2_ESaISB_EE6_S_keyEPKSt13_Rb_tree_nodeISB_E
	movq	%rax, %rdx
	.loc 6 2418 11
	movq	-64(%rbp), %rcx
	movq	-56(%rbp), %rax
	movq	%rcx, %rsi
	movq	%rax, %rdi
	call	_ZNSt8_Rb_treeIN3vuh10LenCounter5StateESt4pairIKS2_NSt7__cxx1112basic_stringIcSt11char_traitsIcESaIcEEEESt10_Select1stISB_ESt4lessIS2_ESaISB_EE29_M_get_insert_hint_unique_posESt23_Rb_tree_const_iteratorISB_ERS4_
	.loc 6 2418 11 is_stmt 0 discriminator 1
	movq	%rax, -48(%rbp)
	movq	%rdx, -40(%rbp)
	.loc 6 2420 16 is_stmt 1 discriminator 1
	movq	-40(%rbp), %rax
	.loc 6 2420 6 discriminator 1
	testq	%rax, %rax
	je	.L256
	.loc 6 2421 60
	movq	-40(%rbp), %rdx
	movq	-48(%rbp), %rsi
	movq	-24(%rbp), %rcx
	movq	-56(%rbp), %rax
	movq	%rax, %rdi
	call	_ZNSt8_Rb_treeIN3vuh10LenCounter5StateESt4pairIKS2_NSt7__cxx1112basic_stringIcSt11char_traitsIcESaIcEEEESt10_Select1stISB_ESt4lessIS2_ESaISB_EE14_M_insert_nodeEPSt18_Rb_tree_node_baseSJ_PSt13_Rb_tree_nodeISB_E
.LEHE48:
	jmp	.L263
.L256:
	.loc 6 2423 6
	movq	-24(%rbp), %rdx
	movq	-56(%rbp), %rax
	movq	%rdx, %rsi
	movq	%rax, %rdi
	call	_ZNSt8_Rb_treeIN3vuh10LenCounter5StateESt4pairIKS2_NSt7__cxx1112basic_stringIcSt11char_traitsIcESaIcEEEESt10_Select1stISB_ESt4lessIS2_ESaISB_EE12_M_drop_nodeEPSt13_Rb_tree_nodeISB_E
	.loc 6 2424 33
	movq	-48(%rbp), %rdx
	leaq	-32(%rbp), %rax
	movq	%rdx, %rsi
	movq	%rax, %rdi
	call	_ZNSt17_Rb_tree_iteratorISt4pairIKN3vuh10LenCounter5StateENSt7__cxx1112basic_stringIcSt11char_traitsIcESaIcEEEEEC1EPSt18_Rb_tree_node_base
	movq	-32(%rbp), %rax
	jmp	.L263
.L261:
.LBE87:
	.loc 6 2426 2
	movq	%rax, %rdi
	call	__cxa_begin_catch
	.loc 6 2428 6
	movq	-24(%rbp), %rdx
	movq	-56(%rbp), %rax
	movq	%rdx, %rsi
	movq	%rax, %rdi
	call	_ZNSt8_Rb_treeIN3vuh10LenCounter5StateESt4pairIKS2_NSt7__cxx1112basic_stringIcSt11char_traitsIcESaIcEEEESt10_Select1stISB_ESt4lessIS2_ESaISB_EE12_M_drop_nodeEPSt13_Rb_tree_nodeISB_E
.LEHB49:
	.loc 6 2429 6
	call	__cxa_rethrow
.LEHE49:
.L262:
	movq	%rax, %rbx
	.loc 6 2426 2
	call	__cxa_end_catch
	movq	%rbx, %rax
	movq	%rax, %rdi
.LEHB50:
	call	_Unwind_Resume
.LEHE50:
.L263:
	.loc 6 2431 7
	addq	$80, %rsp
	popq	%rbx
	popq	%r12
	popq	%rbp
	.cfi_def_cfa 7, 8
	ret
	.cfi_endproc
.LFE3252:
	.section	.gcc_except_table
	.align 4
.LLSDA3252:
	.byte	0xff
	.byte	0x3
	.uleb128 .LLSDATT3252-.LLSDATTD3252
.LLSDATTD3252:
	.byte	0x1
	.uleb128 .LLSDACSE3252-.LLSDACSB3252
.LLSDACSB3252:
	.uleb128 .LEHB47-.LFB3252
	.uleb128 .LEHE47-.LEHB47
	.uleb128 0
	.uleb128 0
	.uleb128 .LEHB48-.LFB3252
	.uleb128 .LEHE48-.LEHB48
	.uleb128 .L261-.LFB3252
	.uleb128 0x1
	.uleb128 .LEHB49-.LFB3252
	.uleb128 .LEHE49-.LEHB49
	.uleb128 .L262-.LFB3252
	.uleb128 0
	.uleb128 .LEHB50-.LFB3252
	.uleb128 .LEHE50-.LEHB50
	.uleb128 0
	.uleb128 0
.LLSDACSE3252:
	.byte	0x1
	.byte	0
	.align 4
	.long	0

.LLSDATT3252:
	.section	.text._ZNSt8_Rb_treeIN3vuh10LenCounter5StateESt4pairIKS2_NSt7__cxx1112basic_stringIcSt11char_traitsIcESaIcEEEESt10_Select1stISB_ESt4lessIS2_ESaISB_EE22_M_emplace_hint_uniqueIJRKSt21piecewise_construct_tSt5tupleIJOS2_EESM_IJEEEEESt17_Rb_tree_iteratorISB_ESt23_Rb_tree_const_iteratorISB_EDpOT_,"axG",@progbits,_ZNSt8_Rb_treeIN3vuh10LenCounter5StateESt4pairIKS2_NSt7__cxx1112basic_stringIcSt11char_traitsIcESaIcEEEESt10_Select1stISB_ESt4lessIS2_ESaISB_EE22_M_emplace_hint_uniqueIJRKSt21piecewise_construct_tSt5tupleIJOS2_EESM_IJEEEEESt17_Rb_tree_iteratorISB_ESt23_Rb_tree_const_iteratorISB_EDpOT_,comdat
	.size	_ZNSt8_Rb_treeIN3vuh10LenCounter5StateESt4pairIKS2_NSt7__cxx1112basic_stringIcSt11char_traitsIcESaIcEEEESt10_Select1stISB_ESt4lessIS2_ESaISB_EE22_M_emplace_hint_uniqueIJRKSt21piecewise_construct_tSt5tupleIJOS2_EESM_IJEEEEESt17_Rb_tree_iteratorISB_ESt23_Rb_tree_const_iteratorISB_EDpOT_, .-_ZNSt8_Rb_treeIN3vuh10LenCounter5StateESt4pairIKS2_NSt7__cxx1112basic_stringIcSt11char_traitsIcESaIcEEEESt10_Select1stISB_ESt4lessIS2_ESaISB_EE22_M_emplace_hint_uniqueIJRKSt21piecewise_construct_tSt5tupleIJOS2_EESM_IJEEEEESt17_Rb_tree_iteratorISB_ESt23_Rb_tree_const_iteratorISB_EDpOT_
	.section	.text._ZNKSt8_Rb_treeIN3vuh10LenCounter5StateESt4pairIKS2_NSt7__cxx1112basic_stringIcSt11char_traitsIcESaIcEEEESt10_Select1stISB_ESt4lessIS2_ESaISB_EE5beginEv,"axG",@progbits,_ZNKSt8_Rb_treeIN3vuh10LenCounter5StateESt4pairIKS2_NSt7__cxx1112basic_stringIcSt11char_traitsIcESaIcEEEESt10_Select1stISB_ESt4lessIS2_ESaISB_EE5beginEv,comdat
	.align 2
	.weak	_ZNKSt8_Rb_treeIN3vuh10LenCounter5StateESt4pairIKS2_NSt7__cxx1112basic_stringIcSt11char_traitsIcESaIcEEEESt10_Select1stISB_ESt4lessIS2_ESaISB_EE5beginEv
	.type	_ZNKSt8_Rb_treeIN3vuh10LenCounter5StateESt4pairIKS2_NSt7__cxx1112basic_stringIcSt11char_traitsIcESaIcEEEESt10_Select1stISB_ESt4lessIS2_ESaISB_EE5beginEv, @function
_ZNKSt8_Rb_treeIN3vuh10LenCounter5StateESt4pairIKS2_NSt7__cxx1112basic_stringIcSt11char_traitsIcESaIcEEEESt10_Select1stISB_ESt4lessIS2_ESaISB_EE5beginEv:
.LFB3258:
	.loc 6 980 7
	.cfi_startproc
	pushq	%rbp
	.cfi_def_cfa_offset 16
	.cfi_offset 6, -16
	movq	%rsp, %rbp
	.cfi_def_cfa_register 6
	subq	$32, %rsp
	movq	%rdi, -24(%rbp)
	.loc 6 981 55
	movq	-24(%rbp), %rax
	movq	24(%rax), %rdx
	.loc 6 981 62
	leaq	-8(%rbp), %rax
	movq	%rdx, %rsi
	movq	%rax, %rdi
	call	_ZNSt23_Rb_tree_const_iteratorISt4pairIKN3vuh10LenCounter5StateENSt7__cxx1112basic_stringIcSt11char_traitsIcESaIcEEEEEC1EPKSt18_Rb_tree_node_base
	movq	-8(%rbp), %rax
	.loc 6 981 65
	leave
	.cfi_def_cfa 7, 8
	ret
	.cfi_endproc
.LFE3258:
	.size	_ZNKSt8_Rb_treeIN3vuh10LenCounter5StateESt4pairIKS2_NSt7__cxx1112basic_stringIcSt11char_traitsIcESaIcEEEESt10_Select1stISB_ESt4lessIS2_ESaISB_EE5beginEv, .-_ZNKSt8_Rb_treeIN3vuh10LenCounter5StateESt4pairIKS2_NSt7__cxx1112basic_stringIcSt11char_traitsIcESaIcEEEESt10_Select1stISB_ESt4lessIS2_ESaISB_EE5beginEv
	.section	.text._ZNKSt8_Rb_treeIN3vuh10LenCounter5StateESt4pairIKS2_NSt7__cxx1112basic_stringIcSt11char_traitsIcESaIcEEEESt10_Select1stISB_ESt4lessIS2_ESaISB_EE3endEv,"axG",@progbits,_ZNKSt8_Rb_treeIN3vuh10LenCounter5StateESt4pairIKS2_NSt7__cxx1112basic_stringIcSt11char_traitsIcESaIcEEEESt10_Select1stISB_ESt4lessIS2_ESaISB_EE3endEv,comdat
	.align 2
	.weak	_ZNKSt8_Rb_treeIN3vuh10LenCounter5StateESt4pairIKS2_NSt7__cxx1112basic_stringIcSt11char_traitsIcESaIcEEEESt10_Select1stISB_ESt4lessIS2_ESaISB_EE3endEv
	.type	_ZNKSt8_Rb_treeIN3vuh10LenCounter5StateESt4pairIKS2_NSt7__cxx1112basic_stringIcSt11char_traitsIcESaIcEEEESt10_Select1stISB_ESt4lessIS2_ESaISB_EE3endEv, @function
_ZNKSt8_Rb_treeIN3vuh10LenCounter5StateESt4pairIKS2_NSt7__cxx1112basic_stringIcSt11char_traitsIcESaIcEEEESt10_Select1stISB_ESt4lessIS2_ESaISB_EE3endEv:
.LFB3259:
	.loc 6 988 7
	.cfi_startproc
	pushq	%rbp
	.cfi_def_cfa_offset 16
	.cfi_offset 6, -16
	movq	%rsp, %rbp
	.cfi_def_cfa_register 6
	subq	$32, %rsp
	movq	%rdi, -24(%rbp)
	.loc 6 989 55
	movq	-24(%rbp), %rax
	leaq	8(%rax), %rdx
	leaq	-8(%rbp), %rax
	movq	%rdx, %rsi
	movq	%rax, %rdi
	call	_ZNSt23_Rb_tree_const_iteratorISt4pairIKN3vuh10LenCounter5StateENSt7__cxx1112basic_stringIcSt11char_traitsIcESaIcEEEEEC1EPKSt18_Rb_tree_node_base
	movq	-8(%rbp), %rax
	.loc 6 989 58
	leave
	.cfi_def_cfa 7, 8
	ret
	.cfi_endproc
.LFE3259:
	.size	_ZNKSt8_Rb_treeIN3vuh10LenCounter5StateESt4pairIKS2_NSt7__cxx1112basic_stringIcSt11char_traitsIcESaIcEEEESt10_Select1stISB_ESt4lessIS2_ESaISB_EE3endEv, .-_ZNKSt8_Rb_treeIN3vuh10LenCounter5StateESt4pairIKS2_NSt7__cxx1112basic_stringIcSt11char_traitsIcESaIcEEEESt10_Select1stISB_ESt4lessIS2_ESaISB_EE3endEv
	.section	.text._ZNKSt23_Rb_tree_const_iteratorISt4pairIKN3vuh10LenCounter5StateENSt7__cxx1112basic_stringIcSt11char_traitsIcESaIcEEEEEneERKSC_,"axG",@progbits,_ZNKSt23_Rb_tree_const_iteratorISt4pairIKN3vuh10LenCounter5StateENSt7__cxx1112basic_stringIcSt11char_traitsIcESaIcEEEEEneERKSC_,comdat
	.align 2
	.weak	_ZNKSt23_Rb_tree_const_iteratorISt4pairIKN3vuh10LenCounter5StateENSt7__cxx1112basic_stringIcSt11char_traitsIcESaIcEEEEEneERKSC_
	.type	_ZNKSt23_Rb_tree_const_iteratorISt4pairIKN3vuh10LenCounter5StateENSt7__cxx1112basic_stringIcSt11char_traitsIcESaIcEEEEEneERKSC_, @function
_ZNKSt23_Rb_tree_const_iteratorISt4pairIKN3vuh10LenCounter5StateENSt7__cxx1112basic_stringIcSt11char_traitsIcESaIcEEEEEneERKSC_:
.LFB3263:
	.loc 6 398 7
	.cfi_startproc
	pushq	%rbp
	.cfi_def_cfa_offset 16
	.cfi_offset 6, -16
	movq	%rsp, %rbp
	.cfi_def_cfa_register 6
	movq	%rdi, -8(%rbp)
	movq	%rsi, -16(%rbp)
	.loc 6 399 16
	movq	-8(%rbp), %rax
	movq	(%rax), %rdx
	.loc 6 399 31
	movq	-16(%rbp), %rax
	movq	(%rax), %rax
	cmpq	%rax, %rdx
	setne	%al
	.loc 6 399 40
	popq	%rbp
	.cfi_def_cfa 7, 8
	ret
	.cfi_endproc
.LFE3263:
	.size	_ZNKSt23_Rb_tree_const_iteratorISt4pairIKN3vuh10LenCounter5StateENSt7__cxx1112basic_stringIcSt11char_traitsIcESaIcEEEEEneERKSC_, .-_ZNKSt23_Rb_tree_const_iteratorISt4pairIKN3vuh10LenCounter5StateENSt7__cxx1112basic_stringIcSt11char_traitsIcESaIcEEEEEneERKSC_
	.section	.text._ZNSt23_Rb_tree_const_iteratorISt4pairIKN3vuh10LenCounter5StateENSt7__cxx1112basic_stringIcSt11char_traitsIcESaIcEEEEEppEv,"axG",@progbits,_ZNSt23_Rb_tree_const_iteratorISt4pairIKN3vuh10LenCounter5StateENSt7__cxx1112basic_stringIcSt11char_traitsIcESaIcEEEEEppEv,comdat
	.align 2
	.weak	_ZNSt23_Rb_tree_const_iteratorISt4pairIKN3vuh10LenCounter5StateENSt7__cxx1112basic_stringIcSt11char_traitsIcESaIcEEEEEppEv
	.type	_ZNSt23_Rb_tree_const_iteratorISt4pairIKN3vuh10LenCounter5StateENSt7__cxx1112basic_stringIcSt11char_traitsIcESaIcEEEEEppEv, @function
_ZNSt23_Rb_tree_const_iteratorISt4pairIKN3vuh10LenCounter5StateENSt7__cxx1112basic_stringIcSt11char_traitsIcESaIcEEEEEppEv:
.LFB3264:
	.loc 6 364 7
	.cfi_startproc
	pushq	%rbp
	.cfi_def_cfa_offset 16
	.cfi_offset 6, -16
	movq	%rsp, %rbp
	.cfi_def_cfa_register 6
	subq	$16, %rsp
	movq	%rdi, -8(%rbp)
	.loc 6 366 30
	movq	-8(%rbp), %rax
	movq	(%rax), %rax
	movq	%rax, %rdi
	call	_ZSt18_Rb_tree_incrementPKSt18_Rb_tree_node_base
	movq	%rax, %rdx
	.loc 6 366 2
	movq	-8(%rbp), %rax
	movq	%rdx, (%rax)
	.loc 6 367 10
	movq	-8(%rbp), %rax
	.loc 6 368 7
	leave
	.cfi_def_cfa 7, 8
	ret
	.cfi_endproc
.LFE3264:
	.size	_ZNSt23_Rb_tree_const_iteratorISt4pairIKN3vuh10LenCounter5StateENSt7__cxx1112basic_stringIcSt11char_traitsIcESaIcEEEEEppEv, .-_ZNSt23_Rb_tree_const_iteratorISt4pairIKN3vuh10LenCounter5StateENSt7__cxx1112basic_stringIcSt11char_traitsIcESaIcEEEEEppEv
	.section	.text._ZNKSt23_Rb_tree_const_iteratorISt4pairIKN3vuh10LenCounter5StateENSt7__cxx1112basic_stringIcSt11char_traitsIcESaIcEEEEEdeEv,"axG",@progbits,_ZNKSt23_Rb_tree_const_iteratorISt4pairIKN3vuh10LenCounter5StateENSt7__cxx1112basic_stringIcSt11char_traitsIcESaIcEEEEEdeEv,comdat
	.align 2
	.weak	_ZNKSt23_Rb_tree_const_iteratorISt4pairIKN3vuh10LenCounter5StateENSt7__cxx1112basic_stringIcSt11char_traitsIcESaIcEEEEEdeEv
	.type	_ZNKSt23_Rb_tree_const_iteratorISt4pairIKN3vuh10LenCounter5StateENSt7__cxx1112basic_stringIcSt11char_traitsIcESaIcEEEEEdeEv, @function
_ZNKSt23_Rb_tree_const_iteratorISt4pairIKN3vuh10LenCounter5StateENSt7__cxx1112basic_stringIcSt11char_traitsIcESaIcEEEEEdeEv:
.LFB3265:
	.loc 6 356 7
	.cfi_startproc
	pushq	%rbp
	.cfi_def_cfa_offset 16
	.cfi_offset 6, -16
	movq	%rsp, %rbp
	.cfi_def_cfa_register 6
	subq	$16, %rsp
	movq	%rdi, -8(%rbp)
	.loc 6 357 41
	movq	-8(%rbp), %rax
	movq	(%rax), %rax
	.loc 6 357 16
	movq	%rax, %rdi
	call	_ZNKSt13_Rb_tree_nodeISt4pairIKN3vuh10LenCounter5StateENSt7__cxx1112basic_stringIcSt11char_traitsIcESaIcEEEEE9_M_valptrEv
	.loc 6 357 64
	leave
	.cfi_def_cfa 7, 8
	ret
	.cfi_endproc
.LFE3265:
	.size	_ZNKSt23_Rb_tree_const_iteratorISt4pairIKN3vuh10LenCounter5StateENSt7__cxx1112basic_stringIcSt11char_traitsIcESaIcEEEEEdeEv, .-_ZNKSt23_Rb_tree_const_iteratorISt4pairIKN3vuh10LenCounter5StateENSt7__cxx1112basic_stringIcSt11char_traitsIcESaIcEEEEEdeEv
	.section	.text._ZNSt8_Rb_treeIN3vuh10LenCounter5StateESt4pairIKS2_NSt7__cxx1112basic_stringIcSt11char_traitsIcESaIcEEEESt10_Select1stISB_ESt4lessIS2_ESaISB_EE5clearEv,"axG",@progbits,_ZNSt8_Rb_treeIN3vuh10LenCounter5StateESt4pairIKS2_NSt7__cxx1112basic_stringIcSt11char_traitsIcESaIcEEEESt10_Select1stISB_ESt4lessIS2_ESaISB_EE5clearEv,comdat
	.align 2
	.weak	_ZNSt8_Rb_treeIN3vuh10LenCounter5StateESt4pairIKS2_NSt7__cxx1112basic_stringIcSt11char_traitsIcESaIcEEEESt10_Select1stISB_ESt4lessIS2_ESaISB_EE5clearEv
	.type	_ZNSt8_Rb_treeIN3vuh10LenCounter5StateESt4pairIKS2_NSt7__cxx1112basic_stringIcSt11char_traitsIcESaIcEEEESt10_Select1stISB_ESt4lessIS2_ESaISB_EE5clearEv, @function
_ZNSt8_Rb_treeIN3vuh10LenCounter5StateESt4pairIKS2_NSt7__cxx1112basic_stringIcSt11char_traitsIcESaIcEEEESt10_Select1stISB_ESt4lessIS2_ESaISB_EE5clearEv:
.LFB3266:
	.loc 6 1185 7
	.cfi_startproc
	.cfi_personality 0x3,__gxx_personality_v0
	.cfi_lsda 0x3,.LLSDA3266
	pushq	%rbp
	.cfi_def_cfa_offset 16
	.cfi_offset 6, -16
	movq	%rsp, %rbp
	.cfi_def_cfa_register 6
	subq	$16, %rsp
	movq	%rdi, -8(%rbp)
	.loc 6 1187 2
	movq	-8(%rbp), %rax
	movq	%rax, %rdi
	call	_ZNSt8_Rb_treeIN3vuh10LenCounter5StateESt4pairIKS2_NSt7__cxx1112basic_stringIcSt11char_traitsIcESaIcEEEESt10_Select1stISB_ESt4lessIS2_ESaISB_EE8_M_beginEv
	movq	%rax, %rdx
	movq	-8(%rbp), %rax
	movq	%rdx, %rsi
	movq	%rax, %rdi
	call	_ZNSt8_Rb_treeIN3vuh10LenCounter5StateESt4pairIKS2_NSt7__cxx1112basic_stringIcSt11char_traitsIcESaIcEEEESt10_Select1stISB_ESt4lessIS2_ESaISB_EE8_M_eraseEPSt13_Rb_tree_nodeISB_E
	.loc 6 1188 2
	movq	-8(%rbp), %rax
	addq	$8, %rax
	movq	%rax, %rdi
	call	_ZNSt15_Rb_tree_header8_M_resetEv
	.loc 6 1189 7
	nop
	leave
	.cfi_def_cfa 7, 8
	ret
	.cfi_endproc
.LFE3266:
	.section	.gcc_except_table
.LLSDA3266:
	.byte	0xff
	.byte	0xff
	.byte	0x1
	.uleb128 .LLSDACSE3266-.LLSDACSB3266
.LLSDACSB3266:
.LLSDACSE3266:
	.section	.text._ZNSt8_Rb_treeIN3vuh10LenCounter5StateESt4pairIKS2_NSt7__cxx1112basic_stringIcSt11char_traitsIcESaIcEEEESt10_Select1stISB_ESt4lessIS2_ESaISB_EE5clearEv,"axG",@progbits,_ZNSt8_Rb_treeIN3vuh10LenCounter5StateESt4pairIKS2_NSt7__cxx1112basic_stringIcSt11char_traitsIcESaIcEEEESt10_Select1stISB_ESt4lessIS2_ESaISB_EE5clearEv,comdat
	.size	_ZNSt8_Rb_treeIN3vuh10LenCounter5StateESt4pairIKS2_NSt7__cxx1112basic_stringIcSt11char_traitsIcESaIcEEEESt10_Select1stISB_ESt4lessIS2_ESaISB_EE5clearEv, .-_ZNSt8_Rb_treeIN3vuh10LenCounter5StateESt4pairIKS2_NSt7__cxx1112basic_stringIcSt11char_traitsIcESaIcEEEESt10_Select1stISB_ESt4lessIS2_ESaISB_EE5clearEv
	.section	.text._ZNKSt6bitsetILm8EE17_M_copy_to_stringIcSt11char_traitsIcESaIcEEEvRNSt7__cxx1112basic_stringIT_T0_T1_EES7_S7_,"axG",@progbits,_ZNKSt6bitsetILm8EE17_M_copy_to_stringIcSt11char_traitsIcESaIcEEEvRNSt7__cxx1112basic_stringIT_T0_T1_EES7_S7_,comdat
	.align 2
	.weak	_ZNKSt6bitsetILm8EE17_M_copy_to_stringIcSt11char_traitsIcESaIcEEEvRNSt7__cxx1112basic_stringIT_T0_T1_EES7_S7_
	.type	_ZNKSt6bitsetILm8EE17_M_copy_to_stringIcSt11char_traitsIcESaIcEEEvRNSt7__cxx1112basic_stringIT_T0_T1_EES7_S7_, @function
_ZNKSt6bitsetILm8EE17_M_copy_to_stringIcSt11char_traitsIcESaIcEEEvRNSt7__cxx1112basic_stringIT_T0_T1_EES7_S7_:
.LFB3270:
	.loc 3 1407 7
	.cfi_startproc
	pushq	%rbp
	.cfi_def_cfa_offset 16
	.cfi_offset 6, -16
	movq	%rsp, %rbp
	.cfi_def_cfa_register 6
	subq	$48, %rsp
	movq	%rdi, -24(%rbp)
	movq	%rsi, -32(%rbp)
	movl	%edx, %eax
	movl	%ecx, %edx
	movb	%al, -36(%rbp)
	movl	%edx, %eax
	movb	%al, -40(%rbp)
	.loc 3 1411 2
	movsbl	-36(%rbp), %edx
	movq	-32(%rbp), %rax
	movl	$8, %esi
	movq	%rax, %rdi
	call	_ZNSt7__cxx1112basic_stringIcSt11char_traitsIcESaIcEE6assignEmc
.LBB88:
	.loc 3 1412 14
	movq	$8, -8(%rbp)
.L278:
	.loc 3 1412 29 discriminator 1
	cmpq	$0, -8(%rbp)
	je	.L279
	.loc 3 1413 4
	movq	-8(%rbp), %rax
	leaq	-1(%rax), %rdx
	movq	-24(%rbp), %rax
	movq	%rdx, %rsi
	movq	%rax, %rdi
	call	_ZNKSt6bitsetILm8EE15_Unchecked_testEm
	testb	%al, %al
	je	.L277
	.loc 3 1414 25
	movl	$8, %eax
	subq	-8(%rbp), %rax
	movq	%rax, %rdx
	movq	-32(%rbp), %rax
	movq	%rdx, %rsi
	movq	%rax, %rdi
	call	_ZNSt7__cxx1112basic_stringIcSt11char_traitsIcESaIcEEixEm
	movq	%rax, %rdx
	.loc 3 1414 21
	leaq	-40(%rbp), %rax
	movq	%rax, %rsi
	movq	%rdx, %rdi
	call	_ZNSt11char_traitsIcE6assignERcRKc
.L277:
	.loc 3 1412 2 discriminator 2
	subq	$1, -8(%rbp)
	jmp	.L278
.L279:
.LBE88:
	.loc 3 1415 7
	nop
	leave
	.cfi_def_cfa 7, 8
	ret
	.cfi_endproc
.LFE3270:
	.size	_ZNKSt6bitsetILm8EE17_M_copy_to_stringIcSt11char_traitsIcESaIcEEEvRNSt7__cxx1112basic_stringIT_T0_T1_EES7_S7_, .-_ZNKSt6bitsetILm8EE17_M_copy_to_stringIcSt11char_traitsIcESaIcEEEvRNSt7__cxx1112basic_stringIT_T0_T1_EES7_S7_
	.section	.text._ZNSt5tupleIJRKN3vuh10LenCounter5StateEEEC2IvLb1EEES4_,"axG",@progbits,_ZNSt5tupleIJRKN3vuh10LenCounter5StateEEEC5IvLb1EEES4_,comdat
	.align 2
	.weak	_ZNSt5tupleIJRKN3vuh10LenCounter5StateEEEC2IvLb1EEES4_
	.type	_ZNSt5tupleIJRKN3vuh10LenCounter5StateEEEC2IvLb1EEES4_, @function
_ZNSt5tupleIJRKN3vuh10LenCounter5StateEEEC2IvLb1EEES4_:
.LFB3272:
	.loc 17 608 19
	.cfi_startproc
	pushq	%rbp
	.cfi_def_cfa_offset 16
	.cfi_offset 6, -16
	movq	%rsp, %rbp
	.cfi_def_cfa_register 6
	subq	$16, %rsp
	movq	%rdi, -8(%rbp)
	movq	%rsi, -16(%rbp)
.LBB89:
	.loc 17 609 33
	movq	-8(%rbp), %rax
	movq	-16(%rbp), %rdx
	movq	%rdx, %rsi
	movq	%rax, %rdi
	call	_ZNSt11_Tuple_implILm0EJRKN3vuh10LenCounter5StateEEEC2ES4_
.LBE89:
	.loc 17 609 37
	nop
	leave
	.cfi_def_cfa 7, 8
	ret
	.cfi_endproc
.LFE3272:
	.size	_ZNSt5tupleIJRKN3vuh10LenCounter5StateEEEC2IvLb1EEES4_, .-_ZNSt5tupleIJRKN3vuh10LenCounter5StateEEEC2IvLb1EEES4_
	.weak	_ZNSt5tupleIJRKN3vuh10LenCounter5StateEEEC1IvLb1EEES4_
	.set	_ZNSt5tupleIJRKN3vuh10LenCounter5StateEEEC1IvLb1EEES4_,_ZNSt5tupleIJRKN3vuh10LenCounter5StateEEEC2IvLb1EEES4_
	.section	.text._ZNSt8_Rb_treeIN3vuh10LenCounter5StateESt4pairIKS2_NSt7__cxx1112basic_stringIcSt11char_traitsIcESaIcEEEESt10_Select1stISB_ESt4lessIS2_ESaISB_EE22_M_emplace_hint_uniqueIJRKSt21piecewise_construct_tSt5tupleIJRS4_EESM_IJEEEEESt17_Rb_tree_iteratorISB_ESt23_Rb_tree_const_iteratorISB_EDpOT_,"axG",@progbits,_ZNSt8_Rb_treeIN3vuh10LenCounter5StateESt4pairIKS2_NSt7__cxx1112basic_stringIcSt11char_traitsIcESaIcEEEESt10_Select1stISB_ESt4lessIS2_ESaISB_EE22_M_emplace_hint_uniqueIJRKSt21piecewise_construct_tSt5tupleIJRS4_EESM_IJEEEEESt17_Rb_tree_iteratorISB_ESt23_Rb_tree_const_iteratorISB_EDpOT_,comdat
	.align 2
	.weak	_ZNSt8_Rb_treeIN3vuh10LenCounter5StateESt4pairIKS2_NSt7__cxx1112basic_stringIcSt11char_traitsIcESaIcEEEESt10_Select1stISB_ESt4lessIS2_ESaISB_EE22_M_emplace_hint_uniqueIJRKSt21piecewise_construct_tSt5tupleIJRS4_EESM_IJEEEEESt17_Rb_tree_iteratorISB_ESt23_Rb_tree_const_iteratorISB_EDpOT_
	.type	_ZNSt8_Rb_treeIN3vuh10LenCounter5StateESt4pairIKS2_NSt7__cxx1112basic_stringIcSt11char_traitsIcESaIcEEEESt10_Select1stISB_ESt4lessIS2_ESaISB_EE22_M_emplace_hint_uniqueIJRKSt21piecewise_construct_tSt5tupleIJRS4_EESM_IJEEEEESt17_Rb_tree_iteratorISB_ESt23_Rb_tree_const_iteratorISB_EDpOT_, @function
_ZNSt8_Rb_treeIN3vuh10LenCounter5StateESt4pairIKS2_NSt7__cxx1112basic_stringIcSt11char_traitsIcESaIcEEEESt10_Select1stISB_ESt4lessIS2_ESaISB_EE22_M_emplace_hint_uniqueIJRKSt21piecewise_construct_tSt5tupleIJRS4_EESM_IJEEEEESt17_Rb_tree_iteratorISB_ESt23_Rb_tree_const_iteratorISB_EDpOT_:
.LFB3274:
	.loc 6 2411 7
	.cfi_startproc
	.cfi_personality 0x3,__gxx_personality_v0
	.cfi_lsda 0x3,.LLSDA3274
	pushq	%rbp
	.cfi_def_cfa_offset 16
	.cfi_offset 6, -16
	movq	%rsp, %rbp
	.cfi_def_cfa_register 6
	pushq	%r12
	pushq	%rbx
	subq	$80, %rsp
	.cfi_offset 12, -24
	.cfi_offset 3, -32
	movq	%rdi, -56(%rbp)
	movq	%rsi, -64(%rbp)
	movq	%rdx, -72(%rbp)
	movq	%rcx, -80(%rbp)
	movq	%r8, -88(%rbp)
	.loc 6 2414 13
	movq	-88(%rbp), %rax
	movq	%rax, %rdi
	call	_ZSt7forwardISt5tupleIJEEEOT_RNSt16remove_referenceIS2_E4typeE
	movq	%rax, %r12
	movq	-80(%rbp), %rax
	movq	%rax, %rdi
	call	_ZSt7forwardISt5tupleIJRKN3vuh10LenCounter5StateEEEEOT_RNSt16remove_referenceIS7_E4typeE
	movq	%rax, %rbx
	movq	-72(%rbp), %rax
	movq	%rax, %rdi
	call	_ZSt7forwardIRKSt21piecewise_construct_tEOT_RNSt16remove_referenceIS3_E4typeE
	movq	%rax, %rsi
	movq	-56(%rbp), %rax
	movq	%r12, %rcx
	movq	%rbx, %rdx
	movq	%rax, %rdi
.LEHB51:
	call	_ZNSt8_Rb_treeIN3vuh10LenCounter5StateESt4pairIKS2_NSt7__cxx1112basic_stringIcSt11char_traitsIcESaIcEEEESt10_Select1stISB_ESt4lessIS2_ESaISB_EE14_M_create_nodeIJRKSt21piecewise_construct_tSt5tupleIJRS4_EESM_IJEEEEEPSt13_Rb_tree_nodeISB_EDpOT_
.LEHE51:
	movq	%rax, -24(%rbp)
.LBB90:
	.loc 6 2418 62
	movq	-24(%rbp), %rax
	movq	%rax, %rdi
.LEHB52:
	call	_ZNSt8_Rb_treeIN3vuh10LenCounter5StateESt4pairIKS2_NSt7__cxx1112basic_stringIcSt11char_traitsIcESaIcEEEESt10_Select1stISB_ESt4lessIS2_ESaISB_EE6_S_keyEPKSt13_Rb_tree_nodeISB_E
	movq	%rax, %rdx
	.loc 6 2418 11
	movq	-64(%rbp), %rcx
	movq	-56(%rbp), %rax
	movq	%rcx, %rsi
	movq	%rax, %rdi
	call	_ZNSt8_Rb_treeIN3vuh10LenCounter5StateESt4pairIKS2_NSt7__cxx1112basic_stringIcSt11char_traitsIcESaIcEEEESt10_Select1stISB_ESt4lessIS2_ESaISB_EE29_M_get_insert_hint_unique_posESt23_Rb_tree_const_iteratorISB_ERS4_
	.loc 6 2418 11 is_stmt 0 discriminator 1
	movq	%rax, -48(%rbp)
	movq	%rdx, -40(%rbp)
	.loc 6 2420 16 is_stmt 1 discriminator 1
	movq	-40(%rbp), %rax
	.loc 6 2420 6 discriminator 1
	testq	%rax, %rax
	je	.L282
	.loc 6 2421 60
	movq	-40(%rbp), %rdx
	movq	-48(%rbp), %rsi
	movq	-24(%rbp), %rcx
	movq	-56(%rbp), %rax
	movq	%rax, %rdi
	call	_ZNSt8_Rb_treeIN3vuh10LenCounter5StateESt4pairIKS2_NSt7__cxx1112basic_stringIcSt11char_traitsIcESaIcEEEESt10_Select1stISB_ESt4lessIS2_ESaISB_EE14_M_insert_nodeEPSt18_Rb_tree_node_baseSJ_PSt13_Rb_tree_nodeISB_E
.LEHE52:
	jmp	.L289
.L282:
	.loc 6 2423 6
	movq	-24(%rbp), %rdx
	movq	-56(%rbp), %rax
	movq	%rdx, %rsi
	movq	%rax, %rdi
	call	_ZNSt8_Rb_treeIN3vuh10LenCounter5StateESt4pairIKS2_NSt7__cxx1112basic_stringIcSt11char_traitsIcESaIcEEEESt10_Select1stISB_ESt4lessIS2_ESaISB_EE12_M_drop_nodeEPSt13_Rb_tree_nodeISB_E
	.loc 6 2424 33
	movq	-48(%rbp), %rdx
	leaq	-32(%rbp), %rax
	movq	%rdx, %rsi
	movq	%rax, %rdi
	call	_ZNSt17_Rb_tree_iteratorISt4pairIKN3vuh10LenCounter5StateENSt7__cxx1112basic_stringIcSt11char_traitsIcESaIcEEEEEC1EPSt18_Rb_tree_node_base
	movq	-32(%rbp), %rax
	jmp	.L289
.L287:
.LBE90:
	.loc 6 2426 2
	movq	%rax, %rdi
	call	__cxa_begin_catch
	.loc 6 2428 6
	movq	-24(%rbp), %rdx
	movq	-56(%rbp), %rax
	movq	%rdx, %rsi
	movq	%rax, %rdi
	call	_ZNSt8_Rb_treeIN3vuh10LenCounter5StateESt4pairIKS2_NSt7__cxx1112basic_stringIcSt11char_traitsIcESaIcEEEESt10_Select1stISB_ESt4lessIS2_ESaISB_EE12_M_drop_nodeEPSt13_Rb_tree_nodeISB_E
.LEHB53:
	.loc 6 2429 6
	call	__cxa_rethrow
.LEHE53:
.L288:
	movq	%rax, %rbx
	.loc 6 2426 2
	call	__cxa_end_catch
	movq	%rbx, %rax
	movq	%rax, %rdi
.LEHB54:
	call	_Unwind_Resume
.LEHE54:
.L289:
	.loc 6 2431 7
	addq	$80, %rsp
	popq	%rbx
	popq	%r12
	popq	%rbp
	.cfi_def_cfa 7, 8
	ret
	.cfi_endproc
.LFE3274:
	.section	.gcc_except_table
	.align 4
.LLSDA3274:
	.byte	0xff
	.byte	0x3
	.uleb128 .LLSDATT3274-.LLSDATTD3274
.LLSDATTD3274:
	.byte	0x1
	.uleb128 .LLSDACSE3274-.LLSDACSB3274
.LLSDACSB3274:
	.uleb128 .LEHB51-.LFB3274
	.uleb128 .LEHE51-.LEHB51
	.uleb128 0
	.uleb128 0
	.uleb128 .LEHB52-.LFB3274
	.uleb128 .LEHE52-.LEHB52
	.uleb128 .L287-.LFB3274
	.uleb128 0x1
	.uleb128 .LEHB53-.LFB3274
	.uleb128 .LEHE53-.LEHB53
	.uleb128 .L288-.LFB3274
	.uleb128 0
	.uleb128 .LEHB54-.LFB3274
	.uleb128 .LEHE54-.LEHB54
	.uleb128 0
	.uleb128 0
.LLSDACSE3274:
	.byte	0x1
	.byte	0
	.align 4
	.long	0

.LLSDATT3274:
	.section	.text._ZNSt8_Rb_treeIN3vuh10LenCounter5StateESt4pairIKS2_NSt7__cxx1112basic_stringIcSt11char_traitsIcESaIcEEEESt10_Select1stISB_ESt4lessIS2_ESaISB_EE22_M_emplace_hint_uniqueIJRKSt21piecewise_construct_tSt5tupleIJRS4_EESM_IJEEEEESt17_Rb_tree_iteratorISB_ESt23_Rb_tree_const_iteratorISB_EDpOT_,"axG",@progbits,_ZNSt8_Rb_treeIN3vuh10LenCounter5StateESt4pairIKS2_NSt7__cxx1112basic_stringIcSt11char_traitsIcESaIcEEEESt10_Select1stISB_ESt4lessIS2_ESaISB_EE22_M_emplace_hint_uniqueIJRKSt21piecewise_construct_tSt5tupleIJRS4_EESM_IJEEEEESt17_Rb_tree_iteratorISB_ESt23_Rb_tree_const_iteratorISB_EDpOT_,comdat
	.size	_ZNSt8_Rb_treeIN3vuh10LenCounter5StateESt4pairIKS2_NSt7__cxx1112basic_stringIcSt11char_traitsIcESaIcEEEESt10_Select1stISB_ESt4lessIS2_ESaISB_EE22_M_emplace_hint_uniqueIJRKSt21piecewise_construct_tSt5tupleIJRS4_EESM_IJEEEEESt17_Rb_tree_iteratorISB_ESt23_Rb_tree_const_iteratorISB_EDpOT_, .-_ZNSt8_Rb_treeIN3vuh10LenCounter5StateESt4pairIKS2_NSt7__cxx1112basic_stringIcSt11char_traitsIcESaIcEEEESt10_Select1stISB_ESt4lessIS2_ESaISB_EE22_M_emplace_hint_uniqueIJRKSt21piecewise_construct_tSt5tupleIJRS4_EESM_IJEEEEESt17_Rb_tree_iteratorISB_ESt23_Rb_tree_const_iteratorISB_EDpOT_
	.section	.rodata
	.align 8
.LC33:
	.string	"%s: __position (which is %zu) >= _Nb (which is %zu)"
	.section	.text._ZNKSt6bitsetILm8EE8_M_checkEmPKc,"axG",@progbits,_ZNKSt6bitsetILm8EE8_M_checkEmPKc,comdat
	.align 2
	.weak	_ZNKSt6bitsetILm8EE8_M_checkEmPKc
	.type	_ZNKSt6bitsetILm8EE8_M_checkEmPKc, @function
_ZNKSt6bitsetILm8EE8_M_checkEmPKc:
.LFB3275:
	.loc 3 770 12
	.cfi_startproc
	pushq	%rbp
	.cfi_def_cfa_offset 16
	.cfi_offset 6, -16
	movq	%rsp, %rbp
	.cfi_def_cfa_register 6
	subq	$32, %rsp
	movq	%rdi, -8(%rbp)
	movq	%rsi, -16(%rbp)
	movq	%rdx, -24(%rbp)
	.loc 3 772 2
	cmpq	$7, -16(%rbp)
	jbe	.L292
	.loc 3 773 28
	movq	-16(%rbp), %rdx
	movq	-24(%rbp), %rax
	movl	$8, %ecx
	movq	%rax, %rsi
	movl	$.LC33, %edi
	movl	$0, %eax
	call	_ZSt24__throw_out_of_range_fmtPKcz
.L292:
	.loc 3 776 7
	nop
	leave
	.cfi_def_cfa 7, 8
	ret
	.cfi_endproc
.LFE3275:
	.size	_ZNKSt6bitsetILm8EE8_M_checkEmPKc, .-_ZNKSt6bitsetILm8EE8_M_checkEmPKc
	.section	.text._ZNKSt6bitsetILm8EE15_Unchecked_testEm,"axG",@progbits,_ZNKSt6bitsetILm8EE15_Unchecked_testEm,comdat
	.align 2
	.weak	_ZNKSt6bitsetILm8EE15_Unchecked_testEm
	.type	_ZNKSt6bitsetILm8EE15_Unchecked_testEm, @function
_ZNKSt6bitsetILm8EE15_Unchecked_testEm:
.LFB3276:
	.loc 3 1061 7
	.cfi_startproc
	pushq	%rbp
	.cfi_def_cfa_offset 16
	.cfi_offset 6, -16
	movq	%rsp, %rbp
	.cfi_def_cfa_register 6
	pushq	%rbx
	subq	$24, %rsp
	.cfi_offset 3, -24
	movq	%rdi, -24(%rbp)
	movq	%rsi, -32(%rbp)
	.loc 3 1062 42
	movq	-24(%rbp), %rax
	movq	-32(%rbp), %rdx
	movq	%rdx, %rsi
	movq	%rax, %rdi
	call	_ZNKSt12_Base_bitsetILm1EE10_M_getwordEm
	movq	%rax, %rbx
	.loc 3 1062 61
	movq	-32(%rbp), %rax
	movq	%rax, %rdi
	call	_ZNSt12_Base_bitsetILm1EE10_S_maskbitEm
	.loc 3 1062 42
	andq	%rbx, %rax
	.loc 3 1063 28
	testq	%rax, %rax
	setne	%al
	.loc 3 1063 31
	addq	$24, %rsp
	popq	%rbx
	popq	%rbp
	.cfi_def_cfa 7, 8
	ret
	.cfi_endproc
.LFE3276:
	.size	_ZNKSt6bitsetILm8EE15_Unchecked_testEm, .-_ZNKSt6bitsetILm8EE15_Unchecked_testEm
	.section	.text._ZNSt8_Rb_treeIN3vuh10LenCounter5StateESt4pairIKS2_NSt7__cxx1112basic_stringIcSt11char_traitsIcESaIcEEEESt10_Select1stISB_ESt4lessIS2_ESaISB_EE13_Rb_tree_implISF_Lb1EEC2ERKSJ_,"axG",@progbits,_ZNSt8_Rb_treeIN3vuh10LenCounter5StateESt4pairIKS2_NSt7__cxx1112basic_stringIcSt11char_traitsIcESaIcEEEESt10_Select1stISB_ESt4lessIS2_ESaISB_EE13_Rb_tree_implISF_Lb1EEC5ERKSJ_,comdat
	.align 2
	.weak	_ZNSt8_Rb_treeIN3vuh10LenCounter5StateESt4pairIKS2_NSt7__cxx1112basic_stringIcSt11char_traitsIcESaIcEEEESt10_Select1stISB_ESt4lessIS2_ESaISB_EE13_Rb_tree_implISF_Lb1EEC2ERKSJ_
	.type	_ZNSt8_Rb_treeIN3vuh10LenCounter5StateESt4pairIKS2_NSt7__cxx1112basic_stringIcSt11char_traitsIcESaIcEEEESt10_Select1stISB_ESt4lessIS2_ESaISB_EE13_Rb_tree_implISF_Lb1EEC2ERKSJ_, @function
_ZNSt8_Rb_treeIN3vuh10LenCounter5StateESt4pairIKS2_NSt7__cxx1112basic_stringIcSt11char_traitsIcESaIcEEEESt10_Select1stISB_ESt4lessIS2_ESaISB_EE13_Rb_tree_implISF_Lb1EEC2ERKSJ_:
.LFB3300:
	.loc 6 706 4
	.cfi_startproc
	pushq	%rbp
	.cfi_def_cfa_offset 16
	.cfi_offset 6, -16
	movq	%rsp, %rbp
	.cfi_def_cfa_register 6
	subq	$16, %rsp
	movq	%rdi, -8(%rbp)
	movq	%rsi, -16(%rbp)
.LBB91:
	.loc 6 708 42
	movq	-8(%rbp), %rax
	movq	-16(%rbp), %rdx
	movq	%rdx, %rsi
	movq	%rax, %rdi
	call	_ZN9__gnu_cxx14__alloc_traitsISaISt13_Rb_tree_nodeISt4pairIKN3vuh10LenCounter5StateENSt7__cxx1112basic_stringIcSt11char_traitsIcESaIcEEEEEESE_E17_S_select_on_copyERKSF_
	movq	-8(%rbp), %rax
	.loc 6 708 28
	movq	-16(%rbp), %rdx
	.loc 6 708 42
	movq	%rdx, %rsi
	movq	%rax, %rdi
	call	_ZNSt20_Rb_tree_key_compareISt4lessIN3vuh10LenCounter5StateEEEC2ERKS4_
	movq	-8(%rbp), %rax
	addq	$8, %rax
	movq	%rax, %rdi
	call	_ZNSt15_Rb_tree_headerC2Ev
.LBE91:
	.loc 6 709 6
	nop
	leave
	.cfi_def_cfa 7, 8
	ret
	.cfi_endproc
.LFE3300:
	.size	_ZNSt8_Rb_treeIN3vuh10LenCounter5StateESt4pairIKS2_NSt7__cxx1112basic_stringIcSt11char_traitsIcESaIcEEEESt10_Select1stISB_ESt4lessIS2_ESaISB_EE13_Rb_tree_implISF_Lb1EEC2ERKSJ_, .-_ZNSt8_Rb_treeIN3vuh10LenCounter5StateESt4pairIKS2_NSt7__cxx1112basic_stringIcSt11char_traitsIcESaIcEEEESt10_Select1stISB_ESt4lessIS2_ESaISB_EE13_Rb_tree_implISF_Lb1EEC2ERKSJ_
	.weak	_ZNSt8_Rb_treeIN3vuh10LenCounter5StateESt4pairIKS2_NSt7__cxx1112basic_stringIcSt11char_traitsIcESaIcEEEESt10_Select1stISB_ESt4lessIS2_ESaISB_EE13_Rb_tree_implISF_Lb1EEC1ERKSJ_
	.set	_ZNSt8_Rb_treeIN3vuh10LenCounter5StateESt4pairIKS2_NSt7__cxx1112basic_stringIcSt11char_traitsIcESaIcEEEESt10_Select1stISB_ESt4lessIS2_ESaISB_EE13_Rb_tree_implISF_Lb1EEC1ERKSJ_,_ZNSt8_Rb_treeIN3vuh10LenCounter5StateESt4pairIKS2_NSt7__cxx1112basic_stringIcSt11char_traitsIcESaIcEEEESt10_Select1stISB_ESt4lessIS2_ESaISB_EE13_Rb_tree_implISF_Lb1EEC2ERKSJ_
	.section	.text._ZNKSt8_Rb_treeIN3vuh10LenCounter5StateESt4pairIKS2_NSt7__cxx1112basic_stringIcSt11char_traitsIcESaIcEEEESt10_Select1stISB_ESt4lessIS2_ESaISB_EE7_M_rootEv,"axG",@progbits,_ZNKSt8_Rb_treeIN3vuh10LenCounter5StateESt4pairIKS2_NSt7__cxx1112basic_stringIcSt11char_traitsIcESaIcEEEESt10_Select1stISB_ESt4lessIS2_ESaISB_EE7_M_rootEv,comdat
	.align 2
	.weak	_ZNKSt8_Rb_treeIN3vuh10LenCounter5StateESt4pairIKS2_NSt7__cxx1112basic_stringIcSt11char_traitsIcESaIcEEEESt10_Select1stISB_ESt4lessIS2_ESaISB_EE7_M_rootEv
	.type	_ZNKSt8_Rb_treeIN3vuh10LenCounter5StateESt4pairIKS2_NSt7__cxx1112basic_stringIcSt11char_traitsIcESaIcEEEESt10_Select1stISB_ESt4lessIS2_ESaISB_EE7_M_rootEv, @function
_ZNKSt8_Rb_treeIN3vuh10LenCounter5StateESt4pairIKS2_NSt7__cxx1112basic_stringIcSt11char_traitsIcESaIcEEEESt10_Select1stISB_ESt4lessIS2_ESaISB_EE7_M_rootEv:
.LFB3302:
	.loc 6 732 7
	.cfi_startproc
	pushq	%rbp
	.cfi_def_cfa_offset 16
	.cfi_offset 6, -16
	movq	%rsp, %rbp
	.cfi_def_cfa_register 6
	movq	%rdi, -8(%rbp)
	.loc 6 733 40
	movq	-8(%rbp), %rax
	movq	16(%rax), %rax
	.loc 6 733 51
	popq	%rbp
	.cfi_def_cfa 7, 8
	ret
	.cfi_endproc
.LFE3302:
	.size	_ZNKSt8_Rb_treeIN3vuh10LenCounter5StateESt4pairIKS2_NSt7__cxx1112basic_stringIcSt11char_traitsIcESaIcEEEESt10_Select1stISB_ESt4lessIS2_ESaISB_EE7_M_rootEv, .-_ZNKSt8_Rb_treeIN3vuh10LenCounter5StateESt4pairIKS2_NSt7__cxx1112basic_stringIcSt11char_traitsIcESaIcEEEESt10_Select1stISB_ESt4lessIS2_ESaISB_EE7_M_rootEv
	.section	.text._ZNSt8_Rb_treeIN3vuh10LenCounter5StateESt4pairIKS2_NSt7__cxx1112basic_stringIcSt11char_traitsIcESaIcEEEESt10_Select1stISB_ESt4lessIS2_ESaISB_EE7_M_rootEv,"axG",@progbits,_ZNSt8_Rb_treeIN3vuh10LenCounter5StateESt4pairIKS2_NSt7__cxx1112basic_stringIcSt11char_traitsIcESaIcEEEESt10_Select1stISB_ESt4lessIS2_ESaISB_EE7_M_rootEv,comdat
	.align 2
	.weak	_ZNSt8_Rb_treeIN3vuh10LenCounter5StateESt4pairIKS2_NSt7__cxx1112basic_stringIcSt11char_traitsIcESaIcEEEESt10_Select1stISB_ESt4lessIS2_ESaISB_EE7_M_rootEv
	.type	_ZNSt8_Rb_treeIN3vuh10LenCounter5StateESt4pairIKS2_NSt7__cxx1112basic_stringIcSt11char_traitsIcESaIcEEEESt10_Select1stISB_ESt4lessIS2_ESaISB_EE7_M_rootEv, @function
_ZNSt8_Rb_treeIN3vuh10LenCounter5StateESt4pairIKS2_NSt7__cxx1112basic_stringIcSt11char_traitsIcESaIcEEEESt10_Select1stISB_ESt4lessIS2_ESaISB_EE7_M_rootEv:
.LFB3303:
	.loc 6 728 7
	.cfi_startproc
	pushq	%rbp
	.cfi_def_cfa_offset 16
	.cfi_offset 6, -16
	movq	%rsp, %rbp
	.cfi_def_cfa_register 6
	movq	%rdi, -8(%rbp)
	.loc 6 729 40
	movq	-8(%rbp), %rax
	addq	$16, %rax
	.loc 6 729 51
	popq	%rbp
	.cfi_def_cfa 7, 8
	ret
	.cfi_endproc
.LFE3303:
	.size	_ZNSt8_Rb_treeIN3vuh10LenCounter5StateESt4pairIKS2_NSt7__cxx1112basic_stringIcSt11char_traitsIcESaIcEEEESt10_Select1stISB_ESt4lessIS2_ESaISB_EE7_M_rootEv, .-_ZNSt8_Rb_treeIN3vuh10LenCounter5StateESt4pairIKS2_NSt7__cxx1112basic_stringIcSt11char_traitsIcESaIcEEEESt10_Select1stISB_ESt4lessIS2_ESaISB_EE7_M_rootEv
	.section	.text._ZNSt8_Rb_treeIN3vuh10LenCounter5StateESt4pairIKS2_NSt7__cxx1112basic_stringIcSt11char_traitsIcESaIcEEEESt10_Select1stISB_ESt4lessIS2_ESaISB_EE7_M_copyERKSH_,"axG",@progbits,_ZNSt8_Rb_treeIN3vuh10LenCounter5StateESt4pairIKS2_NSt7__cxx1112basic_stringIcSt11char_traitsIcESaIcEEEESt10_Select1stISB_ESt4lessIS2_ESaISB_EE7_M_copyERKSH_,comdat
	.align 2
	.weak	_ZNSt8_Rb_treeIN3vuh10LenCounter5StateESt4pairIKS2_NSt7__cxx1112basic_stringIcSt11char_traitsIcESaIcEEEESt10_Select1stISB_ESt4lessIS2_ESaISB_EE7_M_copyERKSH_
	.type	_ZNSt8_Rb_treeIN3vuh10LenCounter5StateESt4pairIKS2_NSt7__cxx1112basic_stringIcSt11char_traitsIcESaIcEEEESt10_Select1stISB_ESt4lessIS2_ESaISB_EE7_M_copyERKSH_, @function
_ZNSt8_Rb_treeIN3vuh10LenCounter5StateESt4pairIKS2_NSt7__cxx1112basic_stringIcSt11char_traitsIcESaIcEEEESt10_Select1stISB_ESt4lessIS2_ESaISB_EE7_M_copyERKSH_:
.LFB3304:
	.loc 6 899 7
	.cfi_startproc
	pushq	%rbp
	.cfi_def_cfa_offset 16
	.cfi_offset 6, -16
	movq	%rsp, %rbp
	.cfi_def_cfa_register 6
	subq	$32, %rsp
	movq	%rdi, -24(%rbp)
	movq	%rsi, -32(%rbp)
	.loc 6 901 14
	movq	-24(%rbp), %rdx
	leaq	-8(%rbp), %rax
	movq	%rdx, %rsi
	movq	%rax, %rdi
	call	_ZNSt8_Rb_treeIN3vuh10LenCounter5StateESt4pairIKS2_NSt7__cxx1112basic_stringIcSt11char_traitsIcESaIcEEEESt10_Select1stISB_ESt4lessIS2_ESaISB_EE11_Alloc_nodeC1ERSH_
	.loc 6 902 26
	leaq	-8(%rbp), %rdx
	movq	-32(%rbp), %rcx
	movq	-24(%rbp), %rax
	movq	%rcx, %rsi
	movq	%rax, %rdi
	call	_ZNSt8_Rb_treeIN3vuh10LenCounter5StateESt4pairIKS2_NSt7__cxx1112basic_stringIcSt11char_traitsIcESaIcEEEESt10_Select1stISB_ESt4lessIS2_ESaISB_EE7_M_copyINSH_11_Alloc_nodeEEEPSt13_Rb_tree_nodeISB_ERKSH_RT_
	.loc 6 903 7
	leave
	.cfi_def_cfa 7, 8
	ret
	.cfi_endproc
.LFE3304:
	.size	_ZNSt8_Rb_treeIN3vuh10LenCounter5StateESt4pairIKS2_NSt7__cxx1112basic_stringIcSt11char_traitsIcESaIcEEEESt10_Select1stISB_ESt4lessIS2_ESaISB_EE7_M_copyERKSH_, .-_ZNSt8_Rb_treeIN3vuh10LenCounter5StateESt4pairIKS2_NSt7__cxx1112basic_stringIcSt11char_traitsIcESaIcEEEESt10_Select1stISB_ESt4lessIS2_ESaISB_EE7_M_copyERKSH_
	.section	.text._ZSt7forwardIN3vuh10LenCounter5StateEEOT_RNSt16remove_referenceIS3_E4typeE,"axG",@progbits,_ZSt7forwardIN3vuh10LenCounter5StateEEOT_RNSt16remove_referenceIS3_E4typeE,comdat
	.weak	_ZSt7forwardIN3vuh10LenCounter5StateEEOT_RNSt16remove_referenceIS3_E4typeE
	.type	_ZSt7forwardIN3vuh10LenCounter5StateEEOT_RNSt16remove_referenceIS3_E4typeE, @function
_ZSt7forwardIN3vuh10LenCounter5StateEEOT_RNSt16remove_referenceIS3_E4typeE:
.LFB3305:
	.loc 16 74 5
	.cfi_startproc
	pushq	%rbp
	.cfi_def_cfa_offset 16
	.cfi_offset 6, -16
	movq	%rsp, %rbp
	.cfi_def_cfa_register 6
	movq	%rdi, -8(%rbp)
	.loc 16 75 36
	movq	-8(%rbp), %rax
	.loc 16 75 39
	popq	%rbp
	.cfi_def_cfa 7, 8
	ret
	.cfi_endproc
.LFE3305:
	.size	_ZSt7forwardIN3vuh10LenCounter5StateEEOT_RNSt16remove_referenceIS3_E4typeE, .-_ZSt7forwardIN3vuh10LenCounter5StateEEOT_RNSt16remove_referenceIS3_E4typeE
	.section	.text._ZSt10__exchangeIN3vuh10LenCounter5StateES2_ET_RS3_OT0_,"axG",@progbits,_ZSt10__exchangeIN3vuh10LenCounter5StateES2_ET_RS3_OT0_,comdat
	.weak	_ZSt10__exchangeIN3vuh10LenCounter5StateES2_ET_RS3_OT0_
	.type	_ZSt10__exchangeIN3vuh10LenCounter5StateES2_ET_RS3_OT0_, @function
_ZSt10__exchangeIN3vuh10LenCounter5StateES2_ET_RS3_OT0_:
.LFB3306:
	.loc 16 149 5
	.cfi_startproc
	pushq	%rbp
	.cfi_def_cfa_offset 16
	.cfi_offset 6, -16
	movq	%rsp, %rbp
	.cfi_def_cfa_register 6
	subq	$32, %rsp
	movq	%rdi, -24(%rbp)
	movq	%rsi, -32(%rbp)
	.loc 16 151 32
	movq	-24(%rbp), %rax
	movq	%rax, %rdi
	call	_ZSt4moveIRN3vuh10LenCounter5StateEEONSt16remove_referenceIT_E4typeEOS5_
	.loc 16 151 11
	movl	(%rax), %eax
	movl	%eax, -4(%rbp)
	.loc 16 152 32
	movq	-32(%rbp), %rax
	movq	%rax, %rdi
	call	_ZSt7forwardIN3vuh10LenCounter5StateEEOT_RNSt16remove_referenceIS3_E4typeE
	.loc 16 152 7
	movl	(%rax), %edx
	movq	-24(%rbp), %rax
	movl	%edx, (%rax)
	.loc 16 153 14
	movl	-4(%rbp), %eax
	.loc 16 154 5
	leave
	.cfi_def_cfa 7, 8
	ret
	.cfi_endproc
.LFE3306:
	.size	_ZSt10__exchangeIN3vuh10LenCounter5StateES2_ET_RS3_OT0_, .-_ZSt10__exchangeIN3vuh10LenCounter5StateES2_ET_RS3_OT0_
	.section	.text._ZSt7forwardIiEOT_RNSt16remove_referenceIS0_E4typeE,"axG",@progbits,_ZSt7forwardIiEOT_RNSt16remove_referenceIS0_E4typeE,comdat
	.weak	_ZSt7forwardIiEOT_RNSt16remove_referenceIS0_E4typeE
	.type	_ZSt7forwardIiEOT_RNSt16remove_referenceIS0_E4typeE, @function
_ZSt7forwardIiEOT_RNSt16remove_referenceIS0_E4typeE:
.LFB3307:
	.loc 16 74 5
	.cfi_startproc
	pushq	%rbp
	.cfi_def_cfa_offset 16
	.cfi_offset 6, -16
	movq	%rsp, %rbp
	.cfi_def_cfa_register 6
	movq	%rdi, -8(%rbp)
	.loc 16 75 36
	movq	-8(%rbp), %rax
	.loc 16 75 39
	popq	%rbp
	.cfi_def_cfa 7, 8
	ret
	.cfi_endproc
.LFE3307:
	.size	_ZSt7forwardIiEOT_RNSt16remove_referenceIS0_E4typeE, .-_ZSt7forwardIiEOT_RNSt16remove_referenceIS0_E4typeE
	.section	.text._ZSt4moveIRsEONSt16remove_referenceIT_E4typeEOS2_,"axG",@progbits,_ZSt4moveIRsEONSt16remove_referenceIT_E4typeEOS2_,comdat
	.weak	_ZSt4moveIRsEONSt16remove_referenceIT_E4typeEOS2_
	.type	_ZSt4moveIRsEONSt16remove_referenceIT_E4typeEOS2_, @function
_ZSt4moveIRsEONSt16remove_referenceIT_E4typeEOS2_:
.LFB3309:
	.loc 16 99 5
	.cfi_startproc
	pushq	%rbp
	.cfi_def_cfa_offset 16
	.cfi_offset 6, -16
	movq	%rsp, %rbp
	.cfi_def_cfa_register 6
	movq	%rdi, -8(%rbp)
	.loc 16 100 74
	movq	-8(%rbp), %rax
	.loc 16 100 77
	popq	%rbp
	.cfi_def_cfa 7, 8
	ret
	.cfi_endproc
.LFE3309:
	.size	_ZSt4moveIRsEONSt16remove_referenceIT_E4typeEOS2_, .-_ZSt4moveIRsEONSt16remove_referenceIT_E4typeEOS2_
	.section	.text._ZSt10__exchangeIsiET_RS0_OT0_,"axG",@progbits,_ZSt10__exchangeIsiET_RS0_OT0_,comdat
	.weak	_ZSt10__exchangeIsiET_RS0_OT0_
	.type	_ZSt10__exchangeIsiET_RS0_OT0_, @function
_ZSt10__exchangeIsiET_RS0_OT0_:
.LFB3308:
	.loc 16 149 5
	.cfi_startproc
	pushq	%rbp
	.cfi_def_cfa_offset 16
	.cfi_offset 6, -16
	movq	%rsp, %rbp
	.cfi_def_cfa_register 6
	subq	$32, %rsp
	movq	%rdi, -24(%rbp)
	movq	%rsi, -32(%rbp)
	.loc 16 151 32
	movq	-24(%rbp), %rax
	movq	%rax, %rdi
	call	_ZSt4moveIRsEONSt16remove_referenceIT_E4typeEOS2_
	.loc 16 151 11
	movzwl	(%rax), %eax
	movw	%ax, -2(%rbp)
	.loc 16 152 32
	movq	-32(%rbp), %rax
	movq	%rax, %rdi
	call	_ZSt7forwardIiEOT_RNSt16remove_referenceIS0_E4typeE
	.loc 16 152 7
	movl	(%rax), %eax
	movl	%eax, %edx
	movq	-24(%rbp), %rax
	movw	%dx, (%rax)
	.loc 16 153 14
	movzwl	-2(%rbp), %eax
	.loc 16 154 5
	leave
	.cfi_def_cfa 7, 8
	ret
	.cfi_endproc
.LFE3308:
	.size	_ZSt10__exchangeIsiET_RS0_OT0_, .-_ZSt10__exchangeIsiET_RS0_OT0_
	.section	.text._ZSt7forwardISt3mapIN3vuh10LenCounter5StateENSt7__cxx1112basic_stringIcSt11char_traitsIcESaIcEEESt4lessIS3_ESaISt4pairIKS3_S9_EEEEOT_RNSt16remove_referenceISH_E4typeE,"axG",@progbits,_ZSt7forwardISt3mapIN3vuh10LenCounter5StateENSt7__cxx1112basic_stringIcSt11char_traitsIcESaIcEEESt4lessIS3_ESaISt4pairIKS3_S9_EEEEOT_RNSt16remove_referenceISH_E4typeE,comdat
	.weak	_ZSt7forwardISt3mapIN3vuh10LenCounter5StateENSt7__cxx1112basic_stringIcSt11char_traitsIcESaIcEEESt4lessIS3_ESaISt4pairIKS3_S9_EEEEOT_RNSt16remove_referenceISH_E4typeE
	.type	_ZSt7forwardISt3mapIN3vuh10LenCounter5StateENSt7__cxx1112basic_stringIcSt11char_traitsIcESaIcEEESt4lessIS3_ESaISt4pairIKS3_S9_EEEEOT_RNSt16remove_referenceISH_E4typeE, @function
_ZSt7forwardISt3mapIN3vuh10LenCounter5StateENSt7__cxx1112basic_stringIcSt11char_traitsIcESaIcEEESt4lessIS3_ESaISt4pairIKS3_S9_EEEEOT_RNSt16remove_referenceISH_E4typeE:
.LFB3310:
	.loc 16 74 5
	.cfi_startproc
	pushq	%rbp
	.cfi_def_cfa_offset 16
	.cfi_offset 6, -16
	movq	%rsp, %rbp
	.cfi_def_cfa_register 6
	movq	%rdi, -8(%rbp)
	.loc 16 75 36
	movq	-8(%rbp), %rax
	.loc 16 75 39
	popq	%rbp
	.cfi_def_cfa 7, 8
	ret
	.cfi_endproc
.LFE3310:
	.size	_ZSt7forwardISt3mapIN3vuh10LenCounter5StateENSt7__cxx1112basic_stringIcSt11char_traitsIcESaIcEEESt4lessIS3_ESaISt4pairIKS3_S9_EEEEOT_RNSt16remove_referenceISH_E4typeE, .-_ZSt7forwardISt3mapIN3vuh10LenCounter5StateENSt7__cxx1112basic_stringIcSt11char_traitsIcESaIcEEESt4lessIS3_ESaISt4pairIKS3_S9_EEEEOT_RNSt16remove_referenceISH_E4typeE
	.section	.text._ZSt10__exchangeISt3mapIN3vuh10LenCounter5StateENSt7__cxx1112basic_stringIcSt11char_traitsIcESaIcEEESt4lessIS3_ESaISt4pairIKS3_S9_EEESG_ET_RSH_OT0_,"axG",@progbits,_ZSt10__exchangeISt3mapIN3vuh10LenCounter5StateENSt7__cxx1112basic_stringIcSt11char_traitsIcESaIcEEESt4lessIS3_ESaISt4pairIKS3_S9_EEESG_ET_RSH_OT0_,comdat
	.weak	_ZSt10__exchangeISt3mapIN3vuh10LenCounter5StateENSt7__cxx1112basic_stringIcSt11char_traitsIcESaIcEEESt4lessIS3_ESaISt4pairIKS3_S9_EEESG_ET_RSH_OT0_
	.type	_ZSt10__exchangeISt3mapIN3vuh10LenCounter5StateENSt7__cxx1112basic_stringIcSt11char_traitsIcESaIcEEESt4lessIS3_ESaISt4pairIKS3_S9_EEESG_ET_RSH_OT0_, @function
_ZSt10__exchangeISt3mapIN3vuh10LenCounter5StateENSt7__cxx1112basic_stringIcSt11char_traitsIcESaIcEEESt4lessIS3_ESaISt4pairIKS3_S9_EEESG_ET_RSH_OT0_:
.LFB3311:
	.loc 16 149 5
	.cfi_startproc
	pushq	%rbp
	.cfi_def_cfa_offset 16
	.cfi_offset 6, -16
	movq	%rsp, %rbp
	.cfi_def_cfa_register 6
	subq	$32, %rsp
	movq	%rdi, -8(%rbp)
	movq	%rsi, -16(%rbp)
	movq	%rdx, -24(%rbp)
	.loc 16 151 32
	movq	-16(%rbp), %rax
	movq	%rax, %rdi
	call	_ZSt4moveIRSt3mapIN3vuh10LenCounter5StateENSt7__cxx1112basic_stringIcSt11char_traitsIcESaIcEEESt4lessIS3_ESaISt4pairIKS3_S9_EEEEONSt16remove_referenceIT_E4typeEOSJ_
	movq	%rax, %rdx
	.loc 16 151 11
	movq	-8(%rbp), %rax
	movq	%rdx, %rsi
	movq	%rax, %rdi
	call	_ZNSt3mapIN3vuh10LenCounter5StateENSt7__cxx1112basic_stringIcSt11char_traitsIcESaIcEEESt4lessIS2_ESaISt4pairIKS2_S8_EEEC1EOSF_
	.loc 16 152 13
	movq	-24(%rbp), %rax
	movq	%rax, %rdi
	call	_ZSt7forwardISt3mapIN3vuh10LenCounter5StateENSt7__cxx1112basic_stringIcSt11char_traitsIcESaIcEEESt4lessIS3_ESaISt4pairIKS3_S9_EEEEOT_RNSt16remove_referenceISH_E4typeE
	movq	%rax, %rdx
	movq	-16(%rbp), %rax
	movq	%rdx, %rsi
	movq	%rax, %rdi
	call	_ZNSt3mapIN3vuh10LenCounter5StateENSt7__cxx1112basic_stringIcSt11char_traitsIcESaIcEEESt4lessIS2_ESaISt4pairIKS2_S8_EEEaSEOSF_
	.loc 16 153 14
	nop
	.loc 16 154 5
	movq	-8(%rbp), %rax
	leave
	.cfi_def_cfa 7, 8
	ret
	.cfi_endproc
.LFE3311:
	.size	_ZSt10__exchangeISt3mapIN3vuh10LenCounter5StateENSt7__cxx1112basic_stringIcSt11char_traitsIcESaIcEEESt4lessIS3_ESaISt4pairIKS3_S9_EEESG_ET_RSH_OT0_, .-_ZSt10__exchangeISt3mapIN3vuh10LenCounter5StateENSt7__cxx1112basic_stringIcSt11char_traitsIcESaIcEEESt4lessIS3_ESaISt4pairIKS3_S9_EEESG_ET_RSH_OT0_
	.section	.text._ZN9__gnu_cxx13new_allocatorISt13_Rb_tree_nodeISt4pairIKN3vuh10LenCounter5StateENSt7__cxx1112basic_stringIcSt11char_traitsIcESaIcEEEEEEC2ERKSF_,"axG",@progbits,_ZN9__gnu_cxx13new_allocatorISt13_Rb_tree_nodeISt4pairIKN3vuh10LenCounter5StateENSt7__cxx1112basic_stringIcSt11char_traitsIcESaIcEEEEEEC5ERKSF_,comdat
	.align 2
	.weak	_ZN9__gnu_cxx13new_allocatorISt13_Rb_tree_nodeISt4pairIKN3vuh10LenCounter5StateENSt7__cxx1112basic_stringIcSt11char_traitsIcESaIcEEEEEEC2ERKSF_
	.type	_ZN9__gnu_cxx13new_allocatorISt13_Rb_tree_nodeISt4pairIKN3vuh10LenCounter5StateENSt7__cxx1112basic_stringIcSt11char_traitsIcESaIcEEEEEEC2ERKSF_, @function
_ZN9__gnu_cxx13new_allocatorISt13_Rb_tree_nodeISt4pairIKN3vuh10LenCounter5StateENSt7__cxx1112basic_stringIcSt11char_traitsIcESaIcEEEEEEC2ERKSF_:
.LFB3313:
	.loc 14 81 7
	.cfi_startproc
	pushq	%rbp
	.cfi_def_cfa_offset 16
	.cfi_offset 6, -16
	movq	%rsp, %rbp
	.cfi_def_cfa_register 6
	movq	%rdi, -8(%rbp)
	movq	%rsi, -16(%rbp)
	.loc 14 81 54
	nop
	popq	%rbp
	.cfi_def_cfa 7, 8
	ret
	.cfi_endproc
.LFE3313:
	.size	_ZN9__gnu_cxx13new_allocatorISt13_Rb_tree_nodeISt4pairIKN3vuh10LenCounter5StateENSt7__cxx1112basic_stringIcSt11char_traitsIcESaIcEEEEEEC2ERKSF_, .-_ZN9__gnu_cxx13new_allocatorISt13_Rb_tree_nodeISt4pairIKN3vuh10LenCounter5StateENSt7__cxx1112basic_stringIcSt11char_traitsIcESaIcEEEEEEC2ERKSF_
	.weak	_ZN9__gnu_cxx13new_allocatorISt13_Rb_tree_nodeISt4pairIKN3vuh10LenCounter5StateENSt7__cxx1112basic_stringIcSt11char_traitsIcESaIcEEEEEEC1ERKSF_
	.set	_ZN9__gnu_cxx13new_allocatorISt13_Rb_tree_nodeISt4pairIKN3vuh10LenCounter5StateENSt7__cxx1112basic_stringIcSt11char_traitsIcESaIcEEEEEEC1ERKSF_,_ZN9__gnu_cxx13new_allocatorISt13_Rb_tree_nodeISt4pairIKN3vuh10LenCounter5StateENSt7__cxx1112basic_stringIcSt11char_traitsIcESaIcEEEEEEC2ERKSF_
	.section	.text._ZNSt8_Rb_treeIN3vuh10LenCounter5StateESt4pairIKS2_NSt7__cxx1112basic_stringIcSt11char_traitsIcESaIcEEEESt10_Select1stISB_ESt4lessIS2_ESaISB_EE21_M_get_Node_allocatorEv,"axG",@progbits,_ZNSt8_Rb_treeIN3vuh10LenCounter5StateESt4pairIKS2_NSt7__cxx1112basic_stringIcSt11char_traitsIcESaIcEEEESt10_Select1stISB_ESt4lessIS2_ESaISB_EE21_M_get_Node_allocatorEv,comdat
	.align 2
	.weak	_ZNSt8_Rb_treeIN3vuh10LenCounter5StateESt4pairIKS2_NSt7__cxx1112basic_stringIcSt11char_traitsIcESaIcEEEESt10_Select1stISB_ESt4lessIS2_ESaISB_EE21_M_get_Node_allocatorEv
	.type	_ZNSt8_Rb_treeIN3vuh10LenCounter5StateESt4pairIKS2_NSt7__cxx1112basic_stringIcSt11char_traitsIcESaIcEEEESt10_Select1stISB_ESt4lessIS2_ESaISB_EE21_M_get_Node_allocatorEv, @function
_ZNSt8_Rb_treeIN3vuh10LenCounter5StateESt4pairIKS2_NSt7__cxx1112basic_stringIcSt11char_traitsIcESaIcEEEESt10_Select1stISB_ESt4lessIS2_ESaISB_EE21_M_get_Node_allocatorEv:
.LFB3315:
	.loc 6 585 7
	.cfi_startproc
	pushq	%rbp
	.cfi_def_cfa_offset 16
	.cfi_offset 6, -16
	movq	%rsp, %rbp
	.cfi_def_cfa_register 6
	movq	%rdi, -8(%rbp)
	.loc 6 586 22
	movq	-8(%rbp), %rax
	.loc 6 586 31
	popq	%rbp
	.cfi_def_cfa 7, 8
	ret
	.cfi_endproc
.LFE3315:
	.size	_ZNSt8_Rb_treeIN3vuh10LenCounter5StateESt4pairIKS2_NSt7__cxx1112basic_stringIcSt11char_traitsIcESaIcEEEESt10_Select1stISB_ESt4lessIS2_ESaISB_EE21_M_get_Node_allocatorEv, .-_ZNSt8_Rb_treeIN3vuh10LenCounter5StateESt4pairIKS2_NSt7__cxx1112basic_stringIcSt11char_traitsIcESaIcEEEESt10_Select1stISB_ESt4lessIS2_ESaISB_EE21_M_get_Node_allocatorEv
	.section	.text._ZNKSt8_Rb_treeIN3vuh10LenCounter5StateESt4pairIKS2_NSt7__cxx1112basic_stringIcSt11char_traitsIcESaIcEEEESt10_Select1stISB_ESt4lessIS2_ESaISB_EE21_M_get_Node_allocatorEv,"axG",@progbits,_ZNKSt8_Rb_treeIN3vuh10LenCounter5StateESt4pairIKS2_NSt7__cxx1112basic_stringIcSt11char_traitsIcESaIcEEEESt10_Select1stISB_ESt4lessIS2_ESaISB_EE21_M_get_Node_allocatorEv,comdat
	.align 2
	.weak	_ZNKSt8_Rb_treeIN3vuh10LenCounter5StateESt4pairIKS2_NSt7__cxx1112basic_stringIcSt11char_traitsIcESaIcEEEESt10_Select1stISB_ESt4lessIS2_ESaISB_EE21_M_get_Node_allocatorEv
	.type	_ZNKSt8_Rb_treeIN3vuh10LenCounter5StateESt4pairIKS2_NSt7__cxx1112basic_stringIcSt11char_traitsIcESaIcEEEESt10_Select1stISB_ESt4lessIS2_ESaISB_EE21_M_get_Node_allocatorEv, @function
_ZNKSt8_Rb_treeIN3vuh10LenCounter5StateESt4pairIKS2_NSt7__cxx1112basic_stringIcSt11char_traitsIcESaIcEEEESt10_Select1stISB_ESt4lessIS2_ESaISB_EE21_M_get_Node_allocatorEv:
.LFB3316:
	.loc 6 589 7
	.cfi_startproc
	pushq	%rbp
	.cfi_def_cfa_offset 16
	.cfi_offset 6, -16
	movq	%rsp, %rbp
	.cfi_def_cfa_register 6
	movq	%rdi, -8(%rbp)
	.loc 6 590 22
	movq	-8(%rbp), %rax
	.loc 6 590 31
	popq	%rbp
	.cfi_def_cfa 7, 8
	ret
	.cfi_endproc
.LFE3316:
	.size	_ZNKSt8_Rb_treeIN3vuh10LenCounter5StateESt4pairIKS2_NSt7__cxx1112basic_stringIcSt11char_traitsIcESaIcEEEESt10_Select1stISB_ESt4lessIS2_ESaISB_EE21_M_get_Node_allocatorEv, .-_ZNKSt8_Rb_treeIN3vuh10LenCounter5StateESt4pairIKS2_NSt7__cxx1112basic_stringIcSt11char_traitsIcESaIcEEEESt10_Select1stISB_ESt4lessIS2_ESaISB_EE21_M_get_Node_allocatorEv
	.section	.text._ZStneISt13_Rb_tree_nodeISt4pairIKN3vuh10LenCounter5StateENSt7__cxx1112basic_stringIcSt11char_traitsIcESaIcEEEEEEbRKSaIT_ESH_,"axG",@progbits,_ZStneISt13_Rb_tree_nodeISt4pairIKN3vuh10LenCounter5StateENSt7__cxx1112basic_stringIcSt11char_traitsIcESaIcEEEEEEbRKSaIT_ESH_,comdat
	.weak	_ZStneISt13_Rb_tree_nodeISt4pairIKN3vuh10LenCounter5StateENSt7__cxx1112basic_stringIcSt11char_traitsIcESaIcEEEEEEbRKSaIT_ESH_
	.type	_ZStneISt13_Rb_tree_nodeISt4pairIKN3vuh10LenCounter5StateENSt7__cxx1112basic_stringIcSt11char_traitsIcESaIcEEEEEEbRKSaIT_ESH_, @function
_ZStneISt13_Rb_tree_nodeISt4pairIKN3vuh10LenCounter5StateENSt7__cxx1112basic_stringIcSt11char_traitsIcESaIcEEEEEEbRKSaIT_ESH_:
.LFB3317:
	.loc 10 164 5
	.cfi_startproc
	pushq	%rbp
	.cfi_def_cfa_offset 16
	.cfi_offset 6, -16
	movq	%rsp, %rbp
	.cfi_def_cfa_register 6
	movq	%rdi, -8(%rbp)
	movq	%rsi, -16(%rbp)
	.loc 10 166 14
	movl	$0, %eax
	.loc 10 166 21
	popq	%rbp
	.cfi_def_cfa 7, 8
	ret
	.cfi_endproc
.LFE3317:
	.size	_ZStneISt13_Rb_tree_nodeISt4pairIKN3vuh10LenCounter5StateENSt7__cxx1112basic_stringIcSt11char_traitsIcESaIcEEEEEEbRKSaIT_ESH_, .-_ZStneISt13_Rb_tree_nodeISt4pairIKN3vuh10LenCounter5StateENSt7__cxx1112basic_stringIcSt11char_traitsIcESaIcEEEEEEbRKSaIT_ESH_
	.section	.text._ZSt15__alloc_on_copyISaISt13_Rb_tree_nodeISt4pairIKN3vuh10LenCounter5StateENSt7__cxx1112basic_stringIcSt11char_traitsIcESaIcEEEEEEEvRT_RKSF_,"axG",@progbits,_ZSt15__alloc_on_copyISaISt13_Rb_tree_nodeISt4pairIKN3vuh10LenCounter5StateENSt7__cxx1112basic_stringIcSt11char_traitsIcESaIcEEEEEEEvRT_RKSF_,comdat
	.weak	_ZSt15__alloc_on_copyISaISt13_Rb_tree_nodeISt4pairIKN3vuh10LenCounter5StateENSt7__cxx1112basic_stringIcSt11char_traitsIcESaIcEEEEEEEvRT_RKSF_
	.type	_ZSt15__alloc_on_copyISaISt13_Rb_tree_nodeISt4pairIKN3vuh10LenCounter5StateENSt7__cxx1112basic_stringIcSt11char_traitsIcESaIcEEEEEEEvRT_RKSF_, @function
_ZSt15__alloc_on_copyISaISt13_Rb_tree_nodeISt4pairIKN3vuh10LenCounter5StateENSt7__cxx1112basic_stringIcSt11char_traitsIcESaIcEEEEEEEvRT_RKSF_:
.LFB3318:
	.file 18 "/usr/include/c++/8/bits/alloc_traits.h"
	.loc 18 520 17
	.cfi_startproc
	pushq	%rbp
	.cfi_def_cfa_offset 16
	.cfi_offset 6, -16
	movq	%rsp, %rbp
	.cfi_def_cfa_register 6
	subq	$32, %rsp
	movq	%rdi, -24(%rbp)
	movq	%rsi, -32(%rbp)
	.loc 18 524 25
	movq	-32(%rbp), %rdx
	movq	-24(%rbp), %rax
	movq	%rdx, %rsi
	movq	%rax, %rdi
	call	_ZSt18__do_alloc_on_copyISaISt13_Rb_tree_nodeISt4pairIKN3vuh10LenCounter5StateENSt7__cxx1112basic_stringIcSt11char_traitsIcESaIcEEEEEEEvRT_RKSF_St17integral_constantIbLb0EE
	.loc 18 525 5
	nop
	leave
	.cfi_def_cfa 7, 8
	ret
	.cfi_endproc
.LFE3318:
	.size	_ZSt15__alloc_on_copyISaISt13_Rb_tree_nodeISt4pairIKN3vuh10LenCounter5StateENSt7__cxx1112basic_stringIcSt11char_traitsIcESaIcEEEEEEEvRT_RKSF_, .-_ZSt15__alloc_on_copyISaISt13_Rb_tree_nodeISt4pairIKN3vuh10LenCounter5StateENSt7__cxx1112basic_stringIcSt11char_traitsIcESaIcEEEEEEEvRT_RKSF_
	.section	.text._ZNSt8_Rb_treeIN3vuh10LenCounter5StateESt4pairIKS2_NSt7__cxx1112basic_stringIcSt11char_traitsIcESaIcEEEESt10_Select1stISB_ESt4lessIS2_ESaISB_EE20_Reuse_or_alloc_nodeC2ERSH_,"axG",@progbits,_ZNSt8_Rb_treeIN3vuh10LenCounter5StateESt4pairIKS2_NSt7__cxx1112basic_stringIcSt11char_traitsIcESaIcEEEESt10_Select1stISB_ESt4lessIS2_ESaISB_EE20_Reuse_or_alloc_nodeC5ERSH_,comdat
	.align 2
	.weak	_ZNSt8_Rb_treeIN3vuh10LenCounter5StateESt4pairIKS2_NSt7__cxx1112basic_stringIcSt11char_traitsIcESaIcEEEESt10_Select1stISB_ESt4lessIS2_ESaISB_EE20_Reuse_or_alloc_nodeC2ERSH_
	.type	_ZNSt8_Rb_treeIN3vuh10LenCounter5StateESt4pairIKS2_NSt7__cxx1112basic_stringIcSt11char_traitsIcESaIcEEEESt10_Select1stISB_ESt4lessIS2_ESaISB_EE20_Reuse_or_alloc_nodeC2ERSH_, @function
_ZNSt8_Rb_treeIN3vuh10LenCounter5StateESt4pairIKS2_NSt7__cxx1112basic_stringIcSt11char_traitsIcESaIcEEEESt10_Select1stISB_ESt4lessIS2_ESaISB_EE20_Reuse_or_alloc_nodeC2ERSH_:
.LFB3320:
	.loc 6 473 2
	.cfi_startproc
	pushq	%rbp
	.cfi_def_cfa_offset 16
	.cfi_offset 6, -16
	movq	%rsp, %rbp
	.cfi_def_cfa_register 6
	subq	$16, %rsp
	movq	%rdi, -8(%rbp)
	movq	%rsi, -16(%rbp)
.LBB92:
	.loc 6 474 68
	movq	-16(%rbp), %rax
	movq	%rax, %rdi
	call	_ZNSt8_Rb_treeIN3vuh10LenCounter5StateESt4pairIKS2_NSt7__cxx1112basic_stringIcSt11char_traitsIcESaIcEEEESt10_Select1stISB_ESt4lessIS2_ESaISB_EE7_M_rootEv
	movq	(%rax), %rdx
	movq	-8(%rbp), %rax
	movq	%rdx, (%rax)
	movq	-16(%rbp), %rax
	movq	%rax, %rdi
	call	_ZNSt8_Rb_treeIN3vuh10LenCounter5StateESt4pairIKS2_NSt7__cxx1112basic_stringIcSt11char_traitsIcESaIcEEEESt10_Select1stISB_ESt4lessIS2_ESaISB_EE12_M_rightmostEv
	movq	(%rax), %rdx
	movq	-8(%rbp), %rax
	movq	%rdx, 8(%rax)
	movq	-8(%rbp), %rax
	movq	-16(%rbp), %rdx
	movq	%rdx, 16(%rax)
	.loc 6 476 8
	movq	-8(%rbp), %rax
	movq	(%rax), %rax
	.loc 6 476 4
	testq	%rax, %rax
	je	.L325
	.loc 6 478 8
	movq	-8(%rbp), %rax
	movq	(%rax), %rax
	movq	$0, 8(%rax)
	.loc 6 480 12
	movq	-8(%rbp), %rax
	movq	8(%rax), %rax
	.loc 6 480 22
	movq	16(%rax), %rax
	.loc 6 480 8
	testq	%rax, %rax
	je	.L327
	.loc 6 481 14
	movq	-8(%rbp), %rax
	movq	8(%rax), %rax
	.loc 6 481 24
	movq	16(%rax), %rdx
	.loc 6 481 3
	movq	-8(%rbp), %rax
	movq	%rdx, 8(%rax)
.LBE92:
	.loc 6 485 2
	jmp	.L327
.L325:
.LBB93:
	.loc 6 484 6
	movq	-8(%rbp), %rax
	movq	$0, 8(%rax)
.L327:
.LBE93:
	.loc 6 485 2
	nop
	leave
	.cfi_def_cfa 7, 8
	ret
	.cfi_endproc
.LFE3320:
	.size	_ZNSt8_Rb_treeIN3vuh10LenCounter5StateESt4pairIKS2_NSt7__cxx1112basic_stringIcSt11char_traitsIcESaIcEEEESt10_Select1stISB_ESt4lessIS2_ESaISB_EE20_Reuse_or_alloc_nodeC2ERSH_, .-_ZNSt8_Rb_treeIN3vuh10LenCounter5StateESt4pairIKS2_NSt7__cxx1112basic_stringIcSt11char_traitsIcESaIcEEEESt10_Select1stISB_ESt4lessIS2_ESaISB_EE20_Reuse_or_alloc_nodeC2ERSH_
	.weak	_ZNSt8_Rb_treeIN3vuh10LenCounter5StateESt4pairIKS2_NSt7__cxx1112basic_stringIcSt11char_traitsIcESaIcEEEESt10_Select1stISB_ESt4lessIS2_ESaISB_EE20_Reuse_or_alloc_nodeC1ERSH_
	.set	_ZNSt8_Rb_treeIN3vuh10LenCounter5StateESt4pairIKS2_NSt7__cxx1112basic_stringIcSt11char_traitsIcESaIcEEEESt10_Select1stISB_ESt4lessIS2_ESaISB_EE20_Reuse_or_alloc_nodeC1ERSH_,_ZNSt8_Rb_treeIN3vuh10LenCounter5StateESt4pairIKS2_NSt7__cxx1112basic_stringIcSt11char_traitsIcESaIcEEEESt10_Select1stISB_ESt4lessIS2_ESaISB_EE20_Reuse_or_alloc_nodeC2ERSH_
	.section	.text._ZNSt8_Rb_treeIN3vuh10LenCounter5StateESt4pairIKS2_NSt7__cxx1112basic_stringIcSt11char_traitsIcESaIcEEEESt10_Select1stISB_ESt4lessIS2_ESaISB_EE20_Reuse_or_alloc_nodeD2Ev,"axG",@progbits,_ZNSt8_Rb_treeIN3vuh10LenCounter5StateESt4pairIKS2_NSt7__cxx1112basic_stringIcSt11char_traitsIcESaIcEEEESt10_Select1stISB_ESt4lessIS2_ESaISB_EE20_Reuse_or_alloc_nodeD5Ev,comdat
	.align 2
	.weak	_ZNSt8_Rb_treeIN3vuh10LenCounter5StateESt4pairIKS2_NSt7__cxx1112basic_stringIcSt11char_traitsIcESaIcEEEESt10_Select1stISB_ESt4lessIS2_ESaISB_EE20_Reuse_or_alloc_nodeD2Ev
	.type	_ZNSt8_Rb_treeIN3vuh10LenCounter5StateESt4pairIKS2_NSt7__cxx1112basic_stringIcSt11char_traitsIcESaIcEEEESt10_Select1stISB_ESt4lessIS2_ESaISB_EE20_Reuse_or_alloc_nodeD2Ev, @function
_ZNSt8_Rb_treeIN3vuh10LenCounter5StateESt4pairIKS2_NSt7__cxx1112basic_stringIcSt11char_traitsIcESaIcEEEESt10_Select1stISB_ESt4lessIS2_ESaISB_EE20_Reuse_or_alloc_nodeD2Ev:
.LFB3323:
	.loc 6 491 2
	.cfi_startproc
	.cfi_personality 0x3,__gxx_personality_v0
	.cfi_lsda 0x3,.LLSDA3323
	pushq	%rbp
	.cfi_def_cfa_offset 16
	.cfi_offset 6, -16
	movq	%rsp, %rbp
	.cfi_def_cfa_register 6
	subq	$16, %rsp
	movq	%rdi, -8(%rbp)
.LBB94:
	.loc 6 492 4
	movq	-8(%rbp), %rax
	movq	16(%rax), %rax
	.loc 6 492 42
	movq	-8(%rbp), %rdx
	movq	(%rdx), %rdx
	.loc 6 492 4
	movq	%rdx, %rsi
	movq	%rax, %rdi
	call	_ZNSt8_Rb_treeIN3vuh10LenCounter5StateESt4pairIKS2_NSt7__cxx1112basic_stringIcSt11char_traitsIcESaIcEEEESt10_Select1stISB_ESt4lessIS2_ESaISB_EE8_M_eraseEPSt13_Rb_tree_nodeISB_E
.LBE94:
	.loc 6 492 53
	nop
	leave
	.cfi_def_cfa 7, 8
	ret
	.cfi_endproc
.LFE3323:
	.section	.gcc_except_table
.LLSDA3323:
	.byte	0xff
	.byte	0xff
	.byte	0x1
	.uleb128 .LLSDACSE3323-.LLSDACSB3323
.LLSDACSB3323:
.LLSDACSE3323:
	.section	.text._ZNSt8_Rb_treeIN3vuh10LenCounter5StateESt4pairIKS2_NSt7__cxx1112basic_stringIcSt11char_traitsIcESaIcEEEESt10_Select1stISB_ESt4lessIS2_ESaISB_EE20_Reuse_or_alloc_nodeD2Ev,"axG",@progbits,_ZNSt8_Rb_treeIN3vuh10LenCounter5StateESt4pairIKS2_NSt7__cxx1112basic_stringIcSt11char_traitsIcESaIcEEEESt10_Select1stISB_ESt4lessIS2_ESaISB_EE20_Reuse_or_alloc_nodeD5Ev,comdat
	.size	_ZNSt8_Rb_treeIN3vuh10LenCounter5StateESt4pairIKS2_NSt7__cxx1112basic_stringIcSt11char_traitsIcESaIcEEEESt10_Select1stISB_ESt4lessIS2_ESaISB_EE20_Reuse_or_alloc_nodeD2Ev, .-_ZNSt8_Rb_treeIN3vuh10LenCounter5StateESt4pairIKS2_NSt7__cxx1112basic_stringIcSt11char_traitsIcESaIcEEEESt10_Select1stISB_ESt4lessIS2_ESaISB_EE20_Reuse_or_alloc_nodeD2Ev
	.weak	_ZNSt8_Rb_treeIN3vuh10LenCounter5StateESt4pairIKS2_NSt7__cxx1112basic_stringIcSt11char_traitsIcESaIcEEEESt10_Select1stISB_ESt4lessIS2_ESaISB_EE20_Reuse_or_alloc_nodeD1Ev
	.set	_ZNSt8_Rb_treeIN3vuh10LenCounter5StateESt4pairIKS2_NSt7__cxx1112basic_stringIcSt11char_traitsIcESaIcEEEESt10_Select1stISB_ESt4lessIS2_ESaISB_EE20_Reuse_or_alloc_nodeD1Ev,_ZNSt8_Rb_treeIN3vuh10LenCounter5StateESt4pairIKS2_NSt7__cxx1112basic_stringIcSt11char_traitsIcESaIcEEEESt10_Select1stISB_ESt4lessIS2_ESaISB_EE20_Reuse_or_alloc_nodeD2Ev
	.section	.text._ZNSt8_Rb_treeIN3vuh10LenCounter5StateESt4pairIKS2_NSt7__cxx1112basic_stringIcSt11char_traitsIcESaIcEEEESt10_Select1stISB_ESt4lessIS2_ESaISB_EE7_M_copyINSH_20_Reuse_or_alloc_nodeEEEPSt13_Rb_tree_nodeISB_ERKSH_RT_,"axG",@progbits,_ZNSt8_Rb_treeIN3vuh10LenCounter5StateESt4pairIKS2_NSt7__cxx1112basic_stringIcSt11char_traitsIcESaIcEEEESt10_Select1stISB_ESt4lessIS2_ESaISB_EE7_M_copyINSH_20_Reuse_or_alloc_nodeEEEPSt13_Rb_tree_nodeISB_ERKSH_RT_,comdat
	.align 2
	.weak	_ZNSt8_Rb_treeIN3vuh10LenCounter5StateESt4pairIKS2_NSt7__cxx1112basic_stringIcSt11char_traitsIcESaIcEEEESt10_Select1stISB_ESt4lessIS2_ESaISB_EE7_M_copyINSH_20_Reuse_or_alloc_nodeEEEPSt13_Rb_tree_nodeISB_ERKSH_RT_
	.type	_ZNSt8_Rb_treeIN3vuh10LenCounter5StateESt4pairIKS2_NSt7__cxx1112basic_stringIcSt11char_traitsIcESaIcEEEESt10_Select1stISB_ESt4lessIS2_ESaISB_EE7_M_copyINSH_20_Reuse_or_alloc_nodeEEEPSt13_Rb_tree_nodeISB_ERKSH_RT_, @function
_ZNSt8_Rb_treeIN3vuh10LenCounter5StateESt4pairIKS2_NSt7__cxx1112basic_stringIcSt11char_traitsIcESaIcEEEESt10_Select1stISB_ESt4lessIS2_ESaISB_EE7_M_copyINSH_20_Reuse_or_alloc_nodeEEEPSt13_Rb_tree_nodeISB_ERKSH_RT_:
.LFB3325:
	.loc 6 889 2
	.cfi_startproc
	pushq	%rbp
	.cfi_def_cfa_offset 16
	.cfi_offset 6, -16
	movq	%rsp, %rbp
	.cfi_def_cfa_register 6
	pushq	%rbx
	subq	$56, %rsp
	.cfi_offset 3, -24
	movq	%rdi, -40(%rbp)
	movq	%rsi, -48(%rbp)
	movq	%rdx, -56(%rbp)
	.loc 6 891 15
	movq	-40(%rbp), %rax
	movq	%rax, %rdi
	call	_ZNSt8_Rb_treeIN3vuh10LenCounter5StateESt4pairIKS2_NSt7__cxx1112basic_stringIcSt11char_traitsIcESaIcEEEESt10_Select1stISB_ESt4lessIS2_ESaISB_EE6_M_endEv
	movq	%rax, %rbx
	movq	-48(%rbp), %rax
	movq	%rax, %rdi
	call	_ZNKSt8_Rb_treeIN3vuh10LenCounter5StateESt4pairIKS2_NSt7__cxx1112basic_stringIcSt11char_traitsIcESaIcEEEESt10_Select1stISB_ESt4lessIS2_ESaISB_EE8_M_beginEv
	movq	%rax, %rsi
	movq	-56(%rbp), %rdx
	movq	-40(%rbp), %rax
	movq	%rdx, %rcx
	movq	%rbx, %rdx
	movq	%rax, %rdi
	call	_ZNSt8_Rb_treeIN3vuh10LenCounter5StateESt4pairIKS2_NSt7__cxx1112basic_stringIcSt11char_traitsIcESaIcEEEESt10_Select1stISB_ESt4lessIS2_ESaISB_EE7_M_copyINSH_20_Reuse_or_alloc_nodeEEEPSt13_Rb_tree_nodeISB_EPKSL_PSt18_Rb_tree_node_baseRT_
	movq	%rax, -24(%rbp)
	.loc 6 892 18
	movq	-40(%rbp), %rax
	movq	%rax, %rdi
	call	_ZNSt8_Rb_treeIN3vuh10LenCounter5StateESt4pairIKS2_NSt7__cxx1112basic_stringIcSt11char_traitsIcESaIcEEEESt10_Select1stISB_ESt4lessIS2_ESaISB_EE11_M_leftmostEv
	movq	%rax, %rbx
	.loc 6 892 30
	movq	-24(%rbp), %rax
	movq	%rax, %rdi
	call	_ZNSt8_Rb_treeIN3vuh10LenCounter5StateESt4pairIKS2_NSt7__cxx1112basic_stringIcSt11char_traitsIcESaIcEEEESt10_Select1stISB_ESt4lessIS2_ESaISB_EE10_S_minimumEPSt18_Rb_tree_node_base
	.loc 6 892 4
	movq	%rax, (%rbx)
	.loc 6 893 19
	movq	-40(%rbp), %rax
	movq	%rax, %rdi
	call	_ZNSt8_Rb_treeIN3vuh10LenCounter5StateESt4pairIKS2_NSt7__cxx1112basic_stringIcSt11char_traitsIcESaIcEEEESt10_Select1stISB_ESt4lessIS2_ESaISB_EE12_M_rightmostEv
	movq	%rax, %rbx
	.loc 6 893 31
	movq	-24(%rbp), %rax
	movq	%rax, %rdi
	call	_ZNSt8_Rb_treeIN3vuh10LenCounter5StateESt4pairIKS2_NSt7__cxx1112basic_stringIcSt11char_traitsIcESaIcEEEESt10_Select1stISB_ESt4lessIS2_ESaISB_EE10_S_maximumEPSt18_Rb_tree_node_base
	.loc 6 893 4
	movq	%rax, (%rbx)
	.loc 6 894 40
	movq	-48(%rbp), %rax
	movq	40(%rax), %rdx
	.loc 6 894 4
	movq	-40(%rbp), %rax
	movq	%rdx, 40(%rax)
	.loc 6 895 11
	movq	-24(%rbp), %rax
	.loc 6 896 2
	addq	$56, %rsp
	popq	%rbx
	popq	%rbp
	.cfi_def_cfa 7, 8
	ret
	.cfi_endproc
.LFE3325:
	.size	_ZNSt8_Rb_treeIN3vuh10LenCounter5StateESt4pairIKS2_NSt7__cxx1112basic_stringIcSt11char_traitsIcESaIcEEEESt10_Select1stISB_ESt4lessIS2_ESaISB_EE7_M_copyINSH_20_Reuse_or_alloc_nodeEEEPSt13_Rb_tree_nodeISB_ERKSH_RT_, .-_ZNSt8_Rb_treeIN3vuh10LenCounter5StateESt4pairIKS2_NSt7__cxx1112basic_stringIcSt11char_traitsIcESaIcEEEESt10_Select1stISB_ESt4lessIS2_ESaISB_EE7_M_copyINSH_20_Reuse_or_alloc_nodeEEEPSt13_Rb_tree_nodeISB_ERKSH_RT_
	.section	.text._ZSt4moveIRSt4lessIN3vuh10LenCounter5StateEEEONSt16remove_referenceIT_E4typeEOS7_,"axG",@progbits,_ZSt4moveIRSt4lessIN3vuh10LenCounter5StateEEEONSt16remove_referenceIT_E4typeEOS7_,comdat
	.weak	_ZSt4moveIRSt4lessIN3vuh10LenCounter5StateEEEONSt16remove_referenceIT_E4typeEOS7_
	.type	_ZSt4moveIRSt4lessIN3vuh10LenCounter5StateEEEONSt16remove_referenceIT_E4typeEOS7_, @function
_ZSt4moveIRSt4lessIN3vuh10LenCounter5StateEEEONSt16remove_referenceIT_E4typeEOS7_:
.LFB3326:
	.loc 16 99 5
	.cfi_startproc
	pushq	%rbp
	.cfi_def_cfa_offset 16
	.cfi_offset 6, -16
	movq	%rsp, %rbp
	.cfi_def_cfa_register 6
	movq	%rdi, -8(%rbp)
	.loc 16 100 74
	movq	-8(%rbp), %rax
	.loc 16 100 77
	popq	%rbp
	.cfi_def_cfa 7, 8
	ret
	.cfi_endproc
.LFE3326:
	.size	_ZSt4moveIRSt4lessIN3vuh10LenCounter5StateEEEONSt16remove_referenceIT_E4typeEOS7_, .-_ZSt4moveIRSt4lessIN3vuh10LenCounter5StateEEEONSt16remove_referenceIT_E4typeEOS7_
	.section	.text._ZNSt8_Rb_treeIN3vuh10LenCounter5StateESt4pairIKS2_NSt7__cxx1112basic_stringIcSt11char_traitsIcESaIcEEEESt10_Select1stISB_ESt4lessIS2_ESaISB_EE14_M_move_assignERSH_St17integral_constantIbLb1EE,"axG",@progbits,_ZNSt8_Rb_treeIN3vuh10LenCounter5StateESt4pairIKS2_NSt7__cxx1112basic_stringIcSt11char_traitsIcESaIcEEEESt10_Select1stISB_ESt4lessIS2_ESaISB_EE14_M_move_assignERSH_St17integral_constantIbLb1EE,comdat
	.align 2
	.weak	_ZNSt8_Rb_treeIN3vuh10LenCounter5StateESt4pairIKS2_NSt7__cxx1112basic_stringIcSt11char_traitsIcESaIcEEEESt10_Select1stISB_ESt4lessIS2_ESaISB_EE14_M_move_assignERSH_St17integral_constantIbLb1EE
	.type	_ZNSt8_Rb_treeIN3vuh10LenCounter5StateESt4pairIKS2_NSt7__cxx1112basic_stringIcSt11char_traitsIcESaIcEEEESt10_Select1stISB_ESt4lessIS2_ESaISB_EE14_M_move_assignERSH_St17integral_constantIbLb1EE, @function
_ZNSt8_Rb_treeIN3vuh10LenCounter5StateESt4pairIKS2_NSt7__cxx1112basic_stringIcSt11char_traitsIcESaIcEEEESt10_Select1stISB_ESt4lessIS2_ESaISB_EE14_M_move_assignERSH_St17integral_constantIbLb1EE:
.LFB3327:
	.loc 6 1637 5
	.cfi_startproc
	pushq	%rbp
	.cfi_def_cfa_offset 16
	.cfi_offset 6, -16
	movq	%rsp, %rbp
	.cfi_def_cfa_register 6
	pushq	%rbx
	subq	$40, %rsp
	.cfi_offset 3, -24
	movq	%rdi, -40(%rbp)
	movq	%rsi, -48(%rbp)
	.loc 6 1640 7
	movq	-40(%rbp), %rax
	movq	%rax, %rdi
	call	_ZNSt8_Rb_treeIN3vuh10LenCounter5StateESt4pairIKS2_NSt7__cxx1112basic_stringIcSt11char_traitsIcESaIcEEEESt10_Select1stISB_ESt4lessIS2_ESaISB_EE5clearEv
	.loc 6 1641 25
	movq	-48(%rbp), %rax
	movq	%rax, %rdi
	call	_ZNSt8_Rb_treeIN3vuh10LenCounter5StateESt4pairIKS2_NSt7__cxx1112basic_stringIcSt11char_traitsIcESaIcEEEESt10_Select1stISB_ESt4lessIS2_ESaISB_EE7_M_rootEv
	movq	(%rax), %rax
	testq	%rax, %rax
	setne	%al
	.loc 6 1641 7
	testb	%al, %al
	je	.L334
	.loc 6 1642 2
	movq	-48(%rbp), %rdx
	movq	-40(%rbp), %rax
	movq	%rdx, %rsi
	movq	%rax, %rdi
	call	_ZNSt8_Rb_treeIN3vuh10LenCounter5StateESt4pairIKS2_NSt7__cxx1112basic_stringIcSt11char_traitsIcESaIcEEEESt10_Select1stISB_ESt4lessIS2_ESaISB_EE12_M_move_dataERSH_St17integral_constantIbLb1EE
.L334:
	.loc 6 1643 27
	movq	-48(%rbp), %rax
	movq	%rax, %rdi
	call	_ZNSt8_Rb_treeIN3vuh10LenCounter5StateESt4pairIKS2_NSt7__cxx1112basic_stringIcSt11char_traitsIcESaIcEEEESt10_Select1stISB_ESt4lessIS2_ESaISB_EE21_M_get_Node_allocatorEv
	movq	%rax, %rbx
	movq	-40(%rbp), %rax
	movq	%rax, %rdi
	call	_ZNSt8_Rb_treeIN3vuh10LenCounter5StateESt4pairIKS2_NSt7__cxx1112basic_stringIcSt11char_traitsIcESaIcEEEESt10_Select1stISB_ESt4lessIS2_ESaISB_EE21_M_get_Node_allocatorEv
	movq	%rbx, %rsi
	movq	%rax, %rdi
	call	_ZSt15__alloc_on_moveISaISt13_Rb_tree_nodeISt4pairIKN3vuh10LenCounter5StateENSt7__cxx1112basic_stringIcSt11char_traitsIcESaIcEEEEEEEvRT_SG_
	.loc 6 1645 5
	nop
	addq	$40, %rsp
	popq	%rbx
	popq	%rbp
	.cfi_def_cfa 7, 8
	ret
	.cfi_endproc
.LFE3327:
	.size	_ZNSt8_Rb_treeIN3vuh10LenCounter5StateESt4pairIKS2_NSt7__cxx1112basic_stringIcSt11char_traitsIcESaIcEEEESt10_Select1stISB_ESt4lessIS2_ESaISB_EE14_M_move_assignERSH_St17integral_constantIbLb1EE, .-_ZNSt8_Rb_treeIN3vuh10LenCounter5StateESt4pairIKS2_NSt7__cxx1112basic_stringIcSt11char_traitsIcESaIcEEEESt10_Select1stISB_ESt4lessIS2_ESaISB_EE14_M_move_assignERSH_St17integral_constantIbLb1EE
	.section	.text._ZN9__gnu_cxx13new_allocatorISt13_Rb_tree_nodeISt4pairIKN3vuh10LenCounter5StateENSt7__cxx1112basic_stringIcSt11char_traitsIcESaIcEEEEEEC2Ev,"axG",@progbits,_ZN9__gnu_cxx13new_allocatorISt13_Rb_tree_nodeISt4pairIKN3vuh10LenCounter5StateENSt7__cxx1112basic_stringIcSt11char_traitsIcESaIcEEEEEEC5Ev,comdat
	.align 2
	.weak	_ZN9__gnu_cxx13new_allocatorISt13_Rb_tree_nodeISt4pairIKN3vuh10LenCounter5StateENSt7__cxx1112basic_stringIcSt11char_traitsIcESaIcEEEEEEC2Ev
	.type	_ZN9__gnu_cxx13new_allocatorISt13_Rb_tree_nodeISt4pairIKN3vuh10LenCounter5StateENSt7__cxx1112basic_stringIcSt11char_traitsIcESaIcEEEEEEC2Ev, @function
_ZN9__gnu_cxx13new_allocatorISt13_Rb_tree_nodeISt4pairIKN3vuh10LenCounter5StateENSt7__cxx1112basic_stringIcSt11char_traitsIcESaIcEEEEEEC2Ev:
.LFB3363:
	.loc 14 79 7
	.cfi_startproc
	pushq	%rbp
	.cfi_def_cfa_offset 16
	.cfi_offset 6, -16
	movq	%rsp, %rbp
	.cfi_def_cfa_register 6
	movq	%rdi, -8(%rbp)
	.loc 14 79 34
	nop
	popq	%rbp
	.cfi_def_cfa 7, 8
	ret
	.cfi_endproc
.LFE3363:
	.size	_ZN9__gnu_cxx13new_allocatorISt13_Rb_tree_nodeISt4pairIKN3vuh10LenCounter5StateENSt7__cxx1112basic_stringIcSt11char_traitsIcESaIcEEEEEEC2Ev, .-_ZN9__gnu_cxx13new_allocatorISt13_Rb_tree_nodeISt4pairIKN3vuh10LenCounter5StateENSt7__cxx1112basic_stringIcSt11char_traitsIcESaIcEEEEEEC2Ev
	.weak	_ZN9__gnu_cxx13new_allocatorISt13_Rb_tree_nodeISt4pairIKN3vuh10LenCounter5StateENSt7__cxx1112basic_stringIcSt11char_traitsIcESaIcEEEEEEC1Ev
	.set	_ZN9__gnu_cxx13new_allocatorISt13_Rb_tree_nodeISt4pairIKN3vuh10LenCounter5StateENSt7__cxx1112basic_stringIcSt11char_traitsIcESaIcEEEEEEC1Ev,_ZN9__gnu_cxx13new_allocatorISt13_Rb_tree_nodeISt4pairIKN3vuh10LenCounter5StateENSt7__cxx1112basic_stringIcSt11char_traitsIcESaIcEEEEEEC2Ev
	.section	.text._ZNSt8_Rb_treeIN3vuh10LenCounter5StateESt4pairIKS2_NSt7__cxx1112basic_stringIcSt11char_traitsIcESaIcEEEESt10_Select1stISB_ESt4lessIS2_ESaISB_EE8_S_rightEPSt18_Rb_tree_node_base,"axG",@progbits,_ZNSt8_Rb_treeIN3vuh10LenCounter5StateESt4pairIKS2_NSt7__cxx1112basic_stringIcSt11char_traitsIcESaIcEEEESt10_Select1stISB_ESt4lessIS2_ESaISB_EE8_S_rightEPSt18_Rb_tree_node_base,comdat
	.weak	_ZNSt8_Rb_treeIN3vuh10LenCounter5StateESt4pairIKS2_NSt7__cxx1112basic_stringIcSt11char_traitsIcESaIcEEEESt10_Select1stISB_ESt4lessIS2_ESaISB_EE8_S_rightEPSt18_Rb_tree_node_base
	.type	_ZNSt8_Rb_treeIN3vuh10LenCounter5StateESt4pairIKS2_NSt7__cxx1112basic_stringIcSt11char_traitsIcESaIcEEEESt10_Select1stISB_ESt4lessIS2_ESaISB_EE8_S_rightEPSt18_Rb_tree_node_base, @function
_ZNSt8_Rb_treeIN3vuh10LenCounter5StateESt4pairIKS2_NSt7__cxx1112basic_stringIcSt11char_traitsIcESaIcEEEESt10_Select1stISB_ESt4lessIS2_ESaISB_EE8_S_rightEPSt18_Rb_tree_node_base:
.LFB3365:
	.loc 6 787 7
	.cfi_startproc
	pushq	%rbp
	.cfi_def_cfa_offset 16
	.cfi_offset 6, -16
	movq	%rsp, %rbp
	.cfi_def_cfa_register 6
	movq	%rdi, -8(%rbp)
	.loc 6 788 53
	movq	-8(%rbp), %rax
	movq	24(%rax), %rax
	.loc 6 788 56
	popq	%rbp
	.cfi_def_cfa 7, 8
	ret
	.cfi_endproc
.LFE3365:
	.size	_ZNSt8_Rb_treeIN3vuh10LenCounter5StateESt4pairIKS2_NSt7__cxx1112basic_stringIcSt11char_traitsIcESaIcEEEESt10_Select1stISB_ESt4lessIS2_ESaISB_EE8_S_rightEPSt18_Rb_tree_node_base, .-_ZNSt8_Rb_treeIN3vuh10LenCounter5StateESt4pairIKS2_NSt7__cxx1112basic_stringIcSt11char_traitsIcESaIcEEEESt10_Select1stISB_ESt4lessIS2_ESaISB_EE8_S_rightEPSt18_Rb_tree_node_base
	.section	.text._ZNSt8_Rb_treeIN3vuh10LenCounter5StateESt4pairIKS2_NSt7__cxx1112basic_stringIcSt11char_traitsIcESaIcEEEESt10_Select1stISB_ESt4lessIS2_ESaISB_EE7_S_leftEPSt18_Rb_tree_node_base,"axG",@progbits,_ZNSt8_Rb_treeIN3vuh10LenCounter5StateESt4pairIKS2_NSt7__cxx1112basic_stringIcSt11char_traitsIcESaIcEEEESt10_Select1stISB_ESt4lessIS2_ESaISB_EE7_S_leftEPSt18_Rb_tree_node_base,comdat
	.weak	_ZNSt8_Rb_treeIN3vuh10LenCounter5StateESt4pairIKS2_NSt7__cxx1112basic_stringIcSt11char_traitsIcESaIcEEEESt10_Select1stISB_ESt4lessIS2_ESaISB_EE7_S_leftEPSt18_Rb_tree_node_base
	.type	_ZNSt8_Rb_treeIN3vuh10LenCounter5StateESt4pairIKS2_NSt7__cxx1112basic_stringIcSt11char_traitsIcESaIcEEEESt10_Select1stISB_ESt4lessIS2_ESaISB_EE7_S_leftEPSt18_Rb_tree_node_base, @function
_ZNSt8_Rb_treeIN3vuh10LenCounter5StateESt4pairIKS2_NSt7__cxx1112basic_stringIcSt11char_traitsIcESaIcEEEESt10_Select1stISB_ESt4lessIS2_ESaISB_EE7_S_leftEPSt18_Rb_tree_node_base:
.LFB3366:
	.loc 6 779 7
	.cfi_startproc
	pushq	%rbp
	.cfi_def_cfa_offset 16
	.cfi_offset 6, -16
	movq	%rsp, %rbp
	.cfi_def_cfa_register 6
	movq	%rdi, -8(%rbp)
	.loc 6 780 52
	movq	-8(%rbp), %rax
	movq	16(%rax), %rax
	.loc 6 780 55
	popq	%rbp
	.cfi_def_cfa 7, 8
	ret
	.cfi_endproc
.LFE3366:
	.size	_ZNSt8_Rb_treeIN3vuh10LenCounter5StateESt4pairIKS2_NSt7__cxx1112basic_stringIcSt11char_traitsIcESaIcEEEESt10_Select1stISB_ESt4lessIS2_ESaISB_EE7_S_leftEPSt18_Rb_tree_node_base, .-_ZNSt8_Rb_treeIN3vuh10LenCounter5StateESt4pairIKS2_NSt7__cxx1112basic_stringIcSt11char_traitsIcESaIcEEEESt10_Select1stISB_ESt4lessIS2_ESaISB_EE7_S_leftEPSt18_Rb_tree_node_base
	.section	.text._ZNSt8_Rb_treeIN3vuh10LenCounter5StateESt4pairIKS2_NSt7__cxx1112basic_stringIcSt11char_traitsIcESaIcEEEESt10_Select1stISB_ESt4lessIS2_ESaISB_EE12_M_drop_nodeEPSt13_Rb_tree_nodeISB_E,"axG",@progbits,_ZNSt8_Rb_treeIN3vuh10LenCounter5StateESt4pairIKS2_NSt7__cxx1112basic_stringIcSt11char_traitsIcESaIcEEEESt10_Select1stISB_ESt4lessIS2_ESaISB_EE12_M_drop_nodeEPSt13_Rb_tree_nodeISB_E,comdat
	.align 2
	.weak	_ZNSt8_Rb_treeIN3vuh10LenCounter5StateESt4pairIKS2_NSt7__cxx1112basic_stringIcSt11char_traitsIcESaIcEEEESt10_Select1stISB_ESt4lessIS2_ESaISB_EE12_M_drop_nodeEPSt13_Rb_tree_nodeISB_E
	.type	_ZNSt8_Rb_treeIN3vuh10LenCounter5StateESt4pairIKS2_NSt7__cxx1112basic_stringIcSt11char_traitsIcESaIcEEEESt10_Select1stISB_ESt4lessIS2_ESaISB_EE12_M_drop_nodeEPSt13_Rb_tree_nodeISB_E, @function
_ZNSt8_Rb_treeIN3vuh10LenCounter5StateESt4pairIKS2_NSt7__cxx1112basic_stringIcSt11char_traitsIcESaIcEEEESt10_Select1stISB_ESt4lessIS2_ESaISB_EE12_M_drop_nodeEPSt13_Rb_tree_nodeISB_E:
.LFB3367:
	.loc 6 667 7
	.cfi_startproc
	pushq	%rbp
	.cfi_def_cfa_offset 16
	.cfi_offset 6, -16
	movq	%rsp, %rbp
	.cfi_def_cfa_register 6
	subq	$16, %rsp
	movq	%rdi, -8(%rbp)
	movq	%rsi, -16(%rbp)
	.loc 6 669 2
	movq	-16(%rbp), %rdx
	movq	-8(%rbp), %rax
	movq	%rdx, %rsi
	movq	%rax, %rdi
	call	_ZNSt8_Rb_treeIN3vuh10LenCounter5StateESt4pairIKS2_NSt7__cxx1112basic_stringIcSt11char_traitsIcESaIcEEEESt10_Select1stISB_ESt4lessIS2_ESaISB_EE15_M_destroy_nodeEPSt13_Rb_tree_nodeISB_E
	.loc 6 670 2
	movq	-16(%rbp), %rdx
	movq	-8(%rbp), %rax
	movq	%rdx, %rsi
	movq	%rax, %rdi
	call	_ZNSt8_Rb_treeIN3vuh10LenCounter5StateESt4pairIKS2_NSt7__cxx1112basic_stringIcSt11char_traitsIcESaIcEEEESt10_Select1stISB_ESt4lessIS2_ESaISB_EE11_M_put_nodeEPSt13_Rb_tree_nodeISB_E
	.loc 6 671 7
	nop
	leave
	.cfi_def_cfa 7, 8
	ret
	.cfi_endproc
.LFE3367:
	.size	_ZNSt8_Rb_treeIN3vuh10LenCounter5StateESt4pairIKS2_NSt7__cxx1112basic_stringIcSt11char_traitsIcESaIcEEEESt10_Select1stISB_ESt4lessIS2_ESaISB_EE12_M_drop_nodeEPSt13_Rb_tree_nodeISB_E, .-_ZNSt8_Rb_treeIN3vuh10LenCounter5StateESt4pairIKS2_NSt7__cxx1112basic_stringIcSt11char_traitsIcESaIcEEEESt10_Select1stISB_ESt4lessIS2_ESaISB_EE12_M_drop_nodeEPSt13_Rb_tree_nodeISB_E
	.section	.text._ZNSt8_Rb_treeIN3vuh10LenCounter5StateESt4pairIKS2_NSt7__cxx1112basic_stringIcSt11char_traitsIcESaIcEEEESt10_Select1stISB_ESt4lessIS2_ESaISB_EE11lower_boundERS4_,"axG",@progbits,_ZNSt8_Rb_treeIN3vuh10LenCounter5StateESt4pairIKS2_NSt7__cxx1112basic_stringIcSt11char_traitsIcESaIcEEEESt10_Select1stISB_ESt4lessIS2_ESaISB_EE11lower_boundERS4_,comdat
	.align 2
	.weak	_ZNSt8_Rb_treeIN3vuh10LenCounter5StateESt4pairIKS2_NSt7__cxx1112basic_stringIcSt11char_traitsIcESaIcEEEESt10_Select1stISB_ESt4lessIS2_ESaISB_EE11lower_boundERS4_
	.type	_ZNSt8_Rb_treeIN3vuh10LenCounter5StateESt4pairIKS2_NSt7__cxx1112basic_stringIcSt11char_traitsIcESaIcEEEESt10_Select1stISB_ESt4lessIS2_ESaISB_EE11lower_boundERS4_, @function
_ZNSt8_Rb_treeIN3vuh10LenCounter5StateESt4pairIKS2_NSt7__cxx1112basic_stringIcSt11char_traitsIcESaIcEEEESt10_Select1stISB_ESt4lessIS2_ESaISB_EE11lower_boundERS4_:
.LFB3368:
	.loc 6 1202 7
	.cfi_startproc
	pushq	%rbp
	.cfi_def_cfa_offset 16
	.cfi_offset 6, -16
	movq	%rsp, %rbp
	.cfi_def_cfa_register 6
	pushq	%rbx
	subq	$24, %rsp
	.cfi_offset 3, -24
	movq	%rdi, -24(%rbp)
	movq	%rsi, -32(%rbp)
	.loc 6 1203 56
	movq	-24(%rbp), %rax
	movq	%rax, %rdi
	call	_ZNSt8_Rb_treeIN3vuh10LenCounter5StateESt4pairIKS2_NSt7__cxx1112basic_stringIcSt11char_traitsIcESaIcEEEESt10_Select1stISB_ESt4lessIS2_ESaISB_EE6_M_endEv
	movq	%rax, %rbx
	movq	-24(%rbp), %rax
	movq	%rax, %rdi
	call	_ZNSt8_Rb_treeIN3vuh10LenCounter5StateESt4pairIKS2_NSt7__cxx1112basic_stringIcSt11char_traitsIcESaIcEEEESt10_Select1stISB_ESt4lessIS2_ESaISB_EE8_M_beginEv
	movq	%rax, %rsi
	movq	-32(%rbp), %rdx
	movq	-24(%rbp), %rax
	movq	%rdx, %rcx
	movq	%rbx, %rdx
	movq	%rax, %rdi
	call	_ZNSt8_Rb_treeIN3vuh10LenCounter5StateESt4pairIKS2_NSt7__cxx1112basic_stringIcSt11char_traitsIcESaIcEEEESt10_Select1stISB_ESt4lessIS2_ESaISB_EE14_M_lower_boundEPSt13_Rb_tree_nodeISB_EPSt18_Rb_tree_node_baseRS4_
	.loc 6 1203 59
	addq	$24, %rsp
	popq	%rbx
	popq	%rbp
	.cfi_def_cfa 7, 8
	ret
	.cfi_endproc
.LFE3368:
	.size	_ZNSt8_Rb_treeIN3vuh10LenCounter5StateESt4pairIKS2_NSt7__cxx1112basic_stringIcSt11char_traitsIcESaIcEEEESt10_Select1stISB_ESt4lessIS2_ESaISB_EE11lower_boundERS4_, .-_ZNSt8_Rb_treeIN3vuh10LenCounter5StateESt4pairIKS2_NSt7__cxx1112basic_stringIcSt11char_traitsIcESaIcEEEESt10_Select1stISB_ESt4lessIS2_ESaISB_EE11lower_boundERS4_
	.section	.text._ZNSt8_Rb_treeIN3vuh10LenCounter5StateESt4pairIKS2_NSt7__cxx1112basic_stringIcSt11char_traitsIcESaIcEEEESt10_Select1stISB_ESt4lessIS2_ESaISB_EE3endEv,"axG",@progbits,_ZNSt8_Rb_treeIN3vuh10LenCounter5StateESt4pairIKS2_NSt7__cxx1112basic_stringIcSt11char_traitsIcESaIcEEEESt10_Select1stISB_ESt4lessIS2_ESaISB_EE3endEv,comdat
	.align 2
	.weak	_ZNSt8_Rb_treeIN3vuh10LenCounter5StateESt4pairIKS2_NSt7__cxx1112basic_stringIcSt11char_traitsIcESaIcEEEESt10_Select1stISB_ESt4lessIS2_ESaISB_EE3endEv
	.type	_ZNSt8_Rb_treeIN3vuh10LenCounter5StateESt4pairIKS2_NSt7__cxx1112basic_stringIcSt11char_traitsIcESaIcEEEESt10_Select1stISB_ESt4lessIS2_ESaISB_EE3endEv, @function
_ZNSt8_Rb_treeIN3vuh10LenCounter5StateESt4pairIKS2_NSt7__cxx1112basic_stringIcSt11char_traitsIcESaIcEEEESt10_Select1stISB_ESt4lessIS2_ESaISB_EE3endEv:
.LFB3369:
	.loc 6 984 7
	.cfi_startproc
	pushq	%rbp
	.cfi_def_cfa_offset 16
	.cfi_offset 6, -16
	movq	%rsp, %rbp
	.cfi_def_cfa_register 6
	subq	$32, %rsp
	movq	%rdi, -24(%rbp)
	.loc 6 985 49
	movq	-24(%rbp), %rax
	leaq	8(%rax), %rdx
	leaq	-8(%rbp), %rax
	movq	%rdx, %rsi
	movq	%rax, %rdi
	call	_ZNSt17_Rb_tree_iteratorISt4pairIKN3vuh10LenCounter5StateENSt7__cxx1112basic_stringIcSt11char_traitsIcESaIcEEEEEC1EPSt18_Rb_tree_node_base
	movq	-8(%rbp), %rax
	.loc 6 985 52
	leave
	.cfi_def_cfa 7, 8
	ret
	.cfi_endproc
.LFE3369:
	.size	_ZNSt8_Rb_treeIN3vuh10LenCounter5StateESt4pairIKS2_NSt7__cxx1112basic_stringIcSt11char_traitsIcESaIcEEEESt10_Select1stISB_ESt4lessIS2_ESaISB_EE3endEv, .-_ZNSt8_Rb_treeIN3vuh10LenCounter5StateESt4pairIKS2_NSt7__cxx1112basic_stringIcSt11char_traitsIcESaIcEEEESt10_Select1stISB_ESt4lessIS2_ESaISB_EE3endEv
	.section	.text._ZNKSt8_Rb_treeIN3vuh10LenCounter5StateESt4pairIKS2_NSt7__cxx1112basic_stringIcSt11char_traitsIcESaIcEEEESt10_Select1stISB_ESt4lessIS2_ESaISB_EE8key_compEv,"axG",@progbits,_ZNKSt8_Rb_treeIN3vuh10LenCounter5StateESt4pairIKS2_NSt7__cxx1112basic_stringIcSt11char_traitsIcESaIcEEEESt10_Select1stISB_ESt4lessIS2_ESaISB_EE8key_compEv,comdat
	.align 2
	.weak	_ZNKSt8_Rb_treeIN3vuh10LenCounter5StateESt4pairIKS2_NSt7__cxx1112basic_stringIcSt11char_traitsIcESaIcEEEESt10_Select1stISB_ESt4lessIS2_ESaISB_EE8key_compEv
	.type	_ZNKSt8_Rb_treeIN3vuh10LenCounter5StateESt4pairIKS2_NSt7__cxx1112basic_stringIcSt11char_traitsIcESaIcEEEESt10_Select1stISB_ESt4lessIS2_ESaISB_EE8key_compEv, @function
_ZNKSt8_Rb_treeIN3vuh10LenCounter5StateESt4pairIKS2_NSt7__cxx1112basic_stringIcSt11char_traitsIcESaIcEEEESt10_Select1stISB_ESt4lessIS2_ESaISB_EE8key_compEv:
.LFB3370:
	.loc 6 972 7
	.cfi_startproc
	pushq	%rbp
	.cfi_def_cfa_offset 16
	.cfi_offset 6, -16
	movq	%rsp, %rbp
	.cfi_def_cfa_register 6
	movq	%rdi, -8(%rbp)
	.loc 6 973 40
	popq	%rbp
	.cfi_def_cfa 7, 8
	ret
	.cfi_endproc
.LFE3370:
	.size	_ZNKSt8_Rb_treeIN3vuh10LenCounter5StateESt4pairIKS2_NSt7__cxx1112basic_stringIcSt11char_traitsIcESaIcEEEESt10_Select1stISB_ESt4lessIS2_ESaISB_EE8key_compEv, .-_ZNKSt8_Rb_treeIN3vuh10LenCounter5StateESt4pairIKS2_NSt7__cxx1112basic_stringIcSt11char_traitsIcESaIcEEEESt10_Select1stISB_ESt4lessIS2_ESaISB_EE8key_compEv
	.section	.text._ZNSt13_Rb_tree_nodeISt4pairIKN3vuh10LenCounter5StateENSt7__cxx1112basic_stringIcSt11char_traitsIcESaIcEEEEE9_M_valptrEv,"axG",@progbits,_ZNSt13_Rb_tree_nodeISt4pairIKN3vuh10LenCounter5StateENSt7__cxx1112basic_stringIcSt11char_traitsIcESaIcEEEEE9_M_valptrEv,comdat
	.align 2
	.weak	_ZNSt13_Rb_tree_nodeISt4pairIKN3vuh10LenCounter5StateENSt7__cxx1112basic_stringIcSt11char_traitsIcESaIcEEEEE9_M_valptrEv
	.type	_ZNSt13_Rb_tree_nodeISt4pairIKN3vuh10LenCounter5StateENSt7__cxx1112basic_stringIcSt11char_traitsIcESaIcEEEEE9_M_valptrEv, @function
_ZNSt13_Rb_tree_nodeISt4pairIKN3vuh10LenCounter5StateENSt7__cxx1112basic_stringIcSt11char_traitsIcESaIcEEEEE9_M_valptrEv:
.LFB3371:
	.loc 6 234 7
	.cfi_startproc
	pushq	%rbp
	.cfi_def_cfa_offset 16
	.cfi_offset 6, -16
	movq	%rsp, %rbp
	.cfi_def_cfa_register 6
	subq	$16, %rsp
	movq	%rdi, -8(%rbp)
	.loc 6 235 34
	movq	-8(%rbp), %rax
	addq	$32, %rax
	movq	%rax, %rdi
	call	_ZN9__gnu_cxx16__aligned_membufISt4pairIKN3vuh10LenCounter5StateENSt7__cxx1112basic_stringIcSt11char_traitsIcESaIcEEEEE6_M_ptrEv
	.loc 6 235 37
	leave
	.cfi_def_cfa 7, 8
	ret
	.cfi_endproc
.LFE3371:
	.size	_ZNSt13_Rb_tree_nodeISt4pairIKN3vuh10LenCounter5StateENSt7__cxx1112basic_stringIcSt11char_traitsIcESaIcEEEEE9_M_valptrEv, .-_ZNSt13_Rb_tree_nodeISt4pairIKN3vuh10LenCounter5StateENSt7__cxx1112basic_stringIcSt11char_traitsIcESaIcEEEEE9_M_valptrEv
	.section	.text._ZNSt5tupleIJON3vuh10LenCounter5StateEEEC2IJS2_ELb1EEEDpOT_,"axG",@progbits,_ZNSt5tupleIJON3vuh10LenCounter5StateEEEC5IJS2_ELb1EEEDpOT_,comdat
	.align 2
	.weak	_ZNSt5tupleIJON3vuh10LenCounter5StateEEEC2IJS2_ELb1EEEDpOT_
	.type	_ZNSt5tupleIJON3vuh10LenCounter5StateEEEC2IJS2_ELb1EEEDpOT_, @function
_ZNSt5tupleIJON3vuh10LenCounter5StateEEEC2IJS2_ELb1EEEDpOT_:
.LFB3373:
	.loc 17 646 19
	.cfi_startproc
	pushq	%rbp
	.cfi_def_cfa_offset 16
	.cfi_offset 6, -16
	movq	%rsp, %rbp
	.cfi_def_cfa_register 6
	pushq	%rbx
	subq	$24, %rsp
	.cfi_offset 3, -24
	movq	%rdi, -24(%rbp)
	movq	%rsi, -32(%rbp)
.LBB95:
	.loc 17 647 61
	movq	-24(%rbp), %rbx
	movq	-32(%rbp), %rax
	movq	%rax, %rdi
	call	_ZSt7forwardIN3vuh10LenCounter5StateEEOT_RNSt16remove_referenceIS3_E4typeE
	movq	%rax, %rsi
	movq	%rbx, %rdi
	call	_ZNSt11_Tuple_implILm0EJON3vuh10LenCounter5StateEEEC2IS2_EEOT_
.LBE95:
	.loc 17 647 65
	nop
	addq	$24, %rsp
	popq	%rbx
	popq	%rbp
	.cfi_def_cfa 7, 8
	ret
	.cfi_endproc
.LFE3373:
	.size	_ZNSt5tupleIJON3vuh10LenCounter5StateEEEC2IJS2_ELb1EEEDpOT_, .-_ZNSt5tupleIJON3vuh10LenCounter5StateEEEC2IJS2_ELb1EEEDpOT_
	.weak	_ZNSt5tupleIJON3vuh10LenCounter5StateEEEC1IJS2_ELb1EEEDpOT_
	.set	_ZNSt5tupleIJON3vuh10LenCounter5StateEEEC1IJS2_ELb1EEEDpOT_,_ZNSt5tupleIJON3vuh10LenCounter5StateEEEC2IJS2_ELb1EEEDpOT_
	.section	.text._ZNSt11_Tuple_implILm0EJON3vuh10LenCounter5StateEEEC2EOS4_,"axG",@progbits,_ZNSt11_Tuple_implILm0EJON3vuh10LenCounter5StateEEEC5EOS4_,comdat
	.align 2
	.weak	_ZNSt11_Tuple_implILm0EJON3vuh10LenCounter5StateEEEC2EOS4_
	.type	_ZNSt11_Tuple_implILm0EJON3vuh10LenCounter5StateEEEC2EOS4_, @function
_ZNSt11_Tuple_implILm0EJON3vuh10LenCounter5StateEEEC2EOS4_:
.LFB3376:
	.loc 17 371 7
	.cfi_startproc
	pushq	%rbp
	.cfi_def_cfa_offset 16
	.cfi_offset 6, -16
	movq	%rsp, %rbp
	.cfi_def_cfa_register 6
	pushq	%rbx
	subq	$24, %rsp
	.cfi_offset 3, -24
	movq	%rdi, -24(%rbp)
	movq	%rsi, -32(%rbp)
.LBB96:
	.loc 17 373 49
	movq	-24(%rbp), %rbx
	.loc 17 373 42
	movq	-32(%rbp), %rax
	movq	%rax, %rdi
	call	_ZNSt11_Tuple_implILm0EJON3vuh10LenCounter5StateEEE7_M_headERS4_
	.loc 17 373 49
	movq	%rax, %rdi
	call	_ZSt7forwardION3vuh10LenCounter5StateEEOT_RNSt16remove_referenceIS4_E4typeE
	movq	%rax, %rsi
	movq	%rbx, %rdi
