	.file	"Header.cpp"
	.text
.Ltext0:
	.align 2
	.globl	_ZN3mpp6HeaderC2EOS0_
	.type	_ZN3mpp6HeaderC2EOS0_, @function
_ZN3mpp6HeaderC2EOS0_:
.LVL0:
.LFB1066:
	.file 1 "cpp/Header.cpp"
	.loc 1 46 1 view -0
	.cfi_startproc
.LBB664:
.LBI664:
	.file 2 "/usr/include/c++/8/bits/move.h"
	.loc 2 99 5 view .LVU1
	.loc 2 99 5 is_stmt 0 view .LVU2
.LBE664:
.LBB665:
.LBI665:
	.file 3 "/usr/include/c++/8/bits/basic_string.h"
	.loc 3 541 7 is_stmt 1 view .LVU3
.LBB666:
.LBB667:
.LBI667:
	.loc 3 275 7 view .LVU4
	.loc 3 275 7 is_stmt 0 view .LVU5
.LBE667:
.LBB668:
.LBI668:
	.loc 2 99 5 is_stmt 1 view .LVU6
	.loc 2 99 5 is_stmt 0 view .LVU7
.LBE668:
.LBB669:
.LBI669:
	.loc 3 179 7 is_stmt 1 view .LVU8
.LBB670:
	.loc 3 182 51 is_stmt 0 view .LVU9
	leaq	16(%rdi), %rax
.LVL1:
	.loc 3 182 51 view .LVU10
.LBE670:
.LBE669:
.LBB671:
.LBI671:
	.loc 3 148 2 is_stmt 1 view .LVU11
.LBB672:
.LBB673:
.LBI673:
	.loc 2 99 5 view .LVU12
	.loc 2 99 5 is_stmt 0 view .LVU13
.LBE673:
.LBB674:
.LBI674:
	.file 4 "/usr/include/c++/8/bits/allocator.h"
	.loc 4 133 7 is_stmt 1 view .LVU14
.LBB675:
.LBI675:
	.file 5 "/usr/include/c++/8/ext/new_allocator.h"
	.loc 5 81 7 view .LVU15
	.loc 5 81 7 is_stmt 0 view .LVU16
.LBE675:
.LBE674:
	.loc 3 149 46 view .LVU17
	movq	%rax, (%rdi)
.LVL2:
	.loc 3 149 46 view .LVU18
.LBE672:
.LBE671:
.LBB676:
.LBI676:
	.loc 3 210 7 is_stmt 1 view .LVU19
.LBB677:
.LBI677:
	.loc 3 175 7 view .LVU20
.LBB678:
	.loc 3 176 28 is_stmt 0 view .LVU21
	movq	(%rsi), %rdx
.LVL3:
	.loc 3 176 28 view .LVU22
.LBE678:
.LBE677:
.LBB679:
.LBI679:
	.loc 3 189 7 is_stmt 1 view .LVU23
.LBB680:
	.loc 3 192 57 is_stmt 0 view .LVU24
	leaq	16(%rsi), %rax
.LVL4:
	.loc 3 192 57 view .LVU25
.LBE680:
.LBE679:
.LBE676:
	.loc 3 544 2 view .LVU26
	cmpq	%rax, %rdx
	je	.L6
.LVL5:
.LBB681:
.LBI681:
	.loc 3 175 7 is_stmt 1 view .LVU27
	.loc 3 175 7 is_stmt 0 view .LVU28
.LBE681:
.LBB682:
.LBI682:
	.loc 3 167 7 is_stmt 1 view .LVU29
.LBB683:
	.loc 3 168 9 is_stmt 0 view .LVU30
	movq	%rdx, (%rdi)
.LVL6:
	.loc 3 168 9 view .LVU31
.LBE683:
.LBE682:
	.loc 3 552 6 view .LVU32
	movq	16(%rsi), %rdx
.LVL7:
.LBB684:
.LBI684:
	.loc 3 199 7 is_stmt 1 view .LVU33
.LBB685:
	.loc 3 200 9 is_stmt 0 view .LVU34
	movq	%rdx, 16(%rdi)
.LVL8:
.L3:
	.loc 3 200 9 view .LVU35
.LBE685:
.LBE684:
.LBB686:
.LBI686:
	.loc 3 927 7 is_stmt 1 view .LVU36
.LBB687:
	.loc 3 928 16 is_stmt 0 view .LVU37
	movq	8(%rsi), %rdx
.LVL9:
	.loc 3 928 16 view .LVU38
.LBE687:
.LBE686:
.LBB688:
.LBI688:
	.loc 3 171 7 is_stmt 1 view .LVU39
.LBB689:
	.loc 3 172 9 is_stmt 0 view .LVU40
	movq	%rdx, 8(%rdi)
.LVL10:
	.loc 3 172 9 view .LVU41
.LBE689:
.LBE688:
.LBB690:
.LBI690:
	.loc 3 179 7 is_stmt 1 view .LVU42
	.loc 3 179 7 is_stmt 0 view .LVU43
.LBE690:
.LBB691:
.LBI691:
	.loc 3 167 7 is_stmt 1 view .LVU44
.LBB692:
	.loc 3 168 9 is_stmt 0 view .LVU45
	movq	%rax, (%rsi)
.LVL11:
	.loc 3 168 9 view .LVU46
.LBE692:
.LBE691:
.LBB693:
.LBI693:
	.loc 3 203 7 is_stmt 1 view .LVU47
.LBB694:
.LBI694:
	.loc 3 171 7 view .LVU48
.LBB695:
	.loc 3 172 9 is_stmt 0 view .LVU49
	movq	$0, 8(%rsi)
.LVL12:
	.loc 3 172 9 view .LVU50
.LBE695:
.LBE694:
.LBB696:
.LBI696:
	.file 6 "/usr/include/c++/8/bits/char_traits.h"
	.loc 6 284 7 is_stmt 1 view .LVU51
.LBB697:
	.loc 6 285 9 view .LVU52
	.loc 6 285 14 is_stmt 0 view .LVU53
	movb	$0, 16(%rsi)
.LVL13:
	.loc 6 285 14 view .LVU54
.LBE697:
.LBE696:
.LBE693:
.LBE666:
.LBE665:
.LBB700:
.LBI700:
	.loc 2 99 5 is_stmt 1 view .LVU55
	.loc 2 99 5 is_stmt 0 view .LVU56
.LBE700:
.LBB701:
.LBI701:
	.loc 3 541 7 is_stmt 1 view .LVU57
.LBB702:
.LBB703:
.LBI703:
	.loc 3 275 7 view .LVU58
	.loc 3 275 7 is_stmt 0 view .LVU59
.LBE703:
.LBB704:
.LBI704:
	.loc 2 99 5 is_stmt 1 view .LVU60
	.loc 2 99 5 is_stmt 0 view .LVU61
.LBE704:
.LBB705:
.LBI705:
	.loc 3 179 7 is_stmt 1 view .LVU62
.LBB706:
	.loc 3 182 51 is_stmt 0 view .LVU63
	leaq	48(%rdi), %rax
.LVL14:
	.loc 3 182 51 view .LVU64
.LBE706:
.LBE705:
.LBB707:
.LBI707:
	.loc 3 148 2 is_stmt 1 view .LVU65
.LBB708:
.LBB709:
.LBI709:
	.loc 2 99 5 view .LVU66
	.loc 2 99 5 is_stmt 0 view .LVU67
.LBE709:
.LBB710:
.LBI710:
	.loc 4 133 7 is_stmt 1 view .LVU68
.LBB711:
.LBI711:
	.loc 5 81 7 view .LVU69
	.loc 5 81 7 is_stmt 0 view .LVU70
.LBE711:
.LBE710:
	.loc 3 149 46 view .LVU71
	movq	%rax, 32(%rdi)
.LVL15:
	.loc 3 149 46 view .LVU72
.LBE708:
.LBE707:
.LBB712:
.LBI712:
	.loc 3 210 7 is_stmt 1 view .LVU73
.LBB713:
.LBI713:
	.loc 3 175 7 view .LVU74
.LBB714:
	.loc 3 176 28 is_stmt 0 view .LVU75
	movq	32(%rsi), %rdx
.LVL16:
	.loc 3 176 28 view .LVU76
.LBE714:
.LBE713:
.LBB715:
.LBI715:
	.loc 3 189 7 is_stmt 1 view .LVU77
.LBB716:
	.loc 3 192 57 is_stmt 0 view .LVU78
	leaq	48(%rsi), %rax
.LVL17:
	.loc 3 192 57 view .LVU79
.LBE716:
.LBE715:
.LBE712:
	.loc 3 544 2 view .LVU80
	cmpq	%rax, %rdx
	je	.L7
.LVL18:
.LBB717:
.LBI717:
	.loc 3 175 7 is_stmt 1 view .LVU81
	.loc 3 175 7 is_stmt 0 view .LVU82
.LBE717:
.LBB718:
.LBI718:
	.loc 3 167 7 is_stmt 1 view .LVU83
.LBB719:
	.loc 3 168 9 is_stmt 0 view .LVU84
	movq	%rdx, 32(%rdi)
.LVL19:
	.loc 3 168 9 view .LVU85
.LBE719:
.LBE718:
	.loc 3 552 6 view .LVU86
	movq	48(%rsi), %rdx
.LVL20:
.LBB720:
.LBI720:
	.loc 3 199 7 is_stmt 1 view .LVU87
.LBB721:
	.loc 3 200 9 is_stmt 0 view .LVU88
	movq	%rdx, 48(%rdi)
.LVL21:
.L5:
	.loc 3 200 9 view .LVU89
.LBE721:
.LBE720:
.LBB722:
.LBI722:
	.loc 3 927 7 is_stmt 1 view .LVU90
.LBB723:
	.loc 3 928 16 is_stmt 0 view .LVU91
	movq	40(%rsi), %rdx
.LVL22:
	.loc 3 928 16 view .LVU92
.LBE723:
.LBE722:
.LBB724:
.LBI724:
	.loc 3 171 7 is_stmt 1 view .LVU93
.LBB725:
	.loc 3 172 9 is_stmt 0 view .LVU94
	movq	%rdx, 40(%rdi)
.LVL23:
	.loc 3 172 9 view .LVU95
.LBE725:
.LBE724:
.LBB726:
.LBI726:
	.loc 3 179 7 is_stmt 1 view .LVU96
	.loc 3 179 7 is_stmt 0 view .LVU97
.LBE726:
.LBB727:
.LBI727:
	.loc 3 167 7 is_stmt 1 view .LVU98
.LBB728:
	.loc 3 168 9 is_stmt 0 view .LVU99
	movq	%rax, 32(%rsi)
.LVL24:
	.loc 3 168 9 view .LVU100
.LBE728:
.LBE727:
.LBB729:
.LBI729:
	.loc 3 203 7 is_stmt 1 view .LVU101
.LBB730:
.LBI730:
	.loc 3 171 7 view .LVU102
.LBB731:
	.loc 3 172 9 is_stmt 0 view .LVU103
	movq	$0, 40(%rsi)
.LVL25:
	.loc 3 172 9 view .LVU104
.LBE731:
.LBE730:
.LBB732:
.LBI732:
	.loc 6 284 7 is_stmt 1 view .LVU105
.LBB733:
	.loc 6 285 9 view .LVU106
	.loc 6 285 14 is_stmt 0 view .LVU107
	movb	$0, 48(%rsi)
.LVL26:
	.loc 6 285 14 view .LVU108
.LBE733:
.LBE732:
.LBE729:
.LBE702:
.LBE701:
	.loc 1 48 1 view .LVU109
	ret
.LVL27:
.L6:
.LBB736:
.LBB699:
.LBB698:
.LBI698:
	.loc 6 346 7 is_stmt 1 view .LVU110
.LBE698:
.LBE699:
.LBE736:
	.loc 6 348 2 view .LVU111
	.loc 6 350 2 view .LVU112
	movdqu	16(%rsi), %xmm0
	movups	%xmm0, 16(%rdi)
	jmp	.L3
.LVL28:
.L7:
.LBB737:
.LBB735:
.LBB734:
.LBI734:
	.loc 6 346 7 view .LVU113
.LBE734:
.LBE735:
.LBE737:
	.loc 6 348 2 view .LVU114
	.loc 6 350 2 view .LVU115
	movdqu	48(%rsi), %xmm1
	movups	%xmm1, 48(%rdi)
	jmp	.L5
	.cfi_endproc
.LFE1066:
	.size	_ZN3mpp6HeaderC2EOS0_, .-_ZN3mpp6HeaderC2EOS0_
	.globl	_ZN3mpp6HeaderC1EOS0_
	.set	_ZN3mpp6HeaderC1EOS0_,_ZN3mpp6HeaderC2EOS0_
	.align 2
	.globl	_ZN3mpp6HeaderaSERKS0_
	.type	_ZN3mpp6HeaderaSERKS0_, @function
_ZN3mpp6HeaderaSERKS0_:
.LVL29:
.LFB1068:
	.loc 1 55 1 view -0
	.cfi_startproc
	.loc 1 55 1 is_stmt 0 view .LVU117
	pushq	%rbp
	.cfi_def_cfa_offset 16
	.cfi_offset 6, -16
	pushq	%rbx
	.cfi_def_cfa_offset 24
	.cfi_offset 3, -24
	subq	$8, %rsp
	.cfi_def_cfa_offset 32
	movq	%rdi, %rbp
	.loc 1 56 2 is_stmt 1 view .LVU118
	cmpq	%rdi, %rsi
	je	.L9
	movq	%rsi, %rbx
	.loc 1 60 2 view .LVU119
.LVL30:
.LBB738:
.LBI738:
	.loc 3 664 7 view .LVU120
.LBB739:
.LBI739:
	.loc 3 1355 7 view .LVU121
.LBB740:
	.loc 3 1357 2 is_stmt 0 view .LVU122
	call	_ZNSt7__cxx1112basic_stringIcSt11char_traitsIcESaIcEE9_M_assignERKS4_@PLT
.LVL31:
	.loc 3 1357 2 view .LVU123
.LBE740:
.LBE739:
.LBE738:
	.loc 1 61 2 is_stmt 1 view .LVU124
	.loc 1 61 17 is_stmt 0 view .LVU125
	leaq	32(%rbx), %rsi
	leaq	32(%rbp), %rdi
.LVL32:
.LBB741:
.LBI741:
	.loc 3 664 7 is_stmt 1 view .LVU126
.LBB742:
.LBI742:
	.loc 3 1355 7 view .LVU127
.LBB743:
	.loc 3 1357 2 is_stmt 0 view .LVU128
	call	_ZNSt7__cxx1112basic_stringIcSt11char_traitsIcESaIcEE9_M_assignERKS4_@PLT
.LVL33:
	.loc 3 1357 2 view .LVU129
.LBE743:
.LBE742:
.LBE741:
	.loc 1 63 2 is_stmt 1 view .LVU130
.L9:
	.loc 1 64 1 is_stmt 0 view .LVU131
	movq	%rbp, %rax
	addq	$8, %rsp
	.cfi_def_cfa_offset 24
	popq	%rbx
	.cfi_def_cfa_offset 16
	popq	%rbp
	.cfi_def_cfa_offset 8
.LVL34:
	.loc 1 64 1 view .LVU132
	ret
	.cfi_endproc
.LFE1068:
	.size	_ZN3mpp6HeaderaSERKS0_, .-_ZN3mpp6HeaderaSERKS0_
	.align 2
	.globl	_ZN3mpp6HeaderaSEOS0_
	.type	_ZN3mpp6HeaderaSEOS0_, @function
_ZN3mpp6HeaderaSEOS0_:
.LVL35:
.LFB1069:
	.loc 1 71 1 is_stmt 1 view -0
	.cfi_startproc
	.cfi_personality 0x9b,DW.ref.__gxx_personality_v0
	.cfi_lsda 0x1b,.LLSDA1069
	.loc 1 71 1 is_stmt 0 view .LVU134
	pushq	%r13
	.cfi_def_cfa_offset 16
	.cfi_offset 13, -16
	pushq	%r12
	.cfi_def_cfa_offset 24
	.cfi_offset 12, -24
	pushq	%rbp
	.cfi_def_cfa_offset 32
	.cfi_offset 6, -32
	pushq	%rbx
	.cfi_def_cfa_offset 40
	.cfi_offset 3, -40
	subq	$8, %rsp
	.cfi_def_cfa_offset 48
	movq	%rdi, %rbp
	.loc 1 72 2 is_stmt 1 view .LVU135
	cmpq	%rdi, %rsi
	je	.L12
	movq	%rsi, %rbx
	.loc 1 76 2 view .LVU136
.LVL36:
.LBB820:
.LBI820:
	.loc 3 732 7 view .LVU137
.LBB821:
.LBI821:
	.loc 3 210 7 view .LVU138
.LBB822:
.LBI822:
	.loc 3 175 7 view .LVU139
.LBB823:
	.loc 3 176 28 is_stmt 0 view .LVU140
	movq	(%rdi), %rax
.LVL37:
	.loc 3 176 28 view .LVU141
.LBE823:
.LBE822:
.LBB824:
.LBI824:
	.loc 3 189 7 is_stmt 1 view .LVU142
.LBB825:
	.loc 3 192 57 is_stmt 0 view .LVU143
	leaq	16(%rdi), %rsi
.LVL38:
	.loc 3 192 57 view .LVU144
.LBE825:
.LBE824:
.LBE821:
.LBB826:
.LBB827:
.LBI827:
	.loc 3 210 7 is_stmt 1 view .LVU145
.LBB828:
.LBI828:
	.loc 3 175 7 view .LVU146
.LBB829:
	.loc 3 176 28 is_stmt 0 view .LVU147
	movq	(%rbx), %rdx
.LVL39:
	.loc 3 176 28 view .LVU148
.LBE829:
.LBE828:
.LBB830:
.LBI830:
	.loc 3 189 7 is_stmt 1 view .LVU149
.LBB831:
	.loc 3 192 57 is_stmt 0 view .LVU150
	leaq	16(%rbx), %rcx
.LVL40:
	.loc 3 192 57 view .LVU151
.LBE831:
.LBE830:
.LBE827:
	.loc 3 747 2 view .LVU152
	cmpq	%rcx, %rdx
	je	.L13
.LVL41:
.LBB832:
	.loc 3 753 6 view .LVU153
	cmpq	%rsi, %rax
	je	.L21
.LVL42:
	.loc 3 758 7 view .LVU154
	movq	16(%rdi), %r8
.LVL43:
.L14:
.LBB833:
.LBI833:
	.loc 3 167 7 is_stmt 1 view .LVU155
.LBB834:
	.loc 3 168 9 is_stmt 0 view .LVU156
	movq	%rdx, 0(%rbp)
.LVL44:
	.loc 3 168 9 view .LVU157
.LBE834:
.LBE833:
.LBB835:
.LBI835:
	.loc 3 927 7 is_stmt 1 view .LVU158
.LBB836:
	.loc 3 928 16 is_stmt 0 view .LVU159
	movq	8(%rbx), %rdx
.LVL45:
	.loc 3 928 16 view .LVU160
.LBE836:
.LBE835:
.LBB837:
.LBI837:
	.loc 3 171 7 is_stmt 1 view .LVU161
.LBB838:
	.loc 3 172 9 is_stmt 0 view .LVU162
	movq	%rdx, 8(%rbp)
.LVL46:
	.loc 3 172 9 view .LVU163
.LBE838:
.LBE837:
	.loc 3 766 6 view .LVU164
	movq	16(%rbx), %rdx
.LVL47:
.LBB839:
.LBI839:
	.loc 3 199 7 is_stmt 1 view .LVU165
.LBB840:
	.loc 3 200 9 is_stmt 0 view .LVU166
	movq	%rdx, 16(%rbp)
.LVL48:
	.loc 3 200 9 view .LVU167
.LBE840:
.LBE839:
	.loc 3 767 6 view .LVU168
	testq	%rax, %rax
	je	.L15
.LVL49:
.LBB841:
.LBI841:
	.loc 3 167 7 is_stmt 1 view .LVU169
.LBB842:
	.loc 3 168 9 is_stmt 0 view .LVU170
	movq	%rax, (%rbx)
.LVL50:
	.loc 3 168 9 view .LVU171
.LBE842:
.LBE841:
.LBB843:
.LBI843:
	.loc 3 199 7 is_stmt 1 view .LVU172
.LBB844:
	.loc 3 200 9 is_stmt 0 view .LVU173
	movq	%r8, 16(%rbx)
.LVL51:
.L16:
	.loc 3 200 9 view .LVU174
.LBE844:
.LBE843:
.LBE832:
.LBE826:
.LBB850:
.LBI850:
	.loc 3 1014 7 is_stmt 1 view .LVU175
.LBB851:
.LBI851:
	.loc 3 203 7 view .LVU176
.LBB852:
.LBI852:
	.loc 3 171 7 view .LVU177
.LBB853:
	.loc 3 172 9 is_stmt 0 view .LVU178
	movq	$0, 8(%rbx)
.LVL52:
	.loc 3 172 9 view .LVU179
.LBE853:
.LBE852:
.LBB854:
.LBI854:
	.loc 3 175 7 is_stmt 1 view .LVU180
.LBB855:
	.loc 3 176 28 is_stmt 0 view .LVU181
	movq	(%rbx), %rax
.LVL53:
	.loc 3 176 28 view .LVU182
.LBE855:
.LBE854:
.LBB856:
.LBI856:
	.loc 6 284 7 is_stmt 1 view .LVU183
.LBB857:
	.loc 6 285 9 view .LVU184
	.loc 6 285 14 is_stmt 0 view .LVU185
	movb	$0, (%rax)
.LVL54:
	.loc 6 285 14 view .LVU186
.LBE857:
.LBE856:
.LBE851:
.LBE850:
.LBE820:
	.loc 1 77 2 is_stmt 1 view .LVU187
	.loc 1 77 27 is_stmt 0 view .LVU188
	leaq	32(%rbx), %r12
	.loc 1 77 33 view .LVU189
	leaq	32(%rbp), %rdi
.LVL55:
.LBB859:
.LBI859:
	.loc 3 732 7 is_stmt 1 view .LVU190
.LBB860:
.LBI860:
	.loc 3 210 7 view .LVU191
.LBB861:
.LBI861:
	.loc 3 175 7 view .LVU192
.LBB862:
	.loc 3 176 28 is_stmt 0 view .LVU193
	movq	32(%rbp), %rax
.LVL56:
	.loc 3 176 28 view .LVU194
.LBE862:
.LBE861:
.LBB863:
.LBI863:
	.loc 3 189 7 is_stmt 1 view .LVU195
.LBB864:
	.loc 3 192 57 is_stmt 0 view .LVU196
	leaq	48(%rbp), %rsi
.LVL57:
	.loc 3 192 57 view .LVU197
.LBE864:
.LBE863:
.LBE860:
.LBB865:
.LBB866:
.LBI866:
	.loc 3 210 7 is_stmt 1 view .LVU198
.LBB867:
.LBI867:
	.loc 3 175 7 view .LVU199
.LBB868:
	.loc 3 176 28 is_stmt 0 view .LVU200
	movq	32(%rbx), %rdx
.LVL58:
	.loc 3 176 28 view .LVU201
.LBE868:
.LBE867:
.LBB869:
.LBI869:
	.loc 3 189 7 is_stmt 1 view .LVU202
.LBB870:
	.loc 3 192 57 is_stmt 0 view .LVU203
	leaq	48(%rbx), %rcx
.LVL59:
	.loc 3 192 57 view .LVU204
.LBE870:
.LBE869:
.LBE866:
	.loc 3 747 2 view .LVU205
	cmpq	%rcx, %rdx
	je	.L17
.LVL60:
.LBB871:
	.loc 3 753 6 view .LVU206
	cmpq	%rsi, %rax
	je	.L22
.LVL61:
	.loc 3 758 7 view .LVU207
	movq	16(%rdi), %r13
.LVL62:
.L18:
.LBB872:
.LBI872:
	.loc 3 167 7 is_stmt 1 view .LVU208
.LBB873:
	.loc 3 168 9 is_stmt 0 view .LVU209
	movq	%rdx, 32(%rbp)
.LVL63:
	.loc 3 168 9 view .LVU210
.LBE873:
.LBE872:
.LBB874:
.LBI874:
	.loc 3 927 7 is_stmt 1 view .LVU211
.LBB875:
	.loc 3 928 16 is_stmt 0 view .LVU212
	movq	8(%r12), %rdx
.LVL64:
	.loc 3 928 16 view .LVU213
.LBE875:
.LBE874:
.LBB876:
.LBI876:
	.loc 3 171 7 is_stmt 1 view .LVU214
.LBB877:
	.loc 3 172 9 is_stmt 0 view .LVU215
	movq	%rdx, 8(%rdi)
.LVL65:
	.loc 3 172 9 view .LVU216
.LBE877:
.LBE876:
	.loc 3 766 6 view .LVU217
	movq	16(%r12), %rdx
.LVL66:
.LBB878:
.LBI878:
	.loc 3 199 7 is_stmt 1 view .LVU218
.LBB879:
	.loc 3 200 9 is_stmt 0 view .LVU219
	movq	%rdx, 16(%rdi)
.LVL67:
	.loc 3 200 9 view .LVU220
.LBE879:
.LBE878:
	.loc 3 767 6 view .LVU221
	testq	%rax, %rax
	je	.L19
.LVL68:
.LBB880:
.LBI880:
	.loc 3 167 7 is_stmt 1 view .LVU222
.LBB881:
	.loc 3 168 9 is_stmt 0 view .LVU223
	movq	%rax, 32(%rbx)
.LVL69:
	.loc 3 168 9 view .LVU224
.LBE881:
.LBE880:
.LBB882:
.LBI882:
	.loc 3 199 7 is_stmt 1 view .LVU225
.LBB883:
	.loc 3 200 9 is_stmt 0 view .LVU226
	movq	%r13, 16(%r12)
.LVL70:
.L20:
	.loc 3 200 9 view .LVU227
.LBE883:
.LBE882:
.LBE871:
.LBE865:
.LBB889:
.LBI889:
	.loc 3 1014 7 is_stmt 1 view .LVU228
.LBB890:
.LBI890:
	.loc 3 203 7 view .LVU229
.LBB891:
.LBI891:
	.loc 3 171 7 view .LVU230
.LBB892:
	.loc 3 172 9 is_stmt 0 view .LVU231
	movq	$0, 8(%r12)
.LVL71:
	.loc 3 172 9 view .LVU232
.LBE892:
.LBE891:
.LBB893:
.LBI893:
	.loc 3 175 7 is_stmt 1 view .LVU233
.LBB894:
	.loc 3 176 28 is_stmt 0 view .LVU234
	movq	32(%rbx), %rax
.LVL72:
	.loc 3 176 28 view .LVU235
.LBE894:
.LBE893:
.LBB895:
.LBI895:
	.loc 6 284 7 is_stmt 1 view .LVU236
.LBB896:
	.loc 6 285 9 view .LVU237
	.loc 6 285 14 is_stmt 0 view .LVU238
	movb	$0, (%rax)
.LVL73:
.L12:
	.loc 6 285 14 view .LVU239
.LBE896:
.LBE895:
.LBE890:
.LBE889:
.LBE859:
	.loc 1 80 1 view .LVU240
	movq	%rbp, %rax
	addq	$8, %rsp
	.cfi_remember_state
	.cfi_def_cfa_offset 40
	popq	%rbx
	.cfi_def_cfa_offset 32
	popq	%rbp
	.cfi_def_cfa_offset 24
.LVL74:
	.loc 1 80 1 view .LVU241
	popq	%r12
	.cfi_def_cfa_offset 16
	popq	%r13
	.cfi_def_cfa_offset 8
	ret
.LVL75:
.L21:
	.cfi_restore_state
.LBB898:
.LBB858:
.LBB847:
	.loc 3 751 14 view .LVU242
	movl	$0, %eax
	jmp	.L14
.LVL76:
.L15:
.LBB845:
.LBI845:
	.loc 3 167 7 is_stmt 1 view .LVU243
.LBB846:
	.loc 3 168 9 is_stmt 0 view .LVU244
	movq	%rcx, (%rbx)
	jmp	.L16
.LVL77:
.L13:
	.loc 3 168 9 view .LVU245
.LBE846:
.LBE845:
.LBE847:
.LBB848:
.LBI848:
	.loc 3 1355 7 is_stmt 1 view .LVU246
.LBB849:
	.loc 3 1357 2 is_stmt 0 view .LVU247
	movq	%rbx, %rsi
	call	_ZNSt7__cxx1112basic_stringIcSt11char_traitsIcESaIcEE9_M_assignERKS4_@PLT
.LVL78:
	.loc 3 1357 2 view .LVU248
	jmp	.L16
.LVL79:
.L22:
	.loc 3 1357 2 view .LVU249
.LBE849:
.LBE848:
.LBE858:
.LBE898:
.LBB899:
.LBB897:
.LBB886:
	.loc 3 751 14 view .LVU250
	movl	$0, %eax
	jmp	.L18
.LVL80:
.L19:
.LBB884:
.LBI884:
	.loc 3 167 7 is_stmt 1 view .LVU251
.LBB885:
	.loc 3 168 9 is_stmt 0 view .LVU252
	movq	%rcx, 32(%rbx)
	jmp	.L20
.LVL81:
.L17:
	.loc 3 168 9 view .LVU253
.LBE885:
.LBE884:
.LBE886:
.LBB887:
.LBI887:
	.loc 3 1355 7 is_stmt 1 view .LVU254
.LBB888:
	.loc 3 1357 2 is_stmt 0 view .LVU255
	movq	%r12, %rsi
	call	_ZNSt7__cxx1112basic_stringIcSt11char_traitsIcESaIcEE9_M_assignERKS4_@PLT
.LVL82:
	.loc 3 1357 2 view .LVU256
	jmp	.L20
.LBE888:
.LBE887:
.LBE897:
.LBE899:
	.cfi_endproc
.LFE1069:
	.globl	__gxx_personality_v0
	.section	.gcc_except_table,"a",@progbits
.LLSDA1069:
	.byte	0xff
	.byte	0xff
	.byte	0x1
	.uleb128 .LLSDACSE1069-.LLSDACSB1069
.LLSDACSB1069:
.LLSDACSE1069:
	.text
	.size	_ZN3mpp6HeaderaSEOS0_, .-_ZN3mpp6HeaderaSEOS0_
	.align 2
	.globl	_ZN3mpp6HeaderC2Ev
	.type	_ZN3mpp6HeaderC2Ev, @function
_ZN3mpp6HeaderC2Ev:
.LVL83:
.LFB1074:
	.loc 1 85 1 is_stmt 1 view -0
	.cfi_startproc
.LBB900:
.LBI900:
	.loc 3 420 7 view .LVU258
.LBB901:
.LBI901:
	.loc 4 131 7 view .LVU259
.LBB902:
.LBI902:
	.loc 5 79 7 view .LVU260
	.loc 5 79 7 is_stmt 0 view .LVU261
.LBE902:
.LBE901:
.LBB903:
.LBI903:
	.loc 3 179 7 is_stmt 1 view .LVU262
.LBB904:
	.loc 3 182 51 is_stmt 0 view .LVU263
	leaq	16(%rdi), %rax
.LVL84:
	.loc 3 182 51 view .LVU264
.LBE904:
.LBE903:
.LBB905:
.LBI905:
	.loc 3 148 2 is_stmt 1 view .LVU265
.LBB906:
.LBB907:
.LBI907:
	.loc 2 99 5 view .LVU266
	.loc 2 99 5 is_stmt 0 view .LVU267
.LBE907:
.LBB908:
.LBI908:
	.loc 4 133 7 is_stmt 1 view .LVU268
.LBB909:
.LBI909:
	.loc 5 81 7 view .LVU269
	.loc 5 81 7 is_stmt 0 view .LVU270
.LBE909:
.LBE908:
	.loc 3 149 46 view .LVU271
	movq	%rax, (%rdi)
.LVL85:
	.loc 3 149 46 view .LVU272
.LBE906:
.LBE905:
.LBB910:
.LBI910:
	.loc 4 139 7 is_stmt 1 view .LVU273
.LBB911:
.LBI911:
	.loc 5 86 7 view .LVU274
	.loc 5 86 7 is_stmt 0 view .LVU275
.LBE911:
.LBE910:
.LBB912:
.LBI912:
	.loc 3 203 7 is_stmt 1 view .LVU276
.LBB913:
.LBI913:
	.loc 3 171 7 view .LVU277
.LBB914:
	.loc 3 172 9 is_stmt 0 view .LVU278
	movq	$0, 8(%rdi)
.LVL86:
	.loc 3 172 9 view .LVU279
.LBE914:
.LBE913:
.LBB915:
.LBI915:
	.loc 6 284 7 is_stmt 1 view .LVU280
.LBB916:
	.loc 6 285 9 view .LVU281
	.loc 6 285 14 is_stmt 0 view .LVU282
	movb	$0, 16(%rdi)
.LVL87:
	.loc 6 285 14 view .LVU283
.LBE916:
.LBE915:
.LBE912:
.LBE900:
.LBB917:
.LBI917:
	.loc 3 420 7 is_stmt 1 view .LVU284
.LBB918:
.LBI918:
	.loc 4 131 7 view .LVU285
.LBB919:
.LBI919:
	.loc 5 79 7 view .LVU286
	.loc 5 79 7 is_stmt 0 view .LVU287
.LBE919:
.LBE918:
.LBB920:
.LBI920:
	.loc 3 179 7 is_stmt 1 view .LVU288
.LBB921:
	.loc 3 182 51 is_stmt 0 view .LVU289
	leaq	48(%rdi), %rax
.LVL88:
	.loc 3 182 51 view .LVU290
.LBE921:
.LBE920:
.LBB922:
.LBI922:
	.loc 3 148 2 is_stmt 1 view .LVU291
.LBB923:
.LBB924:
.LBI924:
	.loc 2 99 5 view .LVU292
	.loc 2 99 5 is_stmt 0 view .LVU293
.LBE924:
.LBB925:
.LBI925:
	.loc 4 133 7 is_stmt 1 view .LVU294
.LBB926:
.LBI926:
	.loc 5 81 7 view .LVU295
	.loc 5 81 7 is_stmt 0 view .LVU296
.LBE926:
.LBE925:
	.loc 3 149 46 view .LVU297
	movq	%rax, 32(%rdi)
.LVL89:
	.loc 3 149 46 view .LVU298
.LBE923:
.LBE922:
.LBB927:
.LBI927:
	.loc 4 139 7 is_stmt 1 view .LVU299
.LBB928:
.LBI928:
	.loc 5 86 7 view .LVU300
	.loc 5 86 7 is_stmt 0 view .LVU301
.LBE928:
.LBE927:
.LBB929:
.LBI929:
	.loc 3 203 7 is_stmt 1 view .LVU302
.LBB930:
.LBI930:
	.loc 3 171 7 view .LVU303
.LBB931:
	.loc 3 172 9 is_stmt 0 view .LVU304
	movq	$0, 40(%rdi)
.LVL90:
	.loc 3 172 9 view .LVU305
.LBE931:
.LBE930:
.LBB932:
.LBI932:
	.loc 6 284 7 is_stmt 1 view .LVU306
.LBB933:
	.loc 6 285 9 view .LVU307
	.loc 6 285 14 is_stmt 0 view .LVU308
	movb	$0, 48(%rdi)
.LVL91:
	.loc 6 285 14 view .LVU309
.LBE933:
.LBE932:
.LBE929:
.LBE917:
	.loc 1 87 1 view .LVU310
	ret
	.cfi_endproc
.LFE1074:
	.size	_ZN3mpp6HeaderC2Ev, .-_ZN3mpp6HeaderC2Ev
	.globl	_ZN3mpp6HeaderC1Ev
	.set	_ZN3mpp6HeaderC1Ev,_ZN3mpp6HeaderC2Ev
	.section	.rodata._ZNSt7__cxx1112basic_stringIcSt11char_traitsIcESaIcEE12_M_constructIPcEEvT_S7_St20forward_iterator_tag.str1.8,"aMS",@progbits,1
	.align 8
.LC0:
	.string	"basic_string::_M_construct null not valid"
	.section	.text._ZNSt7__cxx1112basic_stringIcSt11char_traitsIcESaIcEE12_M_constructIPcEEvT_S7_St20forward_iterator_tag,"axG",@progbits,_ZNSt7__cxx1112basic_stringIcSt11char_traitsIcESaIcEE12_M_constructIPcEEvT_S7_St20forward_iterator_tag,comdat
	.align 2
	.weak	_ZNSt7__cxx1112basic_stringIcSt11char_traitsIcESaIcEE12_M_constructIPcEEvT_S7_St20forward_iterator_tag
	.type	_ZNSt7__cxx1112basic_stringIcSt11char_traitsIcESaIcEE12_M_constructIPcEEvT_S7_St20forward_iterator_tag, @function
_ZNSt7__cxx1112basic_stringIcSt11char_traitsIcESaIcEE12_M_constructIPcEEvT_S7_St20forward_iterator_tag:
.LVL92:
.LFB1490:
	.file 7 "/usr/include/c++/8/bits/basic_string.tcc"
	.loc 7 206 7 is_stmt 1 view -0
	.cfi_startproc
	.loc 7 206 7 is_stmt 0 view .LVU312
	pushq	%r12
	.cfi_def_cfa_offset 16
	.cfi_offset 12, -16
	pushq	%rbp
	.cfi_def_cfa_offset 24
	.cfi_offset 6, -24
	pushq	%rbx
	.cfi_def_cfa_offset 32
	.cfi_offset 3, -32
	subq	$16, %rsp
	.cfi_def_cfa_offset 48
	movq	%rdi, %rbp
	movq	%rsi, %r12
	.loc 7 211 42 view .LVU313
	testq	%rsi, %rsi
	je	.L31
.L26:
.LVL93:
.LBB934:
.LBI934:
	.file 8 "/usr/include/c++/8/bits/stl_iterator_base_funcs.h"
	.loc 8 138 5 is_stmt 1 view .LVU314
.LBB935:
.LBI935:
	.loc 8 98 5 view .LVU315
.LBB936:
	.loc 8 104 23 is_stmt 0 view .LVU316
	subq	%r12, %rdx
.LVL94:
	.loc 8 104 23 view .LVU317
	movq	%rdx, %rbx
.LVL95:
	.loc 8 104 23 view .LVU318
.LBE936:
.LBE935:
.LBE934:
	.loc 7 215 12 view .LVU319
	movq	%rdx, 8(%rsp)
	.loc 7 217 2 view .LVU320
	cmpq	$15, %rdx
	ja	.L32
.LVL96:
.L27:
.LBB937:
.LBI937:
	.loc 3 175 7 is_stmt 1 view .LVU321
.LBB938:
	.loc 3 176 28 is_stmt 0 view .LVU322
	movq	0(%rbp), %rdi
.LVL97:
	.loc 3 176 28 view .LVU323
.LBE938:
.LBE937:
.LBB939:
.LBI939:
	.loc 3 381 7 is_stmt 1 view .LVU324
.LBB940:
.LBI940:
	.loc 3 335 7 view .LVU325
.LBB941:
	.loc 3 337 2 is_stmt 0 view .LVU326
	cmpq	$1, %rbx
	je	.L33
.LVL98:
.LBB942:
.LBI942:
	.loc 6 346 7 is_stmt 1 view .LVU327
.LBB943:
	.loc 6 348 2 view .LVU328
	testq	%rbx, %rbx
	je	.L29
	.loc 6 350 2 view .LVU329
	.loc 6 350 49 is_stmt 0 view .LVU330
	movq	%rbx, %rdx
	movq	%r12, %rsi
	call	memcpy@PLT
.LVL99:
	.loc 6 350 49 view .LVU331
	jmp	.L29
.LVL100:
.L31:
	.loc 6 350 49 view .LVU332
.LBE943:
.LBE942:
.LBE941:
.LBE940:
.LBE939:
	.loc 7 211 42 discriminator 1 view .LVU333
	cmpq	%rdx, %rsi
	je	.L26
	.loc 7 212 28 view .LVU334
	leaq	.LC0(%rip), %rdi
.LVL101:
	.loc 7 212 28 view .LVU335
	call	_ZSt19__throw_logic_errorPKc@PLT
.LVL102:
.L32:
	.loc 7 219 6 view .LVU336
	leaq	8(%rsp), %rsi
.LVL103:
	.loc 7 219 6 view .LVU337
	movl	$0, %edx
	movq	%rbp, %rdi
.LVL104:
	.loc 7 219 6 view .LVU338
	call	_ZNSt7__cxx1112basic_stringIcSt11char_traitsIcESaIcEE9_M_createERmm@PLT
.LVL105:
.LBB948:
.LBI948:
	.loc 3 167 7 is_stmt 1 view .LVU339
.LBB949:
	.loc 3 168 9 is_stmt 0 view .LVU340
	movq	%rax, 0(%rbp)
.LVL106:
	.loc 3 168 9 view .LVU341
.LBE949:
.LBE948:
	.loc 7 220 6 view .LVU342
	movq	8(%rsp), %rax
.LVL107:
.LBB950:
.LBI950:
	.loc 3 199 7 is_stmt 1 view .LVU343
.LBB951:
	.loc 3 200 9 is_stmt 0 view .LVU344
	movq	%rax, 16(%rbp)
	jmp	.L27
.LVL108:
.L33:
	.loc 3 200 9 view .LVU345
.LBE951:
.LBE950:
.LBB952:
.LBB947:
.LBB946:
.LBB944:
.LBI944:
	.loc 6 284 7 is_stmt 1 view .LVU346
.LBB945:
	.loc 6 285 9 view .LVU347
	.loc 6 285 16 is_stmt 0 view .LVU348
	movzbl	(%r12), %eax
	.loc 6 285 14 view .LVU349
	movb	%al, (%rdi)
.LVL109:
.L29:
	.loc 6 285 14 view .LVU350
.LBE945:
.LBE944:
.LBE946:
.LBE947:
.LBE952:
	.loc 7 232 2 view .LVU351
	movq	8(%rsp), %rax
.LVL110:
.LBB953:
.LBI953:
	.loc 3 203 7 is_stmt 1 view .LVU352
.LBB954:
.LBB955:
.LBI955:
	.loc 3 171 7 view .LVU353
.LBB956:
	.loc 3 172 9 is_stmt 0 view .LVU354
	movq	%rax, 8(%rbp)
.LVL111:
	.loc 3 172 9 view .LVU355
.LBE956:
.LBE955:
.LBB957:
.LBI957:
	.loc 3 175 7 is_stmt 1 view .LVU356
	.loc 3 175 7 is_stmt 0 view .LVU357
.LBE957:
	.loc 3 206 31 view .LVU358
	addq	0(%rbp), %rax
.LVL112:
.LBB958:
.LBI958:
	.loc 6 284 7 is_stmt 1 view .LVU359
.LBB959:
	.loc 6 285 9 view .LVU360
	.loc 6 285 14 is_stmt 0 view .LVU361
	movb	$0, (%rax)
.LVL113:
	.loc 6 285 14 view .LVU362
.LBE959:
.LBE958:
.LBE954:
.LBE953:
	.loc 7 233 7 view .LVU363
	addq	$16, %rsp
	.cfi_def_cfa_offset 32
	popq	%rbx
	.cfi_def_cfa_offset 24
	popq	%rbp
	.cfi_def_cfa_offset 16
.LVL114:
	.loc 7 233 7 view .LVU364
	popq	%r12
	.cfi_def_cfa_offset 8
.LVL115:
	.loc 7 233 7 view .LVU365
	ret
	.cfi_endproc
.LFE1490:
	.size	_ZNSt7__cxx1112basic_stringIcSt11char_traitsIcESaIcEE12_M_constructIPcEEvT_S7_St20forward_iterator_tag, .-_ZNSt7__cxx1112basic_stringIcSt11char_traitsIcESaIcEE12_M_constructIPcEEvT_S7_St20forward_iterator_tag
	.text
	.align 2
	.globl	_ZN3mpp6HeaderC2ENSt7__cxx1112basic_stringIcSt11char_traitsIcESaIcEEES6_
	.type	_ZN3mpp6HeaderC2ENSt7__cxx1112basic_stringIcSt11char_traitsIcESaIcEEES6_, @function
_ZN3mpp6HeaderC2ENSt7__cxx1112basic_stringIcSt11char_traitsIcESaIcEEES6_:
.LVL116:
.LFB1057:
	.loc 1 12 1 is_stmt 1 view -0
	.cfi_startproc
	.cfi_personality 0x9b,DW.ref.__gxx_personality_v0
	.cfi_lsda 0x1b,.LLSDA1057
	.loc 1 12 1 is_stmt 0 view .LVU367
	pushq	%r12
	.cfi_def_cfa_offset 16
	.cfi_offset 12, -16
	pushq	%rbp
	.cfi_def_cfa_offset 24
	.cfi_offset 6, -24
	pushq	%rbx
	.cfi_def_cfa_offset 32
	.cfi_offset 3, -32
	movq	%rdi, %rbx
	movq	%rdx, %rbp
.LVL117:
.LBB960:
.LBB961:
.LBI961:
	.loc 3 437 7 is_stmt 1 view .LVU368
.LBB962:
.LBB963:
.LBI963:
	.loc 3 279 7 view .LVU369
	.loc 3 279 7 is_stmt 0 view .LVU370
.LBE963:
.LBB964:
.LBI964:
	.file 9 "/usr/include/c++/8/ext/alloc_traits.h"
	.loc 9 94 19 is_stmt 1 view .LVU371
.LBB965:
.LBI965:
	.file 10 "/usr/include/c++/8/bits/alloc_traits.h"
	.loc 10 504 7 view .LVU372
.LBB966:
.LBI966:
	.loc 4 133 7 view .LVU373
.LBB967:
.LBI967:
	.loc 5 81 7 view .LVU374
	.loc 5 81 7 is_stmt 0 view .LVU375
.LBE967:
.LBE966:
.LBE965:
.LBE964:
.LBB968:
.LBI968:
	.loc 3 179 7 is_stmt 1 view .LVU376
.LBB969:
	.loc 3 182 51 is_stmt 0 view .LVU377
	leaq	16(%rdi), %r12
.LVL118:
	.loc 3 182 51 view .LVU378
.LBE969:
.LBE968:
.LBB970:
.LBI970:
	.loc 3 148 2 is_stmt 1 view .LVU379
.LBB971:
.LBB972:
.LBI972:
	.loc 2 99 5 view .LVU380
	.loc 2 99 5 is_stmt 0 view .LVU381
.LBE972:
.LBB973:
.LBI973:
	.loc 4 133 7 is_stmt 1 view .LVU382
.LBB974:
.LBI974:
	.loc 5 81 7 view .LVU383
	.loc 5 81 7 is_stmt 0 view .LVU384
.LBE974:
.LBE973:
	.loc 3 149 46 view .LVU385
	movq	%r12, (%rdi)
.LVL119:
	.loc 3 149 46 view .LVU386
.LBE971:
.LBE970:
.LBB975:
.LBI975:
	.loc 4 139 7 is_stmt 1 view .LVU387
.LBB976:
.LBI976:
	.loc 5 86 7 view .LVU388
	.loc 5 86 7 is_stmt 0 view .LVU389
.LBE976:
.LBE975:
.LBB977:
.LBI977:
	.loc 3 175 7 is_stmt 1 view .LVU390
.LBB978:
	.loc 3 176 28 is_stmt 0 view .LVU391
	movq	(%rsi), %rax
.LVL120:
	.loc 3 176 28 view .LVU392
.LBE978:
.LBE977:
.LBB979:
.LBI979:
	.loc 3 927 7 is_stmt 1 view .LVU393
	.loc 3 927 7 is_stmt 0 view .LVU394
.LBE979:
	.loc 3 440 9 view .LVU395
	movq	%rax, %rdx
.LVL121:
	.loc 3 440 9 view .LVU396
	addq	8(%rsi), %rdx
.LVL122:
.LBB980:
.LBI980:
	.loc 3 175 7 is_stmt 1 view .LVU397
	.loc 3 175 7 is_stmt 0 view .LVU398
.LBE980:
.LBB981:
.LBI981:
	.loc 3 252 9 is_stmt 1 view .LVU399
.LBB982:
.LBB983:
.LBI983:
	.loc 3 232 9 view .LVU400
.LBB984:
	.loc 3 236 11 is_stmt 0 view .LVU401
	movq	%rax, %rsi
.LVL123:
.LEHB0:
	.loc 3 236 11 view .LVU402
	call	_ZNSt7__cxx1112basic_stringIcSt11char_traitsIcESaIcEE12_M_constructIPcEEvT_S7_St20forward_iterator_tag@PLT
.LVL124:
.LEHE0:
	.loc 3 236 11 view .LVU403
.LBE984:
.LBE983:
.LBE982:
.LBE981:
.LBE962:
.LBE961:
	.loc 1 12 85 view .LVU404
	leaq	32(%rbx), %rdi
.LVL125:
.LBB985:
.LBI985:
	.loc 3 437 7 is_stmt 1 view .LVU405
.LBB986:
.LBB987:
.LBI987:
	.loc 3 279 7 view .LVU406
	.loc 3 279 7 is_stmt 0 view .LVU407
.LBE987:
.LBB988:
.LBI988:
	.loc 9 94 19 is_stmt 1 view .LVU408
.LBB989:
.LBI989:
	.loc 10 504 7 view .LVU409
.LBB990:
.LBI990:
	.loc 4 133 7 view .LVU410
.LBB991:
.LBI991:
	.loc 5 81 7 view .LVU411
	.loc 5 81 7 is_stmt 0 view .LVU412
.LBE991:
.LBE990:
.LBE989:
.LBE988:
.LBB992:
.LBI992:
	.loc 3 179 7 is_stmt 1 view .LVU413
.LBB993:
	.loc 3 182 51 is_stmt 0 view .LVU414
	leaq	48(%rbx), %rax
.LVL126:
	.loc 3 182 51 view .LVU415
.LBE993:
.LBE992:
.LBB994:
.LBI994:
	.loc 3 148 2 is_stmt 1 view .LVU416
.LBB995:
.LBB996:
.LBI996:
	.loc 2 99 5 view .LVU417
	.loc 2 99 5 is_stmt 0 view .LVU418
.LBE996:
.LBB997:
.LBI997:
	.loc 4 133 7 is_stmt 1 view .LVU419
.LBB998:
.LBI998:
	.loc 5 81 7 view .LVU420
	.loc 5 81 7 is_stmt 0 view .LVU421
.LBE998:
.LBE997:
	.loc 3 149 46 view .LVU422
	movq	%rax, 32(%rbx)
.LVL127:
	.loc 3 149 46 view .LVU423
.LBE995:
.LBE994:
.LBB999:
.LBI999:
	.loc 4 139 7 is_stmt 1 view .LVU424
.LBB1000:
.LBI1000:
	.loc 5 86 7 view .LVU425
	.loc 5 86 7 is_stmt 0 view .LVU426
.LBE1000:
.LBE999:
.LBB1001:
.LBI1001:
	.loc 3 175 7 is_stmt 1 view .LVU427
.LBB1002:
	.loc 3 176 28 is_stmt 0 view .LVU428
	movq	0(%rbp), %rsi
.LVL128:
	.loc 3 176 28 view .LVU429
.LBE1002:
.LBE1001:
.LBB1003:
.LBI1003:
	.loc 3 927 7 is_stmt 1 view .LVU430
	.loc 3 927 7 is_stmt 0 view .LVU431
.LBE1003:
	.loc 3 440 9 view .LVU432
	movq	%rsi, %rdx
	addq	8(%rbp), %rdx
.LVL129:
.LBB1004:
.LBI1004:
	.loc 3 175 7 is_stmt 1 view .LVU433
	.loc 3 175 7 is_stmt 0 view .LVU434
.LBE1004:
.LBB1005:
.LBI1005:
	.loc 3 252 9 is_stmt 1 view .LVU435
.LBB1006:
.LBB1007:
.LBI1007:
	.loc 3 232 9 view .LVU436
.LEHB1:
.LBB1008:
	.loc 3 236 11 is_stmt 0 view .LVU437
	call	_ZNSt7__cxx1112basic_stringIcSt11char_traitsIcESaIcEE12_M_constructIPcEEvT_S7_St20forward_iterator_tag@PLT
.LVL130:
.LEHE1:
	.loc 3 236 11 view .LVU438
	jmp	.L40
.L37:
	movq	%rax, %rbp
.LVL131:
	.loc 3 236 11 view .LVU439
.LBE1008:
.LBE1007:
.LBE1006:
.LBE1005:
.LBE986:
.LBE985:
.LBB1009:
.LBI1009:
	.loc 3 656 7 is_stmt 1 view .LVU440
.LBB1010:
.LBI1010:
	.loc 3 218 7 view .LVU441
.LBB1011:
.LBB1012:
.LBI1012:
	.loc 3 210 7 view .LVU442
.LBB1013:
.LBI1013:
	.loc 3 175 7 view .LVU443
.LBB1014:
	.loc 3 176 28 is_stmt 0 view .LVU444
	movq	(%rbx), %rdi
.LVL132:
	.loc 3 176 28 view .LVU445
.LBE1014:
.LBE1013:
.LBE1012:
	.loc 3 220 2 view .LVU446
	cmpq	%rdi, %r12
	je	.L36
.LVL133:
.LBB1015:
.LBI1015:
	.loc 3 225 7 is_stmt 1 view .LVU447
.LBB1016:
.LBI1016:
	.loc 10 461 7 view .LVU448
.LBB1017:
.LBI1017:
	.loc 5 116 7 view .LVU449
.LBB1018:
	.loc 5 125 19 is_stmt 0 view .LVU450
	call	_ZdlPv@PLT
.LVL134:
.L36:
	.loc 5 125 19 view .LVU451
.LBE1018:
.LBE1017:
.LBE1016:
.LBE1015:
.LBE1011:
.LBE1010:
.LBB1019:
.LBI1019:
	.loc 3 139 14 is_stmt 1 view .LVU452
.LBB1020:
.LBI1020:
	.loc 4 139 7 view .LVU453
.LBB1021:
.LBI1021:
	.loc 5 86 7 view .LVU454
	.loc 5 86 7 is_stmt 0 view .LVU455
	movq	%rbp, %rdi
.LEHB2:
	call	_Unwind_Resume@PLT
.LVL135:
.LEHE2:
.L40:
	.loc 5 86 7 view .LVU456
.LBE1021:
.LBE1020:
.LBE1019:
.LBE1009:
.LBE960:
	.loc 1 14 1 view .LVU457
	popq	%rbx
	.cfi_def_cfa_offset 24
.LVL136:
	.loc 1 14 1 view .LVU458
	popq	%rbp
	.cfi_def_cfa_offset 16
.LVL137:
	.loc 1 14 1 view .LVU459
	popq	%r12
	.cfi_def_cfa_offset 8
.LVL138:
	.loc 1 14 1 view .LVU460
	ret
	.cfi_endproc
.LFE1057:
	.section	.gcc_except_table
.LLSDA1057:
	.byte	0xff
	.byte	0xff
	.byte	0x1
	.uleb128 .LLSDACSE1057-.LLSDACSB1057
.LLSDACSB1057:
	.uleb128 .LEHB0-.LFB1057
	.uleb128 .LEHE0-.LEHB0
	.uleb128 0
	.uleb128 0
	.uleb128 .LEHB1-.LFB1057
	.uleb128 .LEHE1-.LEHB1
	.uleb128 .L37-.LFB1057
	.uleb128 0
	.uleb128 .LEHB2-.LFB1057
	.uleb128 .LEHE2-.LEHB2
	.uleb128 0
	.uleb128 0
.LLSDACSE1057:
	.text
	.size	_ZN3mpp6HeaderC2ENSt7__cxx1112basic_stringIcSt11char_traitsIcESaIcEEES6_, .-_ZN3mpp6HeaderC2ENSt7__cxx1112basic_stringIcSt11char_traitsIcESaIcEEES6_
	.globl	_ZN3mpp6HeaderC1ENSt7__cxx1112basic_stringIcSt11char_traitsIcESaIcEEES6_
	.set	_ZN3mpp6HeaderC1ENSt7__cxx1112basic_stringIcSt11char_traitsIcESaIcEEES6_,_ZN3mpp6HeaderC2ENSt7__cxx1112basic_stringIcSt11char_traitsIcESaIcEEES6_
	.align 2
	.globl	_ZNK3mpp6Header7getNameB5cxx11Ev
	.type	_ZNK3mpp6Header7getNameB5cxx11Ev, @function
_ZNK3mpp6Header7getNameB5cxx11Ev:
.LVL139:
.LFB1059:
	.loc 1 21 1 is_stmt 1 view -0
	.cfi_startproc
	.loc 1 21 1 is_stmt 0 view .LVU462
	pushq	%rbx
	.cfi_def_cfa_offset 16
	.cfi_offset 3, -16
	movq	%rdi, %rbx
	.loc 1 22 2 is_stmt 1 view .LVU463
.LVL140:
.LBB1022:
.LBI1022:
	.loc 3 437 7 view .LVU464
.LBB1023:
.LBB1024:
.LBI1024:
	.loc 3 279 7 view .LVU465
	.loc 3 279 7 is_stmt 0 view .LVU466
.LBE1024:
.LBB1025:
.LBI1025:
	.loc 9 94 19 is_stmt 1 view .LVU467
.LBB1026:
.LBI1026:
	.loc 10 504 7 view .LVU468
.LBB1027:
.LBI1027:
	.loc 4 133 7 view .LVU469
.LBB1028:
.LBI1028:
	.loc 5 81 7 view .LVU470
	.loc 5 81 7 is_stmt 0 view .LVU471
.LBE1028:
.LBE1027:
.LBE1026:
.LBE1025:
.LBB1029:
.LBI1029:
	.loc 3 179 7 is_stmt 1 view .LVU472
.LBB1030:
	.loc 3 182 51 is_stmt 0 view .LVU473
	leaq	16(%rdi), %rax
.LVL141:
	.loc 3 182 51 view .LVU474
.LBE1030:
.LBE1029:
.LBB1031:
.LBI1031:
	.loc 3 148 2 is_stmt 1 view .LVU475
.LBB1032:
.LBB1033:
.LBI1033:
	.loc 2 99 5 view .LVU476
	.loc 2 99 5 is_stmt 0 view .LVU477
.LBE1033:
.LBB1034:
.LBI1034:
	.loc 4 133 7 is_stmt 1 view .LVU478
.LBB1035:
.LBI1035:
	.loc 5 81 7 view .LVU479
	.loc 5 81 7 is_stmt 0 view .LVU480
.LBE1035:
.LBE1034:
	.loc 3 149 46 view .LVU481
	movq	%rax, (%rdi)
.LVL142:
	.loc 3 149 46 view .LVU482
.LBE1032:
.LBE1031:
.LBB1036:
.LBI1036:
	.loc 4 139 7 is_stmt 1 view .LVU483
.LBB1037:
.LBI1037:
	.loc 5 86 7 view .LVU484
	.loc 5 86 7 is_stmt 0 view .LVU485
.LBE1037:
.LBE1036:
.LBB1038:
.LBI1038:
	.loc 3 175 7 is_stmt 1 view .LVU486
.LBB1039:
	.loc 3 176 28 is_stmt 0 view .LVU487
	movq	(%rsi), %rax
.LVL143:
	.loc 3 176 28 view .LVU488
.LBE1039:
.LBE1038:
.LBB1040:
.LBI1040:
	.loc 3 927 7 is_stmt 1 view .LVU489
	.loc 3 927 7 is_stmt 0 view .LVU490
.LBE1040:
	.loc 3 440 9 view .LVU491
	movq	%rax, %rdx
	addq	8(%rsi), %rdx
.LVL144:
.LBB1041:
.LBI1041:
	.loc 3 175 7 is_stmt 1 view .LVU492
	.loc 3 175 7 is_stmt 0 view .LVU493
.LBE1041:
.LBB1042:
.LBI1042:
	.loc 3 252 9 is_stmt 1 view .LVU494
.LBB1043:
.LBB1044:
.LBI1044:
	.loc 3 232 9 view .LVU495
.LBB1045:
	.loc 3 236 11 is_stmt 0 view .LVU496
	movq	%rax, %rsi
.LVL145:
	.loc 3 236 11 view .LVU497
	call	_ZNSt7__cxx1112basic_stringIcSt11char_traitsIcESaIcEE12_M_constructIPcEEvT_S7_St20forward_iterator_tag@PLT
.LVL146:
	.loc 3 236 11 view .LVU498
.LBE1045:
.LBE1044:
.LBE1043:
.LBE1042:
.LBE1023:
.LBE1022:
	.loc 1 23 1 view .LVU499
	movq	%rbx, %rax
	popq	%rbx
	.cfi_def_cfa_offset 8
.LVL147:
	.loc 1 23 1 view .LVU500
	ret
	.cfi_endproc
.LFE1059:
	.size	_ZNK3mpp6Header7getNameB5cxx11Ev, .-_ZNK3mpp6Header7getNameB5cxx11Ev
	.align 2
	.globl	_ZNK3mpp6Header8getValueB5cxx11Ev
	.type	_ZNK3mpp6Header8getValueB5cxx11Ev, @function
_ZNK3mpp6Header8getValueB5cxx11Ev:
.LVL148:
.LFB1060:
	.loc 1 30 1 is_stmt 1 view -0
	.cfi_startproc
	.loc 1 30 1 is_stmt 0 view .LVU502
	pushq	%rbx
	.cfi_def_cfa_offset 16
	.cfi_offset 3, -16
	movq	%rdi, %rbx
	.loc 1 31 2 is_stmt 1 view .LVU503
.LVL149:
.LBB1046:
.LBI1046:
	.loc 3 437 7 view .LVU504
.LBB1047:
.LBB1048:
.LBI1048:
	.loc 3 279 7 view .LVU505
	.loc 3 279 7 is_stmt 0 view .LVU506
.LBE1048:
.LBB1049:
.LBI1049:
	.loc 9 94 19 is_stmt 1 view .LVU507
.LBB1050:
.LBI1050:
	.loc 10 504 7 view .LVU508
.LBB1051:
.LBI1051:
	.loc 4 133 7 view .LVU509
.LBB1052:
.LBI1052:
	.loc 5 81 7 view .LVU510
	.loc 5 81 7 is_stmt 0 view .LVU511
.LBE1052:
.LBE1051:
.LBE1050:
.LBE1049:
.LBB1053:
.LBI1053:
	.loc 3 179 7 is_stmt 1 view .LVU512
.LBB1054:
	.loc 3 182 51 is_stmt 0 view .LVU513
	leaq	16(%rdi), %rax
.LVL150:
	.loc 3 182 51 view .LVU514
.LBE1054:
.LBE1053:
.LBB1055:
.LBI1055:
	.loc 3 148 2 is_stmt 1 view .LVU515
.LBB1056:
.LBB1057:
.LBI1057:
	.loc 2 99 5 view .LVU516
	.loc 2 99 5 is_stmt 0 view .LVU517
.LBE1057:
.LBB1058:
.LBI1058:
	.loc 4 133 7 is_stmt 1 view .LVU518
.LBB1059:
.LBI1059:
	.loc 5 81 7 view .LVU519
	.loc 5 81 7 is_stmt 0 view .LVU520
.LBE1059:
.LBE1058:
	.loc 3 149 46 view .LVU521
	movq	%rax, (%rdi)
.LVL151:
	.loc 3 149 46 view .LVU522
.LBE1056:
.LBE1055:
.LBB1060:
.LBI1060:
	.loc 4 139 7 is_stmt 1 view .LVU523
.LBB1061:
.LBI1061:
	.loc 5 86 7 view .LVU524
	.loc 5 86 7 is_stmt 0 view .LVU525
.LBE1061:
.LBE1060:
.LBB1062:
.LBI1062:
	.loc 3 175 7 is_stmt 1 view .LVU526
.LBB1063:
	.loc 3 176 28 is_stmt 0 view .LVU527
	movq	32(%rsi), %rax
.LVL152:
	.loc 3 176 28 view .LVU528
.LBE1063:
.LBE1062:
.LBB1064:
.LBI1064:
	.loc 3 927 7 is_stmt 1 view .LVU529
	.loc 3 927 7 is_stmt 0 view .LVU530
.LBE1064:
	.loc 3 440 9 view .LVU531
	movq	%rax, %rdx
	addq	40(%rsi), %rdx
.LVL153:
.LBB1065:
.LBI1065:
	.loc 3 175 7 is_stmt 1 view .LVU532
	.loc 3 175 7 is_stmt 0 view .LVU533
.LBE1065:
.LBB1066:
.LBI1066:
	.loc 3 252 9 is_stmt 1 view .LVU534
.LBB1067:
.LBB1068:
.LBI1068:
	.loc 3 232 9 view .LVU535
.LBB1069:
	.loc 3 236 11 is_stmt 0 view .LVU536
	movq	%rax, %rsi
.LVL154:
	.loc 3 236 11 view .LVU537
	call	_ZNSt7__cxx1112basic_stringIcSt11char_traitsIcESaIcEE12_M_constructIPcEEvT_S7_St20forward_iterator_tag@PLT
.LVL155:
	.loc 3 236 11 view .LVU538
.LBE1069:
.LBE1068:
.LBE1067:
.LBE1066:
.LBE1047:
.LBE1046:
	.loc 1 32 1 view .LVU539
	movq	%rbx, %rax
	popq	%rbx
	.cfi_def_cfa_offset 8
.LVL156:
	.loc 1 32 1 view .LVU540
	ret
	.cfi_endproc
.LFE1060:
	.size	_ZNK3mpp6Header8getValueB5cxx11Ev, .-_ZNK3mpp6Header8getValueB5cxx11Ev
	.align 2
	.globl	_ZN3mpp6HeaderC2ERKS0_
	.type	_ZN3mpp6HeaderC2ERKS0_, @function
_ZN3mpp6HeaderC2ERKS0_:
.LVL157:
.LFB1062:
	.loc 1 38 1 is_stmt 1 view -0
	.cfi_startproc
	.cfi_personality 0x9b,DW.ref.__gxx_personality_v0
	.cfi_lsda 0x1b,.LLSDA1062
	.loc 1 38 1 is_stmt 0 view .LVU542
	pushq	%r12
	.cfi_def_cfa_offset 16
	.cfi_offset 12, -16
	pushq	%rbp
	.cfi_def_cfa_offset 24
	.cfi_offset 6, -24
	pushq	%rbx
	.cfi_def_cfa_offset 32
	.cfi_offset 3, -32
	movq	%rdi, %rbx
	movq	%rsi, %rbp
.LVL158:
.LBB1070:
.LBB1071:
.LBI1071:
	.loc 3 437 7 is_stmt 1 view .LVU543
.LBB1072:
.LBB1073:
.LBI1073:
	.loc 3 279 7 view .LVU544
	.loc 3 279 7 is_stmt 0 view .LVU545
.LBE1073:
.LBB1074:
.LBI1074:
	.loc 9 94 19 is_stmt 1 view .LVU546
.LBB1075:
.LBI1075:
	.loc 10 504 7 view .LVU547
.LBB1076:
.LBI1076:
	.loc 4 133 7 view .LVU548
.LBB1077:
.LBI1077:
	.loc 5 81 7 view .LVU549
	.loc 5 81 7 is_stmt 0 view .LVU550
.LBE1077:
.LBE1076:
.LBE1075:
.LBE1074:
.LBB1078:
.LBI1078:
	.loc 3 179 7 is_stmt 1 view .LVU551
.LBB1079:
	.loc 3 182 51 is_stmt 0 view .LVU552
	leaq	16(%rdi), %r12
.LVL159:
	.loc 3 182 51 view .LVU553
.LBE1079:
.LBE1078:
.LBB1080:
.LBI1080:
	.loc 3 148 2 is_stmt 1 view .LVU554
.LBB1081:
.LBB1082:
.LBI1082:
	.loc 2 99 5 view .LVU555
	.loc 2 99 5 is_stmt 0 view .LVU556
.LBE1082:
.LBB1083:
.LBI1083:
	.loc 4 133 7 is_stmt 1 view .LVU557
.LBB1084:
.LBI1084:
	.loc 5 81 7 view .LVU558
	.loc 5 81 7 is_stmt 0 view .LVU559
.LBE1084:
.LBE1083:
	.loc 3 149 46 view .LVU560
	movq	%r12, (%rdi)
.LVL160:
	.loc 3 149 46 view .LVU561
.LBE1081:
.LBE1080:
.LBB1085:
.LBI1085:
	.loc 4 139 7 is_stmt 1 view .LVU562
.LBB1086:
.LBI1086:
	.loc 5 86 7 view .LVU563
	.loc 5 86 7 is_stmt 0 view .LVU564
.LBE1086:
.LBE1085:
.LBB1087:
.LBI1087:
	.loc 3 175 7 is_stmt 1 view .LVU565
.LBB1088:
	.loc 3 176 28 is_stmt 0 view .LVU566
	movq	(%rsi), %rsi
.LVL161:
	.loc 3 176 28 view .LVU567
.LBE1088:
.LBE1087:
.LBB1089:
.LBI1089:
	.loc 3 927 7 is_stmt 1 view .LVU568
	.loc 3 927 7 is_stmt 0 view .LVU569
.LBE1089:
	.loc 3 440 9 view .LVU570
	movq	%rsi, %rdx
	addq	8(%rbp), %rdx
.LVL162:
.LBB1090:
.LBI1090:
	.loc 3 175 7 is_stmt 1 view .LVU571
	.loc 3 175 7 is_stmt 0 view .LVU572
.LBE1090:
.LBB1091:
.LBI1091:
	.loc 3 252 9 is_stmt 1 view .LVU573
.LBB1092:
.LBB1093:
.LBI1093:
	.loc 3 232 9 view .LVU574
.LEHB3:
.LBB1094:
	.loc 3 236 11 is_stmt 0 view .LVU575
	call	_ZNSt7__cxx1112basic_stringIcSt11char_traitsIcESaIcEE12_M_constructIPcEEvT_S7_St20forward_iterator_tag@PLT
.LVL163:
.LEHE3:
	.loc 3 236 11 view .LVU576
.LBE1094:
.LBE1093:
.LBE1092:
.LBE1091:
.LBE1072:
.LBE1071:
	.loc 1 38 88 view .LVU577
	leaq	32(%rbx), %rdi
.LVL164:
.LBB1095:
.LBI1095:
	.loc 3 437 7 is_stmt 1 view .LVU578
.LBB1096:
.LBB1097:
.LBI1097:
	.loc 3 279 7 view .LVU579
	.loc 3 279 7 is_stmt 0 view .LVU580
.LBE1097:
.LBB1098:
.LBI1098:
	.loc 9 94 19 is_stmt 1 view .LVU581
.LBB1099:
.LBI1099:
	.loc 10 504 7 view .LVU582
.LBB1100:
.LBI1100:
	.loc 4 133 7 view .LVU583
.LBB1101:
.LBI1101:
	.loc 5 81 7 view .LVU584
	.loc 5 81 7 is_stmt 0 view .LVU585
.LBE1101:
.LBE1100:
.LBE1099:
.LBE1098:
.LBB1102:
.LBI1102:
	.loc 3 179 7 is_stmt 1 view .LVU586
.LBB1103:
	.loc 3 182 51 is_stmt 0 view .LVU587
	leaq	48(%rbx), %rax
.LVL165:
	.loc 3 182 51 view .LVU588
.LBE1103:
.LBE1102:
.LBB1104:
.LBI1104:
	.loc 3 148 2 is_stmt 1 view .LVU589
.LBB1105:
.LBB1106:
.LBI1106:
	.loc 2 99 5 view .LVU590
	.loc 2 99 5 is_stmt 0 view .LVU591
.LBE1106:
.LBB1107:
.LBI1107:
	.loc 4 133 7 is_stmt 1 view .LVU592
.LBB1108:
.LBI1108:
	.loc 5 81 7 view .LVU593
	.loc 5 81 7 is_stmt 0 view .LVU594
.LBE1108:
.LBE1107:
	.loc 3 149 46 view .LVU595
	movq	%rax, 32(%rbx)
.LVL166:
	.loc 3 149 46 view .LVU596
.LBE1105:
.LBE1104:
.LBB1109:
.LBI1109:
	.loc 4 139 7 is_stmt 1 view .LVU597
.LBB1110:
.LBI1110:
	.loc 5 86 7 view .LVU598
	.loc 5 86 7 is_stmt 0 view .LVU599
.LBE1110:
.LBE1109:
.LBB1111:
.LBI1111:
	.loc 3 175 7 is_stmt 1 view .LVU600
.LBB1112:
	.loc 3 176 28 is_stmt 0 view .LVU601
	movq	32(%rbp), %rsi
.LVL167:
	.loc 3 176 28 view .LVU602
.LBE1112:
.LBE1111:
.LBB1113:
.LBI1113:
	.loc 3 927 7 is_stmt 1 view .LVU603
	.loc 3 927 7 is_stmt 0 view .LVU604
.LBE1113:
	.loc 3 440 9 view .LVU605
	movq	%rsi, %rdx
	addq	40(%rbp), %rdx
.LVL168:
.LBB1114:
.LBI1114:
	.loc 3 175 7 is_stmt 1 view .LVU606
	.loc 3 175 7 is_stmt 0 view .LVU607
.LBE1114:
.LBB1115:
.LBI1115:
	.loc 3 252 9 is_stmt 1 view .LVU608
.LBB1116:
.LBB1117:
.LBI1117:
	.loc 3 232 9 view .LVU609
.LEHB4:
.LBB1118:
	.loc 3 236 11 is_stmt 0 view .LVU610
	call	_ZNSt7__cxx1112basic_stringIcSt11char_traitsIcESaIcEE12_M_constructIPcEEvT_S7_St20forward_iterator_tag@PLT
.LVL169:
.LEHE4:
	.loc 3 236 11 view .LVU611
	jmp	.L51
.L48:
	movq	%rax, %rbp
.LVL170:
	.loc 3 236 11 view .LVU612
.LBE1118:
.LBE1117:
.LBE1116:
.LBE1115:
.LBE1096:
.LBE1095:
.LBB1119:
.LBI1119:
	.loc 3 656 7 is_stmt 1 view .LVU613
.LBB1120:
.LBI1120:
	.loc 3 218 7 view .LVU614
.LBB1121:
.LBB1122:
.LBI1122:
	.loc 3 210 7 view .LVU615
.LBB1123:
.LBI1123:
	.loc 3 175 7 view .LVU616
.LBB1124:
	.loc 3 176 28 is_stmt 0 view .LVU617
	movq	(%rbx), %rdi
.LVL171:
	.loc 3 176 28 view .LVU618
.LBE1124:
.LBE1123:
.LBE1122:
	.loc 3 220 2 view .LVU619
	cmpq	%rdi, %r12
	je	.L47
.LVL172:
.LBB1125:
.LBI1125:
	.loc 3 225 7 is_stmt 1 view .LVU620
.LBB1126:
.LBI1126:
	.loc 10 461 7 view .LVU621
.LBB1127:
.LBI1127:
	.loc 5 116 7 view .LVU622
.LBB1128:
	.loc 5 125 19 is_stmt 0 view .LVU623
	call	_ZdlPv@PLT
.LVL173:
.L47:
	.loc 5 125 19 view .LVU624
.LBE1128:
.LBE1127:
.LBE1126:
.LBE1125:
.LBE1121:
.LBE1120:
.LBB1129:
.LBI1129:
	.loc 3 139 14 is_stmt 1 view .LVU625
.LBB1130:
.LBI1130:
	.loc 4 139 7 view .LVU626
.LBB1131:
.LBI1131:
	.loc 5 86 7 view .LVU627
	.loc 5 86 7 is_stmt 0 view .LVU628
	movq	%rbp, %rdi
.LEHB5:
	call	_Unwind_Resume@PLT
.LVL174:
.LEHE5:
.L51:
	.loc 5 86 7 view .LVU629
.LBE1131:
.LBE1130:
.LBE1129:
.LBE1119:
.LBE1070:
	.loc 1 40 1 view .LVU630
	popq	%rbx
	.cfi_def_cfa_offset 24
.LVL175:
	.loc 1 40 1 view .LVU631
	popq	%rbp
	.cfi_def_cfa_offset 16
.LVL176:
	.loc 1 40 1 view .LVU632
	popq	%r12
	.cfi_def_cfa_offset 8
.LVL177:
	.loc 1 40 1 view .LVU633
	ret
	.cfi_endproc
.LFE1062:
	.section	.gcc_except_table
.LLSDA1062:
	.byte	0xff
	.byte	0xff
	.byte	0x1
	.uleb128 .LLSDACSE1062-.LLSDACSB1062
.LLSDACSB1062:
	.uleb128 .LEHB3-.LFB1062
	.uleb128 .LEHE3-.LEHB3
	.uleb128 0
	.uleb128 0
	.uleb128 .LEHB4-.LFB1062
	.uleb128 .LEHE4-.LEHB4
	.uleb128 .L48-.LFB1062
	.uleb128 0
	.uleb128 .LEHB5-.LFB1062
	.uleb128 .LEHE5-.LEHB5
	.uleb128 0
	.uleb128 0
.LLSDACSE1062:
	.text
	.size	_ZN3mpp6HeaderC2ERKS0_, .-_ZN3mpp6HeaderC2ERKS0_
	.globl	_ZN3mpp6HeaderC1ERKS0_
	.set	_ZN3mpp6HeaderC1ERKS0_,_ZN3mpp6HeaderC2ERKS0_
.Letext0:
	.file 11 "/usr/include/c++/8/bits/stringfwd.h"
	.file 12 "/usr/include/c++/8/type_traits"
	.file 13 "/usr/include/c++/8/bits/stl_pair.h"
	.file 14 "/usr/include/c++/8/bits/cpp_type_traits.h"
	.file 15 "/usr/include/c++/8/bits/stl_iterator_base_types.h"
	.file 16 "/usr/include/c++/8/debug/debug.h"
	.file 17 "/usr/include/c++/8/cwchar"
	.file 18 "/usr/include/c++/8/x86_64-suse-linux/bits/c++config.h"
	.file 19 "/usr/include/c++/8/cstdint"
	.file 20 "/usr/include/c++/8/bits/exception_ptr.h"
	.file 21 "/usr/include/c++/8/new"
	.file 22 "/usr/include/c++/8/clocale"
	.file 23 "/usr/include/c++/8/cstdlib"
	.file 24 "/usr/include/c++/8/cstdio"
	.file 25 "/usr/include/c++/8/initializer_list"
	.file 26 "/usr/include/c++/8/bits/ptr_traits.h"
	.file 27 "/usr/include/c++/8/bits/predefined_ops.h"
	.file 28 "/usr/include/c++/8/ext/numeric_traits.h"
	.file 29 "/usr/include/c++/8/bits/stl_iterator.h"
	.file 30 "/usr/include/c++/8/ext/type_traits.h"
	.file 31 "/usr/lib64/gcc/x86_64-suse-linux/8/include/stddef.h"
	.file 32 "<built-in>"
	.file 33 "/usr/include/bits/types/wint_t.h"
	.file 34 "/usr/include/bits/types/__mbstate_t.h"
	.file 35 "/usr/include/bits/types/mbstate_t.h"
	.file 36 "/usr/include/bits/types/__FILE.h"
	.file 37 "/usr/include/libio.h"
	.file 38 "/usr/include/bits/types/FILE.h"
	.file 39 "/usr/include/wchar.h"
	.file 40 "/usr/include/bits/types/struct_tm.h"
	.file 41 "/usr/include/bits/types.h"
	.file 42 "/usr/include/bits/stdint-intn.h"
	.file 43 "/usr/include/bits/stdint-uintn.h"
	.file 44 "/usr/include/stdint.h"
	.file 45 "/usr/include/locale.h"
	.file 46 "/usr/include/time.h"
	.file 47 "/usr/include/stdlib.h"
	.file 48 "/usr/include/bits/stdlib-float.h"
	.file 49 "/usr/include/bits/stdlib-bsearch.h"
	.file 50 "/usr/include/_G_config.h"
	.file 51 "/usr/include/stdio.h"
	.file 52 "/usr/include/bits/sys_errlist.h"
	.file 53 "/usr/include/bits/stdio.h"
	.file 54 "/usr/include/errno.h"
	.file 55 "./hpp/mpp/Header.hpp"
	.file 56 "/usr/include/c++/8/bits/functexcept.h"
	.section	.data.rel.local.DW.ref.__gxx_personality_v0,"awG",@progbits,DW.ref.__gxx_personality_v0,comdat
	.align 8
	.type	DW.ref.__gxx_personality_v0, @object
	.size	DW.ref.__gxx_personality_v0, 8
DW.ref.__gxx_personality_v0:
	.quad	__gxx_personality_v0
	.ident	"GCC: (SUSE Linux) 8.2.1 20180831 [gcc-8-branch revision 264010]"
	.section	.note.GNU-stack,"",@progbits
