	.file	"HeaderFinder.cpp"
	.text
.Ltext0:
	.align 2
	.globl	_ZN3mpp8functors12HeaderFinderclENS_6HeaderE
	.type	_ZN3mpp8functors12HeaderFinderclENS_6HeaderE, @function
_ZN3mpp8functors12HeaderFinderclENS_6HeaderE:
.LVL0:
.LFB1446:
	.file 1 "cpp/functors/HeaderFinder.cpp"
	.loc 1 23 1 view -0
	.cfi_startproc
	.loc 1 23 1 is_stmt 0 view .LVU1
	pushq	%rbx
	.cfi_def_cfa_offset 16
	.cfi_offset 3, -16
	subq	$32, %rsp
	.cfi_def_cfa_offset 48
	movq	%rdi, %rbx
	.loc 1 24 2 is_stmt 1 view .LVU2
	.loc 1 24 18 is_stmt 0 view .LVU3
	movq	%rsp, %rdi
.LVL1:
	.loc 1 24 18 view .LVU4
	call	_ZNK3mpp6Header7getNameB5cxx11Ev
.LVL2:
.LBB575:
.LBI575:
	.file 2 "/usr/include/c++/8/bits/basic_string.h"
	.loc 2 6047 5 is_stmt 1 view .LVU5
.LBB576:
.LBB577:
.LBI577:
	.loc 2 921 7 view .LVU6
.LBB578:
	.loc 2 922 16 is_stmt 0 view .LVU7
	movq	8(%rsp), %rdx
.LVL3:
	.loc 2 922 16 view .LVU8
.LBE578:
.LBE577:
.LBB579:
.LBI579:
	.loc 2 921 7 is_stmt 1 view .LVU9
	.loc 2 921 7 is_stmt 0 view .LVU10
.LBE579:
	.loc 2 6050 8 view .LVU11
	cmpq	8(%rbx), %rdx
	je	.L9
	movl	$0, %ebx
.LVL4:
.L2:
	.loc 2 6050 8 view .LVU12
.LBE576:
.LBE575:
.LBB591:
.LBI591:
	.loc 2 656 7 is_stmt 1 view .LVU13
.LBB592:
.LBI592:
	.loc 2 218 7 view .LVU14
.LBB593:
.LBB594:
.LBI594:
	.loc 2 210 7 view .LVU15
.LBB595:
.LBI595:
	.loc 2 175 7 view .LVU16
.LBB596:
	.loc 2 176 28 is_stmt 0 view .LVU17
	movq	(%rsp), %rdi
.LVL5:
	.loc 2 176 28 view .LVU18
.LBE596:
.LBE595:
.LBB597:
.LBI597:
	.loc 2 189 7 is_stmt 1 view .LVU19
	.loc 2 189 7 is_stmt 0 view .LVU20
.LBE597:
.LBE594:
	.loc 2 220 2 view .LVU21
	leaq	16(%rsp), %rax
	cmpq	%rax, %rdi
	je	.L1
.LVL6:
.LBB598:
.LBI598:
	.loc 2 225 7 is_stmt 1 view .LVU22
.LBB599:
.LBI599:
	.file 3 "/usr/include/c++/8/bits/alloc_traits.h"
	.loc 3 461 7 view .LVU23
.LBB600:
.LBI600:
	.file 4 "/usr/include/c++/8/ext/new_allocator.h"
	.loc 4 116 7 view .LVU24
.LBB601:
	.loc 4 125 19 is_stmt 0 view .LVU25
	call	_ZdlPv
.LVL7:
	.loc 4 125 19 view .LVU26
.LBE601:
.LBE600:
.LBE599:
.LBE598:
.LBE593:
.LBE592:
.LBB602:
.LBI602:
	.loc 2 139 14 is_stmt 1 view .LVU27
.LBB603:
.LBI603:
	.file 5 "/usr/include/c++/8/bits/allocator.h"
	.loc 5 139 7 view .LVU28
.LBB604:
.LBI604:
	.loc 4 86 7 view .LVU29
.L1:
	.loc 4 86 7 is_stmt 0 view .LVU30
.LBE604:
.LBE603:
.LBE602:
.LBE591:
	.loc 1 25 1 view .LVU31
	movl	%ebx, %eax
	addq	$32, %rsp
	.cfi_remember_state
	.cfi_def_cfa_offset 16
	popq	%rbx
	.cfi_def_cfa_offset 8
	ret
.LVL8:
.L9:
	.cfi_restore_state
.LBB605:
.LBB590:
.LBB580:
.LBI580:
	.loc 2 2293 7 is_stmt 1 view .LVU32
.LBB581:
.LBI581:
	.loc 2 175 7 view .LVU33
.LBB582:
	.loc 2 176 28 is_stmt 0 view .LVU34
	movq	(%rbx), %rsi
.LVL9:
	.loc 2 176 28 view .LVU35
.LBE582:
.LBE581:
.LBE580:
.LBB583:
.LBI583:
	.loc 2 2293 7 is_stmt 1 view .LVU36
.LBB584:
.LBI584:
	.loc 2 175 7 view .LVU37
.LBB585:
	.loc 2 176 28 is_stmt 0 view .LVU38
	movq	(%rsp), %rdi
.LVL10:
	.loc 2 176 28 view .LVU39
.LBE585:
.LBE584:
.LBE583:
.LBB586:
.LBI586:
	.file 6 "/usr/include/c++/8/bits/char_traits.h"
	.loc 6 300 7 is_stmt 1 view .LVU40
.LBB587:
	.loc 6 303 2 view .LVU41
	.loc 6 308 2 view .LVU42
	testq	%rdx, %rdx
	je	.L6
	.loc 6 310 2 view .LVU43
	.loc 6 310 25 is_stmt 0 view .LVU44
	call	memcmp
.LVL11:
.L3:
	.loc 6 310 25 view .LVU45
.LBE587:
.LBE586:
	.loc 2 6050 8 view .LVU46
	testl	%eax, %eax
	jne	.L7
	movl	$1, %ebx
.LVL12:
	.loc 2 6050 8 view .LVU47
	jmp	.L2
.LVL13:
.L6:
.LBB589:
.LBB588:
	.loc 6 309 11 view .LVU48
	movl	$0, %eax
	jmp	.L3
.LVL14:
.L7:
	.loc 6 309 11 view .LVU49
.LBE588:
.LBE589:
	.loc 2 6050 8 view .LVU50
	movl	$0, %ebx
.LVL15:
	.loc 2 6050 8 view .LVU51
	jmp	.L2
.LBE590:
.LBE605:
	.cfi_endproc
.LFE1446:
	.size	_ZN3mpp8functors12HeaderFinderclENS_6HeaderE, .-_ZN3mpp8functors12HeaderFinderclENS_6HeaderE
	.align 2
	.globl	_ZN3mpp8functors12HeaderFinderC2EOS1_
	.type	_ZN3mpp8functors12HeaderFinderC2EOS1_, @function
_ZN3mpp8functors12HeaderFinderC2EOS1_:
.LVL16:
.LFB1453:
	.loc 1 54 1 is_stmt 1 view -0
	.cfi_startproc
.LBB606:
.LBI606:
	.file 7 "/usr/include/c++/8/bits/move.h"
	.loc 7 99 5 view .LVU53
	.loc 7 99 5 is_stmt 0 view .LVU54
.LBE606:
.LBB607:
.LBI607:
	.loc 2 541 7 is_stmt 1 view .LVU55
.LBB608:
.LBB609:
.LBI609:
	.loc 2 275 7 view .LVU56
	.loc 2 275 7 is_stmt 0 view .LVU57
.LBE609:
.LBB610:
.LBI610:
	.loc 7 99 5 is_stmt 1 view .LVU58
	.loc 7 99 5 is_stmt 0 view .LVU59
.LBE610:
.LBB611:
.LBI611:
	.loc 2 179 7 is_stmt 1 view .LVU60
.LBB612:
	.loc 2 182 51 is_stmt 0 view .LVU61
	leaq	16(%rdi), %rax
.LVL17:
	.loc 2 182 51 view .LVU62
.LBE612:
.LBE611:
.LBB613:
.LBI613:
	.loc 2 148 2 is_stmt 1 view .LVU63
.LBB614:
.LBB615:
.LBI615:
	.loc 7 99 5 view .LVU64
	.loc 7 99 5 is_stmt 0 view .LVU65
.LBE615:
.LBB616:
.LBI616:
	.loc 5 133 7 is_stmt 1 view .LVU66
.LBB617:
.LBI617:
	.loc 4 81 7 view .LVU67
	.loc 4 81 7 is_stmt 0 view .LVU68
.LBE617:
.LBE616:
	.loc 2 149 46 view .LVU69
	movq	%rax, (%rdi)
.LVL18:
	.loc 2 149 46 view .LVU70
.LBE614:
.LBE613:
.LBB618:
.LBI618:
	.loc 2 210 7 is_stmt 1 view .LVU71
.LBB619:
.LBI619:
	.loc 2 175 7 view .LVU72
.LBB620:
	.loc 2 176 28 is_stmt 0 view .LVU73
	movq	(%rsi), %rdx
.LVL19:
	.loc 2 176 28 view .LVU74
.LBE620:
.LBE619:
.LBB621:
.LBI621:
	.loc 2 189 7 is_stmt 1 view .LVU75
.LBB622:
	.loc 2 192 57 is_stmt 0 view .LVU76
	leaq	16(%rsi), %rax
.LVL20:
	.loc 2 192 57 view .LVU77
.LBE622:
.LBE621:
.LBE618:
	.loc 2 544 2 view .LVU78
	cmpq	%rax, %rdx
	je	.L13
.LVL21:
.LBB623:
.LBI623:
	.loc 2 175 7 is_stmt 1 view .LVU79
	.loc 2 175 7 is_stmt 0 view .LVU80
.LBE623:
.LBB624:
.LBI624:
	.loc 2 167 7 is_stmt 1 view .LVU81
.LBB625:
	.loc 2 168 9 is_stmt 0 view .LVU82
	movq	%rdx, (%rdi)
.LVL22:
	.loc 2 168 9 view .LVU83
.LBE625:
.LBE624:
	.loc 2 552 6 view .LVU84
	movq	16(%rsi), %rdx
.LVL23:
.LBB626:
.LBI626:
	.loc 2 199 7 is_stmt 1 view .LVU85
.LBB627:
	.loc 2 200 9 is_stmt 0 view .LVU86
	movq	%rdx, 16(%rdi)
.LVL24:
.L12:
	.loc 2 200 9 view .LVU87
.LBE627:
.LBE626:
.LBB628:
.LBI628:
	.loc 2 927 7 is_stmt 1 view .LVU88
.LBB629:
	.loc 2 928 16 is_stmt 0 view .LVU89
	movq	8(%rsi), %rdx
.LVL25:
	.loc 2 928 16 view .LVU90
.LBE629:
.LBE628:
.LBB630:
.LBI630:
	.loc 2 171 7 is_stmt 1 view .LVU91
.LBB631:
	.loc 2 172 9 is_stmt 0 view .LVU92
	movq	%rdx, 8(%rdi)
.LVL26:
	.loc 2 172 9 view .LVU93
.LBE631:
.LBE630:
.LBB632:
.LBI632:
	.loc 2 179 7 is_stmt 1 view .LVU94
	.loc 2 179 7 is_stmt 0 view .LVU95
.LBE632:
.LBB633:
.LBI633:
	.loc 2 167 7 is_stmt 1 view .LVU96
.LBB634:
	.loc 2 168 9 is_stmt 0 view .LVU97
	movq	%rax, (%rsi)
.LVL27:
	.loc 2 168 9 view .LVU98
.LBE634:
.LBE633:
.LBB635:
.LBI635:
	.loc 2 203 7 is_stmt 1 view .LVU99
.LBB636:
.LBI636:
	.loc 2 171 7 view .LVU100
.LBB637:
	.loc 2 172 9 is_stmt 0 view .LVU101
	movq	$0, 8(%rsi)
.LVL28:
	.loc 2 172 9 view .LVU102
.LBE637:
.LBE636:
.LBB638:
.LBI638:
	.loc 6 284 7 is_stmt 1 view .LVU103
.LBB639:
	.loc 6 285 9 view .LVU104
	.loc 6 285 14 is_stmt 0 view .LVU105
	movb	$0, 16(%rsi)
.LVL29:
	.loc 6 285 14 view .LVU106
.LBE639:
.LBE638:
.LBE635:
.LBE608:
.LBE607:
	.loc 1 56 1 view .LVU107
	ret
.LVL30:
.L13:
.LBB642:
.LBB641:
.LBB640:
.LBI640:
	.loc 6 346 7 is_stmt 1 view .LVU108
.LBE640:
.LBE641:
.LBE642:
	.loc 6 348 2 view .LVU109
	.loc 6 350 2 view .LVU110
	movdqu	16(%rsi), %xmm0
	movups	%xmm0, 16(%rdi)
	jmp	.L12
	.cfi_endproc
.LFE1453:
	.size	_ZN3mpp8functors12HeaderFinderC2EOS1_, .-_ZN3mpp8functors12HeaderFinderC2EOS1_
	.globl	_ZN3mpp8functors12HeaderFinderC1EOS1_
	.set	_ZN3mpp8functors12HeaderFinderC1EOS1_,_ZN3mpp8functors12HeaderFinderC2EOS1_
	.section	.rodata._ZNSt7__cxx1112basic_stringIcSt11char_traitsIcESaIcEE9_M_createERmm.str1.1,"aMS",@progbits,1
.LC0:
	.string	"basic_string::_M_create"
	.section	.text._ZNSt7__cxx1112basic_stringIcSt11char_traitsIcESaIcEE9_M_createERmm,"axG",@progbits,_ZNSt7__cxx1112basic_stringIcSt11char_traitsIcESaIcEE9_M_createERmm,comdat
	.align 2
	.weak	_ZNSt7__cxx1112basic_stringIcSt11char_traitsIcESaIcEE9_M_createERmm
	.type	_ZNSt7__cxx1112basic_stringIcSt11char_traitsIcESaIcEE9_M_createERmm, @function
_ZNSt7__cxx1112basic_stringIcSt11char_traitsIcESaIcEE9_M_createERmm:
.LVL31:
.LFB1869:
	.file 8 "/usr/include/c++/8/bits/basic_string.tcc"
	.loc 8 132 5 view -0
	.cfi_startproc
	.loc 8 132 5 is_stmt 0 view .LVU112
	subq	$8, %rsp
	.cfi_def_cfa_offset 16
	.loc 8 137 22 view .LVU113
	movq	(%rsi), %rax
	.loc 8 137 7 view .LVU114
	testq	%rax, %rax
	js	.L18
	.loc 8 143 7 view .LVU115
	cmpq	%rdx, %rax
	jbe	.L16
	.loc 8 143 57 discriminator 1 view .LVU116
	addq	%rdx, %rdx
.LVL32:
	.loc 8 143 39 discriminator 1 view .LVU117
	cmpq	%rdx, %rax
	jnb	.L16
	.loc 8 145 4 view .LVU118
	movq	%rdx, (%rsi)
	.loc 8 147 4 view .LVU119
	testq	%rdx, %rdx
	js	.L19
.L16:
	.loc 8 153 37 view .LVU120
	movq	(%rsi), %rdi
.LVL33:
	.loc 8 153 37 view .LVU121
	addq	$1, %rdi
.LVL34:
.LBB643:
.LBI643:
	.loc 3 435 7 is_stmt 1 view .LVU122
.LBB644:
.LBI644:
	.loc 4 99 7 view .LVU123
.LBB645:
	.loc 4 111 41 is_stmt 0 view .LVU124
	call	_Znwm
.LVL35:
	.loc 4 111 41 view .LVU125
.LBE645:
.LBE644:
.LBE643:
	.loc 8 154 5 view .LVU126
	addq	$8, %rsp
	.cfi_remember_state
	.cfi_def_cfa_offset 8
	ret
.LVL36:
.L18:
	.cfi_restore_state
	.loc 8 138 27 view .LVU127
	movl	$.LC0, %edi
.LVL37:
	.loc 8 138 27 view .LVU128
	call	_ZSt20__throw_length_errorPKc
.LVL38:
.L19:
	.loc 8 148 6 view .LVU129
	movabsq	$9223372036854775807, %rax
	movq	%rax, (%rsi)
	jmp	.L16
	.cfi_endproc
.LFE1869:
	.size	_ZNSt7__cxx1112basic_stringIcSt11char_traitsIcESaIcEE9_M_createERmm, .-_ZNSt7__cxx1112basic_stringIcSt11char_traitsIcESaIcEE9_M_createERmm
	.section	.rodata._ZNSt7__cxx1112basic_stringIcSt11char_traitsIcESaIcEE12_M_constructIPcEEvT_S7_St20forward_iterator_tag.str1.8,"aMS",@progbits,1
	.align 8
.LC1:
	.string	"basic_string::_M_construct null not valid"
	.section	.text._ZNSt7__cxx1112basic_stringIcSt11char_traitsIcESaIcEE12_M_constructIPcEEvT_S7_St20forward_iterator_tag,"axG",@progbits,_ZNSt7__cxx1112basic_stringIcSt11char_traitsIcESaIcEE12_M_constructIPcEEvT_S7_St20forward_iterator_tag,comdat
	.align 2
	.weak	_ZNSt7__cxx1112basic_stringIcSt11char_traitsIcESaIcEE12_M_constructIPcEEvT_S7_St20forward_iterator_tag
	.type	_ZNSt7__cxx1112basic_stringIcSt11char_traitsIcESaIcEE12_M_constructIPcEEvT_S7_St20forward_iterator_tag, @function
_ZNSt7__cxx1112basic_stringIcSt11char_traitsIcESaIcEE12_M_constructIPcEEvT_S7_St20forward_iterator_tag:
.LVL39:
.LFB1859:
	.loc 8 206 7 is_stmt 1 view -0
	.cfi_startproc
	.loc 8 206 7 is_stmt 0 view .LVU131
	pushq	%r12
	.cfi_def_cfa_offset 16
	.cfi_offset 12, -16
	pushq	%rbp
	.cfi_def_cfa_offset 24
	.cfi_offset 6, -24
	pushq	%rbx
	.cfi_def_cfa_offset 32
	.cfi_offset 3, -32
	subq	$16, %rsp
	.cfi_def_cfa_offset 48
	movq	%rdi, %rbp
	movq	%rsi, %r12
	.loc 8 211 42 view .LVU132
	testq	%rsi, %rsi
	je	.L26
.L21:
.LVL40:
.LBB646:
.LBI646:
	.file 9 "/usr/include/c++/8/bits/stl_iterator_base_funcs.h"
	.loc 9 138 5 is_stmt 1 view .LVU133
.LBB647:
.LBI647:
	.loc 9 98 5 view .LVU134
.LBB648:
	.loc 9 104 23 is_stmt 0 view .LVU135
	subq	%r12, %rdx
.LVL41:
	.loc 9 104 23 view .LVU136
	movq	%rdx, %rbx
.LVL42:
	.loc 9 104 23 view .LVU137
.LBE648:
.LBE647:
.LBE646:
	.loc 8 215 12 view .LVU138
	movq	%rdx, 8(%rsp)
	.loc 8 217 2 view .LVU139
	cmpq	$15, %rdx
	ja	.L27
.LVL43:
.L22:
.LBB649:
.LBI649:
	.loc 2 175 7 is_stmt 1 view .LVU140
.LBB650:
	.loc 2 176 28 is_stmt 0 view .LVU141
	movq	0(%rbp), %rdi
.LVL44:
	.loc 2 176 28 view .LVU142
.LBE650:
.LBE649:
.LBB651:
.LBI651:
	.loc 2 381 7 is_stmt 1 view .LVU143
.LBB652:
.LBI652:
	.loc 2 335 7 view .LVU144
.LBB653:
	.loc 2 337 2 is_stmt 0 view .LVU145
	cmpq	$1, %rbx
	je	.L28
.LVL45:
.LBB654:
.LBI654:
	.loc 6 346 7 is_stmt 1 view .LVU146
.LBB655:
	.loc 6 348 2 view .LVU147
	testq	%rbx, %rbx
	je	.L24
	.loc 6 350 2 view .LVU148
	.loc 6 350 49 is_stmt 0 view .LVU149
	movq	%rbx, %rdx
	movq	%r12, %rsi
	call	memcpy
.LVL46:
	.loc 6 350 49 view .LVU150
	jmp	.L24
.LVL47:
.L26:
	.loc 6 350 49 view .LVU151
.LBE655:
.LBE654:
.LBE653:
.LBE652:
.LBE651:
	.loc 8 211 42 discriminator 1 view .LVU152
	cmpq	%rdx, %rsi
	je	.L21
	.loc 8 212 28 view .LVU153
	movl	$.LC1, %edi
.LVL48:
	.loc 8 212 28 view .LVU154
	call	_ZSt19__throw_logic_errorPKc
.LVL49:
.L27:
	.loc 8 219 6 view .LVU155
	movl	$0, %edx
	leaq	8(%rsp), %rsi
.LVL50:
	.loc 8 219 6 view .LVU156
	movq	%rbp, %rdi
.LVL51:
	.loc 8 219 6 view .LVU157
	call	_ZNSt7__cxx1112basic_stringIcSt11char_traitsIcESaIcEE9_M_createERmm
.LVL52:
.LBB660:
.LBI660:
	.loc 2 167 7 is_stmt 1 view .LVU158
.LBB661:
	.loc 2 168 9 is_stmt 0 view .LVU159
	movq	%rax, 0(%rbp)
.LVL53:
	.loc 2 168 9 view .LVU160
.LBE661:
.LBE660:
	.loc 8 220 6 view .LVU161
	movq	8(%rsp), %rax
.LVL54:
.LBB662:
.LBI662:
	.loc 2 199 7 is_stmt 1 view .LVU162
.LBB663:
	.loc 2 200 9 is_stmt 0 view .LVU163
	movq	%rax, 16(%rbp)
	jmp	.L22
.LVL55:
.L28:
	.loc 2 200 9 view .LVU164
.LBE663:
.LBE662:
.LBB664:
.LBB659:
.LBB658:
.LBB656:
.LBI656:
	.loc 6 284 7 is_stmt 1 view .LVU165
.LBB657:
	.loc 6 285 9 view .LVU166
	.loc 6 285 16 is_stmt 0 view .LVU167
	movzbl	(%r12), %eax
	.loc 6 285 14 view .LVU168
	movb	%al, (%rdi)
.LVL56:
.L24:
	.loc 6 285 14 view .LVU169
.LBE657:
.LBE656:
.LBE658:
.LBE659:
.LBE664:
	.loc 8 232 2 view .LVU170
	movq	8(%rsp), %rax
.LVL57:
.LBB665:
.LBI665:
	.loc 2 203 7 is_stmt 1 view .LVU171
.LBB666:
.LBB667:
.LBI667:
	.loc 2 171 7 view .LVU172
.LBB668:
	.loc 2 172 9 is_stmt 0 view .LVU173
	movq	%rax, 8(%rbp)
.LVL58:
	.loc 2 172 9 view .LVU174
.LBE668:
.LBE667:
.LBB669:
.LBI669:
	.loc 2 175 7 is_stmt 1 view .LVU175
	.loc 2 175 7 is_stmt 0 view .LVU176
.LBE669:
	.loc 2 206 31 view .LVU177
	addq	0(%rbp), %rax
.LVL59:
.LBB670:
.LBI670:
	.loc 6 284 7 is_stmt 1 view .LVU178
.LBB671:
	.loc 6 285 9 view .LVU179
	.loc 6 285 14 is_stmt 0 view .LVU180
	movb	$0, (%rax)
.LVL60:
	.loc 6 285 14 view .LVU181
.LBE671:
.LBE670:
.LBE666:
.LBE665:
	.loc 8 233 7 view .LVU182
	addq	$16, %rsp
	.cfi_def_cfa_offset 32
	popq	%rbx
	.cfi_def_cfa_offset 24
	popq	%rbp
	.cfi_def_cfa_offset 16
.LVL61:
	.loc 8 233 7 view .LVU183
	popq	%r12
	.cfi_def_cfa_offset 8
.LVL62:
	.loc 8 233 7 view .LVU184
	ret
	.cfi_endproc
.LFE1859:
	.size	_ZNSt7__cxx1112basic_stringIcSt11char_traitsIcESaIcEE12_M_constructIPcEEvT_S7_St20forward_iterator_tag, .-_ZNSt7__cxx1112basic_stringIcSt11char_traitsIcESaIcEE12_M_constructIPcEEvT_S7_St20forward_iterator_tag
	.text
	.align 2
	.globl	_ZN3mpp8functors12HeaderFinderC2ENSt7__cxx1112basic_stringIcSt11char_traitsIcESaIcEEE
	.type	_ZN3mpp8functors12HeaderFinderC2ENSt7__cxx1112basic_stringIcSt11char_traitsIcESaIcEEE, @function
_ZN3mpp8functors12HeaderFinderC2ENSt7__cxx1112basic_stringIcSt11char_traitsIcESaIcEEE:
.LVL63:
.LFB1444:
	.loc 1 13 1 is_stmt 1 view -0
	.cfi_startproc
	.loc 1 13 1 is_stmt 0 view .LVU186
	subq	$8, %rsp
	.cfi_def_cfa_offset 16
.LVL64:
.LBB672:
.LBB673:
.LBI673:
	.loc 2 437 7 is_stmt 1 view .LVU187
.LBB674:
.LBB675:
.LBI675:
	.loc 2 279 7 view .LVU188
	.loc 2 279 7 is_stmt 0 view .LVU189
.LBE675:
.LBB676:
.LBI676:
	.file 10 "/usr/include/c++/8/ext/alloc_traits.h"
	.loc 10 94 19 is_stmt 1 view .LVU190
.LBB677:
.LBI677:
	.loc 3 504 7 view .LVU191
.LBB678:
.LBI678:
	.loc 5 133 7 view .LVU192
.LBB679:
.LBI679:
	.loc 4 81 7 view .LVU193
	.loc 4 81 7 is_stmt 0 view .LVU194
.LBE679:
.LBE678:
.LBE677:
.LBE676:
.LBB680:
.LBI680:
	.loc 2 179 7 is_stmt 1 view .LVU195
.LBB681:
	.loc 2 182 51 is_stmt 0 view .LVU196
	leaq	16(%rdi), %rax
.LVL65:
	.loc 2 182 51 view .LVU197
.LBE681:
.LBE680:
.LBB682:
.LBI682:
	.loc 2 148 2 is_stmt 1 view .LVU198
.LBB683:
.LBB684:
.LBI684:
	.loc 7 99 5 view .LVU199
	.loc 7 99 5 is_stmt 0 view .LVU200
.LBE684:
.LBB685:
.LBI685:
	.loc 5 133 7 is_stmt 1 view .LVU201
.LBB686:
.LBI686:
	.loc 4 81 7 view .LVU202
	.loc 4 81 7 is_stmt 0 view .LVU203
.LBE686:
.LBE685:
	.loc 2 149 46 view .LVU204
	movq	%rax, (%rdi)
.LVL66:
	.loc 2 149 46 view .LVU205
.LBE683:
.LBE682:
.LBB687:
.LBI687:
	.loc 5 139 7 is_stmt 1 view .LVU206
.LBB688:
.LBI688:
	.loc 4 86 7 view .LVU207
	.loc 4 86 7 is_stmt 0 view .LVU208
.LBE688:
.LBE687:
.LBB689:
.LBI689:
	.loc 2 175 7 is_stmt 1 view .LVU209
.LBB690:
	.loc 2 176 28 is_stmt 0 view .LVU210
	movq	(%rsi), %rax
.LVL67:
	.loc 2 176 28 view .LVU211
.LBE690:
.LBE689:
.LBB691:
.LBI691:
	.loc 2 927 7 is_stmt 1 view .LVU212
	.loc 2 927 7 is_stmt 0 view .LVU213
.LBE691:
	.loc 2 440 9 view .LVU214
	movq	%rax, %rdx
	addq	8(%rsi), %rdx
.LVL68:
.LBB692:
.LBI692:
	.loc 2 175 7 is_stmt 1 view .LVU215
	.loc 2 175 7 is_stmt 0 view .LVU216
.LBE692:
.LBB693:
.LBI693:
	.loc 2 252 9 is_stmt 1 view .LVU217
.LBB694:
.LBB695:
.LBI695:
	.loc 2 232 9 view .LVU218
.LBB696:
	.loc 2 236 11 is_stmt 0 view .LVU219
	movq	%rax, %rsi
.LVL69:
	.loc 2 236 11 view .LVU220
	call	_ZNSt7__cxx1112basic_stringIcSt11char_traitsIcESaIcEE12_M_constructIPcEEvT_S7_St20forward_iterator_tag
.LVL70:
	.loc 2 236 11 view .LVU221
.LBE696:
.LBE695:
.LBE694:
.LBE693:
.LBE674:
.LBE673:
.LBE672:
	.loc 1 15 1 view .LVU222
	addq	$8, %rsp
	.cfi_def_cfa_offset 8
	ret
	.cfi_endproc
.LFE1444:
	.size	_ZN3mpp8functors12HeaderFinderC2ENSt7__cxx1112basic_stringIcSt11char_traitsIcESaIcEEE, .-_ZN3mpp8functors12HeaderFinderC2ENSt7__cxx1112basic_stringIcSt11char_traitsIcESaIcEEE
	.globl	_ZN3mpp8functors12HeaderFinderC1ENSt7__cxx1112basic_stringIcSt11char_traitsIcESaIcEEE
	.set	_ZN3mpp8functors12HeaderFinderC1ENSt7__cxx1112basic_stringIcSt11char_traitsIcESaIcEEE,_ZN3mpp8functors12HeaderFinderC2ENSt7__cxx1112basic_stringIcSt11char_traitsIcESaIcEEE
	.align 2
	.globl	_ZN3mpp8functors12HeaderFinderC2ERKS1_
	.type	_ZN3mpp8functors12HeaderFinderC2ERKS1_, @function
_ZN3mpp8functors12HeaderFinderC2ERKS1_:
.LVL71:
.LFB1448:
	.loc 1 31 1 is_stmt 1 view -0
	.cfi_startproc
	.loc 1 31 1 is_stmt 0 view .LVU224
	subq	$8, %rsp
	.cfi_def_cfa_offset 16
.LVL72:
.LBB697:
.LBB698:
.LBI698:
	.loc 2 437 7 is_stmt 1 view .LVU225
.LBB699:
.LBB700:
.LBI700:
	.loc 2 279 7 view .LVU226
	.loc 2 279 7 is_stmt 0 view .LVU227
.LBE700:
.LBB701:
.LBI701:
	.loc 10 94 19 is_stmt 1 view .LVU228
.LBB702:
.LBI702:
	.loc 3 504 7 view .LVU229
.LBB703:
.LBI703:
	.loc 5 133 7 view .LVU230
.LBB704:
.LBI704:
	.loc 4 81 7 view .LVU231
	.loc 4 81 7 is_stmt 0 view .LVU232
.LBE704:
.LBE703:
.LBE702:
.LBE701:
.LBB705:
.LBI705:
	.loc 2 179 7 is_stmt 1 view .LVU233
.LBB706:
	.loc 2 182 51 is_stmt 0 view .LVU234
	leaq	16(%rdi), %rax
.LVL73:
	.loc 2 182 51 view .LVU235
.LBE706:
.LBE705:
.LBB707:
.LBI707:
	.loc 2 148 2 is_stmt 1 view .LVU236
.LBB708:
.LBB709:
.LBI709:
	.loc 7 99 5 view .LVU237
	.loc 7 99 5 is_stmt 0 view .LVU238
.LBE709:
.LBB710:
.LBI710:
	.loc 5 133 7 is_stmt 1 view .LVU239
.LBB711:
.LBI711:
	.loc 4 81 7 view .LVU240
	.loc 4 81 7 is_stmt 0 view .LVU241
.LBE711:
.LBE710:
	.loc 2 149 46 view .LVU242
	movq	%rax, (%rdi)
.LVL74:
	.loc 2 149 46 view .LVU243
.LBE708:
.LBE707:
.LBB712:
.LBI712:
	.loc 5 139 7 is_stmt 1 view .LVU244
.LBB713:
.LBI713:
	.loc 4 86 7 view .LVU245
	.loc 4 86 7 is_stmt 0 view .LVU246
.LBE713:
.LBE712:
.LBB714:
.LBI714:
	.loc 2 175 7 is_stmt 1 view .LVU247
.LBB715:
	.loc 2 176 28 is_stmt 0 view .LVU248
	movq	(%rsi), %rax
.LVL75:
	.loc 2 176 28 view .LVU249
.LBE715:
.LBE714:
.LBB716:
.LBI716:
	.loc 2 927 7 is_stmt 1 view .LVU250
	.loc 2 927 7 is_stmt 0 view .LVU251
.LBE716:
	.loc 2 440 9 view .LVU252
	movq	%rax, %rdx
	addq	8(%rsi), %rdx
.LVL76:
.LBB717:
.LBI717:
	.loc 2 175 7 is_stmt 1 view .LVU253
	.loc 2 175 7 is_stmt 0 view .LVU254
.LBE717:
.LBB718:
.LBI718:
	.loc 2 252 9 is_stmt 1 view .LVU255
.LBB719:
.LBB720:
.LBI720:
	.loc 2 232 9 view .LVU256
.LBB721:
	.loc 2 236 11 is_stmt 0 view .LVU257
	movq	%rax, %rsi
.LVL77:
	.loc 2 236 11 view .LVU258
	call	_ZNSt7__cxx1112basic_stringIcSt11char_traitsIcESaIcEE12_M_constructIPcEEvT_S7_St20forward_iterator_tag
.LVL78:
	.loc 2 236 11 view .LVU259
.LBE721:
.LBE720:
.LBE719:
.LBE718:
.LBE699:
.LBE698:
.LBE697:
	.loc 1 33 1 view .LVU260
	addq	$8, %rsp
	.cfi_def_cfa_offset 8
	ret
	.cfi_endproc
.LFE1448:
	.size	_ZN3mpp8functors12HeaderFinderC2ERKS1_, .-_ZN3mpp8functors12HeaderFinderC2ERKS1_
	.globl	_ZN3mpp8functors12HeaderFinderC1ERKS1_
	.set	_ZN3mpp8functors12HeaderFinderC1ERKS1_,_ZN3mpp8functors12HeaderFinderC2ERKS1_
	.section	.text._ZNSt7__cxx1112basic_stringIcSt11char_traitsIcESaIcEE9_M_assignERKS4_,"axG",@progbits,_ZNSt7__cxx1112basic_stringIcSt11char_traitsIcESaIcEE9_M_assignERKS4_,comdat
	.align 2
	.weak	_ZNSt7__cxx1112basic_stringIcSt11char_traitsIcESaIcEE9_M_assignERKS4_
	.type	_ZNSt7__cxx1112basic_stringIcSt11char_traitsIcESaIcEE9_M_assignERKS4_, @function
_ZNSt7__cxx1112basic_stringIcSt11char_traitsIcESaIcEE9_M_assignERKS4_:
.LVL79:
.LFB1822:
	.loc 8 254 5 is_stmt 1 view -0
	.cfi_startproc
.LBB722:
	.loc 8 257 7 is_stmt 0 view .LVU262
	cmpq	%rsi, %rdi
	je	.L42
.LBE722:
	.loc 8 254 5 view .LVU263
	pushq	%r14
	.cfi_def_cfa_offset 16
	.cfi_offset 14, -16
	pushq	%r13
	.cfi_def_cfa_offset 24
	.cfi_offset 13, -24
	pushq	%r12
	.cfi_def_cfa_offset 32
	.cfi_offset 12, -32
	pushq	%rbp
	.cfi_def_cfa_offset 40
	.cfi_offset 6, -40
	pushq	%rbx
	.cfi_def_cfa_offset 48
	.cfi_offset 3, -48
	subq	$16, %rsp
	.cfi_def_cfa_offset 64
.LVL80:
.LBB770:
.LBB723:
.LBB724:
.LBI724:
	.loc 2 927 7 is_stmt 1 view .LVU264
.LBB725:
	.loc 2 928 16 is_stmt 0 view .LVU265
	movq	8(%rsi), %rbp
.LVL81:
	.loc 2 928 16 view .LVU266
.LBE725:
.LBE724:
.LBB726:
.LBI726:
	.loc 2 984 7 is_stmt 1 view .LVU267
.LBB727:
.LBB728:
.LBI728:
	.loc 2 210 7 view .LVU268
.LBB729:
.LBI729:
	.loc 2 175 7 view .LVU269
	.loc 2 175 7 is_stmt 0 view .LVU270
.LBE729:
.LBB730:
.LBI730:
	.loc 2 189 7 is_stmt 1 view .LVU271
.LBB731:
	.loc 2 192 57 is_stmt 0 view .LVU272
	leaq	16(%rdi), %r13
.LVL82:
	.loc 2 192 57 view .LVU273
.LBE731:
.LBE730:
.LBE728:
	.loc 2 986 23 view .LVU274
	cmpq	(%rdi), %r13
	je	.L40
	movq	16(%rdi), %rdx
.L35:
	movq	%rsi, %r12
	movq	%rdi, %rbx
.LVL83:
	.loc 2 986 23 view .LVU275
.LBE727:
.LBE726:
.LBB733:
	.loc 8 262 4 view .LVU276
	cmpq	%rbp, %rdx
	jb	.L45
.LVL84:
.L36:
	.loc 8 262 4 view .LVU277
.LBE733:
	.loc 8 271 4 view .LVU278
	testq	%rbp, %rbp
	je	.L38
.LVL85:
.LBB748:
.LBI748:
	.loc 2 175 7 is_stmt 1 view .LVU279
.LBB749:
	.loc 2 176 28 is_stmt 0 view .LVU280
	movq	(%r12), %rsi
.LVL86:
	.loc 2 176 28 view .LVU281
.LBE749:
.LBE748:
.LBB750:
.LBI750:
	.loc 2 175 7 is_stmt 1 view .LVU282
.LBB751:
	.loc 2 176 28 is_stmt 0 view .LVU283
	movq	(%rbx), %rdi
.LVL87:
	.loc 2 176 28 view .LVU284
.LBE751:
.LBE750:
.LBB752:
.LBI752:
	.loc 2 335 7 is_stmt 1 view .LVU285
.LBB753:
	.loc 2 337 2 is_stmt 0 view .LVU286
	cmpq	$1, %rbp
	je	.L46
.LVL88:
.LBB754:
.LBI754:
	.loc 6 346 7 is_stmt 1 view .LVU287
.LBB755:
	.loc 6 348 2 view .LVU288
	.loc 6 350 2 view .LVU289
	.loc 6 350 49 is_stmt 0 view .LVU290
	movq	%rbp, %rdx
	call	memcpy
.LVL89:
.L38:
	.loc 6 350 49 view .LVU291
.LBE755:
.LBE754:
.LBE753:
.LBE752:
.LBB759:
.LBI759:
	.loc 2 203 7 is_stmt 1 view .LVU292
.LBB760:
.LBB761:
.LBI761:
	.loc 2 171 7 view .LVU293
.LBB762:
	.loc 2 172 9 is_stmt 0 view .LVU294
	movq	%rbp, 8(%rbx)
.LVL90:
	.loc 2 172 9 view .LVU295
.LBE762:
.LBE761:
.LBB763:
.LBI763:
	.loc 2 175 7 is_stmt 1 view .LVU296
	.loc 2 175 7 is_stmt 0 view .LVU297
.LBE763:
	.loc 2 206 31 view .LVU298
	movq	%rbp, %rdx
	addq	(%rbx), %rdx
.LVL91:
.LBB764:
.LBI764:
	.loc 6 284 7 is_stmt 1 view .LVU299
.LBB765:
	.loc 6 285 9 view .LVU300
	.loc 6 285 14 is_stmt 0 view .LVU301
	movb	$0, (%rdx)
.LVL92:
	.loc 6 285 14 view .LVU302
.LBE765:
.LBE764:
.LBE760:
.LBE759:
.LBE723:
.LBE770:
	.loc 8 276 5 view .LVU303
	addq	$16, %rsp
	.cfi_remember_state
	.cfi_def_cfa_offset 48
	popq	%rbx
	.cfi_def_cfa_offset 40
.LVL93:
	.loc 8 276 5 view .LVU304
	popq	%rbp
	.cfi_def_cfa_offset 32
.LVL94:
	.loc 8 276 5 view .LVU305
	popq	%r12
	.cfi_def_cfa_offset 24
.LVL95:
	.loc 8 276 5 view .LVU306
	popq	%r13
	.cfi_def_cfa_offset 16
.LVL96:
	.loc 8 276 5 view .LVU307
	popq	%r14
	.cfi_def_cfa_offset 8
	ret
.LVL97:
.L40:
	.cfi_restore_state
.LBB771:
.LBB769:
.LBB766:
.LBB732:
	.loc 2 986 23 view .LVU308
	movl	$15, %edx
	jmp	.L35
.LVL98:
.L45:
	.loc 2 986 23 view .LVU309
.LBE732:
.LBE766:
.LBB767:
.LBB734:
	.loc 8 264 18 view .LVU310
	movq	%rbp, 8(%rsp)
	.loc 8 265 16 view .LVU311
	leaq	8(%rsp), %rsi
.LVL99:
	.loc 8 265 16 view .LVU312
	call	_ZNSt7__cxx1112basic_stringIcSt11char_traitsIcESaIcEE9_M_createERmm
.LVL100:
	.loc 8 265 16 view .LVU313
	movq	%rax, %r14
.LVL101:
.LBB735:
.LBI735:
	.loc 2 218 7 is_stmt 1 view .LVU314
.LBB736:
.LBB737:
.LBI737:
	.loc 2 210 7 view .LVU315
.LBB738:
.LBI738:
	.loc 2 175 7 view .LVU316
.LBB739:
	.loc 2 176 28 is_stmt 0 view .LVU317
	movq	(%rbx), %rdi
.LVL102:
	.loc 2 176 28 view .LVU318
.LBE739:
.LBE738:
.LBE737:
	.loc 2 220 2 view .LVU319
	cmpq	%rdi, %r13
	je	.L37
.LVL103:
.LBB740:
.LBI740:
	.loc 2 225 7 is_stmt 1 view .LVU320
.LBB741:
.LBI741:
	.loc 3 461 7 view .LVU321
.LBB742:
.LBI742:
	.loc 4 116 7 view .LVU322
.LBB743:
	.loc 4 125 19 is_stmt 0 view .LVU323
	call	_ZdlPv
.LVL104:
.L37:
	.loc 4 125 19 view .LVU324
.LBE743:
.LBE742:
.LBE741:
.LBE740:
.LBE736:
.LBE735:
.LBB744:
.LBI744:
	.loc 2 167 7 is_stmt 1 view .LVU325
.LBB745:
	.loc 2 168 9 is_stmt 0 view .LVU326
	movq	%r14, (%rbx)
.LVL105:
	.loc 2 168 9 view .LVU327
.LBE745:
.LBE744:
	.loc 8 268 8 view .LVU328
	movq	8(%rsp), %rax
.LVL106:
.LBB746:
.LBI746:
	.loc 2 199 7 is_stmt 1 view .LVU329
.LBB747:
	.loc 2 200 9 is_stmt 0 view .LVU330
	movq	%rax, 16(%rbx)
.LVL107:
	.loc 2 200 9 view .LVU331
.LBE747:
.LBE746:
.LBE734:
	jmp	.L36
.LVL108:
.L46:
	.loc 2 200 9 view .LVU332
.LBE767:
.LBB768:
.LBB758:
.LBB756:
.LBI756:
	.loc 6 284 7 is_stmt 1 view .LVU333
.LBB757:
	.loc 6 285 9 view .LVU334
	.loc 6 285 16 is_stmt 0 view .LVU335
	movzbl	(%rsi), %eax
	.loc 6 285 14 view .LVU336
	movb	%al, (%rdi)
	jmp	.L38
.LVL109:
.L42:
	.cfi_def_cfa_offset 8
	.cfi_restore 3
	.cfi_restore 6
	.cfi_restore 12
	.cfi_restore 13
	.cfi_restore 14
	.loc 6 285 14 view .LVU337
	ret
.LBE757:
.LBE756:
.LBE758:
.LBE768:
.LBE769:
.LBE771:
	.cfi_endproc
.LFE1822:
	.size	_ZNSt7__cxx1112basic_stringIcSt11char_traitsIcESaIcEE9_M_assignERKS4_, .-_ZNSt7__cxx1112basic_stringIcSt11char_traitsIcESaIcEE9_M_assignERKS4_
	.text
	.align 2
	.globl	_ZN3mpp8functors12HeaderFinderaSERKS1_
	.type	_ZN3mpp8functors12HeaderFinderaSERKS1_, @function
_ZN3mpp8functors12HeaderFinderaSERKS1_:
.LVL110:
.LFB1450:
	.loc 1 41 1 is_stmt 1 view -0
	.cfi_startproc
	.loc 1 41 1 is_stmt 0 view .LVU339
	pushq	%rbx
	.cfi_def_cfa_offset 16
	.cfi_offset 3, -16
	movq	%rdi, %rbx
	.loc 1 42 2 is_stmt 1 view .LVU340
	cmpq	%rsi, %rdi
	je	.L48
	.loc 1 44 3 view .LVU341
.LVL111:
.LBB772:
.LBI772:
	.loc 2 664 7 view .LVU342
.LBB773:
.LBI773:
	.loc 2 1355 7 view .LVU343
.LBB774:
	.loc 2 1357 2 is_stmt 0 view .LVU344
	call	_ZNSt7__cxx1112basic_stringIcSt11char_traitsIcESaIcEE9_M_assignERKS4_
.LVL112:
.L48:
	.loc 2 1357 2 view .LVU345
.LBE774:
.LBE773:
.LBE772:
	.loc 1 47 2 is_stmt 1 view .LVU346
	.loc 1 48 1 is_stmt 0 view .LVU347
	movq	%rbx, %rax
	popq	%rbx
	.cfi_def_cfa_offset 8
.LVL113:
	.loc 1 48 1 view .LVU348
	ret
	.cfi_endproc
.LFE1450:
	.size	_ZN3mpp8functors12HeaderFinderaSERKS1_, .-_ZN3mpp8functors12HeaderFinderaSERKS1_
	.align 2
	.globl	_ZN3mpp8functors12HeaderFinderaSEOS1_
	.type	_ZN3mpp8functors12HeaderFinderaSEOS1_, @function
_ZN3mpp8functors12HeaderFinderaSEOS1_:
.LVL114:
.LFB1455:
	.loc 1 64 1 is_stmt 1 view -0
	.cfi_startproc
	.cfi_personality 0x3,__gxx_personality_v0
	.cfi_lsda 0x3,.LLSDA1455
	.loc 1 64 1 is_stmt 0 view .LVU350
	pushq	%rbp
	.cfi_def_cfa_offset 16
	.cfi_offset 6, -16
	pushq	%rbx
	.cfi_def_cfa_offset 24
	.cfi_offset 3, -24
	subq	$8, %rsp
	.cfi_def_cfa_offset 32
	movq	%rdi, %rbp
	.loc 1 65 2 is_stmt 1 view .LVU351
	cmpq	%rsi, %rdi
	je	.L51
	movq	%rsi, %rbx
	.loc 1 67 3 view .LVU352
.LVL115:
.LBB813:
.LBI813:
	.loc 2 732 7 view .LVU353
.LBB814:
.LBI814:
	.loc 2 210 7 view .LVU354
.LBB815:
.LBI815:
	.loc 2 175 7 view .LVU355
.LBB816:
	.loc 2 176 28 is_stmt 0 view .LVU356
	movq	(%rdi), %rax
.LVL116:
	.loc 2 176 28 view .LVU357
.LBE816:
.LBE815:
.LBB817:
.LBI817:
	.loc 2 189 7 is_stmt 1 view .LVU358
.LBB818:
	.loc 2 192 57 is_stmt 0 view .LVU359
	leaq	16(%rdi), %rsi
.LVL117:
	.loc 2 192 57 view .LVU360
.LBE818:
.LBE817:
.LBE814:
.LBB819:
.LBB820:
.LBI820:
	.loc 2 210 7 is_stmt 1 view .LVU361
.LBB821:
.LBI821:
	.loc 2 175 7 view .LVU362
.LBB822:
	.loc 2 176 28 is_stmt 0 view .LVU363
	movq	(%rbx), %rdx
.LVL118:
	.loc 2 176 28 view .LVU364
.LBE822:
.LBE821:
.LBB823:
.LBI823:
	.loc 2 189 7 is_stmt 1 view .LVU365
.LBB824:
	.loc 2 192 57 is_stmt 0 view .LVU366
	leaq	16(%rbx), %rcx
.LVL119:
	.loc 2 192 57 view .LVU367
.LBE824:
.LBE823:
.LBE820:
	.loc 2 747 2 view .LVU368
	cmpq	%rcx, %rdx
	je	.L52
.LVL120:
.LBB825:
	.loc 2 753 6 view .LVU369
	cmpq	%rsi, %rax
	je	.L56
.LVL121:
	.loc 2 758 7 view .LVU370
	movq	16(%rdi), %r8
.LVL122:
.L53:
.LBB826:
.LBI826:
	.loc 2 167 7 is_stmt 1 view .LVU371
.LBB827:
	.loc 2 168 9 is_stmt 0 view .LVU372
	movq	%rdx, 0(%rbp)
.LVL123:
	.loc 2 168 9 view .LVU373
.LBE827:
.LBE826:
.LBB828:
.LBI828:
	.loc 2 927 7 is_stmt 1 view .LVU374
.LBB829:
	.loc 2 928 16 is_stmt 0 view .LVU375
	movq	8(%rbx), %rdx
.LVL124:
	.loc 2 928 16 view .LVU376
.LBE829:
.LBE828:
.LBB830:
.LBI830:
	.loc 2 171 7 is_stmt 1 view .LVU377
.LBB831:
	.loc 2 172 9 is_stmt 0 view .LVU378
	movq	%rdx, 8(%rbp)
.LVL125:
	.loc 2 172 9 view .LVU379
.LBE831:
.LBE830:
	.loc 2 766 6 view .LVU380
	movq	16(%rbx), %rdx
.LVL126:
.LBB832:
.LBI832:
	.loc 2 199 7 is_stmt 1 view .LVU381
.LBB833:
	.loc 2 200 9 is_stmt 0 view .LVU382
	movq	%rdx, 16(%rbp)
.LVL127:
	.loc 2 200 9 view .LVU383
.LBE833:
.LBE832:
	.loc 2 767 6 view .LVU384
	testq	%rax, %rax
	je	.L54
.LVL128:
.LBB834:
.LBI834:
	.loc 2 167 7 is_stmt 1 view .LVU385
.LBB835:
	.loc 2 168 9 is_stmt 0 view .LVU386
	movq	%rax, (%rbx)
.LVL129:
	.loc 2 168 9 view .LVU387
.LBE835:
.LBE834:
.LBB836:
.LBI836:
	.loc 2 199 7 is_stmt 1 view .LVU388
.LBB837:
	.loc 2 200 9 is_stmt 0 view .LVU389
	movq	%r8, 16(%rbx)
.LVL130:
.L55:
	.loc 2 200 9 view .LVU390
.LBE837:
.LBE836:
.LBE825:
.LBE819:
.LBB843:
.LBI843:
	.loc 2 1014 7 is_stmt 1 view .LVU391
.LBB844:
.LBI844:
	.loc 2 203 7 view .LVU392
.LBB845:
.LBI845:
	.loc 2 171 7 view .LVU393
.LBB846:
	.loc 2 172 9 is_stmt 0 view .LVU394
	movq	$0, 8(%rbx)
.LVL131:
	.loc 2 172 9 view .LVU395
.LBE846:
.LBE845:
.LBB847:
.LBI847:
	.loc 2 175 7 is_stmt 1 view .LVU396
.LBB848:
	.loc 2 176 28 is_stmt 0 view .LVU397
	movq	(%rbx), %rax
.LVL132:
	.loc 2 176 28 view .LVU398
.LBE848:
.LBE847:
.LBB849:
.LBI849:
	.loc 6 284 7 is_stmt 1 view .LVU399
.LBB850:
	.loc 6 285 9 view .LVU400
	.loc 6 285 14 is_stmt 0 view .LVU401
	movb	$0, (%rax)
.LVL133:
.L51:
	.loc 6 285 14 view .LVU402
.LBE850:
.LBE849:
.LBE844:
.LBE843:
.LBE813:
	.loc 1 70 2 is_stmt 1 view .LVU403
	.loc 1 71 1 is_stmt 0 view .LVU404
	movq	%rbp, %rax
	addq	$8, %rsp
	.cfi_remember_state
	.cfi_def_cfa_offset 24
	popq	%rbx
	.cfi_def_cfa_offset 16
	popq	%rbp
	.cfi_def_cfa_offset 8
.LVL134:
	.loc 1 71 1 view .LVU405
	ret
.LVL135:
.L56:
	.cfi_restore_state
.LBB852:
.LBB851:
.LBB840:
	.loc 2 751 14 view .LVU406
	movl	$0, %eax
	jmp	.L53
.LVL136:
.L54:
.LBB838:
.LBI838:
	.loc 2 167 7 is_stmt 1 view .LVU407
.LBB839:
	.loc 2 168 9 is_stmt 0 view .LVU408
	movq	%rcx, (%rbx)
	jmp	.L55
.LVL137:
.L52:
	.loc 2 168 9 view .LVU409
.LBE839:
.LBE838:
.LBE840:
.LBB841:
.LBI841:
	.loc 2 1355 7 is_stmt 1 view .LVU410
.LBB842:
	.loc 2 1357 2 is_stmt 0 view .LVU411
	movq	%rbx, %rsi
	call	_ZNSt7__cxx1112basic_stringIcSt11char_traitsIcESaIcEE9_M_assignERKS4_
.LVL138:
	.loc 2 1357 2 view .LVU412
	jmp	.L55
.LBE842:
.LBE841:
.LBE851:
.LBE852:
	.cfi_endproc
.LFE1455:
	.globl	__gxx_personality_v0
	.section	.gcc_except_table,"a",@progbits
.LLSDA1455:
	.byte	0xff
	.byte	0xff
	.byte	0x1
	.uleb128 .LLSDACSE1455-.LLSDACSB1455
.LLSDACSB1455:
.LLSDACSE1455:
	.text
	.size	_ZN3mpp8functors12HeaderFinderaSEOS1_, .-_ZN3mpp8functors12HeaderFinderaSEOS1_
.Letext0:
	.file 11 "/usr/include/c++/8/bits/stringfwd.h"
	.file 12 "/usr/include/c++/8/type_traits"
	.file 13 "/usr/include/c++/8/bits/stl_pair.h"
	.file 14 "/usr/include/c++/8/utility"
	.file 15 "/usr/include/c++/8/bits/cpp_type_traits.h"
	.file 16 "/usr/include/c++/8/bits/stl_iterator_base_types.h"
	.file 17 "/usr/include/c++/8/debug/debug.h"
	.file 18 "/usr/include/c++/8/cwchar"
	.file 19 "/usr/include/c++/8/x86_64-suse-linux/bits/c++config.h"
	.file 20 "/usr/include/c++/8/cstdint"
	.file 21 "/usr/include/c++/8/bits/exception_ptr.h"
	.file 22 "/usr/include/c++/8/new"
	.file 23 "/usr/include/c++/8/clocale"
	.file 24 "/usr/include/c++/8/limits"
	.file 25 "/usr/include/c++/8/string_view"
	.file 26 "/usr/include/c++/8/cstdlib"
	.file 27 "/usr/include/c++/8/cstdio"
	.file 28 "/usr/include/c++/8/initializer_list"
	.file 29 "/usr/include/c++/8/any"
	.file 30 "/usr/include/c++/8/bits/ptr_traits.h"
	.file 31 "/usr/include/c++/8/bits/functexcept.h"
	.file 32 "/usr/include/c++/8/bits/predefined_ops.h"
	.file 33 "/usr/include/c++/8/ext/numeric_traits.h"
	.file 34 "/usr/include/c++/8/bits/stl_iterator.h"
	.file 35 "/usr/include/c++/8/ext/type_traits.h"
	.file 36 "/usr/lib64/gcc/x86_64-suse-linux/8/include/stddef.h"
	.file 37 "<built-in>"
	.file 38 "/usr/include/bits/types/wint_t.h"
	.file 39 "/usr/include/bits/types/__mbstate_t.h"
	.file 40 "/usr/include/bits/types/mbstate_t.h"
	.file 41 "/usr/include/bits/types/__FILE.h"
	.file 42 "/usr/include/libio.h"
	.file 43 "/usr/include/bits/types/FILE.h"
	.file 44 "/usr/include/wchar.h"
	.file 45 "/usr/include/bits/types/struct_tm.h"
	.file 46 "/usr/include/bits/types.h"
	.file 47 "/usr/include/bits/stdint-intn.h"
	.file 48 "/usr/include/bits/stdint-uintn.h"
	.file 49 "/usr/include/stdint.h"
	.file 50 "/usr/include/locale.h"
	.file 51 "/usr/include/time.h"
	.file 52 "/usr/include/stdlib.h"
	.file 53 "/usr/include/bits/stdlib-float.h"
	.file 54 "/usr/include/bits/stdlib-bsearch.h"
	.file 55 "/usr/include/_G_config.h"
	.file 56 "/usr/include/stdio.h"
	.file 57 "/usr/include/bits/sys_errlist.h"
	.file 58 "/usr/include/bits/stdio.h"
	.file 59 "/usr/include/errno.h"
	.file 60 "./hpp/mpp/Header.hpp"
	.file 61 "./hpp/mpp/functors/HeaderFinder.hpp"
	.section	.note.GNU-stack,"",@progbits
