	.file	"Reply.cpp"
	.text
.Ltext0:
	.align 2
	.globl	_ZN3mpp5Reply9setStatusENS0_6StatusE
	.type	_ZN3mpp5Reply9setStatusENS0_6StatusE, @function
_ZN3mpp5Reply9setStatusENS0_6StatusE:
.LVL0:
.LFB1034:
	.file 1 "cpp/Reply.cpp"
	.loc 1 55 1 view -0
	.cfi_startproc
	.loc 1 56 2 view .LVU1
	.loc 1 56 7 is_stmt 0 view .LVU2
	movl	%esi, (%rdi)
	.loc 1 57 1 view .LVU3
	ret
	.cfi_endproc
.LFE1034:
	.size	_ZN3mpp5Reply9setStatusENS0_6StatusE, .-_ZN3mpp5Reply9setStatusENS0_6StatusE
	.section	.rodata._ZNSt7__cxx1112basic_stringIcSt11char_traitsIcESaIcEE12_M_constructIPKcEEvT_S8_St20forward_iterator_tag.str1.8,"aMS",@progbits,1
	.align 8
.LC0:
	.string	"basic_string::_M_construct null not valid"
	.section	.text._ZNSt7__cxx1112basic_stringIcSt11char_traitsIcESaIcEE12_M_constructIPKcEEvT_S8_St20forward_iterator_tag,"axG",@progbits,_ZNSt7__cxx1112basic_stringIcSt11char_traitsIcESaIcEE12_M_constructIPKcEEvT_S8_St20forward_iterator_tag,comdat
	.align 2
	.weak	_ZNSt7__cxx1112basic_stringIcSt11char_traitsIcESaIcEE12_M_constructIPKcEEvT_S8_St20forward_iterator_tag
	.type	_ZNSt7__cxx1112basic_stringIcSt11char_traitsIcESaIcEE12_M_constructIPKcEEvT_S8_St20forward_iterator_tag, @function
_ZNSt7__cxx1112basic_stringIcSt11char_traitsIcESaIcEE12_M_constructIPKcEEvT_S8_St20forward_iterator_tag:
.LVL1:
.LFB1421:
	.file 2 "/usr/include/c++/8/bits/basic_string.tcc"
	.loc 2 206 7 is_stmt 1 view -0
	.cfi_startproc
	.loc 2 206 7 is_stmt 0 view .LVU5
	pushq	%r12
	.cfi_def_cfa_offset 16
	.cfi_offset 12, -16
	pushq	%rbp
	.cfi_def_cfa_offset 24
	.cfi_offset 6, -24
	pushq	%rbx
	.cfi_def_cfa_offset 32
	.cfi_offset 3, -32
	subq	$16, %rsp
	.cfi_def_cfa_offset 48
	movq	%rdi, %rbp
	movq	%rsi, %r12
	.loc 2 211 42 view .LVU6
	testq	%rsi, %rsi
	je	.L8
.L3:
.LVL2:
.LBB423:
.LBI423:
	.file 3 "/usr/include/c++/8/bits/stl_iterator_base_funcs.h"
	.loc 3 138 5 is_stmt 1 view .LVU7
.LBB424:
.LBI424:
	.loc 3 98 5 view .LVU8
.LBB425:
	.loc 3 104 23 is_stmt 0 view .LVU9
	subq	%r12, %rdx
.LVL3:
	.loc 3 104 23 view .LVU10
	movq	%rdx, %rbx
.LVL4:
	.loc 3 104 23 view .LVU11
.LBE425:
.LBE424:
.LBE423:
	.loc 2 215 12 view .LVU12
	movq	%rdx, 8(%rsp)
	.loc 2 217 2 view .LVU13
	cmpq	$15, %rdx
	ja	.L9
.LVL5:
.L4:
.LBB426:
.LBI426:
	.file 4 "/usr/include/c++/8/bits/basic_string.h"
	.loc 4 175 7 is_stmt 1 view .LVU14
.LBB427:
	.loc 4 176 28 is_stmt 0 view .LVU15
	movq	0(%rbp), %rdi
.LVL6:
	.loc 4 176 28 view .LVU16
.LBE427:
.LBE426:
.LBB428:
.LBI428:
	.loc 4 385 7 is_stmt 1 view .LVU17
.LBB429:
.LBI429:
	.loc 4 335 7 view .LVU18
.LBB430:
	.loc 4 337 2 is_stmt 0 view .LVU19
	cmpq	$1, %rbx
	je	.L10
.LVL7:
.LBB431:
.LBI431:
	.file 5 "/usr/include/c++/8/bits/char_traits.h"
	.loc 5 346 7 is_stmt 1 view .LVU20
.LBB432:
	.loc 5 348 2 view .LVU21
	testq	%rbx, %rbx
	je	.L6
	.loc 5 350 2 view .LVU22
	.loc 5 350 49 is_stmt 0 view .LVU23
	movq	%rbx, %rdx
	movq	%r12, %rsi
	call	memcpy
.LVL8:
	.loc 5 350 49 view .LVU24
	jmp	.L6
.LVL9:
.L8:
	.loc 5 350 49 view .LVU25
.LBE432:
.LBE431:
.LBE430:
.LBE429:
.LBE428:
	.loc 2 211 42 discriminator 1 view .LVU26
	cmpq	%rdx, %rsi
	je	.L3
	.loc 2 212 28 view .LVU27
	movl	$.LC0, %edi
.LVL10:
	.loc 2 212 28 view .LVU28
	call	_ZSt19__throw_logic_errorPKc
.LVL11:
.L9:
	.loc 2 219 6 view .LVU29
	movl	$0, %edx
	leaq	8(%rsp), %rsi
.LVL12:
	.loc 2 219 6 view .LVU30
	movq	%rbp, %rdi
.LVL13:
	.loc 2 219 6 view .LVU31
	call	_ZNSt7__cxx1112basic_stringIcSt11char_traitsIcESaIcEE9_M_createERmm
.LVL14:
.LBB437:
.LBI437:
	.loc 4 167 7 is_stmt 1 view .LVU32
.LBB438:
	.loc 4 168 9 is_stmt 0 view .LVU33
	movq	%rax, 0(%rbp)
.LVL15:
	.loc 4 168 9 view .LVU34
.LBE438:
.LBE437:
	.loc 2 220 6 view .LVU35
	movq	8(%rsp), %rax
.LVL16:
.LBB439:
.LBI439:
	.loc 4 199 7 is_stmt 1 view .LVU36
.LBB440:
	.loc 4 200 9 is_stmt 0 view .LVU37
	movq	%rax, 16(%rbp)
	jmp	.L4
.LVL17:
.L10:
	.loc 4 200 9 view .LVU38
.LBE440:
.LBE439:
.LBB441:
.LBB436:
.LBB435:
.LBB433:
.LBI433:
	.loc 5 284 7 is_stmt 1 view .LVU39
.LBB434:
	.loc 5 285 9 view .LVU40
	.loc 5 285 16 is_stmt 0 view .LVU41
	movzbl	(%r12), %eax
	.loc 5 285 14 view .LVU42
	movb	%al, (%rdi)
.LVL18:
.L6:
	.loc 5 285 14 view .LVU43
.LBE434:
.LBE433:
.LBE435:
.LBE436:
.LBE441:
	.loc 2 232 2 view .LVU44
	movq	8(%rsp), %rax
.LVL19:
.LBB442:
.LBI442:
	.loc 4 203 7 is_stmt 1 view .LVU45
.LBB443:
.LBB444:
.LBI444:
	.loc 4 171 7 view .LVU46
.LBB445:
	.loc 4 172 9 is_stmt 0 view .LVU47
	movq	%rax, 8(%rbp)
.LVL20:
	.loc 4 172 9 view .LVU48
.LBE445:
.LBE444:
.LBB446:
.LBI446:
	.loc 4 175 7 is_stmt 1 view .LVU49
	.loc 4 175 7 is_stmt 0 view .LVU50
.LBE446:
	.loc 4 206 31 view .LVU51
	addq	0(%rbp), %rax
.LVL21:
.LBB447:
.LBI447:
	.loc 5 284 7 is_stmt 1 view .LVU52
.LBB448:
	.loc 5 285 9 view .LVU53
	.loc 5 285 14 is_stmt 0 view .LVU54
	movb	$0, (%rax)
.LVL22:
	.loc 5 285 14 view .LVU55
.LBE448:
.LBE447:
.LBE443:
.LBE442:
	.loc 2 233 7 view .LVU56
	addq	$16, %rsp
	.cfi_def_cfa_offset 32
	popq	%rbx
	.cfi_def_cfa_offset 24
	popq	%rbp
	.cfi_def_cfa_offset 16
.LVL23:
	.loc 2 233 7 view .LVU57
	popq	%r12
	.cfi_def_cfa_offset 8
.LVL24:
	.loc 2 233 7 view .LVU58
	ret
	.cfi_endproc
.LFE1421:
	.size	_ZNSt7__cxx1112basic_stringIcSt11char_traitsIcESaIcEE12_M_constructIPKcEEvT_S8_St20forward_iterator_tag, .-_ZNSt7__cxx1112basic_stringIcSt11char_traitsIcESaIcEE12_M_constructIPKcEEvT_S8_St20forward_iterator_tag
	.section	.rodata.str1.1,"aMS",@progbits,1
.LC1:
	.string	"MPP/1.1 400 Bad Request"
	.section	.rodata.str1.8,"aMS",@progbits,1
	.align 8
.LC2:
	.string	"MPP/1.1 401 Unrecognised Protocol Major Version Number"
	.align 8
.LC3:
	.string	"MPP/1.1 402 Unrecognised Protocol Minor Version Number"
	.align 8
.LC4:
	.string	"MPP/1.1 403 Unrecognised Protocol Patch NUmber"
	.section	.rodata.str1.1
.LC5:
	.string	"MPP/1.1 404 Unrecognised Verb"
	.text
	.align 2
	.globl	_ZN3mpp5Reply11getFCStringB5cxx11ENS0_6StatusE
	.type	_ZN3mpp5Reply11getFCStringB5cxx11ENS0_6StatusE, @function
_ZN3mpp5Reply11getFCStringB5cxx11ENS0_6StatusE:
.LVL25:
.LFB1030:
	.loc 1 12 1 is_stmt 1 view -0
	.cfi_startproc
	.cfi_personality 0x3,__gxx_personality_v0
	.cfi_lsda 0x3,.LLSDA1030
	.loc 1 12 1 is_stmt 0 view .LVU60
	pushq	%r15
	.cfi_def_cfa_offset 16
	.cfi_offset 15, -16
	pushq	%r14
	.cfi_def_cfa_offset 24
	.cfi_offset 14, -24
	pushq	%r13
	.cfi_def_cfa_offset 32
	.cfi_offset 13, -32
	pushq	%r12
	.cfi_def_cfa_offset 40
	.cfi_offset 12, -40
	pushq	%rbp
	.cfi_def_cfa_offset 48
	.cfi_offset 6, -48
	pushq	%rbx
	.cfi_def_cfa_offset 56
	.cfi_offset 3, -56
	subq	$184, %rsp
	.cfi_def_cfa_offset 240
	movq	%rdi, %rbx
	.loc 1 13 2 is_stmt 1 view .LVU61
.LVL26:
.LBB864:
.LBI864:
	.loc 4 420 7 view .LVU62
.LBB865:
.LBI865:
	.file 6 "/usr/include/c++/8/bits/allocator.h"
	.loc 6 131 7 view .LVU63
.LBB866:
.LBI866:
	.file 7 "/usr/include/c++/8/ext/new_allocator.h"
	.loc 7 79 7 view .LVU64
	.loc 7 79 7 is_stmt 0 view .LVU65
.LBE866:
.LBE865:
.LBB867:
.LBI867:
	.loc 4 179 7 is_stmt 1 view .LVU66
.LBB868:
	.loc 4 182 51 is_stmt 0 view .LVU67
	leaq	16(%rdi), %rbp
.LVL27:
	.loc 4 182 51 view .LVU68
.LBE868:
.LBE867:
.LBB869:
.LBI869:
	.loc 4 148 2 is_stmt 1 view .LVU69
.LBB870:
.LBB871:
.LBI871:
	.file 8 "/usr/include/c++/8/bits/move.h"
	.loc 8 99 5 view .LVU70
	.loc 8 99 5 is_stmt 0 view .LVU71
.LBE871:
.LBB872:
.LBI872:
	.loc 6 133 7 is_stmt 1 view .LVU72
.LBB873:
.LBI873:
	.loc 7 81 7 view .LVU73
	.loc 7 81 7 is_stmt 0 view .LVU74
.LBE873:
.LBE872:
	.loc 4 149 46 view .LVU75
	movq	%rbp, (%rdi)
.LVL28:
	.loc 4 149 46 view .LVU76
.LBE870:
.LBE869:
.LBB874:
.LBI874:
	.loc 6 139 7 is_stmt 1 view .LVU77
.LBB875:
.LBI875:
	.loc 7 86 7 view .LVU78
	.loc 7 86 7 is_stmt 0 view .LVU79
.LBE875:
.LBE874:
.LBB876:
.LBI876:
	.loc 4 203 7 is_stmt 1 view .LVU80
.LBB877:
.LBI877:
	.loc 4 171 7 view .LVU81
.LBB878:
	.loc 4 172 9 is_stmt 0 view .LVU82
	movq	$0, 8(%rdi)
.LVL29:
	.loc 4 172 9 view .LVU83
.LBE878:
.LBE877:
.LBB879:
.LBI879:
	.loc 5 284 7 is_stmt 1 view .LVU84
.LBB880:
	.loc 5 285 9 view .LVU85
	.loc 5 285 14 is_stmt 0 view .LVU86
	movb	$0, 16(%rdi)
.LVL30:
	.loc 5 285 14 view .LVU87
.LBE880:
.LBE879:
.LBE876:
.LBE864:
	.loc 1 15 2 is_stmt 1 view .LVU88
	cmpl	$4, %esi
	ja	.L11
	movl	%esi, %esi
	.loc 1 15 2 is_stmt 0 view .LVU89
	jmp	*.L14(,%rsi,8)
	.section	.rodata
	.align 8
	.align 4
.L14:
	.quad	.L18
	.quad	.L17
	.quad	.L16
	.quad	.L15
	.quad	.L13
	.text
.L18:
	.loc 1 17 3 is_stmt 1 view .LVU90
	.loc 1 18 3 view .LVU91
	.loc 1 19 4 view .LVU92
.LVL31:
.LBB881:
.LBI881:
	.loc 6 131 7 view .LVU93
.LBB882:
.LBI882:
	.loc 7 79 7 view .LVU94
	.loc 7 79 7 is_stmt 0 view .LVU95
.LBE882:
.LBE881:
.LBB883:
.LBI883:
	.loc 4 514 7 is_stmt 1 view .LVU96
.LBB884:
.LBB885:
.LBB886:
.LBI886:
	.loc 4 179 7 view .LVU97
	.loc 4 179 7 is_stmt 0 view .LVU98
.LBE886:
.LBB887:
.LBI887:
	.loc 4 145 2 is_stmt 1 view .LVU99
.LBB888:
.LBB889:
.LBB890:
.LBI890:
	.loc 6 133 7 view .LVU100
.LBB891:
.LBI891:
	.loc 7 81 7 view .LVU101
	.loc 7 81 7 is_stmt 0 view .LVU102
.LBE891:
.LBE890:
	.loc 4 146 35 view .LVU103
	leaq	32(%rsp), %rax
.LVL32:
	.loc 4 146 35 view .LVU104
	movq	%rax, 16(%rsp)
.LVL33:
	.loc 4 146 35 view .LVU105
.LBE889:
.LBE888:
.LBE887:
.LBB892:
.LBI892:
	.loc 5 314 7 is_stmt 1 view .LVU106
.LBE892:
.LBE885:
.LBE884:
.LBE883:
	.loc 5 320 2 view .LVU107
.LBB899:
.LBB898:
.LBB897:
.LBB893:
.LBI893:
	.loc 4 252 9 view .LVU108
.LBB894:
.LBB895:
.LBI895:
	.loc 4 232 9 view .LVU109
.LBB896:
	.loc 4 236 11 is_stmt 0 view .LVU110
	movl	$.LC1+23, %edx
.LVL34:
	.loc 4 236 11 view .LVU111
	movl	$.LC1, %esi
.LVL35:
	.loc 4 236 11 view .LVU112
	leaq	16(%rsp), %rdi
.LVL36:
.LEHB0:
	.loc 4 236 11 view .LVU113
	call	_ZNSt7__cxx1112basic_stringIcSt11char_traitsIcESaIcEE12_M_constructIPKcEEvT_S8_St20forward_iterator_tag
.LVL37:
.LEHE0:
	.loc 4 236 11 view .LVU114
.LBE896:
.LBE895:
.LBE894:
.LBE893:
.LBE897:
.LBE898:
.LBE899:
.LBB900:
.LBI900:
	.loc 4 732 7 is_stmt 1 view .LVU115
.LBB901:
.LBI901:
	.loc 4 210 7 view .LVU116
.LBB902:
.LBI902:
	.loc 4 175 7 view .LVU117
.LBB903:
	.loc 4 176 28 is_stmt 0 view .LVU118
	movq	(%rbx), %rax
.LVL38:
	.loc 4 176 28 view .LVU119
.LBE903:
.LBE902:
.LBB904:
.LBI904:
	.loc 4 189 7 is_stmt 1 view .LVU120
.LBB905:
	.loc 4 192 57 is_stmt 0 view .LVU121
	leaq	16(%rbx), %rsi
.LVL39:
	.loc 4 192 57 view .LVU122
.LBE905:
.LBE904:
.LBE901:
.LBB906:
.LBB907:
.LBI907:
	.loc 4 210 7 is_stmt 1 view .LVU123
.LBB908:
.LBI908:
	.loc 4 175 7 view .LVU124
.LBB909:
	.loc 4 176 28 is_stmt 0 view .LVU125
	movq	16(%rsp), %rdx
.LVL40:
	.loc 4 176 28 view .LVU126
.LBE909:
.LBE908:
.LBB910:
.LBI910:
	.loc 4 189 7 is_stmt 1 view .LVU127
	.loc 4 189 7 is_stmt 0 view .LVU128
.LBE910:
.LBE907:
	.loc 4 747 2 view .LVU129
	leaq	32(%rsp), %rcx
	cmpq	%rcx, %rdx
	je	.L19
.LVL41:
.LBB911:
	.loc 4 753 6 view .LVU130
	cmpq	%rsi, %rax
	je	.L46
.LVL42:
	.loc 4 758 7 view .LVU131
	movq	16(%rbx), %r15
.LVL43:
.L20:
.LBB912:
.LBI912:
	.loc 4 167 7 is_stmt 1 view .LVU132
.LBB913:
	.loc 4 168 9 is_stmt 0 view .LVU133
	movq	%rdx, (%rbx)
.LVL44:
	.loc 4 168 9 view .LVU134
.LBE913:
.LBE912:
.LBB914:
.LBI914:
	.loc 4 927 7 is_stmt 1 view .LVU135
.LBB915:
	.loc 4 928 16 is_stmt 0 view .LVU136
	movq	24(%rsp), %rdx
.LVL45:
	.loc 4 928 16 view .LVU137
.LBE915:
.LBE914:
.LBB916:
.LBI916:
	.loc 4 171 7 is_stmt 1 view .LVU138
.LBB917:
	.loc 4 172 9 is_stmt 0 view .LVU139
	movq	%rdx, 8(%rbx)
.LVL46:
	.loc 4 172 9 view .LVU140
.LBE917:
.LBE916:
	.loc 4 766 6 view .LVU141
	movq	32(%rsp), %rdx
.LVL47:
.LBB918:
.LBI918:
	.loc 4 199 7 is_stmt 1 view .LVU142
.LBB919:
	.loc 4 200 9 is_stmt 0 view .LVU143
	movq	%rdx, 16(%rbx)
.LVL48:
	.loc 4 200 9 view .LVU144
.LBE919:
.LBE918:
	.loc 4 767 6 view .LVU145
	testq	%rax, %rax
	je	.L21
.LVL49:
.LBB920:
.LBI920:
	.loc 4 167 7 is_stmt 1 view .LVU146
.LBB921:
	.loc 4 168 9 is_stmt 0 view .LVU147
	movq	%rax, 16(%rsp)
.LVL50:
	.loc 4 168 9 view .LVU148
.LBE921:
.LBE920:
.LBB922:
.LBI922:
	.loc 4 199 7 is_stmt 1 view .LVU149
.LBB923:
	.loc 4 200 9 is_stmt 0 view .LVU150
	movq	%r15, 32(%rsp)
.LVL51:
.L22:
	.loc 4 200 9 view .LVU151
.LBE923:
.LBE922:
.LBE911:
.LBE906:
.LBB929:
.LBI929:
	.loc 4 1014 7 is_stmt 1 view .LVU152
.LBB930:
.LBI930:
	.loc 4 203 7 view .LVU153
.LBB931:
.LBI931:
	.loc 4 171 7 view .LVU154
.LBB932:
	.loc 4 172 9 is_stmt 0 view .LVU155
	movq	$0, 24(%rsp)
.LVL52:
	.loc 4 172 9 view .LVU156
.LBE932:
.LBE931:
.LBB933:
.LBI933:
	.loc 4 175 7 is_stmt 1 view .LVU157
.LBB934:
	.loc 4 176 28 is_stmt 0 view .LVU158
	movq	16(%rsp), %rax
.LVL53:
	.loc 4 176 28 view .LVU159
.LBE934:
.LBE933:
.LBB935:
.LBI935:
	.loc 5 284 7 is_stmt 1 view .LVU160
.LBB936:
	.loc 5 285 9 view .LVU161
	.loc 5 285 14 is_stmt 0 view .LVU162
	movb	$0, (%rax)
.LVL54:
	.loc 5 285 14 view .LVU163
.LBE936:
.LBE935:
.LBE930:
.LBE929:
.LBE900:
.LBB938:
.LBI938:
	.loc 4 656 7 is_stmt 1 view .LVU164
.LBB939:
.LBI939:
	.loc 4 218 7 view .LVU165
.LBB940:
.LBB941:
.LBI941:
	.loc 4 210 7 view .LVU166
.LBB942:
.LBI942:
	.loc 4 175 7 view .LVU167
.LBB943:
	.loc 4 176 28 is_stmt 0 view .LVU168
	movq	16(%rsp), %rdi
.LVL55:
	.loc 4 176 28 view .LVU169
.LBE943:
.LBE942:
.LBB944:
.LBI944:
	.loc 4 189 7 is_stmt 1 view .LVU170
	.loc 4 189 7 is_stmt 0 view .LVU171
.LBE944:
.LBE941:
	.loc 4 220 2 view .LVU172
	leaq	32(%rsp), %rax
	cmpq	%rax, %rdi
	je	.L11
.LVL56:
.LBB945:
.LBI945:
	.loc 4 225 7 is_stmt 1 view .LVU173
.LBB946:
.LBI946:
	.file 9 "/usr/include/c++/8/bits/alloc_traits.h"
	.loc 9 461 7 view .LVU174
.LBB947:
.LBI947:
	.loc 7 116 7 view .LVU175
.LBB948:
	.loc 7 125 19 is_stmt 0 view .LVU176
	call	_ZdlPv
.LVL57:
	.loc 7 125 19 view .LVU177
.LBE948:
.LBE947:
.LBE946:
.LBE945:
.LBE940:
.LBE939:
.LBB949:
.LBI949:
	.loc 4 139 14 is_stmt 1 view .LVU178
.LBB950:
.LBI950:
	.loc 6 139 7 view .LVU179
.LBB951:
.LBI951:
	.loc 7 86 7 view .LVU180
	.loc 7 86 7 is_stmt 0 view .LVU181
.LBE951:
.LBE950:
.LBE949:
.LBE938:
.LBB952:
.LBI952:
	.loc 6 139 7 is_stmt 1 view .LVU182
.LBB953:
.LBI953:
	.loc 7 86 7 view .LVU183
	.loc 7 86 7 is_stmt 0 view .LVU184
.LBE953:
.LBE952:
	.loc 1 20 4 is_stmt 1 view .LVU185
.L11:
	.loc 1 49 1 is_stmt 0 view .LVU186
	movq	%rbx, %rax
	addq	$184, %rsp
	.cfi_remember_state
	.cfi_def_cfa_offset 56
	popq	%rbx
	.cfi_def_cfa_offset 48
.LVL58:
	.loc 1 49 1 view .LVU187
	popq	%rbp
	.cfi_def_cfa_offset 40
	popq	%r12
	.cfi_def_cfa_offset 32
	popq	%r13
	.cfi_def_cfa_offset 24
	popq	%r14
	.cfi_def_cfa_offset 16
	popq	%r15
	.cfi_def_cfa_offset 8
	ret
.LVL59:
.L46:
	.cfi_restore_state
.LBB954:
.LBB937:
.LBB926:
	.loc 4 751 14 view .LVU188
	movl	$0, %eax
	jmp	.L20
.LVL60:
.L21:
.LBB924:
.LBI924:
	.loc 4 167 7 is_stmt 1 view .LVU189
.LBB925:
	.loc 4 168 9 is_stmt 0 view .LVU190
	leaq	32(%rsp), %rax
.LVL61:
	.loc 4 168 9 view .LVU191
	movq	%rax, 16(%rsp)
	jmp	.L22
.LVL62:
.L19:
	.loc 4 168 9 view .LVU192
.LBE925:
.LBE924:
.LBE926:
.LBB927:
.LBI927:
	.loc 4 1355 7 is_stmt 1 view .LVU193
.LBB928:
	.loc 4 1357 2 is_stmt 0 view .LVU194
	leaq	16(%rsp), %rsi
.LVL63:
	.loc 4 1357 2 view .LVU195
	movq	%rbx, %rdi
	call	_ZNSt7__cxx1112basic_stringIcSt11char_traitsIcESaIcEE9_M_assignERKS4_
.LVL64:
	.loc 4 1357 2 view .LVU196
	jmp	.L22
.LVL65:
.L17:
	.loc 4 1357 2 view .LVU197
.LBE928:
.LBE927:
.LBE937:
.LBE954:
	.loc 1 23 3 is_stmt 1 view .LVU198
	.loc 1 24 3 view .LVU199
	.loc 1 25 4 view .LVU200
.LBB955:
.LBI955:
	.loc 6 131 7 view .LVU201
.LBB956:
.LBI956:
	.loc 7 79 7 view .LVU202
	.loc 7 79 7 is_stmt 0 view .LVU203
.LBE956:
.LBE955:
.LBB957:
.LBI957:
	.loc 4 514 7 is_stmt 1 view .LVU204
.LBB958:
.LBB959:
.LBB960:
.LBI960:
	.loc 4 179 7 view .LVU205
	.loc 4 179 7 is_stmt 0 view .LVU206
.LBE960:
.LBB961:
.LBI961:
	.loc 4 145 2 is_stmt 1 view .LVU207
.LBB962:
.LBB963:
.LBB964:
.LBI964:
	.loc 6 133 7 view .LVU208
.LBB965:
.LBI965:
	.loc 7 81 7 view .LVU209
	.loc 7 81 7 is_stmt 0 view .LVU210
.LBE965:
.LBE964:
	.loc 4 146 35 view .LVU211
	leaq	64(%rsp), %rax
.LVL66:
	.loc 4 146 35 view .LVU212
	movq	%rax, 48(%rsp)
.LVL67:
	.loc 4 146 35 view .LVU213
.LBE963:
.LBE962:
.LBE961:
.LBB966:
.LBI966:
	.loc 5 314 7 is_stmt 1 view .LVU214
.LBE966:
.LBE959:
.LBE958:
.LBE957:
	.loc 5 320 2 view .LVU215
.LBB973:
.LBB972:
.LBB971:
.LBB967:
.LBI967:
	.loc 4 252 9 view .LVU216
.LBB968:
.LBB969:
.LBI969:
	.loc 4 232 9 view .LVU217
.LBB970:
	.loc 4 236 11 is_stmt 0 view .LVU218
	movl	$.LC2+54, %edx
.LVL68:
	.loc 4 236 11 view .LVU219
	movl	$.LC2, %esi
	leaq	48(%rsp), %rdi
.LVL69:
.LEHB1:
	.loc 4 236 11 view .LVU220
	call	_ZNSt7__cxx1112basic_stringIcSt11char_traitsIcESaIcEE12_M_constructIPKcEEvT_S8_St20forward_iterator_tag
.LVL70:
.LEHE1:
	.loc 4 236 11 view .LVU221
.LBE970:
.LBE969:
.LBE968:
.LBE967:
.LBE971:
.LBE972:
.LBE973:
.LBB974:
.LBI974:
	.loc 4 732 7 is_stmt 1 view .LVU222
.LBB975:
.LBI975:
	.loc 4 210 7 view .LVU223
.LBB976:
.LBI976:
	.loc 4 175 7 view .LVU224
.LBB977:
	.loc 4 176 28 is_stmt 0 view .LVU225
	movq	(%rbx), %rax
.LVL71:
	.loc 4 176 28 view .LVU226
.LBE977:
.LBE976:
.LBB978:
.LBI978:
	.loc 4 189 7 is_stmt 1 view .LVU227
.LBB979:
	.loc 4 192 57 is_stmt 0 view .LVU228
	leaq	16(%rbx), %rsi
.LVL72:
	.loc 4 192 57 view .LVU229
.LBE979:
.LBE978:
.LBE975:
.LBB980:
.LBB981:
.LBI981:
	.loc 4 210 7 is_stmt 1 view .LVU230
.LBB982:
.LBI982:
	.loc 4 175 7 view .LVU231
.LBB983:
	.loc 4 176 28 is_stmt 0 view .LVU232
	movq	48(%rsp), %rdx
.LVL73:
	.loc 4 176 28 view .LVU233
.LBE983:
.LBE982:
.LBB984:
.LBI984:
	.loc 4 189 7 is_stmt 1 view .LVU234
	.loc 4 189 7 is_stmt 0 view .LVU235
.LBE984:
.LBE981:
	.loc 4 747 2 view .LVU236
	leaq	64(%rsp), %rcx
	cmpq	%rcx, %rdx
	je	.L24
.LVL74:
.LBB985:
	.loc 4 753 6 view .LVU237
	cmpq	%rsi, %rax
	je	.L47
.LVL75:
	.loc 4 758 7 view .LVU238
	movq	16(%rbx), %r14
.LVL76:
.L25:
.LBB986:
.LBI986:
	.loc 4 167 7 is_stmt 1 view .LVU239
.LBB987:
	.loc 4 168 9 is_stmt 0 view .LVU240
	movq	%rdx, (%rbx)
.LVL77:
	.loc 4 168 9 view .LVU241
.LBE987:
.LBE986:
.LBB988:
.LBI988:
	.loc 4 927 7 is_stmt 1 view .LVU242
.LBB989:
	.loc 4 928 16 is_stmt 0 view .LVU243
	movq	56(%rsp), %rdx
.LVL78:
	.loc 4 928 16 view .LVU244
.LBE989:
.LBE988:
.LBB990:
.LBI990:
	.loc 4 171 7 is_stmt 1 view .LVU245
.LBB991:
	.loc 4 172 9 is_stmt 0 view .LVU246
	movq	%rdx, 8(%rbx)
.LVL79:
	.loc 4 172 9 view .LVU247
.LBE991:
.LBE990:
	.loc 4 766 6 view .LVU248
	movq	64(%rsp), %rdx
.LVL80:
.LBB992:
.LBI992:
	.loc 4 199 7 is_stmt 1 view .LVU249
.LBB993:
	.loc 4 200 9 is_stmt 0 view .LVU250
	movq	%rdx, 16(%rbx)
.LVL81:
	.loc 4 200 9 view .LVU251
.LBE993:
.LBE992:
	.loc 4 767 6 view .LVU252
	testq	%rax, %rax
	je	.L26
.LVL82:
.LBB994:
.LBI994:
	.loc 4 167 7 is_stmt 1 view .LVU253
.LBB995:
	.loc 4 168 9 is_stmt 0 view .LVU254
	movq	%rax, 48(%rsp)
.LVL83:
	.loc 4 168 9 view .LVU255
.LBE995:
.LBE994:
.LBB996:
.LBI996:
	.loc 4 199 7 is_stmt 1 view .LVU256
.LBB997:
	.loc 4 200 9 is_stmt 0 view .LVU257
	movq	%r14, 64(%rsp)
.LVL84:
.L27:
	.loc 4 200 9 view .LVU258
.LBE997:
.LBE996:
.LBE985:
.LBE980:
.LBB1003:
.LBI1003:
	.loc 4 1014 7 is_stmt 1 view .LVU259
.LBB1004:
.LBI1004:
	.loc 4 203 7 view .LVU260
.LBB1005:
.LBI1005:
	.loc 4 171 7 view .LVU261
.LBB1006:
	.loc 4 172 9 is_stmt 0 view .LVU262
	movq	$0, 56(%rsp)
.LVL85:
	.loc 4 172 9 view .LVU263
.LBE1006:
.LBE1005:
.LBB1007:
.LBI1007:
	.loc 4 175 7 is_stmt 1 view .LVU264
.LBB1008:
	.loc 4 176 28 is_stmt 0 view .LVU265
	movq	48(%rsp), %rax
.LVL86:
	.loc 4 176 28 view .LVU266
.LBE1008:
.LBE1007:
.LBB1009:
.LBI1009:
	.loc 5 284 7 is_stmt 1 view .LVU267
.LBB1010:
	.loc 5 285 9 view .LVU268
	.loc 5 285 14 is_stmt 0 view .LVU269
	movb	$0, (%rax)
.LVL87:
	.loc 5 285 14 view .LVU270
.LBE1010:
.LBE1009:
.LBE1004:
.LBE1003:
.LBE974:
.LBB1012:
.LBI1012:
	.loc 4 656 7 is_stmt 1 view .LVU271
.LBB1013:
.LBI1013:
	.loc 4 218 7 view .LVU272
.LBB1014:
.LBB1015:
.LBI1015:
	.loc 4 210 7 view .LVU273
.LBB1016:
.LBI1016:
	.loc 4 175 7 view .LVU274
.LBB1017:
	.loc 4 176 28 is_stmt 0 view .LVU275
	movq	48(%rsp), %rdi
.LVL88:
	.loc 4 176 28 view .LVU276
.LBE1017:
.LBE1016:
.LBB1018:
.LBI1018:
	.loc 4 189 7 is_stmt 1 view .LVU277
	.loc 4 189 7 is_stmt 0 view .LVU278
.LBE1018:
.LBE1015:
	.loc 4 220 2 view .LVU279
	leaq	64(%rsp), %rax
	cmpq	%rax, %rdi
	je	.L11
.LVL89:
.LBB1019:
.LBI1019:
	.loc 4 225 7 is_stmt 1 view .LVU280
.LBB1020:
.LBI1020:
	.loc 9 461 7 view .LVU281
.LBB1021:
.LBI1021:
	.loc 7 116 7 view .LVU282
.LBB1022:
	.loc 7 125 19 is_stmt 0 view .LVU283
	call	_ZdlPv
.LVL90:
	.loc 7 125 19 view .LVU284
.LBE1022:
.LBE1021:
.LBE1020:
.LBE1019:
.LBE1014:
.LBE1013:
.LBB1023:
.LBI1023:
	.loc 4 139 14 is_stmt 1 view .LVU285
.LBB1024:
.LBI1024:
	.loc 6 139 7 view .LVU286
.LBB1025:
.LBI1025:
	.loc 7 86 7 view .LVU287
	.loc 7 86 7 is_stmt 0 view .LVU288
.LBE1025:
.LBE1024:
.LBE1023:
.LBE1012:
.LBB1026:
.LBI1026:
	.loc 6 139 7 is_stmt 1 view .LVU289
.LBB1027:
.LBI1027:
	.loc 7 86 7 view .LVU290
	.loc 7 86 7 is_stmt 0 view .LVU291
.LBE1027:
.LBE1026:
	.loc 1 26 4 is_stmt 1 view .LVU292
	jmp	.L11
.LVL91:
.L47:
.LBB1028:
.LBB1011:
.LBB1000:
	.loc 4 751 14 is_stmt 0 view .LVU293
	movl	$0, %eax
	jmp	.L25
.LVL92:
.L26:
.LBB998:
.LBI998:
	.loc 4 167 7 is_stmt 1 view .LVU294
.LBB999:
	.loc 4 168 9 is_stmt 0 view .LVU295
	leaq	64(%rsp), %rax
.LVL93:
	.loc 4 168 9 view .LVU296
	movq	%rax, 48(%rsp)
	jmp	.L27
.LVL94:
.L24:
	.loc 4 168 9 view .LVU297
.LBE999:
.LBE998:
.LBE1000:
.LBB1001:
.LBI1001:
	.loc 4 1355 7 is_stmt 1 view .LVU298
.LBB1002:
	.loc 4 1357 2 is_stmt 0 view .LVU299
	leaq	48(%rsp), %rsi
.LVL95:
	.loc 4 1357 2 view .LVU300
	movq	%rbx, %rdi
	call	_ZNSt7__cxx1112basic_stringIcSt11char_traitsIcESaIcEE9_M_assignERKS4_
.LVL96:
	.loc 4 1357 2 view .LVU301
	jmp	.L27
.LVL97:
.L16:
	.loc 4 1357 2 view .LVU302
.LBE1002:
.LBE1001:
.LBE1011:
.LBE1028:
	.loc 1 29 3 is_stmt 1 view .LVU303
	.loc 1 30 3 view .LVU304
	.loc 1 31 4 view .LVU305
.LBB1029:
.LBI1029:
	.loc 6 131 7 view .LVU306
.LBB1030:
.LBI1030:
	.loc 7 79 7 view .LVU307
	.loc 7 79 7 is_stmt 0 view .LVU308
.LBE1030:
.LBE1029:
.LBB1031:
.LBI1031:
	.loc 4 514 7 is_stmt 1 view .LVU309
.LBB1032:
.LBB1033:
.LBB1034:
.LBI1034:
	.loc 4 179 7 view .LVU310
	.loc 4 179 7 is_stmt 0 view .LVU311
.LBE1034:
.LBB1035:
.LBI1035:
	.loc 4 145 2 is_stmt 1 view .LVU312
.LBB1036:
.LBB1037:
.LBB1038:
.LBI1038:
	.loc 6 133 7 view .LVU313
.LBB1039:
.LBI1039:
	.loc 7 81 7 view .LVU314
	.loc 7 81 7 is_stmt 0 view .LVU315
.LBE1039:
.LBE1038:
	.loc 4 146 35 view .LVU316
	leaq	96(%rsp), %rax
.LVL98:
	.loc 4 146 35 view .LVU317
	movq	%rax, 80(%rsp)
.LVL99:
	.loc 4 146 35 view .LVU318
.LBE1037:
.LBE1036:
.LBE1035:
.LBB1040:
.LBI1040:
	.loc 5 314 7 is_stmt 1 view .LVU319
.LBE1040:
.LBE1033:
.LBE1032:
.LBE1031:
	.loc 5 320 2 view .LVU320
.LBB1047:
.LBB1046:
.LBB1045:
.LBB1041:
.LBI1041:
	.loc 4 252 9 view .LVU321
.LBB1042:
.LBB1043:
.LBI1043:
	.loc 4 232 9 view .LVU322
.LBB1044:
	.loc 4 236 11 is_stmt 0 view .LVU323
	movl	$.LC3+54, %edx
.LVL100:
	.loc 4 236 11 view .LVU324
	movl	$.LC3, %esi
	leaq	80(%rsp), %rdi
.LVL101:
.LEHB2:
	.loc 4 236 11 view .LVU325
	call	_ZNSt7__cxx1112basic_stringIcSt11char_traitsIcESaIcEE12_M_constructIPKcEEvT_S8_St20forward_iterator_tag
.LVL102:
.LEHE2:
	.loc 4 236 11 view .LVU326
.LBE1044:
.LBE1043:
.LBE1042:
.LBE1041:
.LBE1045:
.LBE1046:
.LBE1047:
.LBB1048:
.LBI1048:
	.loc 4 732 7 is_stmt 1 view .LVU327
.LBB1049:
.LBI1049:
	.loc 4 210 7 view .LVU328
.LBB1050:
.LBI1050:
	.loc 4 175 7 view .LVU329
.LBB1051:
	.loc 4 176 28 is_stmt 0 view .LVU330
	movq	(%rbx), %rax
.LVL103:
	.loc 4 176 28 view .LVU331
.LBE1051:
.LBE1050:
.LBB1052:
.LBI1052:
	.loc 4 189 7 is_stmt 1 view .LVU332
.LBB1053:
	.loc 4 192 57 is_stmt 0 view .LVU333
	leaq	16(%rbx), %rsi
.LVL104:
	.loc 4 192 57 view .LVU334
.LBE1053:
.LBE1052:
.LBE1049:
.LBB1054:
.LBB1055:
.LBI1055:
	.loc 4 210 7 is_stmt 1 view .LVU335
.LBB1056:
.LBI1056:
	.loc 4 175 7 view .LVU336
.LBB1057:
	.loc 4 176 28 is_stmt 0 view .LVU337
	movq	80(%rsp), %rdx
.LVL105:
	.loc 4 176 28 view .LVU338
.LBE1057:
.LBE1056:
.LBB1058:
.LBI1058:
	.loc 4 189 7 is_stmt 1 view .LVU339
	.loc 4 189 7 is_stmt 0 view .LVU340
.LBE1058:
.LBE1055:
	.loc 4 747 2 view .LVU341
	leaq	96(%rsp), %rcx
	cmpq	%rcx, %rdx
	je	.L29
.LVL106:
.LBB1059:
	.loc 4 753 6 view .LVU342
	cmpq	%rsi, %rax
	je	.L48
.LVL107:
	.loc 4 758 7 view .LVU343
	movq	16(%rbx), %r13
.LVL108:
.L30:
.LBB1060:
.LBI1060:
	.loc 4 167 7 is_stmt 1 view .LVU344
.LBB1061:
	.loc 4 168 9 is_stmt 0 view .LVU345
	movq	%rdx, (%rbx)
.LVL109:
	.loc 4 168 9 view .LVU346
.LBE1061:
.LBE1060:
.LBB1062:
.LBI1062:
	.loc 4 927 7 is_stmt 1 view .LVU347
.LBB1063:
	.loc 4 928 16 is_stmt 0 view .LVU348
	movq	88(%rsp), %rdx
.LVL110:
	.loc 4 928 16 view .LVU349
.LBE1063:
.LBE1062:
.LBB1064:
.LBI1064:
	.loc 4 171 7 is_stmt 1 view .LVU350
.LBB1065:
	.loc 4 172 9 is_stmt 0 view .LVU351
	movq	%rdx, 8(%rbx)
.LVL111:
	.loc 4 172 9 view .LVU352
.LBE1065:
.LBE1064:
	.loc 4 766 6 view .LVU353
	movq	96(%rsp), %rdx
.LVL112:
.LBB1066:
.LBI1066:
	.loc 4 199 7 is_stmt 1 view .LVU354
.LBB1067:
	.loc 4 200 9 is_stmt 0 view .LVU355
	movq	%rdx, 16(%rbx)
.LVL113:
	.loc 4 200 9 view .LVU356
.LBE1067:
.LBE1066:
	.loc 4 767 6 view .LVU357
	testq	%rax, %rax
	je	.L31
.LVL114:
.LBB1068:
.LBI1068:
	.loc 4 167 7 is_stmt 1 view .LVU358
.LBB1069:
	.loc 4 168 9 is_stmt 0 view .LVU359
	movq	%rax, 80(%rsp)
.LVL115:
	.loc 4 168 9 view .LVU360
.LBE1069:
.LBE1068:
.LBB1070:
.LBI1070:
	.loc 4 199 7 is_stmt 1 view .LVU361
.LBB1071:
	.loc 4 200 9 is_stmt 0 view .LVU362
	movq	%r13, 96(%rsp)
.LVL116:
.L32:
	.loc 4 200 9 view .LVU363
.LBE1071:
.LBE1070:
.LBE1059:
.LBE1054:
.LBB1077:
.LBI1077:
	.loc 4 1014 7 is_stmt 1 view .LVU364
.LBB1078:
.LBI1078:
	.loc 4 203 7 view .LVU365
.LBB1079:
.LBI1079:
	.loc 4 171 7 view .LVU366
.LBB1080:
	.loc 4 172 9 is_stmt 0 view .LVU367
	movq	$0, 88(%rsp)
.LVL117:
	.loc 4 172 9 view .LVU368
.LBE1080:
.LBE1079:
.LBB1081:
.LBI1081:
	.loc 4 175 7 is_stmt 1 view .LVU369
.LBB1082:
	.loc 4 176 28 is_stmt 0 view .LVU370
	movq	80(%rsp), %rax
.LVL118:
	.loc 4 176 28 view .LVU371
.LBE1082:
.LBE1081:
.LBB1083:
.LBI1083:
	.loc 5 284 7 is_stmt 1 view .LVU372
.LBB1084:
	.loc 5 285 9 view .LVU373
	.loc 5 285 14 is_stmt 0 view .LVU374
	movb	$0, (%rax)
.LVL119:
	.loc 5 285 14 view .LVU375
.LBE1084:
.LBE1083:
.LBE1078:
.LBE1077:
.LBE1048:
.LBB1086:
.LBI1086:
	.loc 4 656 7 is_stmt 1 view .LVU376
.LBB1087:
.LBI1087:
	.loc 4 218 7 view .LVU377
.LBB1088:
.LBB1089:
.LBI1089:
	.loc 4 210 7 view .LVU378
.LBB1090:
.LBI1090:
	.loc 4 175 7 view .LVU379
.LBB1091:
	.loc 4 176 28 is_stmt 0 view .LVU380
	movq	80(%rsp), %rdi
.LVL120:
	.loc 4 176 28 view .LVU381
.LBE1091:
.LBE1090:
.LBB1092:
.LBI1092:
	.loc 4 189 7 is_stmt 1 view .LVU382
	.loc 4 189 7 is_stmt 0 view .LVU383
.LBE1092:
.LBE1089:
	.loc 4 220 2 view .LVU384
	leaq	96(%rsp), %rax
	cmpq	%rax, %rdi
	je	.L11
.LVL121:
.LBB1093:
.LBI1093:
	.loc 4 225 7 is_stmt 1 view .LVU385
.LBB1094:
.LBI1094:
	.loc 9 461 7 view .LVU386
.LBB1095:
.LBI1095:
	.loc 7 116 7 view .LVU387
.LBB1096:
	.loc 7 125 19 is_stmt 0 view .LVU388
	call	_ZdlPv
.LVL122:
	.loc 7 125 19 view .LVU389
.LBE1096:
.LBE1095:
.LBE1094:
.LBE1093:
.LBE1088:
.LBE1087:
.LBB1097:
.LBI1097:
	.loc 4 139 14 is_stmt 1 view .LVU390
.LBB1098:
.LBI1098:
	.loc 6 139 7 view .LVU391
.LBB1099:
.LBI1099:
	.loc 7 86 7 view .LVU392
	.loc 7 86 7 is_stmt 0 view .LVU393
.LBE1099:
.LBE1098:
.LBE1097:
.LBE1086:
.LBB1100:
.LBI1100:
	.loc 6 139 7 is_stmt 1 view .LVU394
.LBB1101:
.LBI1101:
	.loc 7 86 7 view .LVU395
	.loc 7 86 7 is_stmt 0 view .LVU396
.LBE1101:
.LBE1100:
	.loc 1 32 4 is_stmt 1 view .LVU397
	jmp	.L11
.LVL123:
.L48:
.LBB1102:
.LBB1085:
.LBB1074:
	.loc 4 751 14 is_stmt 0 view .LVU398
	movl	$0, %eax
	jmp	.L30
.LVL124:
.L31:
.LBB1072:
.LBI1072:
	.loc 4 167 7 is_stmt 1 view .LVU399
.LBB1073:
	.loc 4 168 9 is_stmt 0 view .LVU400
	leaq	96(%rsp), %rax
.LVL125:
	.loc 4 168 9 view .LVU401
	movq	%rax, 80(%rsp)
	jmp	.L32
.LVL126:
.L29:
	.loc 4 168 9 view .LVU402
.LBE1073:
.LBE1072:
.LBE1074:
.LBB1075:
.LBI1075:
	.loc 4 1355 7 is_stmt 1 view .LVU403
.LBB1076:
	.loc 4 1357 2 is_stmt 0 view .LVU404
	leaq	80(%rsp), %rsi
.LVL127:
	.loc 4 1357 2 view .LVU405
	movq	%rbx, %rdi
	call	_ZNSt7__cxx1112basic_stringIcSt11char_traitsIcESaIcEE9_M_assignERKS4_
.LVL128:
	.loc 4 1357 2 view .LVU406
	jmp	.L32
.LVL129:
.L15:
	.loc 4 1357 2 view .LVU407
.LBE1076:
.LBE1075:
.LBE1085:
.LBE1102:
	.loc 1 35 3 is_stmt 1 view .LVU408
	.loc 1 36 3 view .LVU409
	.loc 1 37 4 view .LVU410
.LBB1103:
.LBI1103:
	.loc 6 131 7 view .LVU411
.LBB1104:
.LBI1104:
	.loc 7 79 7 view .LVU412
	.loc 7 79 7 is_stmt 0 view .LVU413
.LBE1104:
.LBE1103:
.LBB1105:
.LBI1105:
	.loc 4 514 7 is_stmt 1 view .LVU414
.LBB1106:
.LBB1107:
.LBB1108:
.LBI1108:
	.loc 4 179 7 view .LVU415
	.loc 4 179 7 is_stmt 0 view .LVU416
.LBE1108:
.LBB1109:
.LBI1109:
	.loc 4 145 2 is_stmt 1 view .LVU417
.LBB1110:
.LBB1111:
.LBB1112:
.LBI1112:
	.loc 6 133 7 view .LVU418
.LBB1113:
.LBI1113:
	.loc 7 81 7 view .LVU419
	.loc 7 81 7 is_stmt 0 view .LVU420
.LBE1113:
.LBE1112:
	.loc 4 146 35 view .LVU421
	leaq	128(%rsp), %rax
.LVL130:
	.loc 4 146 35 view .LVU422
	movq	%rax, 112(%rsp)
.LVL131:
	.loc 4 146 35 view .LVU423
.LBE1111:
.LBE1110:
.LBE1109:
.LBB1114:
.LBI1114:
	.loc 5 314 7 is_stmt 1 view .LVU424
.LBE1114:
.LBE1107:
.LBE1106:
.LBE1105:
	.loc 5 320 2 view .LVU425
.LBB1121:
.LBB1120:
.LBB1119:
.LBB1115:
.LBI1115:
	.loc 4 252 9 view .LVU426
.LBB1116:
.LBB1117:
.LBI1117:
	.loc 4 232 9 view .LVU427
.LBB1118:
	.loc 4 236 11 is_stmt 0 view .LVU428
	movl	$.LC4+46, %edx
.LVL132:
	.loc 4 236 11 view .LVU429
	movl	$.LC4, %esi
	leaq	112(%rsp), %rdi
.LVL133:
.LEHB3:
	.loc 4 236 11 view .LVU430
	call	_ZNSt7__cxx1112basic_stringIcSt11char_traitsIcESaIcEE12_M_constructIPKcEEvT_S8_St20forward_iterator_tag
.LVL134:
.LEHE3:
	.loc 4 236 11 view .LVU431
.LBE1118:
.LBE1117:
.LBE1116:
.LBE1115:
.LBE1119:
.LBE1120:
.LBE1121:
.LBB1122:
.LBI1122:
	.loc 4 732 7 is_stmt 1 view .LVU432
.LBB1123:
.LBI1123:
	.loc 4 210 7 view .LVU433
.LBB1124:
.LBI1124:
	.loc 4 175 7 view .LVU434
.LBB1125:
	.loc 4 176 28 is_stmt 0 view .LVU435
	movq	(%rbx), %rax
.LVL135:
	.loc 4 176 28 view .LVU436
.LBE1125:
.LBE1124:
.LBB1126:
.LBI1126:
	.loc 4 189 7 is_stmt 1 view .LVU437
.LBB1127:
	.loc 4 192 57 is_stmt 0 view .LVU438
	leaq	16(%rbx), %rsi
.LVL136:
	.loc 4 192 57 view .LVU439
.LBE1127:
.LBE1126:
.LBE1123:
.LBB1128:
.LBB1129:
.LBI1129:
	.loc 4 210 7 is_stmt 1 view .LVU440
.LBB1130:
.LBI1130:
	.loc 4 175 7 view .LVU441
.LBB1131:
	.loc 4 176 28 is_stmt 0 view .LVU442
	movq	112(%rsp), %rdx
.LVL137:
	.loc 4 176 28 view .LVU443
.LBE1131:
.LBE1130:
.LBB1132:
.LBI1132:
	.loc 4 189 7 is_stmt 1 view .LVU444
	.loc 4 189 7 is_stmt 0 view .LVU445
.LBE1132:
.LBE1129:
	.loc 4 747 2 view .LVU446
	leaq	128(%rsp), %rcx
	cmpq	%rcx, %rdx
	je	.L34
.LVL138:
.LBB1133:
	.loc 4 753 6 view .LVU447
	cmpq	%rsi, %rax
	je	.L49
.LVL139:
	.loc 4 758 7 view .LVU448
	movq	16(%rbx), %r12
.LVL140:
.L35:
.LBB1134:
.LBI1134:
	.loc 4 167 7 is_stmt 1 view .LVU449
.LBB1135:
	.loc 4 168 9 is_stmt 0 view .LVU450
	movq	%rdx, (%rbx)
.LVL141:
	.loc 4 168 9 view .LVU451
.LBE1135:
.LBE1134:
.LBB1136:
.LBI1136:
	.loc 4 927 7 is_stmt 1 view .LVU452
.LBB1137:
	.loc 4 928 16 is_stmt 0 view .LVU453
	movq	120(%rsp), %rdx
.LVL142:
	.loc 4 928 16 view .LVU454
.LBE1137:
.LBE1136:
.LBB1138:
.LBI1138:
	.loc 4 171 7 is_stmt 1 view .LVU455
.LBB1139:
	.loc 4 172 9 is_stmt 0 view .LVU456
	movq	%rdx, 8(%rbx)
.LVL143:
	.loc 4 172 9 view .LVU457
.LBE1139:
.LBE1138:
	.loc 4 766 6 view .LVU458
	movq	128(%rsp), %rdx
.LVL144:
.LBB1140:
.LBI1140:
	.loc 4 199 7 is_stmt 1 view .LVU459
.LBB1141:
	.loc 4 200 9 is_stmt 0 view .LVU460
	movq	%rdx, 16(%rbx)
.LVL145:
	.loc 4 200 9 view .LVU461
.LBE1141:
.LBE1140:
	.loc 4 767 6 view .LVU462
	testq	%rax, %rax
	je	.L36
.LVL146:
.LBB1142:
.LBI1142:
	.loc 4 167 7 is_stmt 1 view .LVU463
.LBB1143:
	.loc 4 168 9 is_stmt 0 view .LVU464
	movq	%rax, 112(%rsp)
.LVL147:
	.loc 4 168 9 view .LVU465
.LBE1143:
.LBE1142:
.LBB1144:
.LBI1144:
	.loc 4 199 7 is_stmt 1 view .LVU466
.LBB1145:
	.loc 4 200 9 is_stmt 0 view .LVU467
	movq	%r12, 128(%rsp)
.LVL148:
.L37:
	.loc 4 200 9 view .LVU468
.LBE1145:
.LBE1144:
.LBE1133:
.LBE1128:
.LBB1151:
.LBI1151:
	.loc 4 1014 7 is_stmt 1 view .LVU469
.LBB1152:
.LBI1152:
	.loc 4 203 7 view .LVU470
.LBB1153:
.LBI1153:
	.loc 4 171 7 view .LVU471
.LBB1154:
	.loc 4 172 9 is_stmt 0 view .LVU472
	movq	$0, 120(%rsp)
.LVL149:
	.loc 4 172 9 view .LVU473
.LBE1154:
.LBE1153:
.LBB1155:
.LBI1155:
	.loc 4 175 7 is_stmt 1 view .LVU474
.LBB1156:
	.loc 4 176 28 is_stmt 0 view .LVU475
	movq	112(%rsp), %rax
.LVL150:
	.loc 4 176 28 view .LVU476
.LBE1156:
.LBE1155:
.LBB1157:
.LBI1157:
	.loc 5 284 7 is_stmt 1 view .LVU477
.LBB1158:
	.loc 5 285 9 view .LVU478
	.loc 5 285 14 is_stmt 0 view .LVU479
	movb	$0, (%rax)
.LVL151:
	.loc 5 285 14 view .LVU480
.LBE1158:
.LBE1157:
.LBE1152:
.LBE1151:
.LBE1122:
.LBB1160:
.LBI1160:
	.loc 4 656 7 is_stmt 1 view .LVU481
.LBB1161:
.LBI1161:
	.loc 4 218 7 view .LVU482
.LBB1162:
.LBB1163:
.LBI1163:
	.loc 4 210 7 view .LVU483
.LBB1164:
.LBI1164:
	.loc 4 175 7 view .LVU484
.LBB1165:
	.loc 4 176 28 is_stmt 0 view .LVU485
	movq	112(%rsp), %rdi
.LVL152:
	.loc 4 176 28 view .LVU486
.LBE1165:
.LBE1164:
.LBB1166:
.LBI1166:
	.loc 4 189 7 is_stmt 1 view .LVU487
	.loc 4 189 7 is_stmt 0 view .LVU488
.LBE1166:
.LBE1163:
	.loc 4 220 2 view .LVU489
	leaq	128(%rsp), %rax
	cmpq	%rax, %rdi
	je	.L11
.LVL153:
.LBB1167:
.LBI1167:
	.loc 4 225 7 is_stmt 1 view .LVU490
.LBB1168:
.LBI1168:
	.loc 9 461 7 view .LVU491
.LBB1169:
.LBI1169:
	.loc 7 116 7 view .LVU492
.LBB1170:
	.loc 7 125 19 is_stmt 0 view .LVU493
	call	_ZdlPv
.LVL154:
	.loc 7 125 19 view .LVU494
.LBE1170:
.LBE1169:
.LBE1168:
.LBE1167:
.LBE1162:
.LBE1161:
.LBB1171:
.LBI1171:
	.loc 4 139 14 is_stmt 1 view .LVU495
.LBB1172:
.LBI1172:
	.loc 6 139 7 view .LVU496
.LBB1173:
.LBI1173:
	.loc 7 86 7 view .LVU497
	.loc 7 86 7 is_stmt 0 view .LVU498
.LBE1173:
.LBE1172:
.LBE1171:
.LBE1160:
.LBB1174:
.LBI1174:
	.loc 6 139 7 is_stmt 1 view .LVU499
.LBB1175:
.LBI1175:
	.loc 7 86 7 view .LVU500
	.loc 7 86 7 is_stmt 0 view .LVU501
.LBE1175:
.LBE1174:
	.loc 1 38 4 is_stmt 1 view .LVU502
	jmp	.L11
.LVL155:
.L49:
.LBB1176:
.LBB1159:
.LBB1148:
	.loc 4 751 14 is_stmt 0 view .LVU503
	movl	$0, %eax
	jmp	.L35
.LVL156:
.L36:
.LBB1146:
.LBI1146:
	.loc 4 167 7 is_stmt 1 view .LVU504
.LBB1147:
	.loc 4 168 9 is_stmt 0 view .LVU505
	leaq	128(%rsp), %rax
.LVL157:
	.loc 4 168 9 view .LVU506
	movq	%rax, 112(%rsp)
	jmp	.L37
.LVL158:
.L34:
	.loc 4 168 9 view .LVU507
.LBE1147:
.LBE1146:
.LBE1148:
.LBB1149:
.LBI1149:
	.loc 4 1355 7 is_stmt 1 view .LVU508
.LBB1150:
	.loc 4 1357 2 is_stmt 0 view .LVU509
	leaq	112(%rsp), %rsi
.LVL159:
	.loc 4 1357 2 view .LVU510
	movq	%rbx, %rdi
	call	_ZNSt7__cxx1112basic_stringIcSt11char_traitsIcESaIcEE9_M_assignERKS4_
.LVL160:
	.loc 4 1357 2 view .LVU511
	jmp	.L37
.LVL161:
.L13:
	.loc 4 1357 2 view .LVU512
.LBE1150:
.LBE1149:
.LBE1159:
.LBE1176:
	.loc 1 41 3 is_stmt 1 view .LVU513
	.loc 1 42 3 view .LVU514
	.loc 1 43 4 view .LVU515
.LBB1177:
.LBI1177:
	.loc 6 131 7 view .LVU516
.LBB1178:
.LBI1178:
	.loc 7 79 7 view .LVU517
	.loc 7 79 7 is_stmt 0 view .LVU518
.LBE1178:
.LBE1177:
.LBB1179:
.LBI1179:
	.loc 4 514 7 is_stmt 1 view .LVU519
.LBB1180:
.LBB1181:
.LBB1182:
.LBI1182:
	.loc 4 179 7 view .LVU520
	.loc 4 179 7 is_stmt 0 view .LVU521
.LBE1182:
.LBB1183:
.LBI1183:
	.loc 4 145 2 is_stmt 1 view .LVU522
.LBB1184:
.LBB1185:
.LBB1186:
.LBI1186:
	.loc 6 133 7 view .LVU523
.LBB1187:
.LBI1187:
	.loc 7 81 7 view .LVU524
	.loc 7 81 7 is_stmt 0 view .LVU525
.LBE1187:
.LBE1186:
	.loc 4 146 35 view .LVU526
	leaq	160(%rsp), %rax
.LVL162:
	.loc 4 146 35 view .LVU527
	movq	%rax, 144(%rsp)
.LVL163:
	.loc 4 146 35 view .LVU528
.LBE1185:
.LBE1184:
.LBE1183:
.LBB1188:
.LBI1188:
	.loc 5 314 7 is_stmt 1 view .LVU529
.LBE1188:
.LBE1181:
.LBE1180:
.LBE1179:
	.loc 5 320 2 view .LVU530
.LBB1195:
.LBB1194:
.LBB1193:
.LBB1189:
.LBI1189:
	.loc 4 252 9 view .LVU531
.LBB1190:
.LBB1191:
.LBI1191:
	.loc 4 232 9 view .LVU532
.LBB1192:
	.loc 4 236 11 is_stmt 0 view .LVU533
	movl	$.LC5+29, %edx
.LVL164:
	.loc 4 236 11 view .LVU534
	movl	$.LC5, %esi
	leaq	144(%rsp), %rdi
.LVL165:
.LEHB4:
	.loc 4 236 11 view .LVU535
	call	_ZNSt7__cxx1112basic_stringIcSt11char_traitsIcESaIcEE12_M_constructIPKcEEvT_S8_St20forward_iterator_tag
.LVL166:
.LEHE4:
	.loc 4 236 11 view .LVU536
.LBE1192:
.LBE1191:
.LBE1190:
.LBE1189:
.LBE1193:
.LBE1194:
.LBE1195:
.LBB1196:
.LBI1196:
	.loc 4 732 7 is_stmt 1 view .LVU537
.LBB1197:
.LBI1197:
	.loc 4 210 7 view .LVU538
.LBB1198:
.LBI1198:
	.loc 4 175 7 view .LVU539
.LBB1199:
	.loc 4 176 28 is_stmt 0 view .LVU540
	movq	(%rbx), %rax
.LVL167:
	.loc 4 176 28 view .LVU541
.LBE1199:
.LBE1198:
.LBB1200:
.LBI1200:
	.loc 4 189 7 is_stmt 1 view .LVU542
.LBB1201:
	.loc 4 192 57 is_stmt 0 view .LVU543
	leaq	16(%rbx), %rsi
.LVL168:
	.loc 4 192 57 view .LVU544
.LBE1201:
.LBE1200:
.LBE1197:
.LBB1202:
.LBB1203:
.LBI1203:
	.loc 4 210 7 is_stmt 1 view .LVU545
.LBB1204:
.LBI1204:
	.loc 4 175 7 view .LVU546
.LBB1205:
	.loc 4 176 28 is_stmt 0 view .LVU547
	movq	144(%rsp), %rdx
.LVL169:
	.loc 4 176 28 view .LVU548
.LBE1205:
.LBE1204:
.LBB1206:
.LBI1206:
	.loc 4 189 7 is_stmt 1 view .LVU549
	.loc 4 189 7 is_stmt 0 view .LVU550
.LBE1206:
.LBE1203:
	.loc 4 747 2 view .LVU551
	leaq	160(%rsp), %rcx
	cmpq	%rcx, %rdx
	je	.L39
.LVL170:
.LBB1207:
	.loc 4 753 6 view .LVU552
	cmpq	%rsi, %rax
	je	.L50
.LVL171:
	.loc 4 758 7 view .LVU553
	movq	16(%rbx), %rcx
	movq	%rcx, 8(%rsp)
.LVL172:
.L40:
.LBB1208:
.LBI1208:
	.loc 4 167 7 is_stmt 1 view .LVU554
.LBB1209:
	.loc 4 168 9 is_stmt 0 view .LVU555
	movq	%rdx, (%rbx)
.LVL173:
	.loc 4 168 9 view .LVU556
.LBE1209:
.LBE1208:
.LBB1210:
.LBI1210:
	.loc 4 927 7 is_stmt 1 view .LVU557
.LBB1211:
	.loc 4 928 16 is_stmt 0 view .LVU558
	movq	152(%rsp), %rdx
.LVL174:
	.loc 4 928 16 view .LVU559
.LBE1211:
.LBE1210:
.LBB1212:
.LBI1212:
	.loc 4 171 7 is_stmt 1 view .LVU560
.LBB1213:
	.loc 4 172 9 is_stmt 0 view .LVU561
	movq	%rdx, 8(%rbx)
.LVL175:
	.loc 4 172 9 view .LVU562
.LBE1213:
.LBE1212:
	.loc 4 766 6 view .LVU563
	movq	160(%rsp), %rdx
.LVL176:
.LBB1214:
.LBI1214:
	.loc 4 199 7 is_stmt 1 view .LVU564
.LBB1215:
	.loc 4 200 9 is_stmt 0 view .LVU565
	movq	%rdx, 16(%rbx)
.LVL177:
	.loc 4 200 9 view .LVU566
.LBE1215:
.LBE1214:
	.loc 4 767 6 view .LVU567
	testq	%rax, %rax
	je	.L41
.LVL178:
.LBB1216:
.LBI1216:
	.loc 4 167 7 is_stmt 1 view .LVU568
.LBB1217:
	.loc 4 168 9 is_stmt 0 view .LVU569
	movq	%rax, 144(%rsp)
.LVL179:
	.loc 4 168 9 view .LVU570
.LBE1217:
.LBE1216:
.LBB1218:
.LBI1218:
	.loc 4 199 7 is_stmt 1 view .LVU571
.LBB1219:
	.loc 4 200 9 is_stmt 0 view .LVU572
	movq	8(%rsp), %rax
.LVL180:
	.loc 4 200 9 view .LVU573
	movq	%rax, 160(%rsp)
.LVL181:
.L42:
	.loc 4 200 9 view .LVU574
.LBE1219:
.LBE1218:
.LBE1207:
.LBE1202:
.LBB1225:
.LBI1225:
	.loc 4 1014 7 is_stmt 1 view .LVU575
.LBB1226:
.LBI1226:
	.loc 4 203 7 view .LVU576
.LBB1227:
.LBI1227:
	.loc 4 171 7 view .LVU577
.LBB1228:
	.loc 4 172 9 is_stmt 0 view .LVU578
	movq	$0, 152(%rsp)
.LVL182:
	.loc 4 172 9 view .LVU579
.LBE1228:
.LBE1227:
.LBB1229:
.LBI1229:
	.loc 4 175 7 is_stmt 1 view .LVU580
.LBB1230:
	.loc 4 176 28 is_stmt 0 view .LVU581
	movq	144(%rsp), %rax
.LVL183:
	.loc 4 176 28 view .LVU582
.LBE1230:
.LBE1229:
.LBB1231:
.LBI1231:
	.loc 5 284 7 is_stmt 1 view .LVU583
.LBB1232:
	.loc 5 285 9 view .LVU584
	.loc 5 285 14 is_stmt 0 view .LVU585
	movb	$0, (%rax)
.LVL184:
	.loc 5 285 14 view .LVU586
.LBE1232:
.LBE1231:
.LBE1226:
.LBE1225:
.LBE1196:
.LBB1234:
.LBI1234:
	.loc 4 656 7 is_stmt 1 view .LVU587
.LBB1235:
.LBI1235:
	.loc 4 218 7 view .LVU588
.LBB1236:
.LBB1237:
.LBI1237:
	.loc 4 210 7 view .LVU589
.LBB1238:
.LBI1238:
	.loc 4 175 7 view .LVU590
.LBB1239:
	.loc 4 176 28 is_stmt 0 view .LVU591
	movq	144(%rsp), %rdi
.LVL185:
	.loc 4 176 28 view .LVU592
.LBE1239:
.LBE1238:
.LBB1240:
.LBI1240:
	.loc 4 189 7 is_stmt 1 view .LVU593
	.loc 4 189 7 is_stmt 0 view .LVU594
.LBE1240:
.LBE1237:
	.loc 4 220 2 view .LVU595
	leaq	160(%rsp), %rax
	cmpq	%rax, %rdi
	je	.L11
.LVL186:
.LBB1241:
.LBI1241:
	.loc 4 225 7 is_stmt 1 view .LVU596
.LBB1242:
.LBI1242:
	.loc 9 461 7 view .LVU597
.LBB1243:
.LBI1243:
	.loc 7 116 7 view .LVU598
.LBB1244:
	.loc 7 125 19 is_stmt 0 view .LVU599
	call	_ZdlPv
.LVL187:
	.loc 7 125 19 view .LVU600
.LBE1244:
.LBE1243:
.LBE1242:
.LBE1241:
.LBE1236:
.LBE1235:
.LBB1245:
.LBI1245:
	.loc 4 139 14 is_stmt 1 view .LVU601
.LBB1246:
.LBI1246:
	.loc 6 139 7 view .LVU602
.LBB1247:
.LBI1247:
	.loc 7 86 7 view .LVU603
	.loc 7 86 7 is_stmt 0 view .LVU604
.LBE1247:
.LBE1246:
.LBE1245:
.LBE1234:
.LBB1248:
.LBI1248:
	.loc 6 139 7 is_stmt 1 view .LVU605
.LBB1249:
.LBI1249:
	.loc 7 86 7 view .LVU606
	.loc 7 86 7 is_stmt 0 view .LVU607
.LBE1249:
.LBE1248:
	.loc 1 44 4 is_stmt 1 view .LVU608
	.loc 1 48 2 view .LVU609
	.loc 1 48 9 is_stmt 0 view .LVU610
	jmp	.L11
.LVL188:
.L50:
.LBB1250:
.LBB1233:
.LBB1222:
	.loc 4 751 14 view .LVU611
	movl	$0, %eax
	jmp	.L40
.LVL189:
.L41:
.LBB1220:
.LBI1220:
	.loc 4 167 7 is_stmt 1 view .LVU612
.LBB1221:
	.loc 4 168 9 is_stmt 0 view .LVU613
	leaq	160(%rsp), %rax
.LVL190:
	.loc 4 168 9 view .LVU614
	movq	%rax, 144(%rsp)
	jmp	.L42
.LVL191:
.L39:
	.loc 4 168 9 view .LVU615
.LBE1221:
.LBE1220:
.LBE1222:
.LBB1223:
.LBI1223:
	.loc 4 1355 7 is_stmt 1 view .LVU616
.LBB1224:
	.loc 4 1357 2 is_stmt 0 view .LVU617
	leaq	144(%rsp), %rsi
.LVL192:
	.loc 4 1357 2 view .LVU618
	movq	%rbx, %rdi
	call	_ZNSt7__cxx1112basic_stringIcSt11char_traitsIcESaIcEE9_M_assignERKS4_
.LVL193:
	.loc 4 1357 2 view .LVU619
	jmp	.L42
.LVL194:
.L51:
	.loc 4 1357 2 view .LVU620
	movq	%rax, %r12
.LVL195:
	.loc 4 1357 2 view .LVU621
.LBE1224:
.LBE1223:
.LBE1233:
.LBE1250:
.LBB1251:
.LBB1252:
.LBI1252:
	.loc 4 218 7 is_stmt 1 view .LVU622
.LBB1253:
.LBB1254:
.LBI1254:
	.loc 4 210 7 view .LVU623
.LBB1255:
.LBI1255:
	.loc 4 175 7 view .LVU624
.LBB1256:
	.loc 4 176 28 is_stmt 0 view .LVU625
	movq	(%rbx), %rdi
.LVL196:
	.loc 4 176 28 view .LVU626
.LBE1256:
.LBE1255:
.LBE1254:
	.loc 4 220 2 view .LVU627
	cmpq	%rbp, %rdi
	je	.L45
.LVL197:
.LBB1257:
.LBI1257:
	.loc 4 225 7 is_stmt 1 view .LVU628
.LBB1258:
.LBI1258:
	.loc 9 461 7 view .LVU629
.LBB1259:
.LBI1259:
	.loc 7 116 7 view .LVU630
.LBB1260:
	.loc 7 125 19 is_stmt 0 view .LVU631
	call	_ZdlPv
.LVL198:
.L45:
	.loc 7 125 19 view .LVU632
.LBE1260:
.LBE1259:
.LBE1258:
.LBE1257:
.LBE1253:
.LBE1252:
.LBB1261:
.LBI1261:
	.loc 4 139 14 is_stmt 1 view .LVU633
.LBB1262:
.LBI1262:
	.loc 6 139 7 view .LVU634
.LBB1263:
.LBI1263:
	.loc 7 86 7 view .LVU635
	.loc 7 86 7 is_stmt 0 view .LVU636
	movq	%r12, %rdi
.LEHB5:
	call	_Unwind_Resume
.LVL199:
.LEHE5:
.LBE1263:
.LBE1262:
.LBE1261:
.LBE1251:
	.cfi_endproc
.LFE1030:
	.globl	__gxx_personality_v0
	.section	.gcc_except_table,"a",@progbits
.LLSDA1030:
	.byte	0xff
	.byte	0xff
	.byte	0x1
	.uleb128 .LLSDACSE1030-.LLSDACSB1030
.LLSDACSB1030:
	.uleb128 .LEHB0-.LFB1030
	.uleb128 .LEHE0-.LEHB0
	.uleb128 .L51-.LFB1030
	.uleb128 0
	.uleb128 .LEHB1-.LFB1030
	.uleb128 .LEHE1-.LEHB1
	.uleb128 .L51-.LFB1030
	.uleb128 0
	.uleb128 .LEHB2-.LFB1030
	.uleb128 .LEHE2-.LEHB2
	.uleb128 .L51-.LFB1030
	.uleb128 0
	.uleb128 .LEHB3-.LFB1030
	.uleb128 .LEHE3-.LEHB3
	.uleb128 .L51-.LFB1030
	.uleb128 0
	.uleb128 .LEHB4-.LFB1030
	.uleb128 .LEHE4-.LEHB4
	.uleb128 .L51-.LFB1030
	.uleb128 0
	.uleb128 .LEHB5-.LFB1030
	.uleb128 .LEHE5-.LEHB5
	.uleb128 0
	.uleb128 0
.LLSDACSE1030:
	.text
	.size	_ZN3mpp5Reply11getFCStringB5cxx11ENS0_6StatusE, .-_ZN3mpp5Reply11getFCStringB5cxx11ENS0_6StatusE
.Letext0:
	.file 10 "/usr/include/c++/8/bits/stringfwd.h"
	.file 11 "/usr/include/c++/8/type_traits"
	.file 12 "/usr/include/c++/8/bits/stl_pair.h"
	.file 13 "/usr/include/c++/8/bits/cpp_type_traits.h"
	.file 14 "/usr/include/c++/8/bits/stl_iterator_base_types.h"
	.file 15 "/usr/include/c++/8/debug/debug.h"
	.file 16 "/usr/include/c++/8/cwchar"
	.file 17 "/usr/include/c++/8/x86_64-suse-linux/bits/c++config.h"
	.file 18 "/usr/include/c++/8/cstdint"
	.file 19 "/usr/include/c++/8/bits/exception_ptr.h"
	.file 20 "/usr/include/c++/8/new"
	.file 21 "/usr/include/c++/8/clocale"
	.file 22 "/usr/include/c++/8/cstdlib"
	.file 23 "/usr/include/c++/8/cstdio"
	.file 24 "/usr/include/c++/8/initializer_list"
	.file 25 "/usr/include/c++/8/bits/ptr_traits.h"
	.file 26 "/usr/include/c++/8/bits/predefined_ops.h"
	.file 27 "/usr/include/c++/8/ext/numeric_traits.h"
	.file 28 "/usr/include/c++/8/ext/alloc_traits.h"
	.file 29 "/usr/include/c++/8/bits/stl_iterator.h"
	.file 30 "/usr/include/c++/8/ext/type_traits.h"
	.file 31 "/usr/lib64/gcc/x86_64-suse-linux/8/include/stddef.h"
	.file 32 "<built-in>"
	.file 33 "/usr/include/bits/types/wint_t.h"
	.file 34 "/usr/include/bits/types/__mbstate_t.h"
	.file 35 "/usr/include/bits/types/mbstate_t.h"
	.file 36 "/usr/include/bits/types/__FILE.h"
	.file 37 "/usr/include/libio.h"
	.file 38 "/usr/include/bits/types/FILE.h"
	.file 39 "/usr/include/wchar.h"
	.file 40 "/usr/include/bits/types/struct_tm.h"
	.file 41 "/usr/include/bits/types.h"
	.file 42 "/usr/include/bits/stdint-intn.h"
	.file 43 "/usr/include/bits/stdint-uintn.h"
	.file 44 "/usr/include/stdint.h"
	.file 45 "/usr/include/locale.h"
	.file 46 "/usr/include/time.h"
	.file 47 "/usr/include/stdlib.h"
	.file 48 "/usr/include/bits/stdlib-float.h"
	.file 49 "/usr/include/bits/stdlib-bsearch.h"
	.file 50 "/usr/include/_G_config.h"
	.file 51 "/usr/include/stdio.h"
	.file 52 "/usr/include/bits/sys_errlist.h"
	.file 53 "/usr/include/bits/stdio.h"
	.file 54 "/usr/include/errno.h"
	.file 55 "./hpp/mpp/Reply.hpp"
	.file 56 "/usr/include/c++/8/bits/functexcept.h"
	.section	.note.GNU-stack,"",@progbits
