	.file	"ReqHandler.cpp"
	.text
.Ltext0:
	.section	.rodata._ZNK5boost6system6detail22generic_error_category4nameEv.str1.1,"aMS",@progbits,1
.LC0:
	.string	"generic"
	.section	.text._ZNK5boost6system6detail22generic_error_category4nameEv,"axG",@progbits,_ZNK5boost6system6detail22generic_error_category4nameEv,comdat
	.align 2
	.weak	_ZNK5boost6system6detail22generic_error_category4nameEv
	.type	_ZNK5boost6system6detail22generic_error_category4nameEv, @function
_ZNK5boost6system6detail22generic_error_category4nameEv:
.LVL0:
.LFB4486:
	.file 1 "/usr/local/include/boost/system/error_code.hpp"
	.loc 1 290 18 view -0
	.cfi_startproc
	.loc 1 292 9 view .LVU1
	.loc 1 293 5 is_stmt 0 view .LVU2
	movl	$.LC0, %eax
	ret
	.cfi_endproc
.LFE4486:
	.size	_ZNK5boost6system6detail22generic_error_category4nameEv, .-_ZNK5boost6system6detail22generic_error_category4nameEv
	.section	.rodata._ZNK5boost6system6detail21system_error_category4nameEv.str1.1,"aMS",@progbits,1
.LC1:
	.string	"system"
	.section	.text._ZNK5boost6system6detail21system_error_category4nameEv,"axG",@progbits,_ZNK5boost6system6detail21system_error_category4nameEv,comdat
	.align 2
	.weak	_ZNK5boost6system6detail21system_error_category4nameEv
	.type	_ZNK5boost6system6detail21system_error_category4nameEv, @function
_ZNK5boost6system6detail21system_error_category4nameEv:
.LVL1:
.LFB4490:
	.loc 1 308 18 is_stmt 1 view -0
	.cfi_startproc
	.loc 1 310 9 view .LVU4
	.loc 1 311 5 is_stmt 0 view .LVU5
	movl	$.LC1, %eax
	ret
	.cfi_endproc
.LFE4490:
	.size	_ZNK5boost6system6detail21system_error_category4nameEv, .-_ZNK5boost6system6detail21system_error_category4nameEv
	.section	.text._ZNK5boost6system14error_category23default_error_conditionEi,"axG",@progbits,_ZNK5boost6system14error_category23default_error_conditionEi,comdat
	.align 2
	.weak	_ZNK5boost6system14error_category23default_error_conditionEi
	.type	_ZNK5boost6system14error_category23default_error_conditionEi, @function
_ZNK5boost6system14error_category23default_error_conditionEi:
.LVL2:
.LFB4545:
	.loc 1 831 1 is_stmt 1 view -0
	.cfi_startproc
	.loc 1 831 1 is_stmt 0 view .LVU7
	pushq	%rbp
	.cfi_def_cfa_offset 16
	.cfi_offset 6, -16
	pushq	%rbx
	.cfi_def_cfa_offset 24
	.cfi_offset 3, -24
	subq	$8, %rsp
	.cfi_def_cfa_offset 32
	movq	%rdi, %rbx
	.loc 1 832 5 is_stmt 1 view .LVU8
.LVL3:
.LBB2019:
.LBI2019:
	.loc 1 451 15 view .LVU9
.LBB2020:
.LBB2021:
	.loc 1 452 77 is_stmt 0 view .LVU10
	movl	%esi, %ebp
.LVL4:
.LBB2022:
.LBI2022:
	.loc 1 414 23 is_stmt 1 view .LVU11
.LBB2023:
	.loc 1 416 5 view .LVU12
.LBB2024:
.LBI2024:
	.loc 1 233 20 view .LVU13
.LBB2025:
	.loc 1 235 9 view .LVU14
	.loc 1 235 44 is_stmt 0 view .LVU15
	movq	8(%rdi), %rax
.LVL5:
	.loc 1 235 44 view .LVU16
.LBE2025:
.LBE2024:
	.loc 1 416 34 view .LVU17
	movabsq	$-8093018978436915045, %rdx
	cmpq	%rdx, %rax
	je	.L4
.LVL6:
	.loc 1 416 34 view .LVU18
.LBE2023:
.LBE2022:
.LBE2021:
.LBE2020:
.LBE2019:
	.loc 1 235 9 is_stmt 1 view .LVU19
.LBB2034:
.LBB2032:
.LBB2030:
.LBB2028:
.LBB2026:
	.loc 1 416 34 is_stmt 0 view .LVU20
	movabsq	$-5572340897628102899, %rdx
	cmpq	%rdx, %rax
	je	.L4
	.loc 1 422 9 is_stmt 1 view .LVU21
	.loc 1 422 31 is_stmt 0 view .LVU22
	movq	(%rdi), %rax
	.loc 1 422 26 view .LVU23
	call	*48(%rax)
.LVL7:
.L6:
	.loc 1 422 26 view .LVU24
.LBE2026:
.LBE2028:
	.loc 1 452 77 view .LVU25
	movzbl	%al, %eax
	salq	$32, %rax
	orq	%rbp, %rax
.LVL8:
	.loc 1 452 77 view .LVU26
.LBE2030:
.LBE2032:
.LBE2034:
	.loc 1 833 1 view .LVU27
	movq	%rbx, %rdx
	addq	$8, %rsp
	.cfi_remember_state
	.cfi_def_cfa_offset 24
	popq	%rbx
	.cfi_def_cfa_offset 16
.LVL9:
	.loc 1 833 1 view .LVU28
	popq	%rbp
	.cfi_def_cfa_offset 8
.LVL10:
	.loc 1 833 1 view .LVU29
	ret
.LVL11:
.L4:
	.cfi_restore_state
.LBB2035:
.LBB2033:
.LBB2031:
.LBB2029:
.LBB2027:
	.loc 1 418 9 is_stmt 1 view .LVU30
	.loc 1 418 22 is_stmt 0 view .LVU31
	testl	%esi, %esi
	setne	%al
	jmp	.L6
.LBE2027:
.LBE2029:
.LBE2031:
.LBE2033:
.LBE2035:
	.cfi_endproc
.LFE4545:
	.size	_ZNK5boost6system14error_category23default_error_conditionEi, .-_ZNK5boost6system14error_category23default_error_conditionEi
	.section	.text._ZNK5boost6system14error_category10equivalentEiRKNS0_15error_conditionE,"axG",@progbits,_ZNK5boost6system14error_category10equivalentEiRKNS0_15error_conditionE,comdat
	.align 2
	.weak	_ZNK5boost6system14error_category10equivalentEiRKNS0_15error_conditionE
	.type	_ZNK5boost6system14error_category10equivalentEiRKNS0_15error_conditionE, @function
_ZNK5boost6system14error_category10equivalentEiRKNS0_15error_conditionE:
.LVL12:
.LFB4546:
	.loc 1 836 1 is_stmt 1 view -0
	.cfi_startproc
	.loc 1 836 1 is_stmt 0 view .LVU33
	pushq	%rbx
	.cfi_def_cfa_offset 16
	.cfi_offset 3, -16
	movq	%rdx, %rbx
	.loc 1 837 5 is_stmt 1 view .LVU34
	.loc 1 837 42 is_stmt 0 view .LVU35
	movq	(%rdi), %rax
	call	*8(%rax)
.LVL13:
.LBB2036:
.LBI2036:
	.loc 1 541 34 is_stmt 1 view .LVU36
.LBB2037:
	.loc 1 543 9 view .LVU37
	.loc 1 543 37 is_stmt 0 view .LVU38
	cmpl	%eax, (%rbx)
	je	.L14
	movl	$0, %eax
.LVL14:
.L8:
	.loc 1 543 37 view .LVU39
.LBE2037:
.LBE2036:
	.loc 1 838 1 view .LVU40
	popq	%rbx
	.cfi_remember_state
	.cfi_def_cfa_offset 8
.LVL15:
	.loc 1 838 1 view .LVU41
	ret
.LVL16:
.L14:
	.cfi_restore_state
.LBB2041:
.LBB2040:
	.loc 1 543 58 view .LVU42
	movq	8(%rbx), %rcx
.LVL17:
.LBB2038:
.LBI2038:
	.loc 1 233 20 is_stmt 1 view .LVU43
.LBB2039:
	.loc 1 235 9 view .LVU44
	.loc 1 235 20 is_stmt 0 view .LVU45
	movq	8(%rcx), %rax
	.loc 1 235 28 view .LVU46
	testq	%rax, %rax
	jne	.L10
	cmpq	%rdx, %rcx
	sete	%al
	jmp	.L8
.L10:
	cmpq	8(%rdx), %rax
	sete	%al
.LVL18:
	.loc 1 235 28 view .LVU47
	jmp	.L8
.LBE2039:
.LBE2038:
.LBE2040:
.LBE2041:
	.cfi_endproc
.LFE4546:
	.size	_ZNK5boost6system14error_category10equivalentEiRKNS0_15error_conditionE, .-_ZNK5boost6system14error_category10equivalentEiRKNS0_15error_conditionE
	.section	.text._ZNK5boost6system14error_category10equivalentERKNS0_10error_codeEi,"axG",@progbits,_ZNK5boost6system14error_category10equivalentERKNS0_10error_codeEi,comdat
	.align 2
	.weak	_ZNK5boost6system14error_category10equivalentERKNS0_10error_codeEi
	.type	_ZNK5boost6system14error_category10equivalentERKNS0_10error_codeEi, @function
_ZNK5boost6system14error_category10equivalentERKNS0_10error_codeEi:
.LVL19:
.LFB4547:
	.loc 1 841 1 is_stmt 1 view -0
	.cfi_startproc
	.loc 1 842 5 view .LVU49
.LBB2042:
.LBI2042:
	.loc 1 629 38 view .LVU50
.LBB2043:
	.loc 1 631 9 view .LVU51
	.loc 1 631 17 is_stmt 0 view .LVU52
	movq	8(%rsi), %rcx
.LVL20:
	.loc 1 631 17 view .LVU53
.LBE2043:
.LBE2042:
.LBB2044:
.LBI2044:
	.loc 1 233 20 is_stmt 1 view .LVU54
.LBB2045:
	.loc 1 235 9 view .LVU55
	.loc 1 235 20 is_stmt 0 view .LVU56
	movq	8(%rcx), %rax
	.loc 1 235 28 view .LVU57
	testq	%rax, %rax
	jne	.L16
	cmpq	%rcx, %rdi
	sete	%al
.L17:
.LVL21:
	.loc 1 235 28 view .LVU58
.LBE2045:
.LBE2044:
	.loc 1 842 37 view .LVU59
	testb	%al, %al
	je	.L15
.LVL22:
.LBB2047:
.LBI2047:
	.loc 1 624 19 is_stmt 1 view .LVU60
.LBB2048:
	.loc 1 626 9 view .LVU61
	.loc 1 626 9 is_stmt 0 view .LVU62
.LBE2048:
.LBE2047:
	.loc 1 842 37 view .LVU63
	cmpl	(%rsi), %edx
	je	.L15
	movl	$0, %eax
.L15:
	.loc 1 843 1 view .LVU64
	ret
.LVL23:
.L16:
.LBB2049:
.LBB2046:
	.loc 1 235 28 view .LVU65
	cmpq	%rax, 8(%rdi)
	sete	%al
	jmp	.L17
.LBE2046:
.LBE2049:
	.cfi_endproc
.LFE4547:
	.size	_ZNK5boost6system14error_category10equivalentERKNS0_10error_codeEi, .-_ZNK5boost6system14error_category10equivalentERKNS0_10error_codeEi
	.section	.text._ZNK5boost6system14error_category6failedEi,"axG",@progbits,_ZNK5boost6system14error_category6failedEi,comdat
	.align 2
	.weak	_ZNK5boost6system14error_category6failedEi
	.type	_ZNK5boost6system14error_category6failedEi, @function
_ZNK5boost6system14error_category6failedEi:
.LVL24:
.LFB4549:
	.loc 1 894 1 is_stmt 1 view -0
	.cfi_startproc
	.loc 1 895 5 view .LVU67
	.loc 1 895 18 is_stmt 0 view .LVU68
	testl	%esi, %esi
	setne	%al
	.loc 1 896 1 view .LVU69
	ret
	.cfi_endproc
.LFE4549:
	.size	_ZNK5boost6system14error_category6failedEi, .-_ZNK5boost6system14error_category6failedEi
	.section	.text._ZNK5boost6system6detail21system_error_category23default_error_conditionEi,"axG",@progbits,_ZNK5boost6system6detail21system_error_category23default_error_conditionEi,comdat
	.align 2
	.weak	_ZNK5boost6system6detail21system_error_category23default_error_conditionEi
	.type	_ZNK5boost6system6detail21system_error_category23default_error_conditionEi, @function
_ZNK5boost6system6detail21system_error_category23default_error_conditionEi:
.LVL25:
.LFB4558:
	.loc 1 942 1 is_stmt 1 view -0
	.cfi_startproc
	.loc 1 943 5 view .LVU71
.LBB2065:
.LBI2065:
	.file 2 "/usr/local/include/boost/system/detail/system_category_posix.hpp"
	.loc 2 116 24 view .LVU72
.LBB2066:
	.loc 2 118 5 view .LVU73
.LBB2067:
.LBI2067:
	.loc 2 19 13 view .LVU74
.LBB2068:
	.loc 2 21 5 view .LVU75
	.loc 2 23 5 view .LVU76
	.loc 2 106 5 view .LVU77
	.loc 2 108 5 view .LVU78
.LBB2069:
	.loc 2 108 14 is_stmt 0 view .LVU79
	movl	$0, %eax
.LVL26:
.L23:
	.loc 2 108 23 view .LVU80
	cmpl	$78, %eax
	jg	.L26
	.loc 2 110 9 is_stmt 1 view .LVU81
	.loc 2 110 26 is_stmt 0 view .LVU82
	movslq	%eax, %rdx
	.loc 2 110 9 view .LVU83
	cmpl	_ZZN5boost6system6detail16is_generic_valueEiE3gen(,%rdx,4), %esi
	je	.L27
	.loc 2 108 5 view .LVU84
	addl	$1, %eax
.LVL27:
	.loc 2 108 5 view .LVU85
	jmp	.L23
.L26:
	.loc 2 108 5 view .LVU86
.LBE2069:
	.loc 2 113 12 view .LVU87
	movl	$0, %eax
.LVL28:
	.loc 2 113 12 view .LVU88
	jmp	.L22
.LVL29:
.L27:
.LBB2070:
	.loc 2 110 37 view .LVU89
	movl	$1, %eax
.LVL30:
.L22:
	.loc 2 110 37 view .LVU90
.LBE2070:
.LBE2068:
.LBE2067:
	.loc 2 118 5 view .LVU91
	testb	%al, %al
	je	.L24
	.loc 2 120 9 is_stmt 1 view .LVU92
.LVL31:
.LBB2071:
.LBI2071:
	.loc 1 451 15 view .LVU93
.LBB2072:
.LBB2073:
.LBB2074:
.LBI2074:
	.loc 1 414 23 view .LVU94
.LBB2075:
	.loc 1 416 5 view .LVU95
	.loc 1 416 5 is_stmt 0 view .LVU96
.LBE2075:
.LBE2074:
.LBE2073:
.LBE2072:
.LBE2071:
.LBE2066:
.LBE2065:
	.loc 1 235 9 is_stmt 1 view .LVU97
	.loc 1 235 9 view .LVU98
.LBB2093:
.LBB2091:
.LBB2080:
.LBB2079:
.LBB2078:
.LBB2077:
.LBB2076:
	.loc 1 418 9 view .LVU99
	.loc 1 418 22 is_stmt 0 view .LVU100
	testl	%esi, %esi
.LVL32:
	.loc 1 418 22 view .LVU101
.LBE2076:
.LBE2077:
	.loc 1 452 77 view .LVU102
	setne	%al
	movzbl	%al, %eax
	salq	$32, %rax
	movq	%rax, %rdx
	movl	%esi, %eax
.LVL33:
	.loc 1 452 77 view .LVU103
.LBE2078:
.LBE2079:
.LBE2080:
	.loc 2 120 56 view .LVU104
	orq	%rdx, %rax
	movl	$_ZN5boost6system6detail10cat_holderIvE25generic_category_instanceE, %edx
	ret
.L24:
	.loc 2 124 9 is_stmt 1 view .LVU105
.LVL34:
.LBB2081:
.LBI2081:
	.loc 1 451 15 view .LVU106
.LBB2082:
.LBB2083:
.LBB2084:
.LBI2084:
	.loc 1 414 23 view .LVU107
.LBB2085:
	.loc 1 416 5 view .LVU108
	.loc 1 416 5 is_stmt 0 view .LVU109
.LBE2085:
.LBE2084:
.LBE2083:
.LBE2082:
.LBE2081:
.LBE2091:
.LBE2093:
	.loc 1 235 9 is_stmt 1 view .LVU110
.LBB2094:
.LBB2092:
.LBB2090:
.LBB2089:
.LBB2088:
.LBB2087:
.LBB2086:
	.loc 1 418 9 view .LVU111
	.loc 1 418 22 is_stmt 0 view .LVU112
	testl	%esi, %esi
.LVL35:
	.loc 1 418 22 view .LVU113
.LBE2086:
.LBE2087:
	.loc 1 452 77 view .LVU114
	setne	%al
	movzbl	%al, %eax
	salq	$32, %rax
	movq	%rax, %rdx
	movl	%esi, %eax
.LVL36:
	.loc 1 452 77 view .LVU115
.LBE2088:
.LBE2089:
.LBE2090:
	.loc 2 124 55 view .LVU116
	orq	%rdx, %rax
	movl	$_ZN5boost6system6detail10cat_holderIvE24system_category_instanceE, %edx
.LVL37:
	.loc 2 124 55 view .LVU117
.LBE2092:
.LBE2094:
	.loc 1 944 1 view .LVU118
	ret
	.cfi_endproc
.LFE4558:
	.size	_ZNK5boost6system6detail21system_error_category23default_error_conditionEi, .-_ZNK5boost6system6detail21system_error_category23default_error_conditionEi
	.section	.text._ZNK5boost6system6detail12std_category4nameEv,"axG",@progbits,_ZNK5boost6system6detail12std_category4nameEv,comdat
	.align 2
	.weak	_ZNK5boost6system6detail12std_category4nameEv
	.type	_ZNK5boost6system6detail12std_category4nameEv, @function
_ZNK5boost6system6detail12std_category4nameEv:
.LVL38:
.LFB5097:
	.file 3 "/usr/local/include/boost/system/detail/std_interoperability.hpp"
	.loc 3 50 26 is_stmt 1 view -0
	.cfi_startproc
	.loc 3 50 26 is_stmt 0 view .LVU120
	subq	$8, %rsp
	.cfi_def_cfa_offset 16
	.loc 3 52 9 is_stmt 1 view .LVU121
	.loc 3 52 16 is_stmt 0 view .LVU122
	movq	8(%rdi), %rdi
.LVL39:
	.loc 3 52 26 view .LVU123
	movq	(%rdi), %rax
	.loc 3 52 25 view .LVU124
	call	*(%rax)
.LVL40:
	.loc 3 53 5 view .LVU125
	addq	$8, %rsp
	.cfi_def_cfa_offset 8
	ret
	.cfi_endproc
.LFE5097:
	.size	_ZNK5boost6system6detail12std_category4nameEv, .-_ZNK5boost6system6detail12std_category4nameEv
	.section	.text._ZNK5boost6system6detail12std_category7messageB5cxx11Ei,"axG",@progbits,_ZNK5boost6system6detail12std_category7messageB5cxx11Ei,comdat
	.align 2
	.weak	_ZNK5boost6system6detail12std_category7messageB5cxx11Ei
	.type	_ZNK5boost6system6detail12std_category7messageB5cxx11Ei, @function
_ZNK5boost6system6detail12std_category7messageB5cxx11Ei:
.LVL41:
.LFB5098:
	.loc 3 55 25 is_stmt 1 view -0
	.cfi_startproc
	.loc 3 55 25 is_stmt 0 view .LVU127
	pushq	%rbx
	.cfi_def_cfa_offset 16
	.cfi_offset 3, -16
	movq	%rdi, %rbx
	.loc 3 57 9 is_stmt 1 view .LVU128
	.loc 3 57 16 is_stmt 0 view .LVU129
	movq	8(%rsi), %rsi
.LVL42:
	.loc 3 57 33 view .LVU130
	movq	(%rsi), %rax
	call	*32(%rax)
.LVL43:
	.loc 3 58 5 view .LVU131
	movq	%rbx, %rax
	popq	%rbx
	.cfi_def_cfa_offset 8
.LVL44:
	.loc 3 58 5 view .LVU132
	ret
	.cfi_endproc
.LFE5098:
	.size	_ZNK5boost6system6detail12std_category7messageB5cxx11Ei, .-_ZNK5boost6system6detail12std_category7messageB5cxx11Ei
	.section	.rodata._ZNK5boost4asio5error6detail14netdb_category4nameEv.str1.1,"aMS",@progbits,1
.LC2:
	.string	"asio.netdb"
	.section	.text._ZNK5boost4asio5error6detail14netdb_category4nameEv,"axG",@progbits,_ZNK5boost4asio5error6detail14netdb_category4nameEv,comdat
	.align 2
	.weak	_ZNK5boost4asio5error6detail14netdb_category4nameEv
	.type	_ZNK5boost4asio5error6detail14netdb_category4nameEv, @function
_ZNK5boost4asio5error6detail14netdb_category4nameEv:
.LVL45:
.LFB5287:
	.file 4 "/usr/local/include/boost/asio/impl/error.ipp"
	.loc 4 35 15 is_stmt 1 view -0
	.cfi_startproc
	.loc 4 37 5 view .LVU134
	.loc 4 38 3 is_stmt 0 view .LVU135
	movl	$.LC2, %eax
	ret
	.cfi_endproc
.LFE5287:
	.size	_ZNK5boost4asio5error6detail14netdb_category4nameEv, .-_ZNK5boost4asio5error6detail14netdb_category4nameEv
	.section	.rodata._ZNK5boost4asio5error6detail17addrinfo_category4nameEv.str1.1,"aMS",@progbits,1
.LC3:
	.string	"asio.addrinfo"
	.section	.text._ZNK5boost4asio5error6detail17addrinfo_category4nameEv,"axG",@progbits,_ZNK5boost4asio5error6detail17addrinfo_category4nameEv,comdat
	.align 2
	.weak	_ZNK5boost4asio5error6detail17addrinfo_category4nameEv
	.type	_ZNK5boost4asio5error6detail17addrinfo_category4nameEv, @function
_ZNK5boost4asio5error6detail17addrinfo_category4nameEv:
.LVL46:
.LFB5293:
	.loc 4 67 15 is_stmt 1 view -0
	.cfi_startproc
	.loc 4 69 5 view .LVU137
	.loc 4 70 3 is_stmt 0 view .LVU138
	movl	$.LC3, %eax
	ret
	.cfi_endproc
.LFE5293:
	.size	_ZNK5boost4asio5error6detail17addrinfo_category4nameEv, .-_ZNK5boost4asio5error6detail17addrinfo_category4nameEv
	.section	.rodata._ZNK5boost4asio5error6detail13misc_category4nameEv.str1.1,"aMS",@progbits,1
.LC4:
	.string	"asio.misc"
	.section	.text._ZNK5boost4asio5error6detail13misc_category4nameEv,"axG",@progbits,_ZNK5boost4asio5error6detail13misc_category4nameEv,comdat
	.align 2
	.weak	_ZNK5boost4asio5error6detail13misc_category4nameEv
	.type	_ZNK5boost4asio5error6detail13misc_category4nameEv, @function
_ZNK5boost4asio5error6detail13misc_category4nameEv:
.LVL47:
.LFB5299:
	.loc 4 97 15 is_stmt 1 view -0
	.cfi_startproc
	.loc 4 99 5 view .LVU140
	.loc 4 100 3 is_stmt 0 view .LVU141
	movl	$.LC4, %eax
	ret
	.cfi_endproc
.LFE5299:
	.size	_ZNK5boost4asio5error6detail13misc_category4nameEv, .-_ZNK5boost4asio5error6detail13misc_category4nameEv
	.section	.text._ZN5boost4asio6detail7tss_ptrINS1_10call_stackINS1_14thread_contextENS1_16thread_info_baseEE7contextEED2Ev,"axG",@progbits,_ZN5boost4asio6detail7tss_ptrINS1_10call_stackINS1_14thread_contextENS1_16thread_info_baseEE7contextEED5Ev,comdat
	.align 2
	.weak	_ZN5boost4asio6detail7tss_ptrINS1_10call_stackINS1_14thread_contextENS1_16thread_info_baseEE7contextEED2Ev
	.type	_ZN5boost4asio6detail7tss_ptrINS1_10call_stackINS1_14thread_contextENS1_16thread_info_baseEE7contextEED2Ev, @function
_ZN5boost4asio6detail7tss_ptrINS1_10call_stackINS1_14thread_contextENS1_16thread_info_baseEE7contextEED2Ev:
.LVL48:
.LFB13926:
	.file 5 "/usr/local/include/boost/asio/detail/tss_ptr.hpp"
	.loc 5 39 7 is_stmt 1 view -0
	.cfi_startproc
.LBB2095:
.LBI2095:
	.file 6 "/usr/local/include/boost/asio/detail/keyword_tss_ptr.hpp"
	.loc 6 41 3 view .LVU143
.LBB2096:
.LBI2096:
	.file 7 "/usr/local/include/boost/asio/detail/noncopyable.hpp"
	.loc 7 30 3 view .LVU144
	.loc 7 30 3 is_stmt 0 view .LVU145
.LBE2096:
.LBE2095:
	.loc 5 39 7 view .LVU146
	ret
	.cfi_endproc
.LFE13926:
	.size	_ZN5boost4asio6detail7tss_ptrINS1_10call_stackINS1_14thread_contextENS1_16thread_info_baseEE7contextEED2Ev, .-_ZN5boost4asio6detail7tss_ptrINS1_10call_stackINS1_14thread_contextENS1_16thread_info_baseEE7contextEED2Ev
	.weak	_ZN5boost4asio6detail7tss_ptrINS1_10call_stackINS1_14thread_contextENS1_16thread_info_baseEE7contextEED1Ev
	.set	_ZN5boost4asio6detail7tss_ptrINS1_10call_stackINS1_14thread_contextENS1_16thread_info_baseEE7contextEED1Ev,_ZN5boost4asio6detail7tss_ptrINS1_10call_stackINS1_14thread_contextENS1_16thread_info_baseEE7contextEED2Ev
	.section	.text._ZN5boost4asio6detail7tss_ptrINS1_10call_stackINS1_14strand_service11strand_implEhE7contextEED2Ev,"axG",@progbits,_ZN5boost4asio6detail7tss_ptrINS1_10call_stackINS1_14strand_service11strand_implEhE7contextEED5Ev,comdat
	.align 2
	.weak	_ZN5boost4asio6detail7tss_ptrINS1_10call_stackINS1_14strand_service11strand_implEhE7contextEED2Ev
	.type	_ZN5boost4asio6detail7tss_ptrINS1_10call_stackINS1_14strand_service11strand_implEhE7contextEED2Ev, @function
_ZN5boost4asio6detail7tss_ptrINS1_10call_stackINS1_14strand_service11strand_implEhE7contextEED2Ev:
.LVL49:
.LFB13929:
	.loc 5 39 7 is_stmt 1 view -0
	.cfi_startproc
.LBB2097:
.LBI2097:
	.loc 6 41 3 view .LVU148
.LBB2098:
.LBI2098:
	.loc 7 30 3 view .LVU149
	.loc 7 30 3 is_stmt 0 view .LVU150
.LBE2098:
.LBE2097:
	.loc 5 39 7 view .LVU151
	ret
	.cfi_endproc
.LFE13929:
	.size	_ZN5boost4asio6detail7tss_ptrINS1_10call_stackINS1_14strand_service11strand_implEhE7contextEED2Ev, .-_ZN5boost4asio6detail7tss_ptrINS1_10call_stackINS1_14strand_service11strand_implEhE7contextEED2Ev
	.weak	_ZN5boost4asio6detail7tss_ptrINS1_10call_stackINS1_14strand_service11strand_implEhE7contextEED1Ev
	.set	_ZN5boost4asio6detail7tss_ptrINS1_10call_stackINS1_14strand_service11strand_implEhE7contextEED1Ev,_ZN5boost4asio6detail7tss_ptrINS1_10call_stackINS1_14strand_service11strand_implEhE7contextEED2Ev
	.section	.text._ZN5boost4asio6detail10service_idINS1_14strand_serviceEED2Ev,"axG",@progbits,_ZN5boost4asio6detail10service_idINS1_14strand_serviceEED5Ev,comdat
	.align 2
	.weak	_ZN5boost4asio6detail10service_idINS1_14strand_serviceEED2Ev
	.type	_ZN5boost4asio6detail10service_idINS1_14strand_serviceEED2Ev, @function
_ZN5boost4asio6detail10service_idINS1_14strand_serviceEED2Ev:
.LVL50:
.LFB13932:
	.file 8 "/usr/local/include/boost/asio/execution_context.hpp"
	.loc 8 380 7 is_stmt 1 view -0
	.cfi_startproc
.LBB2099:
.LBI2099:
	.loc 8 307 26 view .LVU153
.LBB2100:
.LBI2100:
	.loc 7 30 3 view .LVU154
	.loc 7 30 3 is_stmt 0 view .LVU155
.LBE2100:
.LBE2099:
	.loc 8 380 7 view .LVU156
	ret
	.cfi_endproc
.LFE13932:
	.size	_ZN5boost4asio6detail10service_idINS1_14strand_serviceEED2Ev, .-_ZN5boost4asio6detail10service_idINS1_14strand_serviceEED2Ev
	.weak	_ZN5boost4asio6detail10service_idINS1_14strand_serviceEED1Ev
	.set	_ZN5boost4asio6detail10service_idINS1_14strand_serviceEED1Ev,_ZN5boost4asio6detail10service_idINS1_14strand_serviceEED2Ev
	.section	.text._ZN5boost4asio6detail7tss_ptrINS1_10call_stackINS1_23strand_executor_service11strand_implEhE7contextEED2Ev,"axG",@progbits,_ZN5boost4asio6detail7tss_ptrINS1_10call_stackINS1_23strand_executor_service11strand_implEhE7contextEED5Ev,comdat
	.align 2
	.weak	_ZN5boost4asio6detail7tss_ptrINS1_10call_stackINS1_23strand_executor_service11strand_implEhE7contextEED2Ev
	.type	_ZN5boost4asio6detail7tss_ptrINS1_10call_stackINS1_23strand_executor_service11strand_implEhE7contextEED2Ev, @function
_ZN5boost4asio6detail7tss_ptrINS1_10call_stackINS1_23strand_executor_service11strand_implEhE7contextEED2Ev:
.LVL51:
.LFB13935:
	.loc 5 39 7 is_stmt 1 view -0
	.cfi_startproc
.LBB2101:
.LBI2101:
	.loc 6 41 3 view .LVU158
.LBB2102:
.LBI2102:
	.loc 7 30 3 view .LVU159
	.loc 7 30 3 is_stmt 0 view .LVU160
.LBE2102:
.LBE2101:
	.loc 5 39 7 view .LVU161
	ret
	.cfi_endproc
.LFE13935:
	.size	_ZN5boost4asio6detail7tss_ptrINS1_10call_stackINS1_23strand_executor_service11strand_implEhE7contextEED2Ev, .-_ZN5boost4asio6detail7tss_ptrINS1_10call_stackINS1_23strand_executor_service11strand_implEhE7contextEED2Ev
	.weak	_ZN5boost4asio6detail7tss_ptrINS1_10call_stackINS1_23strand_executor_service11strand_implEhE7contextEED1Ev
	.set	_ZN5boost4asio6detail7tss_ptrINS1_10call_stackINS1_23strand_executor_service11strand_implEhE7contextEED1Ev,_ZN5boost4asio6detail7tss_ptrINS1_10call_stackINS1_23strand_executor_service11strand_implEhE7contextEED2Ev
	.section	.text._ZN5boost4asio6detail10service_idINS1_9schedulerEED2Ev,"axG",@progbits,_ZN5boost4asio6detail10service_idINS1_9schedulerEED5Ev,comdat
	.align 2
	.weak	_ZN5boost4asio6detail10service_idINS1_9schedulerEED2Ev
	.type	_ZN5boost4asio6detail10service_idINS1_9schedulerEED2Ev, @function
_ZN5boost4asio6detail10service_idINS1_9schedulerEED2Ev:
.LVL52:
.LFB13938:
	.loc 8 380 7 is_stmt 1 view -0
	.cfi_startproc
.LBB2103:
.LBI2103:
	.loc 8 307 26 view .LVU163
.LBB2104:
.LBI2104:
	.loc 7 30 3 view .LVU164
	.loc 7 30 3 is_stmt 0 view .LVU165
.LBE2104:
.LBE2103:
	.loc 8 380 7 view .LVU166
	ret
	.cfi_endproc
.LFE13938:
	.size	_ZN5boost4asio6detail10service_idINS1_9schedulerEED2Ev, .-_ZN5boost4asio6detail10service_idINS1_9schedulerEED2Ev
	.weak	_ZN5boost4asio6detail10service_idINS1_9schedulerEED1Ev
	.set	_ZN5boost4asio6detail10service_idINS1_9schedulerEED1Ev,_ZN5boost4asio6detail10service_idINS1_9schedulerEED2Ev
	.section	.text._ZN5boost4asio6detail10service_idINS1_13epoll_reactorEED2Ev,"axG",@progbits,_ZN5boost4asio6detail10service_idINS1_13epoll_reactorEED5Ev,comdat
	.align 2
	.weak	_ZN5boost4asio6detail10service_idINS1_13epoll_reactorEED2Ev
	.type	_ZN5boost4asio6detail10service_idINS1_13epoll_reactorEED2Ev, @function
_ZN5boost4asio6detail10service_idINS1_13epoll_reactorEED2Ev:
.LVL53:
.LFB13941:
	.loc 8 380 7 is_stmt 1 view -0
	.cfi_startproc
.LBB2105:
.LBI2105:
	.loc 8 307 26 view .LVU168
.LBB2106:
.LBI2106:
	.loc 7 30 3 view .LVU169
	.loc 7 30 3 is_stmt 0 view .LVU170
.LBE2106:
.LBE2105:
	.loc 8 380 7 view .LVU171
	ret
	.cfi_endproc
.LFE13941:
	.size	_ZN5boost4asio6detail10service_idINS1_13epoll_reactorEED2Ev, .-_ZN5boost4asio6detail10service_idINS1_13epoll_reactorEED2Ev
	.weak	_ZN5boost4asio6detail10service_idINS1_13epoll_reactorEED1Ev
	.set	_ZN5boost4asio6detail10service_idINS1_13epoll_reactorEED1Ev,_ZN5boost4asio6detail10service_idINS1_13epoll_reactorEED2Ev
	.section	.text._ZN5boost6system12system_errorD2Ev,"axG",@progbits,_ZN5boost6system12system_errorD5Ev,comdat
	.align 2
	.weak	_ZN5boost6system12system_errorD2Ev
	.type	_ZN5boost6system12system_errorD2Ev, @function
_ZN5boost6system12system_errorD2Ev:
.LVL54:
.LFB5274:
	.file 9 "/usr/local/include/boost/system/system_error.hpp"
	.loc 9 47 15 is_stmt 1 view -0
	.cfi_startproc
	.loc 9 47 15 is_stmt 0 view .LVU173
	pushq	%rbx
	.cfi_def_cfa_offset 16
	.cfi_offset 3, -16
	movq	%rdi, %rbx
.LBB2124:
	.loc 9 47 40 view .LVU174
	movq	$_ZTVN5boost6system12system_errorE+16, (%rdi)
.LVL55:
.LBB2125:
.LBI2125:
	.file 10 "/usr/include/c++/8/bits/basic_string.h"
	.loc 10 656 7 is_stmt 1 view .LVU175
.LBB2126:
.LBI2126:
	.loc 10 218 7 view .LVU176
.LBB2127:
.LBB2128:
.LBI2128:
	.loc 10 210 7 view .LVU177
.LBB2129:
.LBI2129:
	.loc 10 175 7 view .LVU178
.LBB2130:
	.loc 10 176 28 is_stmt 0 view .LVU179
	movq	32(%rdi), %rdi
.LVL56:
	.loc 10 176 28 view .LVU180
.LBE2130:
.LBE2129:
.LBB2131:
.LBI2131:
	.loc 10 189 7 is_stmt 1 view .LVU181
.LBB2132:
	.loc 10 192 57 is_stmt 0 view .LVU182
	leaq	48(%rbx), %rax
.LVL57:
	.loc 10 192 57 view .LVU183
.LBE2132:
.LBE2131:
.LBE2128:
	.loc 10 220 2 view .LVU184
	cmpq	%rax, %rdi
	je	.L42
.LVL58:
.LBB2133:
.LBI2133:
	.loc 10 225 7 is_stmt 1 view .LVU185
.LBB2134:
.LBI2134:
	.file 11 "/usr/include/c++/8/bits/alloc_traits.h"
	.loc 11 461 7 view .LVU186
.LBB2135:
.LBI2135:
	.file 12 "/usr/include/c++/8/ext/new_allocator.h"
	.loc 12 116 7 view .LVU187
.LBB2136:
	.loc 12 125 19 is_stmt 0 view .LVU188
	call	_ZdlPv
.LVL59:
.L42:
	.loc 12 125 19 view .LVU189
.LBE2136:
.LBE2135:
.LBE2134:
.LBE2133:
.LBE2127:
.LBE2126:
.LBB2137:
.LBI2137:
	.loc 10 139 14 is_stmt 1 view .LVU190
.LBB2138:
.LBI2138:
	.file 13 "/usr/include/c++/8/bits/allocator.h"
	.loc 13 139 7 view .LVU191
.LBB2139:
.LBI2139:
	.loc 12 86 7 view .LVU192
	.loc 12 86 7 is_stmt 0 view .LVU193
.LBE2139:
.LBE2138:
.LBE2137:
.LBE2125:
	.loc 9 47 40 view .LVU194
	movq	%rbx, %rdi
	call	_ZNSt13runtime_errorD2Ev
.LVL60:
.LBE2124:
	.loc 9 47 41 view .LVU195
	popq	%rbx
	.cfi_def_cfa_offset 8
.LVL61:
	.loc 9 47 41 view .LVU196
	ret
	.cfi_endproc
.LFE5274:
	.size	_ZN5boost6system12system_errorD2Ev, .-_ZN5boost6system12system_errorD2Ev
	.weak	_ZN5boost6system12system_errorD1Ev
	.set	_ZN5boost6system12system_errorD1Ev,_ZN5boost6system12system_errorD2Ev
	.text
	.type	_Z41__static_initialization_and_destruction_0ii, @function
_Z41__static_initialization_and_destruction_0ii:
.LVL62:
.LFB13924:
	.file 14 "cpp/ReqHandler.cpp"
	.loc 14 13 1 is_stmt 1 view -0
	.cfi_startproc
	.loc 14 13 1 is_stmt 0 view .LVU198
	cmpl	$1, %edi
	je	.L56
.L53:
	ret
.L56:
	.loc 14 13 1 discriminator 1 view .LVU199
	cmpl	$65535, %esi
	jne	.L53
	.loc 14 13 1 view .LVU200
	subq	$8, %rsp
	.cfi_def_cfa_offset 16
	.file 15 "/usr/local/include/boost/asio/error.hpp"
	.loc 15 230 3 is_stmt 1 view .LVU201
	.loc 4 58 3 view .LVU202
	.loc 4 59 3 view .LVU203
	.loc 4 86 3 view .LVU204
	.loc 4 87 3 view .LVU205
	.loc 4 120 3 view .LVU206
	.loc 4 121 3 view .LVU207
	.file 16 "/usr/local/include/boost/asio/detail/call_stack.hpp"
	.loc 16 119 1 is_stmt 0 view .LVU208
	cmpb	$0, _ZGVN5boost4asio6detail10call_stackINS1_14thread_contextENS1_16thread_info_baseEE4top_E(%rip)
	je	.L57
.LVL63:
.L46:
	.loc 16 119 1 discriminator 3 view .LVU209
	cmpb	$0, _ZGVN5boost4asio6detail10call_stackINS1_14strand_service11strand_implEhE4top_E(%rip)
	je	.L58
.L47:
	.file 17 "/usr/local/include/boost/asio/io_context.hpp"
	.loc 17 853 39 view .LVU210
	cmpb	$0, _ZGVN5boost4asio6detail12service_baseINS1_14strand_serviceEE2idE(%rip)
	je	.L59
.L48:
	.loc 16 119 1 view .LVU211
	cmpb	$0, _ZGVN5boost4asio6detail10call_stackINS1_23strand_executor_service11strand_implEhE4top_E(%rip)
	je	.L60
.L49:
	.file 18 "/usr/local/include/boost/asio/detail/posix_global.hpp"
	.loc 18 59 22 view .LVU212
	cmpb	$0, _ZGVN5boost4asio6detail17posix_global_implINS0_14system_contextEE9instance_E(%rip)
	je	.L61
.L50:
	.loc 8 401 18 view .LVU213
	cmpb	$0, _ZGVN5boost4asio6detail30execution_context_service_baseINS1_9schedulerEE2idE(%rip)
	je	.L62
.L51:
	.loc 8 401 18 discriminator 3 view .LVU214
	cmpb	$0, _ZGVN5boost4asio6detail30execution_context_service_baseINS1_13epoll_reactorEE2idE(%rip)
	je	.L63
.L44:
	.loc 14 13 1 view .LVU215
	addq	$8, %rsp
	.cfi_remember_state
	.cfi_def_cfa_offset 8
	ret
.LVL64:
.L57:
	.cfi_restore_state
	.loc 16 119 1 discriminator 1 view .LVU216
	movb	$1, _ZGVN5boost4asio6detail10call_stackINS1_14thread_contextENS1_16thread_info_baseEE4top_E(%rip)
.LVL65:
.LBB2140:
.LBI2140:
	.loc 5 39 7 is_stmt 1 discriminator 1 view .LVU217
.LBB2141:
.LBI2141:
	.loc 6 36 3 discriminator 1 view .LVU218
.LBB2142:
.LBI2142:
	.loc 7 29 3 discriminator 1 view .LVU219
	.loc 7 29 3 is_stmt 0 discriminator 1 view .LVU220
.LBE2142:
.LBE2141:
.LBE2140:
	.loc 16 119 1 discriminator 1 view .LVU221
	movl	$__dso_handle, %edx
	movl	$_ZN5boost4asio6detail10call_stackINS1_14thread_contextENS1_16thread_info_baseEE4top_E, %esi
.LVL66:
	.loc 16 119 1 discriminator 1 view .LVU222
	movl	$_ZN5boost4asio6detail7tss_ptrINS1_10call_stackINS1_14thread_contextENS1_16thread_info_baseEE7contextEED1Ev, %edi
.LVL67:
	.loc 16 119 1 discriminator 1 view .LVU223
	call	__cxa_atexit
.LVL68:
	jmp	.L46
.L58:
	.loc 16 119 1 discriminator 4 view .LVU224
	movb	$1, _ZGVN5boost4asio6detail10call_stackINS1_14strand_service11strand_implEhE4top_E(%rip)
.LVL69:
.LBB2143:
.LBI2143:
	.loc 5 39 7 is_stmt 1 discriminator 4 view .LVU225
.LBB2144:
.LBI2144:
	.loc 6 36 3 discriminator 4 view .LVU226
.LBB2145:
.LBI2145:
	.loc 7 29 3 discriminator 4 view .LVU227
	.loc 7 29 3 is_stmt 0 discriminator 4 view .LVU228
.LBE2145:
.LBE2144:
.LBE2143:
	.loc 16 119 1 discriminator 4 view .LVU229
	movl	$__dso_handle, %edx
	movl	$_ZN5boost4asio6detail10call_stackINS1_14strand_service11strand_implEhE4top_E, %esi
	movl	$_ZN5boost4asio6detail7tss_ptrINS1_10call_stackINS1_14strand_service11strand_implEhE7contextEED1Ev, %edi
	call	__cxa_atexit
.LVL70:
	jmp	.L47
.L59:
	.loc 17 853 39 discriminator 1 view .LVU230
	movb	$1, _ZGVN5boost4asio6detail12service_baseINS1_14strand_serviceEE2idE(%rip)
.LVL71:
.LBB2146:
.LBI2146:
	.loc 8 380 7 is_stmt 1 discriminator 1 view .LVU231
.LBB2147:
.LBI2147:
	.loc 8 312 3 discriminator 1 view .LVU232
.LBB2148:
.LBI2148:
	.loc 7 29 3 discriminator 1 view .LVU233
	.loc 7 29 3 is_stmt 0 discriminator 1 view .LVU234
.LBE2148:
.LBE2147:
.LBE2146:
	.loc 17 853 39 discriminator 1 view .LVU235
	movl	$__dso_handle, %edx
	movl	$_ZN5boost4asio6detail12service_baseINS1_14strand_serviceEE2idE, %esi
	movl	$_ZN5boost4asio6detail10service_idINS1_14strand_serviceEED1Ev, %edi
	call	__cxa_atexit
.LVL72:
	jmp	.L48
.L60:
	.loc 16 119 1 discriminator 5 view .LVU236
	movb	$1, _ZGVN5boost4asio6detail10call_stackINS1_23strand_executor_service11strand_implEhE4top_E(%rip)
.LVL73:
.LBB2149:
.LBI2149:
	.loc 5 39 7 is_stmt 1 discriminator 5 view .LVU237
.LBB2150:
.LBI2150:
	.loc 6 36 3 discriminator 5 view .LVU238
.LBB2151:
.LBI2151:
	.loc 7 29 3 discriminator 5 view .LVU239
	.loc 7 29 3 is_stmt 0 discriminator 5 view .LVU240
.LBE2151:
.LBE2150:
.LBE2149:
	.loc 16 119 1 discriminator 5 view .LVU241
	movl	$__dso_handle, %edx
	movl	$_ZN5boost4asio6detail10call_stackINS1_23strand_executor_service11strand_implEhE4top_E, %esi
	movl	$_ZN5boost4asio6detail7tss_ptrINS1_10call_stackINS1_23strand_executor_service11strand_implEhE7contextEED1Ev, %edi
	call	__cxa_atexit
.LVL74:
	jmp	.L49
.L61:
	.loc 18 59 22 discriminator 1 view .LVU242
	movb	$1, _ZGVN5boost4asio6detail17posix_global_implINS0_14system_contextEE9instance_E(%rip)
	movl	$__dso_handle, %edx
	movl	$_ZN5boost4asio6detail17posix_global_implINS0_14system_contextEE9instance_E, %esi
	movl	$_ZN5boost4asio6detail17posix_global_implINS0_14system_contextEED1Ev, %edi
	call	__cxa_atexit
.LVL75:
	jmp	.L50
.L62:
	.loc 8 401 18 discriminator 1 view .LVU243
	movb	$1, _ZGVN5boost4asio6detail30execution_context_service_baseINS1_9schedulerEE2idE(%rip)
.LVL76:
.LBB2152:
.LBI2152:
	.loc 8 380 7 is_stmt 1 discriminator 1 view .LVU244
.LBB2153:
.LBI2153:
	.loc 8 312 3 discriminator 1 view .LVU245
.LBB2154:
.LBI2154:
	.loc 7 29 3 discriminator 1 view .LVU246
	.loc 7 29 3 is_stmt 0 discriminator 1 view .LVU247
.LBE2154:
.LBE2153:
.LBE2152:
	.loc 8 401 18 discriminator 1 view .LVU248
	movl	$__dso_handle, %edx
	movl	$_ZN5boost4asio6detail30execution_context_service_baseINS1_9schedulerEE2idE, %esi
	movl	$_ZN5boost4asio6detail10service_idINS1_9schedulerEED1Ev, %edi
	call	__cxa_atexit
.LVL77:
	jmp	.L51
.L63:
	.loc 8 401 18 discriminator 4 view .LVU249
	movb	$1, _ZGVN5boost4asio6detail30execution_context_service_baseINS1_13epoll_reactorEE2idE(%rip)
.LVL78:
.LBB2155:
.LBI2155:
	.loc 8 380 7 is_stmt 1 discriminator 4 view .LVU250
.LBB2156:
.LBI2156:
	.loc 8 312 3 discriminator 4 view .LVU251
.LBB2157:
.LBI2157:
	.loc 7 29 3 discriminator 4 view .LVU252
	.loc 7 29 3 is_stmt 0 discriminator 4 view .LVU253
.LBE2157:
.LBE2156:
.LBE2155:
	.loc 8 401 18 discriminator 4 view .LVU254
	movl	$__dso_handle, %edx
	movl	$_ZN5boost4asio6detail30execution_context_service_baseINS1_13epoll_reactorEE2idE, %esi
	movl	$_ZN5boost4asio6detail10service_idINS1_13epoll_reactorEED1Ev, %edi
	call	__cxa_atexit
.LVL79:
	.loc 14 13 1 discriminator 4 view .LVU255
	jmp	.L44
	.cfi_endproc
.LFE13924:
	.size	_Z41__static_initialization_and_destruction_0ii, .-_Z41__static_initialization_and_destruction_0ii
	.section	.text._ZN5boost6system6detail12std_categoryD2Ev,"axG",@progbits,_ZN5boost6system6detail12std_categoryD5Ev,comdat
	.align 2
	.weak	_ZN5boost6system6detail12std_categoryD2Ev
	.type	_ZN5boost6system6detail12std_categoryD2Ev, @function
_ZN5boost6system6detail12std_categoryD2Ev:
.LVL80:
.LFB11892:
	.loc 3 26 50 is_stmt 1 view -0
	.cfi_startproc
	.loc 3 26 50 is_stmt 0 view .LVU257
	subq	$8, %rsp
	.cfi_def_cfa_offset 16
.LBB2158:
	.loc 3 26 50 view .LVU258
	movq	$_ZTVN5boost6system6detail12std_categoryE+16, (%rdi)
	call	_ZNSt3_V214error_categoryD2Ev
.LVL81:
	.loc 3 26 50 view .LVU259
.LBE2158:
	addq	$8, %rsp
	.cfi_def_cfa_offset 8
	ret
	.cfi_endproc
.LFE11892:
	.size	_ZN5boost6system6detail12std_categoryD2Ev, .-_ZN5boost6system6detail12std_categoryD2Ev
	.weak	_ZN5boost6system6detail12std_categoryD1Ev
	.set	_ZN5boost6system6detail12std_categoryD1Ev,_ZN5boost6system6detail12std_categoryD2Ev
	.section	.text._ZN5boost6system6detail12std_categoryD0Ev,"axG",@progbits,_ZN5boost6system6detail12std_categoryD5Ev,comdat
	.align 2
	.weak	_ZN5boost6system6detail12std_categoryD0Ev
	.type	_ZN5boost6system6detail12std_categoryD0Ev, @function
_ZN5boost6system6detail12std_categoryD0Ev:
.LVL82:
.LFB11894:
	.loc 3 26 50 is_stmt 1 view -0
	.cfi_startproc
	.loc 3 26 50 is_stmt 0 view .LVU261
	pushq	%rbx
	.cfi_def_cfa_offset 16
	.cfi_offset 3, -16
	movq	%rdi, %rbx
.LVL83:
.LBB2159:
.LBI2159:
	.loc 3 26 50 is_stmt 1 view .LVU262
.LBB2160:
	movq	$_ZTVN5boost6system6detail12std_categoryE+16, (%rdi)
	call	_ZNSt3_V214error_categoryD2Ev
.LVL84:
	.loc 3 26 50 is_stmt 0 view .LVU263
.LBE2160:
.LBE2159:
	movl	$16, %esi
	movq	%rbx, %rdi
	call	_ZdlPvm
.LVL85:
	popq	%rbx
	.cfi_def_cfa_offset 8
.LVL86:
	.loc 3 26 50 view .LVU264
	ret
	.cfi_endproc
.LFE11894:
	.size	_ZN5boost6system6detail12std_categoryD0Ev, .-_ZN5boost6system6detail12std_categoryD0Ev
	.section	.text._ZNK5boost6system6detail21system_error_category7messageEiPcm,"axG",@progbits,_ZNK5boost6system6detail21system_error_category7messageEiPcm,comdat
	.align 2
	.weak	_ZNK5boost6system6detail21system_error_category7messageEiPcm
	.type	_ZNK5boost6system6detail21system_error_category7messageEiPcm, @function
_ZNK5boost6system6detail21system_error_category7messageEiPcm:
.LVL87:
.LFB4560:
	.loc 1 952 1 is_stmt 1 view -0
	.cfi_startproc
	.loc 1 952 1 is_stmt 0 view .LVU266
	subq	$8, %rsp
	.cfi_def_cfa_offset 16
	movl	%esi, %edi
.LVL88:
	.loc 1 952 1 view .LVU267
	movq	%rdx, %rsi
.LVL89:
	.loc 1 952 1 view .LVU268
	movq	%rcx, %rdx
.LVL90:
	.loc 1 953 5 is_stmt 1 view .LVU269
.LBB2161:
.LBI2161:
	.file 19 "/usr/local/include/boost/system/detail/generic_category.hpp"
	.loc 19 35 21 view .LVU270
.LBB2162:
	.loc 19 37 5 view .LVU271
	.loc 19 37 41 is_stmt 0 view .LVU272
	call	strerror_r
.LVL91:
	.loc 19 37 41 view .LVU273
.LBE2162:
.LBE2161:
	.loc 19 27 5 is_stmt 1 view .LVU274
	.loc 1 954 1 is_stmt 0 view .LVU275
	addq	$8, %rsp
	.cfi_def_cfa_offset 8
	ret
	.cfi_endproc
.LFE4560:
	.size	_ZNK5boost6system6detail21system_error_category7messageEiPcm, .-_ZNK5boost6system6detail21system_error_category7messageEiPcm
	.section	.text._ZNK5boost6system6detail22generic_error_category7messageEiPcm,"axG",@progbits,_ZNK5boost6system6detail22generic_error_category7messageEiPcm,comdat
	.align 2
	.weak	_ZNK5boost6system6detail22generic_error_category7messageEiPcm
	.type	_ZNK5boost6system6detail22generic_error_category7messageEiPcm, @function
_ZNK5boost6system6detail22generic_error_category7messageEiPcm:
.LVL92:
.LFB4555:
	.loc 1 912 1 is_stmt 1 view -0
	.cfi_startproc
	.loc 1 912 1 is_stmt 0 view .LVU277
	subq	$8, %rsp
	.cfi_def_cfa_offset 16
	movl	%esi, %edi
.LVL93:
	.loc 1 912 1 view .LVU278
	movq	%rdx, %rsi
.LVL94:
	.loc 1 912 1 view .LVU279
	movq	%rcx, %rdx
.LVL95:
	.loc 1 913 5 is_stmt 1 view .LVU280
.LBB2163:
.LBI2163:
	.loc 19 35 21 view .LVU281
.LBB2164:
	.loc 19 37 5 view .LVU282
	.loc 19 37 41 is_stmt 0 view .LVU283
	call	strerror_r
.LVL96:
	.loc 19 37 41 view .LVU284
.LBE2164:
.LBE2163:
	.loc 19 27 5 is_stmt 1 view .LVU285
	.loc 1 914 1 is_stmt 0 view .LVU286
	addq	$8, %rsp
	.cfi_def_cfa_offset 8
	ret
	.cfi_endproc
.LFE4555:
	.size	_ZNK5boost6system6detail22generic_error_category7messageEiPcm, .-_ZNK5boost6system6detail22generic_error_category7messageEiPcm
	.section	.rodata._ZNK5boost6system14error_category7messageEiPcm.str1.1,"aMS",@progbits,1
.LC5:
	.string	"Message text unavailable"
	.section	.text._ZNK5boost6system14error_category7messageEiPcm,"axG",@progbits,_ZNK5boost6system14error_category7messageEiPcm,comdat
	.align 2
	.weak	_ZNK5boost6system14error_category7messageEiPcm
	.type	_ZNK5boost6system14error_category7messageEiPcm, @function
_ZNK5boost6system14error_category7messageEiPcm:
.LVL97:
.LFB4548:
	.loc 1 846 1 is_stmt 1 view -0
	.cfi_startproc
	.cfi_personality 0x3,__gxx_personality_v0
	.cfi_lsda 0x3,.LLSDA4548
	.loc 1 846 1 is_stmt 0 view .LVU288
	pushq	%rbp
	.cfi_def_cfa_offset 16
	.cfi_offset 6, -16
	pushq	%rbx
	.cfi_def_cfa_offset 24
	.cfi_offset 3, -24
	subq	$40, %rsp
	.cfi_def_cfa_offset 64
	movq	%rdx, %rbp
	.loc 1 847 5 is_stmt 1 view .LVU289
	testq	%rcx, %rcx
	je	.L78
	movq	%rcx, %rbx
	.loc 1 852 5 view .LVU290
	cmpq	$1, %rcx
	je	.L80
	.loc 1 859 5 view .LVU291
.LBB2165:
	.loc 1 862 9 view .LVU292
	.loc 1 862 43 is_stmt 0 view .LVU293
	movq	(%rdi), %rax
	movl	%esi, %edx
.LVL98:
	.loc 1 862 43 view .LVU294
	movq	%rdi, %rsi
.LVL99:
	.loc 1 862 43 view .LVU295
	movq	%rsp, %rdi
.LVL100:
.LEHB0:
	.loc 1 862 43 view .LVU296
	call	*32(%rax)
.LVL101:
.LEHE0:
	.loc 1 862 43 view .LVU297
	jmp	.L81
.LVL102:
.L80:
	.loc 1 862 43 view .LVU298
.LBE2165:
	.loc 1 854 9 is_stmt 1 view .LVU299
	.loc 1 854 19 is_stmt 0 view .LVU300
	movb	$0, (%rdx)
	.loc 1 855 9 is_stmt 1 view .LVU301
	.loc 1 855 16 is_stmt 0 view .LVU302
	jmp	.L78
.LVL103:
.L81:
.LBB2182:
	.loc 1 874 9 is_stmt 1 view .LVU303
	.loc 1 874 21 is_stmt 0 view .LVU304
	subq	$1, %rbx
.LVL104:
.LBB2166:
.LBI2166:
	.loc 10 2281 7 is_stmt 1 view .LVU305
.LBB2167:
.LBI2167:
	.loc 10 175 7 view .LVU306
	.loc 10 175 7 is_stmt 0 view .LVU307
.LBE2167:
.LBE2166:
	.loc 1 874 21 view .LVU308
	movq	%rbx, %rdx
	movq	(%rsp), %rsi
	movq	%rbp, %rdi
	call	strncpy
.LVL105:
	.loc 1 875 9 is_stmt 1 view .LVU309
	.loc 1 875 25 is_stmt 0 view .LVU310
	movb	$0, 0(%rbp,%rbx)
	.loc 1 883 9 is_stmt 1 view .LVU311
.LVL106:
.LBB2168:
.LBI2168:
	.loc 10 656 7 view .LVU312
.LBB2169:
.LBI2169:
	.loc 10 218 7 view .LVU313
.LBB2170:
.LBB2171:
.LBI2171:
	.loc 10 210 7 view .LVU314
.LBB2172:
.LBI2172:
	.loc 10 175 7 view .LVU315
.LBB2173:
	.loc 10 176 28 is_stmt 0 view .LVU316
	movq	(%rsp), %rdi
.LVL107:
	.loc 10 176 28 view .LVU317
.LBE2173:
.LBE2172:
.LBB2174:
.LBI2174:
	.loc 10 189 7 is_stmt 1 view .LVU318
	.loc 10 189 7 is_stmt 0 view .LVU319
.LBE2174:
.LBE2171:
	.loc 10 220 2 view .LVU320
	leaq	16(%rsp), %rax
	cmpq	%rax, %rdi
	je	.L78
.LVL108:
.LBB2175:
.LBI2175:
	.loc 10 225 7 is_stmt 1 view .LVU321
.LBB2176:
.LBI2176:
	.loc 11 461 7 view .LVU322
.LBB2177:
.LBI2177:
	.loc 12 116 7 view .LVU323
.LBB2178:
	.loc 12 125 19 is_stmt 0 view .LVU324
	call	_ZdlPv
.LVL109:
	.loc 12 125 19 view .LVU325
.LBE2178:
.LBE2177:
.LBE2176:
.LBE2175:
.LBE2170:
.LBE2169:
.LBB2179:
.LBI2179:
	.loc 10 139 14 is_stmt 1 view .LVU326
.LBB2180:
.LBI2180:
	.loc 13 139 7 view .LVU327
.LBB2181:
.LBI2181:
	.loc 12 86 7 view .LVU328
.L78:
	.loc 12 86 7 is_stmt 0 view .LVU329
.LBE2181:
.LBE2180:
.LBE2179:
.LBE2168:
.LBE2182:
	.loc 1 891 1 view .LVU330
	movq	%rbp, %rax
	addq	$40, %rsp
	.cfi_remember_state
	.cfi_def_cfa_offset 24
	popq	%rbx
	.cfi_def_cfa_offset 16
	popq	%rbp
	.cfi_def_cfa_offset 8
	ret
.LVL110:
.L77:
	.cfi_restore_state
	.loc 1 886 12 view .LVU331
	movq	%rax, %rdi
	call	__cxa_begin_catch
.LVL111:
	.loc 1 888 9 is_stmt 1 view .LVU332
	.loc 1 886 12 is_stmt 0 view .LVU333
	call	__cxa_end_catch
.LVL112:
	.loc 1 888 16 view .LVU334
	movl	$.LC5, %ebp
.LVL113:
	.loc 1 888 16 view .LVU335
	jmp	.L78
	.cfi_endproc
.LFE4548:
	.globl	__gxx_personality_v0
	.section	.gcc_except_table._ZNK5boost6system14error_category7messageEiPcm,"aG",@progbits,_ZNK5boost6system14error_category7messageEiPcm,comdat
	.align 4
.LLSDA4548:
	.byte	0xff
	.byte	0x3
	.uleb128 .LLSDATT4548-.LLSDATTD4548
.LLSDATTD4548:
	.byte	0x1
	.uleb128 .LLSDACSE4548-.LLSDACSB4548
.LLSDACSB4548:
	.uleb128 .LEHB0-.LFB4548
	.uleb128 .LEHE0-.LEHB0
	.uleb128 .L77-.LFB4548
	.uleb128 0x1
.LLSDACSE4548:
	.byte	0x1
	.byte	0
	.align 4
	.long	0

.LLSDATT4548:
	.section	.text._ZNK5boost6system14error_category7messageEiPcm,"axG",@progbits,_ZNK5boost6system14error_category7messageEiPcm,comdat
	.size	_ZNK5boost6system14error_category7messageEiPcm, .-_ZNK5boost6system14error_category7messageEiPcm
	.section	.text._ZN5boost6system12system_errorD0Ev,"axG",@progbits,_ZN5boost6system12system_errorD5Ev,comdat
	.align 2
	.weak	_ZN5boost6system12system_errorD0Ev
	.type	_ZN5boost6system12system_errorD0Ev, @function
_ZN5boost6system12system_errorD0Ev:
.LVL114:
.LFB5276:
	.loc 9 47 15 is_stmt 1 view -0
	.cfi_startproc
	.loc 9 47 15 is_stmt 0 view .LVU337
	pushq	%rbx
	.cfi_def_cfa_offset 16
	.cfi_offset 3, -16
	movq	%rdi, %rbx
.LVL115:
.LBB2202:
.LBI2202:
	.loc 9 47 15 is_stmt 1 view .LVU338
.LBB2203:
	.loc 9 47 40 is_stmt 0 view .LVU339
	movq	$_ZTVN5boost6system12system_errorE+16, (%rdi)
.LVL116:
.LBB2204:
.LBI2204:
	.loc 10 656 7 is_stmt 1 view .LVU340
.LBB2205:
.LBI2205:
	.loc 10 218 7 view .LVU341
.LBB2206:
.LBB2207:
.LBI2207:
	.loc 10 210 7 view .LVU342
.LBB2208:
.LBI2208:
	.loc 10 175 7 view .LVU343
.LBB2209:
	.loc 10 176 28 is_stmt 0 view .LVU344
	movq	32(%rdi), %rdi
.LVL117:
	.loc 10 176 28 view .LVU345
.LBE2209:
.LBE2208:
.LBB2210:
.LBI2210:
	.loc 10 189 7 is_stmt 1 view .LVU346
.LBB2211:
	.loc 10 192 57 is_stmt 0 view .LVU347
	leaq	48(%rbx), %rax
.LVL118:
	.loc 10 192 57 view .LVU348
.LBE2211:
.LBE2210:
.LBE2207:
	.loc 10 220 2 view .LVU349
	cmpq	%rax, %rdi
	je	.L83
.LVL119:
.LBB2212:
.LBI2212:
	.loc 10 225 7 is_stmt 1 view .LVU350
.LBB2213:
.LBI2213:
	.loc 11 461 7 view .LVU351
.LBB2214:
.LBI2214:
	.loc 12 116 7 view .LVU352
.LBB2215:
	.loc 12 125 19 is_stmt 0 view .LVU353
	call	_ZdlPv
.LVL120:
.L83:
	.loc 12 125 19 view .LVU354
.LBE2215:
.LBE2214:
.LBE2213:
.LBE2212:
.LBE2206:
.LBE2205:
.LBB2216:
.LBI2216:
	.loc 10 139 14 is_stmt 1 view .LVU355
.LBB2217:
.LBI2217:
	.loc 13 139 7 view .LVU356
.LBB2218:
.LBI2218:
	.loc 12 86 7 view .LVU357
	.loc 12 86 7 is_stmt 0 view .LVU358
.LBE2218:
.LBE2217:
.LBE2216:
.LBE2204:
	.loc 9 47 40 view .LVU359
	movq	%rbx, %rdi
	call	_ZNSt13runtime_errorD2Ev
.LVL121:
	.loc 9 47 40 view .LVU360
.LBE2203:
.LBE2202:
	.loc 9 47 41 view .LVU361
	movl	$64, %esi
	movq	%rbx, %rdi
	call	_ZdlPvm
.LVL122:
	popq	%rbx
	.cfi_def_cfa_offset 8
.LVL123:
	.loc 9 47 41 view .LVU362
	ret
	.cfi_endproc
.LFE5276:
	.size	_ZN5boost6system12system_errorD0Ev, .-_ZN5boost6system12system_errorD0Ev
	.section	.rodata._ZN5boost4asio6detail17posix_global_implINS0_14system_contextEED2Ev.str1.8,"aMS",@progbits,1
	.align 8
.LC6:
	.string	"/usr/local/include/boost/asio/detail/posix_event.hpp"
	.section	.rodata._ZN5boost4asio6detail17posix_global_implINS0_14system_contextEED2Ev.str1.1,"aMS",@progbits,1
.LC7:
	.string	"lock.locked()"
	.section	.text._ZN5boost4asio6detail17posix_global_implINS0_14system_contextEED2Ev,"axG",@progbits,_ZN5boost4asio6detail17posix_global_implINS0_14system_contextEED5Ev,comdat
	.align 2
	.weak	_ZN5boost4asio6detail17posix_global_implINS0_14system_contextEED2Ev
	.type	_ZN5boost4asio6detail17posix_global_implINS0_14system_contextEED2Ev, @function
_ZN5boost4asio6detail17posix_global_implINS0_14system_contextEED2Ev:
.LVL124:
.LFB14053:
	.loc 18 41 3 is_stmt 1 view -0
	.cfi_startproc
	.cfi_personality 0x3,__gxx_personality_v0
	.cfi_lsda 0x3,.LLSDA14053
	.loc 18 41 3 is_stmt 0 view .LVU364
	pushq	%r12
	.cfi_def_cfa_offset 16
	.cfi_offset 12, -16
	pushq	%rbp
	.cfi_def_cfa_offset 24
	.cfi_offset 6, -24
	pushq	%rbx
	.cfi_def_cfa_offset 32
	.cfi_offset 3, -32
	subq	$32, %rsp
	.cfi_def_cfa_offset 64
.LBB2320:
	.loc 18 43 5 view .LVU365
	movq	_ZN5boost4asio6detail17posix_global_implINS0_14system_contextEE11static_ptr_E(%rip), %rbp
	testq	%rbp, %rbp
	je	.L85
.LVL125:
.LBB2321:
.LBI2321:
	.file 20 "/usr/local/include/boost/asio/impl/system_context.ipp"
	.loc 20 47 1 is_stmt 1 view .LVU366
.LBB2322:
	.loc 20 49 3 view .LVU367
	movq	8(%rbp), %rbx
.LVL126:
.LBB2323:
.LBI2323:
	.file 21 "/usr/local/include/boost/asio/detail/scheduler.hpp"
	.loc 21 96 8 view .LVU368
.LBB2324:
	.loc 21 98 5 view .LVU369
.LBB2325:
.LBI2325:
	.file 22 "/usr/include/c++/8/bits/atomic_base.h"
	.loc 22 303 7 view .LVU370
.LBB2326:
	.loc 22 304 36 is_stmt 0 view .LVU371
	leaq	208(%rbx), %rax
.LVL127:
	.loc 22 304 34 view .LVU372
	movq	$-1, %rdx
	lock xaddq	%rdx, (%rax)
.LVL128:
	.loc 22 304 34 view .LVU373
.LBE2326:
.LBE2325:
	.loc 21 98 5 view .LVU374
	cmpq	$1, %rdx
	je	.L115
.LVL129:
.L87:
	.loc 21 98 5 view .LVU375
.LBE2324:
.LBE2323:
	.loc 20 50 3 is_stmt 1 view .LVU376
	movq	8(%rbp), %rbx
.LVL130:
.LBB2360:
.LBI2360:
	.file 23 "/usr/local/include/boost/asio/detail/impl/scheduler.ipp"
	.loc 23 300 6 view .LVU377
.LBB2361:
	.loc 23 302 3 view .LVU378
	.loc 23 302 27 is_stmt 0 view .LVU379
	leaq	48(%rbx), %rax
.LVL131:
.LBB2362:
.LBI2362:
	.file 24 "/usr/local/include/boost/asio/detail/conditionally_enabled_mutex.hpp"
	.loc 24 50 14 is_stmt 1 view .LVU380
.LBB2363:
.LBB2364:
.LBB2365:
.LBI2365:
	.loc 7 29 3 view .LVU381
	.loc 7 29 3 is_stmt 0 view .LVU382
.LBE2365:
	.loc 24 51 17 view .LVU383
	movq	%rax, 16(%rsp)
	.loc 24 53 7 is_stmt 1 view .LVU384
	cmpb	$0, 96(%rbx)
	jne	.L116
	.loc 24 59 9 view .LVU385
	.loc 24 59 17 is_stmt 0 view .LVU386
	movb	$0, 24(%rsp)
.LVL132:
.L95:
	.loc 24 59 17 view .LVU387
.LBE2364:
.LBE2363:
.LBE2362:
	.loc 23 303 3 is_stmt 1 view .LVU388
.LBB2370:
.LBI2370:
	.loc 23 586 6 view .LVU389
.LBB2371:
	.loc 23 589 3 view .LVU390
	.loc 23 589 12 is_stmt 0 view .LVU391
	movb	$1, 232(%rbx)
	.loc 23 590 3 is_stmt 1 view .LVU392
.LVL133:
.LBB2372:
.LBI2372:
	.file 25 "/usr/local/include/boost/asio/detail/conditionally_enabled_event.hpp"
	.loc 25 54 8 view .LVU393
.LBB2373:
	.loc 25 56 5 view .LVU394
	movq	16(%rsp), %rax
	cmpb	$0, 48(%rax)
	jne	.L117
.L96:
.LVL134:
	.loc 25 56 5 is_stmt 0 view .LVU395
.LBE2373:
.LBE2372:
	.loc 23 592 3 is_stmt 1 view .LVU396
	cmpb	$0, 200(%rbx)
	jne	.L98
	.loc 23 592 29 is_stmt 0 view .LVU397
	movq	168(%rbx), %rax
	.loc 23 592 26 view .LVU398
	testq	%rax, %rax
	je	.L98
	.loc 23 594 5 is_stmt 1 view .LVU399
	.loc 23 594 23 is_stmt 0 view .LVU400
	movb	$1, 200(%rbx)
	.loc 23 595 5 is_stmt 1 view .LVU401
.LVL135:
.LBB2379:
.LBI2379:
	.file 26 "/usr/local/include/boost/asio/detail/impl/epoll_reactor.ipp"
	.loc 26 568 6 view .LVU402
.LBB2380:
	.loc 26 570 3 view .LVU403
	.loc 26 571 3 view .LVU404
	.loc 26 571 13 is_stmt 0 view .LVU405
	movl	$-2147483639, 4(%rsp)
	.loc 26 572 3 is_stmt 1 view .LVU406
	.loc 26 572 17 is_stmt 0 view .LVU407
	leaq	104(%rax), %rdx
	.loc 26 572 15 view .LVU408
	movq	%rdx, 8(%rsp)
	.loc 26 573 3 is_stmt 1 view .LVU409
.LVL136:
.LBB2381:
.LBI2381:
	.file 27 "/usr/local/include/boost/asio/detail/eventfd_select_interrupter.hpp"
	.loc 27 48 7 view .LVU410
.LBB2382:
	.loc 27 50 5 view .LVU411
	.loc 27 50 12 is_stmt 0 view .LVU412
	movl	104(%rax), %edx
.LVL137:
	.loc 27 50 12 view .LVU413
.LBE2382:
.LBE2381:
	.loc 26 573 12 view .LVU414
	movl	112(%rax), %edi
	leaq	4(%rsp), %rcx
	movl	$3, %esi
	call	epoll_ctl
.LVL138:
.L98:
	.loc 26 573 12 view .LVU415
.LBE2380:
.LBE2379:
.LBE2371:
.LBE2370:
.LBB2385:
.LBI2385:
	.loc 24 63 5 is_stmt 1 view .LVU416
.LBB2386:
	.loc 24 65 7 view .LVU417
	cmpb	$0, 24(%rsp)
	jne	.L118
.L99:
.LVL139:
.LBB2387:
.LBI2387:
	.loc 7 30 3 view .LVU418
	.loc 7 30 3 is_stmt 0 view .LVU419
.LBE2387:
.LBE2386:
.LBE2385:
.LBE2361:
.LBE2360:
	.loc 20 51 3 is_stmt 1 view .LVU420
	.loc 20 51 16 is_stmt 0 view .LVU421
	leaq	16(%rbp), %rbx
.LVL140:
.LBB2395:
.LBI2395:
	.file 28 "/usr/local/include/boost/asio/detail/thread_group.hpp"
	.loc 28 57 8 is_stmt 1 view .LVU422
	jmp	.L102
.LVL141:
.L115:
	.loc 28 57 8 is_stmt 0 view .LVU423
.LBE2395:
.LBB2410:
.LBB2359:
	.loc 21 99 7 is_stmt 1 view .LVU424
.LBB2327:
.LBI2327:
	.loc 23 300 6 view .LVU425
.LBB2328:
	.loc 23 302 3 view .LVU426
	.loc 23 302 27 is_stmt 0 view .LVU427
	leaq	48(%rbx), %rax
.LVL142:
.LBB2329:
.LBI2329:
	.loc 24 50 14 is_stmt 1 view .LVU428
.LBB2330:
.LBB2331:
.LBB2332:
.LBI2332:
	.loc 7 29 3 view .LVU429
	.loc 7 29 3 is_stmt 0 view .LVU430
.LBE2332:
	.loc 24 51 17 view .LVU431
	movq	%rax, 16(%rsp)
	.loc 24 53 7 is_stmt 1 view .LVU432
	cmpb	$0, 96(%rbx)
	jne	.L119
	.loc 24 59 9 view .LVU433
	.loc 24 59 17 is_stmt 0 view .LVU434
	movb	$0, 24(%rsp)
.LVL143:
.L89:
	.loc 24 59 17 view .LVU435
.LBE2331:
.LBE2330:
.LBE2329:
	.loc 23 303 3 is_stmt 1 view .LVU436
.LBB2337:
.LBI2337:
	.loc 23 586 6 view .LVU437
.LBB2338:
	.loc 23 589 3 view .LVU438
	.loc 23 589 12 is_stmt 0 view .LVU439
	movb	$1, 232(%rbx)
	.loc 23 590 3 is_stmt 1 view .LVU440
.LVL144:
.LBB2339:
.LBI2339:
	.loc 25 54 8 view .LVU441
.LBB2340:
	.loc 25 56 5 view .LVU442
	movq	16(%rsp), %rax
	cmpb	$0, 48(%rax)
	jne	.L120
.L90:
.LVL145:
	.loc 25 56 5 is_stmt 0 view .LVU443
.LBE2340:
.LBE2339:
	.loc 23 592 3 is_stmt 1 view .LVU444
	cmpb	$0, 200(%rbx)
	jne	.L92
	.loc 23 592 29 is_stmt 0 view .LVU445
	movq	168(%rbx), %rax
	.loc 23 592 26 view .LVU446
	testq	%rax, %rax
	je	.L92
	.loc 23 594 5 is_stmt 1 view .LVU447
	.loc 23 594 23 is_stmt 0 view .LVU448
	movb	$1, 200(%rbx)
	.loc 23 595 5 is_stmt 1 view .LVU449
.LVL146:
.LBB2346:
.LBI2346:
	.loc 26 568 6 view .LVU450
.LBB2347:
	.loc 26 570 3 view .LVU451
	.loc 26 571 3 view .LVU452
	.loc 26 571 13 is_stmt 0 view .LVU453
	movl	$-2147483639, 4(%rsp)
	.loc 26 572 3 is_stmt 1 view .LVU454
	.loc 26 572 17 is_stmt 0 view .LVU455
	leaq	104(%rax), %rdx
	.loc 26 572 15 view .LVU456
	movq	%rdx, 8(%rsp)
	.loc 26 573 3 is_stmt 1 view .LVU457
.LVL147:
.LBB2348:
.LBI2348:
	.loc 27 48 7 view .LVU458
.LBB2349:
	.loc 27 50 5 view .LVU459
	.loc 27 50 12 is_stmt 0 view .LVU460
	movl	104(%rax), %edx
.LVL148:
	.loc 27 50 12 view .LVU461
.LBE2349:
.LBE2348:
	.loc 26 573 12 view .LVU462
	movl	112(%rax), %edi
	leaq	4(%rsp), %rcx
	movl	$3, %esi
	call	epoll_ctl
.LVL149:
.L92:
	.loc 26 573 12 view .LVU463
.LBE2347:
.LBE2346:
.LBE2338:
.LBE2337:
.LBB2352:
.LBI2352:
	.loc 24 63 5 is_stmt 1 view .LVU464
.LBB2353:
	.loc 24 65 7 view .LVU465
	cmpb	$0, 24(%rsp)
	je	.L87
	.loc 24 66 9 view .LVU466
.LVL150:
.LBB2354:
.LBI2354:
	.file 29 "/usr/local/include/boost/asio/detail/posix_mutex.hpp"
	.loc 29 56 8 view .LVU467
.LBB2355:
	.loc 29 58 5 view .LVU468
	.loc 29 58 33 is_stmt 0 view .LVU469
	movq	16(%rsp), %rax
	leaq	8(%rax), %rdi
.LVL151:
	.loc 29 58 33 view .LVU470
	call	pthread_mutex_unlock
.LVL152:
	.loc 29 58 33 view .LVU471
.LBE2355:
.LBE2354:
.LBB2356:
.LBI2356:
	.loc 7 30 3 is_stmt 1 view .LVU472
	.loc 7 30 3 is_stmt 0 view .LVU473
	jmp	.L87
.LVL153:
.L119:
	.loc 7 30 3 view .LVU474
.LBE2356:
.LBE2353:
.LBE2352:
.LBB2357:
.LBB2336:
.LBB2335:
	.loc 24 55 9 is_stmt 1 view .LVU475
.LBB2333:
.LBI2333:
	.loc 29 50 8 view .LVU476
.LBB2334:
	.loc 29 52 5 view .LVU477
	.loc 29 52 31 is_stmt 0 view .LVU478
	leaq	56(%rbx), %rdi
.LVL154:
	.loc 29 52 31 view .LVU479
	call	pthread_mutex_lock
.LVL155:
	.loc 29 52 31 view .LVU480
.LBE2334:
.LBE2333:
	.loc 24 56 9 is_stmt 1 view .LVU481
	.loc 24 56 17 is_stmt 0 view .LVU482
	movb	$1, 24(%rsp)
	jmp	.L89
.LVL156:
.L120:
	.loc 24 56 17 view .LVU483
.LBE2335:
.LBE2336:
.LBE2357:
.LBB2358:
.LBB2351:
.LBB2350:
.LBB2345:
	.loc 25 57 7 is_stmt 1 view .LVU484
	.loc 25 57 24 is_stmt 0 view .LVU485
	leaq	112(%rbx), %rdi
.LVL157:
.LBB2341:
.LBI2341:
	.file 30 "/usr/local/include/boost/asio/detail/posix_event.hpp"
	.loc 30 54 8 is_stmt 1 view .LVU486
.LBB2342:
.LBB2343:
.LBI2343:
	.loc 24 90 10 view .LVU487
.LBB2344:
	.loc 24 92 7 view .LVU488
	.loc 24 92 7 is_stmt 0 view .LVU489
.LBE2344:
.LBE2343:
	.loc 30 56 41 view .LVU490
	cmpb	$0, 24(%rsp)
	je	.L121
	.loc 30 58 12 view .LVU491
	movq	48(%rdi), %rax
	orq	$1, %rax
	.loc 30 58 5 view .LVU492
	movq	%rax, 48(%rdi)
	.loc 30 59 29 view .LVU493
	call	pthread_cond_broadcast
.LVL158:
	.loc 30 59 29 view .LVU494
	jmp	.L90
.LVL159:
.L121:
	.loc 30 56 68 view .LVU495
	movl	$_ZZN5boost4asio6detail11posix_event10signal_allINS1_27conditionally_enabled_mutex11scoped_lockEEEvRT_E19__PRETTY_FUNCTION__, %ecx
	movl	$56, %edx
	movl	$.LC6, %esi
	movl	$.LC7, %edi
.LVL160:
	.loc 30 56 68 view .LVU496
	call	__assert_fail
.LVL161:
.L116:
	.loc 30 56 68 view .LVU497
.LBE2342:
.LBE2341:
.LBE2345:
.LBE2350:
.LBE2351:
.LBE2358:
.LBE2328:
.LBE2327:
.LBE2359:
.LBE2410:
.LBB2411:
.LBB2394:
.LBB2391:
.LBB2369:
.LBB2368:
	.loc 24 55 9 is_stmt 1 view .LVU498
.LBB2366:
.LBI2366:
	.loc 29 50 8 view .LVU499
.LBB2367:
	.loc 29 52 5 view .LVU500
	.loc 29 52 31 is_stmt 0 view .LVU501
	leaq	56(%rbx), %rdi
	call	pthread_mutex_lock
.LVL162:
	.loc 29 52 31 view .LVU502
.LBE2367:
.LBE2366:
	.loc 24 56 9 is_stmt 1 view .LVU503
	.loc 24 56 17 is_stmt 0 view .LVU504
	movb	$1, 24(%rsp)
	jmp	.L95
.LVL163:
.L117:
	.loc 24 56 17 view .LVU505
.LBE2368:
.LBE2369:
.LBE2391:
.LBB2392:
.LBB2384:
.LBB2383:
.LBB2378:
	.loc 25 57 7 is_stmt 1 view .LVU506
	.loc 25 57 24 is_stmt 0 view .LVU507
	leaq	112(%rbx), %rdi
.LVL164:
.LBB2374:
.LBI2374:
	.loc 30 54 8 is_stmt 1 view .LVU508
.LBB2375:
.LBB2376:
.LBI2376:
	.loc 24 90 10 view .LVU509
.LBB2377:
	.loc 24 92 7 view .LVU510
	.loc 24 92 7 is_stmt 0 view .LVU511
.LBE2377:
.LBE2376:
	.loc 30 56 41 view .LVU512
	cmpb	$0, 24(%rsp)
	je	.L122
	.loc 30 58 12 view .LVU513
	movq	48(%rdi), %rax
	orq	$1, %rax
	.loc 30 58 5 view .LVU514
	movq	%rax, 48(%rdi)
	.loc 30 59 29 view .LVU515
	call	pthread_cond_broadcast
.LVL165:
	.loc 30 59 29 view .LVU516
	jmp	.L96
.LVL166:
.L122:
	.loc 30 56 68 view .LVU517
	movl	$_ZZN5boost4asio6detail11posix_event10signal_allINS1_27conditionally_enabled_mutex11scoped_lockEEEvRT_E19__PRETTY_FUNCTION__, %ecx
	movl	$56, %edx
	movl	$.LC6, %esi
	movl	$.LC7, %edi
.LVL167:
	.loc 30 56 68 view .LVU518
	call	__assert_fail
.LVL168:
.L118:
	.loc 30 56 68 view .LVU519
.LBE2375:
.LBE2374:
.LBE2378:
.LBE2383:
.LBE2384:
.LBE2392:
.LBB2393:
.LBB2390:
	.loc 24 66 9 is_stmt 1 view .LVU520
.LBB2388:
.LBI2388:
	.loc 29 56 8 view .LVU521
.LBB2389:
	.loc 29 58 5 view .LVU522
	.loc 29 58 33 is_stmt 0 view .LVU523
	movq	16(%rsp), %rax
	leaq	8(%rax), %rdi
.LVL169:
	.loc 29 58 33 view .LVU524
	call	pthread_mutex_unlock
.LVL170:
	.loc 29 58 33 view .LVU525
	jmp	.L99
.LVL171:
.L124:
	.loc 29 58 33 view .LVU526
.LBE2389:
.LBE2388:
.LBE2390:
.LBE2393:
.LBE2394:
.LBE2411:
.LBB2412:
.LBB2396:
.LBB2397:
.LBB2398:
.LBB2399:
	.file 31 "/usr/local/include/boost/asio/detail/impl/posix_thread.ipp"
	.loc 31 42 5 is_stmt 1 view .LVU527
	.loc 31 42 19 is_stmt 0 view .LVU528
	movl	$0, %esi
	movq	(%r12), %rdi
	call	pthread_join
.LVL172:
	.loc 31 43 5 is_stmt 1 view .LVU529
	.loc 31 43 13 is_stmt 0 view .LVU530
	movb	$1, 8(%r12)
.L101:
.LVL173:
	.loc 31 43 13 view .LVU531
.LBE2399:
.LBE2398:
	.loc 28 62 7 is_stmt 1 view .LVU532
	.loc 28 62 13 is_stmt 0 view .LVU533
	movq	(%rbx), %r12
.LVL174:
	.loc 28 63 7 is_stmt 1 view .LVU534
	.loc 28 63 24 is_stmt 0 view .LVU535
	movq	16(%r12), %rax
	.loc 28 63 14 view .LVU536
	movq	%rax, (%rbx)
	.loc 28 64 7 is_stmt 1 view .LVU537
	.loc 28 64 17 is_stmt 0 view .LVU538
	testq	%r12, %r12
	jne	.L123
.LVL175:
.L102:
	.loc 28 64 17 view .LVU539
.LBE2397:
	.loc 28 59 5 is_stmt 1 view .LVU540
	.loc 28 59 12 is_stmt 0 view .LVU541
	movq	(%rbx), %r12
	testq	%r12, %r12
	je	.L107
.LBB2409:
	.loc 28 61 7 is_stmt 1 view .LVU542
.LVL176:
.LBB2401:
.LBI2398:
	.loc 31 38 6 view .LVU543
.LBB2400:
	.loc 31 40 3 view .LVU544
	cmpb	$0, 8(%r12)
	jne	.L101
	jmp	.L124
.LVL177:
.L123:
	.loc 31 40 3 is_stmt 0 view .LVU545
.LBE2400:
.LBE2401:
.LBB2402:
.LBI2402:
	.loc 28 76 10 is_stmt 1 view .LVU546
.LBB2403:
.LBI2403:
	.loc 31 32 1 view .LVU547
.LBB2404:
	.loc 31 34 3 view .LVU548
	cmpb	$0, 8(%r12)
	je	.L125
.L103:
.LVL178:
.LBB2405:
.LBI2405:
	.loc 7 30 3 view .LVU549
	.loc 7 30 3 is_stmt 0 view .LVU550
.LBE2405:
.LBE2404:
.LBE2403:
.LBE2402:
	.loc 28 64 14 view .LVU551
	movl	$24, %esi
	movq	%r12, %rdi
	call	_ZdlPvm
.LVL179:
	jmp	.L102
.LVL180:
.L125:
.LBB2408:
.LBB2407:
.LBB2406:
	.loc 31 35 5 is_stmt 1 view .LVU552
	.loc 31 35 21 is_stmt 0 view .LVU553
	movq	(%r12), %rdi
	call	pthread_detach
.LVL181:
	jmp	.L103
.LVL182:
.L127:
	.loc 31 35 21 view .LVU554
.LBE2406:
.LBE2407:
.LBE2408:
.LBE2409:
.LBE2396:
.LBE2412:
.LBB2413:
.LBB2414:
.LBB2415:
.LBB2416:
.LBB2417:
.LBB2418:
	.loc 31 42 5 is_stmt 1 view .LVU555
	.loc 31 42 19 is_stmt 0 view .LVU556
	movl	$0, %esi
	movq	(%r12), %rdi
	call	pthread_join
.LVL183:
	.loc 31 43 5 is_stmt 1 view .LVU557
	.loc 31 43 13 is_stmt 0 view .LVU558
	movb	$1, 8(%r12)
.L106:
.LVL184:
	.loc 31 43 13 view .LVU559
.LBE2418:
.LBE2417:
	.loc 28 62 7 is_stmt 1 view .LVU560
	.loc 28 62 13 is_stmt 0 view .LVU561
	movq	(%rbx), %r12
.LVL185:
	.loc 28 63 7 is_stmt 1 view .LVU562
	.loc 28 63 24 is_stmt 0 view .LVU563
	movq	16(%r12), %rax
	.loc 28 63 14 view .LVU564
	movq	%rax, (%rbx)
	.loc 28 64 7 is_stmt 1 view .LVU565
	.loc 28 64 17 is_stmt 0 view .LVU566
	testq	%r12, %r12
	jne	.L126
.LVL186:
.L107:
	.loc 28 64 17 view .LVU567
.LBE2416:
	.loc 28 59 5 is_stmt 1 view .LVU568
	.loc 28 59 12 is_stmt 0 view .LVU569
	movq	(%rbx), %r12
	testq	%r12, %r12
	je	.L105
.LBB2428:
	.loc 28 61 7 is_stmt 1 view .LVU570
.LVL187:
.LBB2420:
.LBI2417:
	.loc 31 38 6 view .LVU571
.LBB2419:
	.loc 31 40 3 view .LVU572
	cmpb	$0, 8(%r12)
	jne	.L106
	jmp	.L127
.LVL188:
.L126:
	.loc 31 40 3 is_stmt 0 view .LVU573
.LBE2419:
.LBE2420:
.LBB2421:
.LBI2421:
	.loc 28 76 10 is_stmt 1 view .LVU574
.LBB2422:
.LBI2422:
	.loc 31 32 1 view .LVU575
.LBB2423:
	.loc 31 34 3 view .LVU576
	cmpb	$0, 8(%r12)
	je	.L128
.L108:
.LVL189:
.LBB2424:
.LBI2424:
	.loc 7 30 3 view .LVU577
	.loc 7 30 3 is_stmt 0 view .LVU578
.LBE2424:
.LBE2423:
.LBE2422:
.LBE2421:
	.loc 28 64 14 view .LVU579
	movl	$24, %esi
	movq	%r12, %rdi
	call	_ZdlPvm
.LVL190:
	jmp	.L107
.LVL191:
.L128:
.LBB2427:
.LBB2426:
.LBB2425:
	.loc 31 35 5 is_stmt 1 view .LVU580
	.loc 31 35 21 is_stmt 0 view .LVU581
	movq	(%r12), %rdi
	call	pthread_detach
.LVL192:
	jmp	.L108
.LVL193:
.L105:
	.loc 31 35 21 view .LVU582
.LBE2425:
.LBE2426:
.LBE2427:
.LBE2428:
.LBE2415:
.LBE2414:
.LBE2413:
.LBB2429:
.LBI2429:
	.file 32 "/usr/local/include/boost/asio/impl/execution_context.ipp"
	.loc 32 32 1 is_stmt 1 view .LVU583
.LBB2430:
	.loc 32 34 3 view .LVU584
.LBB2431:
.LBI2431:
	.loc 32 39 6 view .LVU585
.LBB2432:
	.loc 32 41 3 view .LVU586
	movq	0(%rbp), %rax
.LVL194:
.LBB2433:
.LBI2433:
	.file 33 "/usr/local/include/boost/asio/detail/impl/service_registry.ipp"
	.loc 33 39 6 view .LVU587
.LBB2434:
	.loc 33 41 3 view .LVU588
	.loc 33 41 31 is_stmt 0 view .LVU589
	movq	56(%rax), %rbx
.LVL195:
	.loc 33 41 31 view .LVU590
	jmp	.L110
.LVL196:
.L129:
	.loc 33 44 5 is_stmt 1 view .LVU591
	.loc 33 44 23 is_stmt 0 view .LVU592
	movq	(%rbx), %rax
	.loc 33 44 22 view .LVU593
	movq	%rbx, %rdi
	call	*16(%rax)
.LVL197:
	.loc 33 45 5 is_stmt 1 view .LVU594
	.loc 33 45 13 is_stmt 0 view .LVU595
	movq	32(%rbx), %rbx
.LVL198:
.L110:
	.loc 33 42 3 is_stmt 1 view .LVU596
	.loc 33 42 10 is_stmt 0 view .LVU597
	testq	%rbx, %rbx
	jne	.L129
.LVL199:
	.loc 33 42 10 view .LVU598
.LBE2434:
.LBE2433:
.LBE2432:
.LBE2431:
	.loc 32 35 3 is_stmt 1 view .LVU599
.LBB2435:
.LBI2435:
	.loc 32 44 6 view .LVU600
.LBB2436:
	.loc 32 46 3 view .LVU601
	movq	0(%rbp), %rbx
.LVL200:
.LBB2437:
.LBI2437:
	.loc 33 49 6 view .LVU602
	jmp	.L112
.L130:
.LBB2438:
.LBB2439:
	.loc 33 53 5 view .LVU603
	.loc 33 53 33 is_stmt 0 view .LVU604
	movq	32(%rdi), %r12
.LVL201:
	.loc 33 54 5 is_stmt 1 view .LVU605
.LBB2440:
.LBI2440:
	.loc 33 108 6 view .LVU606
.LBB2441:
	.loc 33 110 3 view .LVU607
	.loc 33 110 10 is_stmt 0 view .LVU608
	movq	(%rdi), %rax
	call	*8(%rax)
.LVL202:
	.loc 33 110 10 view .LVU609
.LBE2441:
.LBE2440:
	.loc 33 55 5 is_stmt 1 view .LVU610
	.loc 33 55 20 is_stmt 0 view .LVU611
	movq	%r12, 56(%rbx)
.LVL203:
.L112:
	.loc 33 55 20 view .LVU612
.LBE2439:
	.loc 33 51 3 is_stmt 1 view .LVU613
	.loc 33 51 10 is_stmt 0 view .LVU614
	movq	56(%rbx), %rdi
	testq	%rdi, %rdi
	jne	.L130
.LVL204:
	.loc 33 51 10 view .LVU615
.LBE2438:
.LBE2437:
.LBE2436:
.LBE2435:
	.loc 32 36 3 is_stmt 1 view .LVU616
	.loc 32 36 10 is_stmt 0 view .LVU617
	movq	0(%rbp), %rbx
	.loc 32 36 27 view .LVU618
	testq	%rbx, %rbx
	je	.L113
.LVL205:
.LBB2442:
.LBI2442:
	.loc 33 35 1 is_stmt 1 view .LVU619
.LBB2443:
.LBI2443:
	.loc 29 44 3 view .LVU620
.LBB2444:
	.loc 29 46 5 view .LVU621
	.loc 29 46 28 is_stmt 0 view .LVU622
	leaq	8(%rbx), %rdi
.LVL206:
	.loc 29 46 28 view .LVU623
	call	pthread_mutex_destroy
.LVL207:
.LBB2445:
.LBI2445:
	.loc 7 30 3 is_stmt 1 view .LVU624
	.loc 7 30 3 is_stmt 0 view .LVU625
.LBE2445:
.LBE2444:
.LBE2443:
.LBB2446:
.LBI2446:
	.loc 7 30 3 is_stmt 1 view .LVU626
	.loc 7 30 3 is_stmt 0 view .LVU627
.LBE2446:
.LBE2442:
	.loc 32 36 10 view .LVU628
	movl	$64, %esi
	movq	%rbx, %rdi
	call	_ZdlPvm
.LVL208:
.L113:
.LBB2447:
.LBI2447:
	.loc 7 30 3 is_stmt 1 view .LVU629
	.loc 7 30 3 is_stmt 0 view .LVU630
.LBE2447:
.LBE2430:
.LBE2429:
.LBE2322:
.LBE2321:
	.loc 18 43 5 view .LVU631
	movl	$24, %esi
	movq	%rbp, %rdi
	call	_ZdlPvm
.LVL209:
.L85:
	.loc 18 43 5 view .LVU632
.LBE2320:
	.loc 18 44 3 view .LVU633
	addq	$32, %rsp
	.cfi_def_cfa_offset 32
	popq	%rbx
	.cfi_def_cfa_offset 24
	popq	%rbp
	.cfi_def_cfa_offset 16
	popq	%r12
	.cfi_def_cfa_offset 8
	ret
	.cfi_endproc
.LFE14053:
	.section	.gcc_except_table._ZN5boost4asio6detail17posix_global_implINS0_14system_contextEED2Ev,"aG",@progbits,_ZN5boost4asio6detail17posix_global_implINS0_14system_contextEED5Ev,comdat
.LLSDA14053:
	.byte	0xff
	.byte	0xff
	.byte	0x1
	.uleb128 .LLSDACSE14053-.LLSDACSB14053
.LLSDACSB14053:
.LLSDACSE14053:
	.section	.text._ZN5boost4asio6detail17posix_global_implINS0_14system_contextEED2Ev,"axG",@progbits,_ZN5boost4asio6detail17posix_global_implINS0_14system_contextEED5Ev,comdat
	.size	_ZN5boost4asio6detail17posix_global_implINS0_14system_contextEED2Ev, .-_ZN5boost4asio6detail17posix_global_implINS0_14system_contextEED2Ev
	.weak	_ZN5boost4asio6detail17posix_global_implINS0_14system_contextEED1Ev
	.set	_ZN5boost4asio6detail17posix_global_implINS0_14system_contextEED1Ev,_ZN5boost4asio6detail17posix_global_implINS0_14system_contextEED2Ev
	.text
	.align 2
	.globl	_ZN3mpp10ReqHandler9handleReqERKNS_7RequestERNS_5ReplyE
	.type	_ZN3mpp10ReqHandler9handleReqERKNS_7RequestERNS_5ReplyE, @function
_ZN3mpp10ReqHandler9handleReqERKNS_7RequestERNS_5ReplyE:
.LVL210:
.LFB10791:
	.loc 14 12 1 is_stmt 1 view -0
	.cfi_startproc
	.loc 14 13 1 is_stmt 0 view .LVU635
	ret
	.cfi_endproc
.LFE10791:
	.size	_ZN3mpp10ReqHandler9handleReqERKNS_7RequestERNS_5ReplyE, .-_ZN3mpp10ReqHandler9handleReqERKNS_7RequestERNS_5ReplyE
	.section	.text._ZNSt8_Rb_treeIPKN5boost6system14error_categoryESt4pairIKS4_St10unique_ptrINS1_6detail12std_categoryESt14default_deleteIS9_EEESt10_Select1stISD_ENS8_12cat_ptr_lessESaISD_EE8_M_eraseEPSt13_Rb_tree_nodeISD_E,"axG",@progbits,_ZNSt8_Rb_treeIPKN5boost6system14error_categoryESt4pairIKS4_St10unique_ptrINS1_6detail12std_categoryESt14default_deleteIS9_EEESt10_Select1stISD_ENS8_12cat_ptr_lessESaISD_EE8_M_eraseEPSt13_Rb_tree_nodeISD_E,comdat
	.align 2
	.weak	_ZNSt8_Rb_treeIPKN5boost6system14error_categoryESt4pairIKS4_St10unique_ptrINS1_6detail12std_categoryESt14default_deleteIS9_EEESt10_Select1stISD_ENS8_12cat_ptr_lessESaISD_EE8_M_eraseEPSt13_Rb_tree_nodeISD_E
	.type	_ZNSt8_Rb_treeIPKN5boost6system14error_categoryESt4pairIKS4_St10unique_ptrINS1_6detail12std_categoryESt14default_deleteIS9_EEESt10_Select1stISD_ENS8_12cat_ptr_lessESaISD_EE8_M_eraseEPSt13_Rb_tree_nodeISD_E, @function
_ZNSt8_Rb_treeIPKN5boost6system14error_categoryESt4pairIKS4_St10unique_ptrINS1_6detail12std_categoryESt14default_deleteIS9_EEESt10_Select1stISD_ENS8_12cat_ptr_lessESaISD_EE8_M_eraseEPSt13_Rb_tree_nodeISD_E:
.LVL211:
.LFB11881:
	.file 34 "/usr/include/c++/8/bits/stl_tree.h"
	.loc 34 1866 5 is_stmt 1 view -0
	.cfi_startproc
	.loc 34 1866 5 is_stmt 0 view .LVU637
	pushq	%r12
	.cfi_def_cfa_offset 16
	.cfi_offset 12, -16
	pushq	%rbp
	.cfi_def_cfa_offset 24
	.cfi_offset 6, -24
	pushq	%rbx
	.cfi_def_cfa_offset 32
	.cfi_offset 3, -32
	movq	%rdi, %r12
	movq	%rsi, %rbx
	jmp	.L135
.LVL212:
.L134:
.LBB2470:
.LBB2471:
.LBB2472:
.LBI2472:
	.loc 34 602 7 is_stmt 1 view .LVU638
.LBB2473:
.LBI2473:
	.loc 11 461 7 view .LVU639
.LBB2474:
.LBI2474:
	.loc 12 116 7 view .LVU640
.LBB2475:
	.loc 12 125 19 is_stmt 0 view .LVU641
	movq	%rbx, %rdi
	call	_ZdlPv
.LVL213:
	.loc 12 125 19 view .LVU642
.LBE2475:
.LBE2474:
.LBE2473:
.LBE2472:
.LBE2471:
	.loc 34 1875 4 view .LVU643
	movq	%rbp, %rbx
.LVL214:
.L135:
	.loc 34 1875 4 view .LVU644
.LBE2470:
	.loc 34 1870 18 view .LVU645
	testq	%rbx, %rbx
	je	.L132
.LVL215:
.LBB2491:
.LBB2486:
.LBI2486:
	.loc 34 787 7 is_stmt 1 view .LVU646
.LBB2487:
	.loc 34 788 53 is_stmt 0 view .LVU647
	movq	24(%rbx), %rsi
.LVL216:
	.loc 34 788 53 view .LVU648
.LBE2487:
.LBE2486:
	.loc 34 1872 4 view .LVU649
	movq	%r12, %rdi
	call	_ZNSt8_Rb_treeIPKN5boost6system14error_categoryESt4pairIKS4_St10unique_ptrINS1_6detail12std_categoryESt14default_deleteIS9_EEESt10_Select1stISD_ENS8_12cat_ptr_lessESaISD_EE8_M_eraseEPSt13_Rb_tree_nodeISD_E
.LVL217:
.LBB2488:
.LBI2488:
	.loc 34 779 7 is_stmt 1 view .LVU650
.LBB2489:
	.loc 34 780 52 is_stmt 0 view .LVU651
	movq	16(%rbx), %rbp
.LVL218:
	.loc 34 780 52 view .LVU652
.LBE2489:
.LBE2488:
.LBB2490:
.LBI2471:
	.loc 34 667 7 is_stmt 1 view .LVU653
.LBB2476:
.LBI2476:
	.loc 34 659 7 view .LVU654
.LBB2477:
.LBI2477:
	.loc 11 486 2 view .LVU655
.LBB2478:
.LBI2478:
	.loc 12 140 2 view .LVU656
.LBB2479:
.LBI2479:
	.file 35 "/usr/include/c++/8/bits/stl_pair.h"
	.loc 35 198 12 view .LVU657
.LBB2480:
.LBI2480:
	.file 36 "/usr/include/c++/8/bits/unique_ptr.h"
	.loc 36 270 7 view .LVU658
.LBB2481:
.LBB2482:
.LBI2482:
	.loc 36 149 16 view .LVU659
	.loc 36 149 16 is_stmt 0 view .LVU660
.LBE2482:
	.loc 36 273 12 view .LVU661
	movq	40(%rbx), %rdi
	.loc 36 273 2 view .LVU662
	testq	%rdi, %rdi
	je	.L134
.LVL219:
.LBB2483:
.LBI2483:
	.loc 36 347 7 is_stmt 1 view .LVU663
	.loc 36 347 7 is_stmt 0 view .LVU664
.LBE2483:
.LBB2484:
.LBI2484:
	.loc 36 75 7 is_stmt 1 view .LVU665
.LBB2485:
	.loc 36 81 2 is_stmt 0 view .LVU666
	movq	(%rdi), %rax
	call	*8(%rax)
.LVL220:
	.loc 36 81 2 view .LVU667
	jmp	.L134
.LVL221:
.L132:
	.loc 36 81 2 view .LVU668
.LBE2485:
.LBE2484:
.LBE2481:
.LBE2480:
.LBE2479:
.LBE2478:
.LBE2477:
.LBE2476:
.LBE2490:
.LBE2491:
	.loc 34 1877 5 view .LVU669
	popq	%rbx
	.cfi_def_cfa_offset 24
.LVL222:
	.loc 34 1877 5 view .LVU670
	popq	%rbp
	.cfi_def_cfa_offset 16
	popq	%r12
	.cfi_def_cfa_offset 8
.LVL223:
	.loc 34 1877 5 view .LVU671
	ret
	.cfi_endproc
.LFE11881:
	.size	_ZNSt8_Rb_treeIPKN5boost6system14error_categoryESt4pairIKS4_St10unique_ptrINS1_6detail12std_categoryESt14default_deleteIS9_EEESt10_Select1stISD_ENS8_12cat_ptr_lessESaISD_EE8_M_eraseEPSt13_Rb_tree_nodeISD_E, .-_ZNSt8_Rb_treeIPKN5boost6system14error_categoryESt4pairIKS4_St10unique_ptrINS1_6detail12std_categoryESt14default_deleteIS9_EEESt10_Select1stISD_ENS8_12cat_ptr_lessESaISD_EE8_M_eraseEPSt13_Rb_tree_nodeISD_E
	.section	.text._ZNSt3mapIPKN5boost6system14error_categoryESt10unique_ptrINS1_6detail12std_categoryESt14default_deleteIS7_EENS6_12cat_ptr_lessESaISt4pairIKS4_SA_EEED2Ev,"axG",@progbits,_ZNSt3mapIPKN5boost6system14error_categoryESt10unique_ptrINS1_6detail12std_categoryESt14default_deleteIS7_EENS6_12cat_ptr_lessESaISt4pairIKS4_SA_EEED5Ev,comdat
	.align 2
	.weak	_ZNSt3mapIPKN5boost6system14error_categoryESt10unique_ptrINS1_6detail12std_categoryESt14default_deleteIS7_EENS6_12cat_ptr_lessESaISt4pairIKS4_SA_EEED2Ev
	.type	_ZNSt3mapIPKN5boost6system14error_categoryESt10unique_ptrINS1_6detail12std_categoryESt14default_deleteIS7_EENS6_12cat_ptr_lessESaISt4pairIKS4_SA_EEED2Ev, @function
_ZNSt3mapIPKN5boost6system14error_categoryESt10unique_ptrINS1_6detail12std_categoryESt14default_deleteIS7_EENS6_12cat_ptr_lessESaISt4pairIKS4_SA_EEED2Ev:
.LVL224:
.LFB5112:
	.file 37 "/usr/include/c++/8/bits/stl_map.h"
	.loc 37 300 7 is_stmt 1 view -0
	.cfi_startproc
	.loc 37 300 7 is_stmt 0 view .LVU673
	subq	$8, %rsp
	.cfi_def_cfa_offset 16
.LVL225:
.LBB2492:
.LBB2493:
.LBI2493:
	.loc 34 964 7 is_stmt 1 view .LVU674
.LBB2494:
.LBB2495:
.LBI2495:
	.loc 34 752 7 view .LVU675
.LBB2496:
	.loc 34 753 73 is_stmt 0 view .LVU676
	movq	16(%rdi), %rsi
.LVL226:
	.loc 34 753 73 view .LVU677
.LBE2496:
.LBE2495:
	.loc 34 965 9 view .LVU678
	call	_ZNSt8_Rb_treeIPKN5boost6system14error_categoryESt4pairIKS4_St10unique_ptrINS1_6detail12std_categoryESt14default_deleteIS9_EEESt10_Select1stISD_ENS8_12cat_ptr_lessESaISD_EE8_M_eraseEPSt13_Rb_tree_nodeISD_E
.LVL227:
.LBB2497:
.LBI2497:
	.loc 34 692 9 is_stmt 1 view .LVU679
.LBB2498:
.LBI2498:
	.loc 13 139 7 view .LVU680
.LBB2499:
.LBI2499:
	.loc 12 86 7 view .LVU681
	.loc 12 86 7 is_stmt 0 view .LVU682
.LBE2499:
.LBE2498:
.LBE2497:
.LBE2494:
.LBE2493:
.LBE2492:
	.loc 37 300 7 view .LVU683
	addq	$8, %rsp
	.cfi_def_cfa_offset 8
	ret
	.cfi_endproc
.LFE5112:
	.size	_ZNSt3mapIPKN5boost6system14error_categoryESt10unique_ptrINS1_6detail12std_categoryESt14default_deleteIS7_EENS6_12cat_ptr_lessESaISt4pairIKS4_SA_EEED2Ev, .-_ZNSt3mapIPKN5boost6system14error_categoryESt10unique_ptrINS1_6detail12std_categoryESt14default_deleteIS7_EENS6_12cat_ptr_lessESaISt4pairIKS4_SA_EEED2Ev
	.weak	_ZNSt3mapIPKN5boost6system14error_categoryESt10unique_ptrINS1_6detail12std_categoryESt14default_deleteIS7_EENS6_12cat_ptr_lessESaISt4pairIKS4_SA_EEED1Ev
	.set	_ZNSt3mapIPKN5boost6system14error_categoryESt10unique_ptrINS1_6detail12std_categoryESt14default_deleteIS7_EENS6_12cat_ptr_lessESaISt4pairIKS4_SA_EEED1Ev,_ZNSt3mapIPKN5boost6system14error_categoryESt10unique_ptrINS1_6detail12std_categoryESt14default_deleteIS7_EENS6_12cat_ptr_lessESaISt4pairIKS4_SA_EEED2Ev
	.section	.text._ZNSt8_Rb_treeIPKN5boost6system14error_categoryESt4pairIKS4_St10unique_ptrINS1_6detail12std_categoryESt14default_deleteIS9_EEESt10_Select1stISD_ENS8_12cat_ptr_lessESaISD_EE14_M_lower_boundEPSt13_Rb_tree_nodeISD_EPSt18_Rb_tree_node_baseRS6_,"axG",@progbits,_ZNSt8_Rb_treeIPKN5boost6system14error_categoryESt4pairIKS4_St10unique_ptrINS1_6detail12std_categoryESt14default_deleteIS9_EEESt10_Select1stISD_ENS8_12cat_ptr_lessESaISD_EE14_M_lower_boundEPSt13_Rb_tree_nodeISD_EPSt18_Rb_tree_node_baseRS6_,comdat
	.align 2
	.weak	_ZNSt8_Rb_treeIPKN5boost6system14error_categoryESt4pairIKS4_St10unique_ptrINS1_6detail12std_categoryESt14default_deleteIS9_EEESt10_Select1stISD_ENS8_12cat_ptr_lessESaISD_EE14_M_lower_boundEPSt13_Rb_tree_nodeISD_EPSt18_Rb_tree_node_baseRS6_
	.type	_ZNSt8_Rb_treeIPKN5boost6system14error_categoryESt4pairIKS4_St10unique_ptrINS1_6detail12std_categoryESt14default_deleteIS9_EEESt10_Select1stISD_ENS8_12cat_ptr_lessESaISD_EE14_M_lower_boundEPSt13_Rb_tree_nodeISD_EPSt18_Rb_tree_node_baseRS6_, @function
_ZNSt8_Rb_treeIPKN5boost6system14error_categoryESt4pairIKS4_St10unique_ptrINS1_6detail12std_categoryESt14default_deleteIS9_EEESt10_Select1stISD_ENS8_12cat_ptr_lessESaISD_EE14_M_lower_boundEPSt13_Rb_tree_nodeISD_EPSt18_Rb_tree_node_baseRS6_:
.LVL228:
.LFB12433:
	.loc 34 1883 5 is_stmt 1 view -0
	.cfi_startproc
	.loc 34 1883 5 is_stmt 0 view .LVU685
	movq	%rdx, %rax
	jmp	.L140
.LVL229:
.L143:
.LBB2500:
.LBI2500:
	.loc 34 779 7 is_stmt 1 view .LVU686
	.loc 34 779 7 is_stmt 0 view .LVU687
.LBE2500:
	.loc 34 1889 4 view .LVU688
	movq	%rsi, %rax
	.loc 34 1889 28 view .LVU689
	movq	16(%rsi), %rsi
.LVL230:
.L140:
	.loc 34 1887 18 view .LVU690
	testq	%rsi, %rsi
	je	.L141
	.loc 34 1888 6 view .LVU691
	movq	(%rcx), %r9
	movq	32(%rsi), %r10
.LVL231:
.LBB2501:
.LBI2501:
	.loc 3 73 10 is_stmt 1 view .LVU692
.LBE2501:
	.loc 3 75 9 view .LVU693
.LBB2505:
.LBB2502:
.LBI2502:
	.loc 1 243 20 view .LVU694
.LBB2503:
	.loc 1 245 9 view .LVU695
	.loc 1 245 13 is_stmt 0 view .LVU696
	movq	8(%r10), %r8
	.loc 1 245 23 view .LVU697
	movq	8(%r9), %rdi
	.loc 1 245 9 view .LVU698
	cmpq	%r8, %rdi
	ja	.L142
	.loc 1 250 9 is_stmt 1 view .LVU699
	jb	.L143
	.loc 1 255 9 view .LVU700
	testq	%rdi, %rdi
	jne	.L143
	.loc 1 260 9 view .LVU701
.LVL232:
.LBB2504:
.LBI2504:
	.file 38 "/usr/include/c++/8/bits/stl_function.h"
	.loc 38 427 7 view .LVU702
	.loc 38 427 7 is_stmt 0 view .LVU703
.LBE2504:
.LBE2503:
.LBE2502:
.LBE2505:
	.loc 34 1888 2 view .LVU704
	cmpq	%r9, %r10
	jnb	.L143
.LVL233:
.L142:
.LBB2506:
.LBI2506:
	.loc 34 787 7 is_stmt 1 view .LVU705
.LBB2507:
	.loc 34 788 53 is_stmt 0 view .LVU706
	movq	24(%rsi), %rsi
.LVL234:
	.loc 34 788 53 view .LVU707
	jmp	.L140
.L141:
.LVL235:
	.loc 34 788 53 view .LVU708
.LBE2507:
.LBE2506:
.LBB2508:
.LBI2508:
	.loc 34 273 7 is_stmt 1 view .LVU709
	.loc 34 273 7 is_stmt 0 view .LVU710
.LBE2508:
	.loc 34 1893 5 view .LVU711
	ret
	.cfi_endproc
.LFE12433:
	.size	_ZNSt8_Rb_treeIPKN5boost6system14error_categoryESt4pairIKS4_St10unique_ptrINS1_6detail12std_categoryESt14default_deleteIS9_EEESt10_Select1stISD_ENS8_12cat_ptr_lessESaISD_EE14_M_lower_boundEPSt13_Rb_tree_nodeISD_EPSt18_Rb_tree_node_baseRS6_, .-_ZNSt8_Rb_treeIPKN5boost6system14error_categoryESt4pairIKS4_St10unique_ptrINS1_6detail12std_categoryESt14default_deleteIS9_EEESt10_Select1stISD_ENS8_12cat_ptr_lessESaISD_EE14_M_lower_boundEPSt13_Rb_tree_nodeISD_EPSt18_Rb_tree_node_baseRS6_
	.section	.text._ZNSt8_Rb_treeIPKN5boost6system14error_categoryESt4pairIKS4_St10unique_ptrINS1_6detail12std_categoryESt14default_deleteIS9_EEESt10_Select1stISD_ENS8_12cat_ptr_lessESaISD_EE4findERS6_,"axG",@progbits,_ZNSt8_Rb_treeIPKN5boost6system14error_categoryESt4pairIKS4_St10unique_ptrINS1_6detail12std_categoryESt14default_deleteIS9_EEESt10_Select1stISD_ENS8_12cat_ptr_lessESaISD_EE4findERS6_,comdat
	.align 2
	.weak	_ZNSt8_Rb_treeIPKN5boost6system14error_categoryESt4pairIKS4_St10unique_ptrINS1_6detail12std_categoryESt14default_deleteIS9_EEESt10_Select1stISD_ENS8_12cat_ptr_lessESaISD_EE4findERS6_
	.type	_ZNSt8_Rb_treeIPKN5boost6system14error_categoryESt4pairIKS4_St10unique_ptrINS1_6detail12std_categoryESt14default_deleteIS9_EEESt10_Select1stISD_ENS8_12cat_ptr_lessESaISD_EE4findERS6_, @function
_ZNSt8_Rb_treeIPKN5boost6system14error_categoryESt4pairIKS4_St10unique_ptrINS1_6detail12std_categoryESt14default_deleteIS9_EEESt10_Select1stISD_ENS8_12cat_ptr_lessESaISD_EE4findERS6_:
.LVL236:
.LFB11883:
	.loc 34 2536 5 is_stmt 1 view -0
	.cfi_startproc
	.loc 34 2536 5 is_stmt 0 view .LVU713
	pushq	%rbp
	.cfi_def_cfa_offset 16
	.cfi_offset 6, -16
	pushq	%rbx
	.cfi_def_cfa_offset 24
	.cfi_offset 3, -24
	subq	$8, %rsp
	.cfi_def_cfa_offset 32
	movq	%rsi, %rbp
.LVL237:
.LBB2509:
.LBI2509:
	.loc 34 763 7 is_stmt 1 view .LVU714
.LBB2510:
	.loc 34 764 31 is_stmt 0 view .LVU715
	leaq	8(%rdi), %rbx
.LVL238:
	.loc 34 764 31 view .LVU716
.LBE2510:
.LBE2509:
.LBB2511:
.LBI2511:
	.loc 34 752 7 is_stmt 1 view .LVU717
.LBB2512:
	.loc 34 753 73 is_stmt 0 view .LVU718
	movq	16(%rdi), %rsi
.LVL239:
	.loc 34 753 73 view .LVU719
.LBE2512:
.LBE2511:
	.loc 34 2539 16 view .LVU720
	movq	%rbp, %rcx
	movq	%rbx, %rdx
	call	_ZNSt8_Rb_treeIPKN5boost6system14error_categoryESt4pairIKS4_St10unique_ptrINS1_6detail12std_categoryESt14default_deleteIS9_EEESt10_Select1stISD_ENS8_12cat_ptr_lessESaISD_EE14_M_lower_boundEPSt13_Rb_tree_nodeISD_EPSt18_Rb_tree_node_baseRS6_
.LVL240:
.LBB2513:
.LBI2513:
	.loc 34 984 7 is_stmt 1 view .LVU721
.LBB2514:
.LBI2514:
	.loc 34 273 7 view .LVU722
	.loc 34 273 7 is_stmt 0 view .LVU723
.LBE2514:
.LBE2513:
.LBB2515:
.LBI2515:
	.loc 34 315 7 is_stmt 1 view .LVU724
	.loc 34 315 7 is_stmt 0 view .LVU725
.LBE2515:
	.loc 34 2542 28 view .LVU726
	cmpq	%rbx, %rax
	je	.L146
	.loc 34 2541 8 discriminator 2 view .LVU727
	movq	32(%rax), %rsi
	movq	0(%rbp), %rdi
.LVL241:
.LBB2516:
.LBI2516:
	.loc 3 73 10 is_stmt 1 discriminator 2 view .LVU728
.LBE2516:
	.loc 3 75 9 discriminator 2 view .LVU729
.LBB2520:
.LBB2517:
.LBI2517:
	.loc 1 243 20 discriminator 2 view .LVU730
.LBB2518:
	.loc 1 245 9 discriminator 2 view .LVU731
	.loc 1 245 13 is_stmt 0 discriminator 2 view .LVU732
	movq	8(%rdi), %rcx
	.loc 1 245 23 discriminator 2 view .LVU733
	movq	8(%rsi), %rdx
	.loc 1 245 9 discriminator 2 view .LVU734
	cmpq	%rdx, %rcx
	jb	.L146
	.loc 1 250 9 is_stmt 1 view .LVU735
	ja	.L148
	.loc 1 255 9 view .LVU736
	testq	%rdx, %rdx
	jne	.L148
	.loc 1 260 9 view .LVU737
.LVL242:
.LBB2519:
.LBI2519:
	.loc 38 427 7 view .LVU738
	.loc 38 427 7 is_stmt 0 view .LVU739
.LBE2519:
.LBE2518:
.LBE2517:
.LBE2520:
	.loc 34 2541 8 view .LVU740
	cmpq	%rsi, %rdi
	jnb	.L148
.LVL243:
.L146:
.LBB2521:
.LBI2521:
	.loc 34 984 7 is_stmt 1 discriminator 1 view .LVU741
.LBB2522:
.LBB2523:
.LBI2523:
	.loc 34 273 7 discriminator 1 view .LVU742
	.loc 34 273 7 is_stmt 0 discriminator 1 view .LVU743
	movq	%rbx, %rax
.LVL244:
.L148:
.LVL245:
	.loc 34 273 7 discriminator 1 view .LVU744
.LBE2523:
.LBE2522:
.LBE2521:
	.loc 34 2543 5 view .LVU745
	addq	$8, %rsp
	.cfi_def_cfa_offset 24
	popq	%rbx
	.cfi_def_cfa_offset 16
.LVL246:
	.loc 34 2543 5 view .LVU746
	popq	%rbp
	.cfi_def_cfa_offset 8
.LVL247:
	.loc 34 2543 5 view .LVU747
	ret
	.cfi_endproc
.LFE11883:
	.size	_ZNSt8_Rb_treeIPKN5boost6system14error_categoryESt4pairIKS4_St10unique_ptrINS1_6detail12std_categoryESt14default_deleteIS9_EEESt10_Select1stISD_ENS8_12cat_ptr_lessESaISD_EE4findERS6_, .-_ZNSt8_Rb_treeIPKN5boost6system14error_categoryESt4pairIKS4_St10unique_ptrINS1_6detail12std_categoryESt14default_deleteIS9_EEESt10_Select1stISD_ENS8_12cat_ptr_lessESaISD_EE4findERS6_
	.section	.text._ZNSt8_Rb_treeIPKN5boost6system14error_categoryESt4pairIKS4_St10unique_ptrINS1_6detail12std_categoryESt14default_deleteIS9_EEESt10_Select1stISD_ENS8_12cat_ptr_lessESaISD_EE24_M_get_insert_unique_posERS6_,"axG",@progbits,_ZNSt8_Rb_treeIPKN5boost6system14error_categoryESt4pairIKS4_St10unique_ptrINS1_6detail12std_categoryESt14default_deleteIS9_EEESt10_Select1stISD_ENS8_12cat_ptr_lessESaISD_EE24_M_get_insert_unique_posERS6_,comdat
	.align 2
	.weak	_ZNSt8_Rb_treeIPKN5boost6system14error_categoryESt4pairIKS4_St10unique_ptrINS1_6detail12std_categoryESt14default_deleteIS9_EEESt10_Select1stISD_ENS8_12cat_ptr_lessESaISD_EE24_M_get_insert_unique_posERS6_
	.type	_ZNSt8_Rb_treeIPKN5boost6system14error_categoryESt4pairIKS4_St10unique_ptrINS1_6detail12std_categoryESt14default_deleteIS9_EEESt10_Select1stISD_ENS8_12cat_ptr_lessESaISD_EE24_M_get_insert_unique_posERS6_, @function
_ZNSt8_Rb_treeIPKN5boost6system14error_categoryESt4pairIKS4_St10unique_ptrINS1_6detail12std_categoryESt14default_deleteIS9_EEESt10_Select1stISD_ENS8_12cat_ptr_lessESaISD_EE24_M_get_insert_unique_posERS6_:
.LVL248:
.LFB12465:
	.loc 34 2044 5 is_stmt 1 view -0
	.cfi_startproc
	.loc 34 2044 5 is_stmt 0 view .LVU749
	pushq	%r12
	.cfi_def_cfa_offset 16
	.cfi_offset 12, -16
	pushq	%rbp
	.cfi_def_cfa_offset 24
	.cfi_offset 6, -24
	pushq	%rbx
	.cfi_def_cfa_offset 32
	.cfi_offset 3, -32
	movq	%rsi, %rbp
.LVL249:
.LBB2524:
.LBI2524:
	.loc 34 752 7 is_stmt 1 view .LVU750
.LBB2525:
	.loc 34 753 73 is_stmt 0 view .LVU751
	movq	16(%rdi), %rbx
.LVL250:
	.loc 34 753 73 view .LVU752
.LBE2525:
.LBE2524:
.LBB2526:
.LBI2526:
	.loc 34 763 7 is_stmt 1 view .LVU753
.LBB2527:
	.loc 34 764 31 is_stmt 0 view .LVU754
	leaq	8(%rdi), %r12
.LVL251:
	.loc 34 764 31 view .LVU755
.LBE2527:
.LBE2526:
	.loc 34 2050 12 view .LVU756
	movl	$1, %edx
	jmp	.L151
.LVL252:
.L161:
.LBB2528:
.LBB2529:
.LBB2530:
	.loc 1 247 20 view .LVU757
	movl	$1, %edx
.LVL253:
.L153:
	.loc 1 247 20 view .LVU758
.LBE2530:
.LBE2529:
.LBE2528:
.LBB2539:
.LBI2539:
	.loc 34 779 7 is_stmt 1 discriminator 1 view .LVU759
.LBB2540:
	.loc 34 780 52 is_stmt 0 discriminator 1 view .LVU760
	movq	16(%rbx), %rax
.LVL254:
	.loc 34 780 52 discriminator 1 view .LVU761
.LBE2540:
.LBE2539:
	jmp	.L155
.LVL255:
.L162:
.LBB2541:
.LBB2536:
.LBB2533:
	.loc 1 252 20 view .LVU762
	movl	$0, %edx
.LVL256:
.L154:
	.loc 1 252 20 view .LVU763
.LBE2533:
.LBE2536:
.LBE2541:
.LBB2542:
.LBI2542:
	.loc 34 787 7 is_stmt 1 discriminator 2 view .LVU764
.LBB2543:
	.loc 34 788 53 is_stmt 0 discriminator 2 view .LVU765
	movq	24(%rbx), %rax
.LVL257:
.L155:
	.loc 34 788 53 discriminator 2 view .LVU766
.LBE2543:
.LBE2542:
	.loc 34 2044 5 view .LVU767
	movq	%rbx, %r12
	movq	%rax, %rbx
.LVL258:
.L151:
	.loc 34 2051 18 view .LVU768
	testq	%rbx, %rbx
	je	.L152
.LVL259:
	.loc 34 2054 11 view .LVU769
	movq	32(%rbx), %rsi
	movq	0(%rbp), %rcx
.LVL260:
.LBB2544:
.LBI2528:
	.loc 3 73 10 is_stmt 1 view .LVU770
.LBE2544:
	.loc 3 75 9 view .LVU771
.LBB2545:
.LBB2537:
.LBI2529:
	.loc 1 243 20 view .LVU772
.LBB2534:
	.loc 1 245 9 view .LVU773
	.loc 1 245 13 is_stmt 0 view .LVU774
	movq	8(%rcx), %rdx
.LVL261:
	.loc 1 245 23 view .LVU775
	movq	8(%rsi), %rax
	.loc 1 245 9 view .LVU776
	cmpq	%rdx, %rax
	ja	.L161
	.loc 1 250 9 is_stmt 1 view .LVU777
	jb	.L162
	.loc 1 255 9 view .LVU778
	testq	%rax, %rax
	jne	.L163
	.loc 1 260 9 view .LVU779
.LVL262:
.LBB2531:
.LBI2531:
	.loc 38 427 7 view .LVU780
.LBB2532:
	.loc 38 431 53 is_stmt 0 view .LVU781
	cmpq	%rcx, %rsi
	seta	%dl
.LVL263:
	.loc 38 431 53 view .LVU782
.LBE2532:
.LBE2531:
.LBE2534:
.LBE2537:
.LBE2545:
	.loc 34 2055 17 view .LVU783
	testb	%dl, %dl
	je	.L154
	jmp	.L153
.LVL264:
.L163:
.LBB2546:
.LBB2538:
.LBB2535:
	.loc 1 257 20 view .LVU784
	movl	$0, %edx
	jmp	.L154
.LVL265:
.L152:
	.loc 1 257 20 view .LVU785
.LBE2535:
.LBE2538:
.LBE2546:
.LBB2547:
.LBI2547:
	.loc 34 273 7 is_stmt 1 view .LVU786
.LBB2548:
.LBB2549:
	.loc 34 274 20 is_stmt 0 view .LVU787
	movq	%r12, %rax
.LVL266:
	.loc 34 274 20 view .LVU788
.LBE2549:
.LBE2548:
.LBE2547:
	.loc 34 2058 7 view .LVU789
	testb	%dl, %dl
	je	.L156
.LVL267:
.LBB2550:
.LBI2550:
	.loc 34 976 7 is_stmt 1 view .LVU790
.LBB2551:
.LBB2552:
.LBI2552:
	.loc 34 273 7 view .LVU791
	.loc 34 273 7 is_stmt 0 view .LVU792
.LBE2552:
.LBE2551:
.LBE2550:
	.loc 34 2060 4 view .LVU793
	cmpq	%r12, 24(%rdi)
	je	.L165
.LVL268:
.LBB2553:
.LBI2553:
	.loc 34 300 7 is_stmt 1 view .LVU794
.LBB2554:
	.loc 34 302 30 is_stmt 0 view .LVU795
	movq	%r12, %rdi
.LVL269:
	.loc 34 302 30 view .LVU796
	call	_ZSt18_Rb_tree_decrementPSt18_Rb_tree_node_base
.LVL270:
.L156:
	.loc 34 302 30 view .LVU797
.LBE2554:
.LBE2553:
	.loc 34 2065 7 view .LVU798
	movq	0(%rbp), %rsi
.LVL271:
	.loc 34 2065 45 view .LVU799
	movq	%rax, %rdx
	.loc 34 2065 7 view .LVU800
	movq	32(%rax), %rdi
.LVL272:
.LBB2555:
.LBI2555:
	.loc 3 73 10 is_stmt 1 view .LVU801
.LBE2555:
	.loc 3 75 9 view .LVU802
.LBB2559:
.LBB2556:
.LBI2556:
	.loc 1 243 20 view .LVU803
.LBB2557:
	.loc 1 245 9 view .LVU804
	.loc 1 245 13 is_stmt 0 view .LVU805
	movq	8(%rdi), %rcx
	.loc 1 245 23 view .LVU806
	movq	8(%rsi), %rax
.LVL273:
	.loc 1 245 9 view .LVU807
	cmpq	%rax, %rcx
	jb	.L159
	.loc 1 250 9 is_stmt 1 view .LVU808
	ja	.L160
	.loc 1 255 9 view .LVU809
	testq	%rax, %rax
	jne	.L160
	.loc 1 260 9 view .LVU810
.LVL274:
.LBB2558:
.LBI2558:
	.loc 38 427 7 view .LVU811
	.loc 38 427 7 is_stmt 0 view .LVU812
.LBE2558:
.LBE2557:
.LBE2556:
.LBE2559:
	.loc 34 2065 7 view .LVU813
	cmpq	%rsi, %rdi
	jnb	.L160
.LVL275:
.L159:
.LBB2560:
.LBI2560:
	.loc 35 330 12 is_stmt 1 view .LVU814
.LBB2561:
.LBB2562:
.LBB2563:
.LBI2563:
	.file 39 "/usr/include/c++/8/bits/move.h"
	.loc 39 74 5 view .LVU815
	.loc 39 74 5 is_stmt 0 view .LVU816
.LBE2563:
.LBB2564:
.LBI2564:
	.loc 39 74 5 is_stmt 1 view .LVU817
	.loc 39 74 5 is_stmt 0 view .LVU818
.LBE2564:
.LBE2562:
.LBE2561:
.LBE2560:
	.loc 34 2066 22 view .LVU819
	movq	%rbx, %rax
	movq	%r12, %rdx
	jmp	.L158
.LVL276:
.L165:
.LBB2565:
.LBI2565:
	.loc 35 330 12 is_stmt 1 view .LVU820
.LBB2566:
.LBB2567:
.LBB2568:
.LBI2568:
	.loc 39 74 5 view .LVU821
	.loc 39 74 5 is_stmt 0 view .LVU822
.LBE2568:
.LBB2569:
.LBI2569:
	.loc 39 74 5 is_stmt 1 view .LVU823
	.loc 39 74 5 is_stmt 0 view .LVU824
.LBE2569:
.LBE2567:
.LBE2566:
.LBE2565:
	.loc 34 2061 26 view .LVU825
	movq	%rbx, %rax
.LVL277:
	.loc 34 2061 26 view .LVU826
	movq	%r12, %rdx
.LVL278:
	.loc 34 2061 26 view .LVU827
	jmp	.L158
.LVL279:
.L160:
.LBB2570:
.LBI2570:
	.loc 35 300 18 is_stmt 1 view .LVU828
.LBB2571:
.LBB2572:
.LBB2573:
.LBI2573:
	.loc 39 74 5 view .LVU829
	.loc 39 74 5 is_stmt 0 view .LVU830
.LBE2573:
.LBE2572:
.LBE2571:
.LBE2570:
	.loc 34 2067 33 view .LVU831
	movq	%rdx, %rax
	movl	$0, %edx
.L158:
.LVL280:
	.loc 34 2068 5 view .LVU832
	popq	%rbx
	.cfi_def_cfa_offset 24
	popq	%rbp
	.cfi_def_cfa_offset 16
.LVL281:
	.loc 34 2068 5 view .LVU833
	popq	%r12
	.cfi_def_cfa_offset 8
	ret
	.cfi_endproc
.LFE12465:
	.size	_ZNSt8_Rb_treeIPKN5boost6system14error_categoryESt4pairIKS4_St10unique_ptrINS1_6detail12std_categoryESt14default_deleteIS9_EEESt10_Select1stISD_ENS8_12cat_ptr_lessESaISD_EE24_M_get_insert_unique_posERS6_, .-_ZNSt8_Rb_treeIPKN5boost6system14error_categoryESt4pairIKS4_St10unique_ptrINS1_6detail12std_categoryESt14default_deleteIS9_EEESt10_Select1stISD_ENS8_12cat_ptr_lessESaISD_EE24_M_get_insert_unique_posERS6_
	.section	.text._ZNSt8_Rb_treeIPKN5boost6system14error_categoryESt4pairIKS4_St10unique_ptrINS1_6detail12std_categoryESt14default_deleteIS9_EEESt10_Select1stISD_ENS8_12cat_ptr_lessESaISD_EE10_M_insert_ISD_NSI_11_Alloc_nodeEEESt17_Rb_tree_iteratorISD_EPSt18_Rb_tree_node_baseSO_OT_RT0_,"axG",@progbits,_ZNSt8_Rb_treeIPKN5boost6system14error_categoryESt4pairIKS4_St10unique_ptrINS1_6detail12std_categoryESt14default_deleteIS9_EEESt10_Select1stISD_ENS8_12cat_ptr_lessESaISD_EE10_M_insert_ISD_NSI_11_Alloc_nodeEEESt17_Rb_tree_iteratorISD_EPSt18_Rb_tree_node_baseSO_OT_RT0_,comdat
	.align 2
	.weak	_ZNSt8_Rb_treeIPKN5boost6system14error_categoryESt4pairIKS4_St10unique_ptrINS1_6detail12std_categoryESt14default_deleteIS9_EEESt10_Select1stISD_ENS8_12cat_ptr_lessESaISD_EE10_M_insert_ISD_NSI_11_Alloc_nodeEEESt17_Rb_tree_iteratorISD_EPSt18_Rb_tree_node_baseSO_OT_RT0_
	.type	_ZNSt8_Rb_treeIPKN5boost6system14error_categoryESt4pairIKS4_St10unique_ptrINS1_6detail12std_categoryESt14default_deleteIS9_EEESt10_Select1stISD_ENS8_12cat_ptr_lessESaISD_EE10_M_insert_ISD_NSI_11_Alloc_nodeEEESt17_Rb_tree_iteratorISD_EPSt18_Rb_tree_node_baseSO_OT_RT0_, @function
_ZNSt8_Rb_treeIPKN5boost6system14error_categoryESt4pairIKS4_St10unique_ptrINS1_6detail12std_categoryESt14default_deleteIS9_EEESt10_Select1stISD_ENS8_12cat_ptr_lessESaISD_EE10_M_insert_ISD_NSI_11_Alloc_nodeEEESt17_Rb_tree_iteratorISD_EPSt18_Rb_tree_node_baseSO_OT_RT0_:
.LVL282:
.LFB12484:
	.loc 34 1756 7 is_stmt 1 view -0
	.cfi_startproc
	.loc 34 1756 7 is_stmt 0 view .LVU835
	pushq	%r14
	.cfi_def_cfa_offset 16
	.cfi_offset 14, -16
	pushq	%r13
	.cfi_def_cfa_offset 24
	.cfi_offset 13, -24
	pushq	%r12
	.cfi_def_cfa_offset 32
	.cfi_offset 12, -32
	pushq	%rbp
	.cfi_def_cfa_offset 40
	.cfi_offset 6, -40
	pushq	%rbx
	.cfi_def_cfa_offset 48
	.cfi_offset 3, -48
	movq	%rdi, %rbp
	movq	%rdx, %r14
	movq	%rcx, %r12
	.loc 34 1766 10 view .LVU836
	testq	%rsi, %rsi
	je	.L174
	movl	$1, %r13d
.LVL283:
.L167:
.LBB2574:
.LBI2574:
	.loc 34 565 4 is_stmt 1 view .LVU837
.LBB2575:
.LBI2575:
	.loc 34 651 2 view .LVU838
.LBB2576:
.LBB2577:
.LBI2577:
	.loc 34 598 7 view .LVU839
.LBB2578:
.LBI2578:
	.loc 11 435 7 view .LVU840
.LBB2579:
.LBI2579:
	.loc 12 99 7 view .LVU841
.LBB2580:
	.loc 12 111 41 is_stmt 0 view .LVU842
	movl	$48, %edi
.LVL284:
	.loc 12 111 41 view .LVU843
	call	_Znwm
.LVL285:
	.loc 12 111 41 view .LVU844
	movq	%rax, %rbx
.LVL286:
	.loc 12 111 41 view .LVU845
.LBE2580:
.LBE2579:
.LBE2578:
.LBE2577:
.LBB2581:
.LBI2581:
	.loc 34 632 2 is_stmt 1 view .LVU846
	.loc 34 632 2 is_stmt 0 view .LVU847
.LBE2581:
.LBE2576:
.LBE2575:
.LBE2574:
	.file 40 "/usr/include/c++/8/new"
	.loc 40 169 3 is_stmt 1 view .LVU848
.LBB2615:
.LBB2613:
.LBB2611:
.LBB2609:
.LBB2582:
.LBI2582:
	.loc 11 474 2 view .LVU849
.LBB2583:
.LBI2583:
	.loc 12 135 2 view .LVU850
	.loc 12 135 2 is_stmt 0 view .LVU851
.LBE2583:
.LBE2582:
.LBE2609:
.LBE2611:
.LBE2613:
.LBE2615:
	.loc 40 169 3 is_stmt 1 view .LVU852
.LBB2616:
.LBB2614:
.LBB2612:
.LBB2610:
.LBB2608:
.LBB2607:
.LBB2584:
.LBI2584:
	.loc 35 293 17 view .LVU853
.LBB2585:
	movq	(%r12), %rax
.LVL287:
	.loc 35 293 17 is_stmt 0 view .LVU854
	movq	%rax, 32(%rbx)
.LVL288:
.LBB2586:
.LBI2586:
	.loc 36 241 7 is_stmt 1 view .LVU855
.LBB2587:
.LBI2587:
	.loc 36 347 7 view .LVU856
	.loc 36 347 7 is_stmt 0 view .LVU857
.LBE2587:
.LBB2588:
.LBI2588:
	.loc 39 74 5 is_stmt 1 view .LVU858
	.loc 39 74 5 is_stmt 0 view .LVU859
.LBE2588:
.LBB2589:
.LBI2589:
	.loc 36 363 7 is_stmt 1 view .LVU860
.LBB2590:
.LBB2591:
.LBI2591:
	.loc 36 342 7 view .LVU861
.LBB2592:
.LBI2592:
	.loc 36 150 15 view .LVU862
.LBB2593:
	.loc 36 150 55 is_stmt 0 view .LVU863
	movq	8(%r12), %rax
.LVL289:
	.loc 36 150 55 view .LVU864
.LBE2593:
.LBE2592:
.LBE2591:
	.loc 36 366 2 view .LVU865
	movq	$0, 8(%r12)
.LVL290:
	.loc 36 366 2 view .LVU866
.LBE2590:
.LBE2589:
.LBB2594:
.LBI2594:
	.loc 36 146 7 is_stmt 1 view .LVU867
.LBB2595:
.LBI2595:
	.loc 39 74 5 view .LVU868
	.loc 39 74 5 is_stmt 0 view .LVU869
.LBE2595:
.LBB2596:
.LBI2596:
	.file 41 "/usr/include/c++/8/tuple"
	.loc 41 971 19 is_stmt 1 view .LVU870
.LBB2597:
.LBI2597:
	.loc 39 74 5 view .LVU871
	.loc 39 74 5 is_stmt 0 view .LVU872
.LBE2597:
.LBB2598:
.LBI2598:
	.loc 39 74 5 is_stmt 1 view .LVU873
	.loc 39 74 5 is_stmt 0 view .LVU874
.LBE2598:
.LBB2599:
.LBI2599:
	.loc 41 216 19 is_stmt 1 view .LVU875
.LBB2600:
.LBI2600:
	.loc 39 74 5 view .LVU876
	.loc 39 74 5 is_stmt 0 view .LVU877
.LBE2600:
.LBB2601:
.LBI2601:
	.loc 41 365 19 is_stmt 1 view .LVU878
.LBB2602:
.LBI2602:
	.loc 41 86 19 view .LVU879
	.loc 41 86 19 is_stmt 0 view .LVU880
.LBE2602:
.LBE2601:
.LBB2603:
.LBI2603:
	.loc 39 74 5 is_stmt 1 view .LVU881
	.loc 39 74 5 is_stmt 0 view .LVU882
.LBE2603:
.LBB2604:
.LBI2604:
	.loc 41 132 19 is_stmt 1 view .LVU883
.LBB2605:
.LBB2606:
.LBI2606:
	.loc 39 74 5 view .LVU884
	.loc 39 74 5 is_stmt 0 view .LVU885
.LBE2606:
	.loc 41 133 42 view .LVU886
	movq	%rax, 40(%rbx)
.LVL291:
	.loc 41 133 42 view .LVU887
.LBE2605:
.LBE2604:
.LBE2599:
.LBE2596:
.LBE2594:
.LBE2586:
.LBE2585:
.LBE2584:
.LBE2607:
.LBE2608:
.LBE2610:
.LBE2612:
.LBE2614:
.LBE2616:
	.loc 34 1772 25 view .LVU888
	leaq	8(%rbp), %rcx
	.loc 34 1771 31 view .LVU889
	movzbl	%r13b, %edi
	movq	%r14, %rdx
	movq	%rbx, %rsi
	call	_ZSt29_Rb_tree_insert_and_rebalancebPSt18_Rb_tree_node_baseS0_RS_
.LVL292:
	.loc 34 1773 2 view .LVU890
	movq	40(%rbp), %rax
	addq	$1, %rax
	movq	%rax, 40(%rbp)
.LVL293:
.LBB2617:
.LBI2617:
	.loc 34 273 7 is_stmt 1 view .LVU891
	.loc 34 273 7 is_stmt 0 view .LVU892
.LBE2617:
	.loc 34 1775 7 view .LVU893
	movq	%rbx, %rax
	popq	%rbx
	.cfi_remember_state
	.cfi_def_cfa_offset 40
.LVL294:
	.loc 34 1775 7 view .LVU894
	popq	%rbp
	.cfi_def_cfa_offset 32
.LVL295:
	.loc 34 1775 7 view .LVU895
	popq	%r12
	.cfi_def_cfa_offset 24
.LVL296:
	.loc 34 1775 7 view .LVU896
	popq	%r13
	.cfi_def_cfa_offset 16
.LVL297:
	.loc 34 1775 7 view .LVU897
	popq	%r14
	.cfi_def_cfa_offset 8
.LVL298:
	.loc 34 1775 7 view .LVU898
	ret
.LVL299:
.L174:
	.cfi_restore_state
.LBB2618:
.LBI2618:
	.loc 34 763 7 is_stmt 1 view .LVU899
.LBB2619:
	.loc 34 764 31 is_stmt 0 view .LVU900
	leaq	8(%rdi), %rax
.LVL300:
	.loc 34 764 31 view .LVU901
.LBE2619:
.LBE2618:
	.loc 34 1765 33 view .LVU902
	cmpq	%rax, %rdx
	je	.L169
	.loc 34 1766 10 view .LVU903
	movq	32(%rdx), %rcx
.LVL301:
	.loc 34 1766 10 view .LVU904
	movq	(%r12), %rsi
.LVL302:
.LBB2620:
.LBI2620:
	.loc 3 73 10 is_stmt 1 view .LVU905
.LBE2620:
	.loc 3 75 9 view .LVU906
.LBB2625:
.LBB2621:
.LBI2621:
	.loc 1 243 20 view .LVU907
.LBB2622:
	.loc 1 245 9 view .LVU908
	.loc 1 245 13 is_stmt 0 view .LVU909
	movq	8(%rsi), %rdx
.LVL303:
	.loc 1 245 23 view .LVU910
	movq	8(%rcx), %rax
	.loc 1 245 9 view .LVU911
	cmpq	%rdx, %rax
	ja	.L170
	.loc 1 250 9 is_stmt 1 view .LVU912
	jb	.L171
	.loc 1 255 9 view .LVU913
	testq	%rax, %rax
	jne	.L172
	.loc 1 260 9 view .LVU914
.LVL304:
.LBB2623:
.LBI2623:
	.loc 38 427 7 view .LVU915
.LBB2624:
	.loc 38 431 53 is_stmt 0 view .LVU916
	cmpq	%rcx, %rsi
	setb	%r13b
.LVL305:
	.loc 38 431 53 view .LVU917
.LBE2624:
.LBE2623:
.LBE2622:
.LBE2621:
.LBE2625:
	jmp	.L167
.LVL306:
.L169:
	.loc 34 1766 10 view .LVU918
	movl	$1, %r13d
	jmp	.L167
.LVL307:
.L170:
	.loc 34 1766 10 view .LVU919
	movl	$1, %r13d
	jmp	.L167
.L171:
	movl	$0, %r13d
	jmp	.L167
.L172:
	movl	$0, %r13d
	jmp	.L167
	.cfi_endproc
.LFE12484:
	.size	_ZNSt8_Rb_treeIPKN5boost6system14error_categoryESt4pairIKS4_St10unique_ptrINS1_6detail12std_categoryESt14default_deleteIS9_EEESt10_Select1stISD_ENS8_12cat_ptr_lessESaISD_EE10_M_insert_ISD_NSI_11_Alloc_nodeEEESt17_Rb_tree_iteratorISD_EPSt18_Rb_tree_node_baseSO_OT_RT0_, .-_ZNSt8_Rb_treeIPKN5boost6system14error_categoryESt4pairIKS4_St10unique_ptrINS1_6detail12std_categoryESt14default_deleteIS9_EEESt10_Select1stISD_ENS8_12cat_ptr_lessESaISD_EE10_M_insert_ISD_NSI_11_Alloc_nodeEEESt17_Rb_tree_iteratorISD_EPSt18_Rb_tree_node_baseSO_OT_RT0_
	.section	.text._ZNSt8_Rb_treeIPKN5boost6system14error_categoryESt4pairIKS4_St10unique_ptrINS1_6detail12std_categoryESt14default_deleteIS9_EEESt10_Select1stISD_ENS8_12cat_ptr_lessESaISD_EE16_M_insert_uniqueISD_EES5_ISt17_Rb_tree_iteratorISD_EbEOT_,"axG",@progbits,_ZNSt8_Rb_treeIPKN5boost6system14error_categoryESt4pairIKS4_St10unique_ptrINS1_6detail12std_categoryESt14default_deleteIS9_EEESt10_Select1stISD_ENS8_12cat_ptr_lessESaISD_EE16_M_insert_uniqueISD_EES5_ISt17_Rb_tree_iteratorISD_EbEOT_,comdat
	.align 2
	.weak	_ZNSt8_Rb_treeIPKN5boost6system14error_categoryESt4pairIKS4_St10unique_ptrINS1_6detail12std_categoryESt14default_deleteIS9_EEESt10_Select1stISD_ENS8_12cat_ptr_lessESaISD_EE16_M_insert_uniqueISD_EES5_ISt17_Rb_tree_iteratorISD_EbEOT_
	.type	_ZNSt8_Rb_treeIPKN5boost6system14error_categoryESt4pairIKS4_St10unique_ptrINS1_6detail12std_categoryESt14default_deleteIS9_EEESt10_Select1stISD_ENS8_12cat_ptr_lessESaISD_EE16_M_insert_uniqueISD_EES5_ISt17_Rb_tree_iteratorISD_EbEOT_, @function
_ZNSt8_Rb_treeIPKN5boost6system14error_categoryESt4pairIKS4_St10unique_ptrINS1_6detail12std_categoryESt14default_deleteIS9_EEESt10_Select1stISD_ENS8_12cat_ptr_lessESaISD_EE16_M_insert_uniqueISD_EES5_ISt17_Rb_tree_iteratorISD_EbEOT_:
.LVL308:
.LFB11898:
	.loc 34 2098 5 is_stmt 1 view -0
	.cfi_startproc
	.loc 34 2098 5 is_stmt 0 view .LVU921
	pushq	%rbp
	.cfi_def_cfa_offset 16
	.cfi_offset 6, -16
	pushq	%rbx
	.cfi_def_cfa_offset 24
	.cfi_offset 3, -24
	subq	$24, %rsp
	.cfi_def_cfa_offset 48
	movq	%rdi, %rbx
	movq	%rsi, %rbp
.LVL309:
.LBB2626:
.LBI2626:
	.loc 38 1127 7 is_stmt 1 view .LVU922
	.loc 38 1127 7 is_stmt 0 view .LVU923
.LBE2626:
	.loc 34 2106 34 view .LVU924
	call	_ZNSt8_Rb_treeIPKN5boost6system14error_categoryESt4pairIKS4_St10unique_ptrINS1_6detail12std_categoryESt14default_deleteIS9_EEESt10_Select1stISD_ENS8_12cat_ptr_lessESaISD_EE24_M_get_insert_unique_posERS6_
.LVL310:
.LBB2627:
	.loc 34 2109 7 view .LVU925
	testq	%rdx, %rdx
	je	.L176
.LVL311:
.LBB2628:
.LBB2629:
.LBI2629:
	.loc 34 557 2 is_stmt 1 view .LVU926
.LBB2630:
.LBB2631:
	.loc 34 558 14 is_stmt 0 view .LVU927
	movq	%rbx, 8(%rsp)
.LVL312:
	.loc 34 558 14 view .LVU928
.LBE2631:
.LBE2630:
.LBE2629:
	.loc 34 2112 11 view .LVU929
	leaq	8(%rsp), %r8
	movq	%rbp, %rcx
.LVL313:
	.loc 34 2112 11 view .LVU930
	movq	%rax, %rsi
	movq	%rbx, %rdi
	call	_ZNSt8_Rb_treeIPKN5boost6system14error_categoryESt4pairIKS4_St10unique_ptrINS1_6detail12std_categoryESt14default_deleteIS9_EEESt10_Select1stISD_ENS8_12cat_ptr_lessESaISD_EE10_M_insert_ISD_NSI_11_Alloc_nodeEEESt17_Rb_tree_iteratorISD_EPSt18_Rb_tree_node_baseSO_OT_RT0_
.LVL314:
.LBB2632:
.LBI2632:
	.loc 35 330 12 is_stmt 1 view .LVU931
.LBB2633:
.LBB2634:
.LBB2635:
.LBI2635:
	.loc 39 74 5 view .LVU932
	.loc 39 74 5 is_stmt 0 view .LVU933
.LBE2635:
.LBB2636:
.LBI2636:
	.loc 39 74 5 is_stmt 1 view .LVU934
	.loc 39 74 5 is_stmt 0 view .LVU935
.LBE2636:
.LBE2634:
.LBE2633:
.LBE2632:
	.loc 34 2114 13 view .LVU936
	movl	$1, %edx
.L177:
	.loc 34 2114 13 view .LVU937
.LBE2628:
.LBE2627:
	.loc 34 2118 5 discriminator 1 view .LVU938
	addq	$24, %rsp
	.cfi_remember_state
	.cfi_def_cfa_offset 24
	popq	%rbx
	.cfi_def_cfa_offset 16
.LVL315:
	.loc 34 2118 5 discriminator 1 view .LVU939
	popq	%rbp
	.cfi_def_cfa_offset 8
.LVL316:
	.loc 34 2118 5 discriminator 1 view .LVU940
	ret
.LVL317:
.L176:
	.cfi_restore_state
.LBB2637:
.LBI2637:
	.loc 34 273 7 is_stmt 1 view .LVU941
	.loc 34 273 7 is_stmt 0 view .LVU942
.LBE2637:
.LBB2638:
.LBI2638:
	.loc 35 330 12 is_stmt 1 view .LVU943
.LBB2639:
.LBB2640:
.LBB2641:
.LBI2641:
	.loc 39 74 5 view .LVU944
	.loc 39 74 5 is_stmt 0 view .LVU945
.LBE2641:
.LBB2642:
.LBI2642:
	.loc 39 74 5 is_stmt 1 view .LVU946
	.loc 39 74 5 is_stmt 0 view .LVU947
.LBE2642:
.LBE2640:
.LBE2639:
.LBE2638:
	.loc 34 2117 47 view .LVU948
	movl	$0, %edx
	jmp	.L177
	.cfi_endproc
.LFE11898:
	.size	_ZNSt8_Rb_treeIPKN5boost6system14error_categoryESt4pairIKS4_St10unique_ptrINS1_6detail12std_categoryESt14default_deleteIS9_EEESt10_Select1stISD_ENS8_12cat_ptr_lessESaISD_EE16_M_insert_uniqueISD_EES5_ISt17_Rb_tree_iteratorISD_EbEOT_, .-_ZNSt8_Rb_treeIPKN5boost6system14error_categoryESt4pairIKS4_St10unique_ptrINS1_6detail12std_categoryESt14default_deleteIS9_EEESt10_Select1stISD_ENS8_12cat_ptr_lessESaISD_EE16_M_insert_uniqueISD_EES5_ISt17_Rb_tree_iteratorISD_EbEOT_
	.section	.text._ZNK5boost6system6detail12std_category10equivalentEiRKSt15error_condition,"axG",@progbits,_ZNK5boost6system6detail12std_category10equivalentEiRKSt15error_condition,comdat
	.align 2
	.weak	_ZNK5boost6system6detail12std_category10equivalentEiRKSt15error_condition
	.type	_ZNK5boost6system6detail12std_category10equivalentEiRKSt15error_condition, @function
_ZNK5boost6system6detail12std_category10equivalentEiRKSt15error_condition:
.LVL318:
.LFB5136:
	.loc 3 116 1 is_stmt 1 view -0
	.cfi_startproc
	.loc 3 116 1 is_stmt 0 view .LVU950
	pushq	%r13
	.cfi_def_cfa_offset 16
	.cfi_offset 13, -16
	pushq	%r12
	.cfi_def_cfa_offset 24
	.cfi_offset 12, -24
	pushq	%rbp
	.cfi_def_cfa_offset 32
	.cfi_offset 6, -32
	pushq	%rbx
	.cfi_def_cfa_offset 40
	.cfi_offset 3, -40
	subq	$24, %rsp
	.cfi_def_cfa_offset 64
	movq	%rdi, %rbx
	movl	%esi, %r13d
	movq	%rdx, %rbp
	.loc 3 117 5 is_stmt 1 view .LVU951
.LVL319:
.LBB2812:
.LBB2813:
.LBI2813:
	.file 42 "/usr/include/c++/8/system_error"
	.loc 42 260 5 view .LVU952
.LBB2814:
	.loc 42 260 33 view .LVU953
	.loc 42 260 41 is_stmt 0 view .LVU954
	movq	8(%rdx), %r12
.LVL320:
	.loc 42 260 41 view .LVU955
.LBE2814:
.LBE2813:
.LBE2812:
	.loc 42 126 7 is_stmt 1 view .LVU956
.LBB2914:
	.loc 3 117 5 is_stmt 0 view .LVU957
	cmpq	%r12, %rdi
	je	.L196
.LBE2914:
	.loc 3 122 10 is_stmt 1 view .LVU958
.LBB2915:
.LBB2815:
	.loc 3 122 35 is_stmt 0 view .LVU959
	call	_ZNSt3_V216generic_categoryEv
.LVL321:
	.loc 3 122 35 view .LVU960
.LBE2815:
.LBE2915:
	.loc 42 260 33 is_stmt 1 view .LVU961
	.loc 42 126 7 view .LVU962
.LBB2916:
.LBB2883:
	.loc 3 122 62 is_stmt 0 view .LVU963
	cmpq	%r12, %rax
	je	.L185
.LVL322:
.LBB2816:
.LBI2816:
	.loc 1 964 8 is_stmt 1 view .LVU964
.LBE2816:
.LBE2883:
.LBE2916:
	.loc 1 966 5 view .LVU965
.LBB2917:
.LBB2884:
.LBB2826:
.LBB2817:
.LBI2817:
	.loc 3 79 36 view .LVU966
.LBE2817:
.LBE2826:
.LBE2884:
.LBE2917:
	.loc 3 81 5 view .LVU967
	.loc 1 235 9 view .LVU968
	.loc 3 86 10 view .LVU969
	.loc 1 235 9 view .LVU970
.LBB2918:
.LBB2885:
.LBB2827:
.LBB2824:
.LBB2818:
	.loc 3 88 9 view .LVU971
	.loc 3 88 67 is_stmt 0 view .LVU972
	movzbl	_ZGVZN5boost6system6detail15to_std_categoryERKNS0_14error_categoryEE16generic_instance(%rip), %eax
	testb	%al, %al
	je	.L197
.L186:
.LVL323:
	.loc 3 88 67 view .LVU973
.LBE2818:
.LBE2824:
.LBE2827:
.LBB2828:
.LBI2828:
	.loc 42 260 5 is_stmt 1 view .LVU974
.LBB2829:
	.loc 42 260 33 view .LVU975
	.loc 42 260 41 is_stmt 0 view .LVU976
	movq	8(%rbp), %rdi
.LVL324:
	.loc 42 260 41 view .LVU977
.LBE2829:
.LBE2828:
.LBE2885:
.LBE2918:
	.loc 42 126 7 is_stmt 1 view .LVU978
.LBB2919:
.LBB2886:
	.loc 3 122 62 is_stmt 0 view .LVU979
	cmpq	$_ZZN5boost6system6detail15to_std_categoryERKNS0_14error_categoryEE16generic_instance, %rdi
	je	.L185
.LBE2886:
.LBE2919:
	.loc 3 130 10 is_stmt 1 view .LVU980
.LVL325:
	.loc 42 260 33 view .LVU981
.LBB2920:
.LBB2887:
.LBB2830:
	.loc 3 130 40 is_stmt 0 view .LVU982
	testq	%rdi, %rdi
	je	.L188
	.loc 3 130 99 discriminator 1 view .LVU983
	movl	$0, %ecx
	movl	$_ZTIN5boost6system6detail12std_categoryE, %edx
	movl	$_ZTINSt3_V214error_categoryE, %esi
	call	__dynamic_cast
.LVL326:
	.loc 3 130 10 discriminator 1 view .LVU984
	testq	%rax, %rax
	je	.L188
.LBB2831:
	.loc 3 132 9 is_stmt 1 view .LVU985
	.loc 3 132 69 is_stmt 0 view .LVU986
	movq	8(%rax), %r12
.LVL327:
.LBB2832:
.LBI2832:
	.loc 42 257 5 is_stmt 1 view .LVU987
.LBB2833:
	.loc 42 257 30 view .LVU988
	.loc 42 257 37 is_stmt 0 view .LVU989
	movl	0(%rbp), %esi
.LVL328:
	.loc 42 257 37 view .LVU990
.LBE2833:
.LBE2832:
.LBB2834:
.LBI2834:
	.loc 1 451 15 is_stmt 1 view .LVU991
.LBB2835:
.LBB2836:
	.loc 1 452 77 is_stmt 0 view .LVU992
	movl	%esi, (%rsp)
.LVL329:
.LBB2837:
.LBI2837:
	.loc 1 414 23 is_stmt 1 view .LVU993
.LBB2838:
	.loc 1 416 5 view .LVU994
.LBB2839:
.LBI2839:
	.loc 1 233 20 view .LVU995
.LBB2840:
	.loc 1 235 9 view .LVU996
	.loc 1 235 44 is_stmt 0 view .LVU997
	movq	8(%r12), %rax
.LVL330:
	.loc 1 235 44 view .LVU998
.LBE2840:
.LBE2839:
	.loc 1 416 34 view .LVU999
	movabsq	$-8093018978436915045, %rdx
	cmpq	%rdx, %rax
	je	.L189
.LVL331:
	.loc 1 416 34 view .LVU1000
.LBE2838:
.LBE2837:
.LBE2836:
.LBE2835:
.LBE2834:
.LBE2831:
.LBE2830:
.LBE2887:
.LBE2920:
	.loc 1 235 9 is_stmt 1 view .LVU1001
.LBB2921:
.LBB2888:
.LBB2865:
.LBB2851:
.LBB2849:
.LBB2847:
.LBB2845:
.LBB2843:
.LBB2841:
	.loc 1 416 34 is_stmt 0 view .LVU1002
	movabsq	$-5572340897628102899, %rdx
	cmpq	%rdx, %rax
	je	.L189
	.loc 1 422 9 is_stmt 1 view .LVU1003
	.loc 1 422 31 is_stmt 0 view .LVU1004
	movq	(%r12), %rax
	.loc 1 422 26 view .LVU1005
	movq	%r12, %rdi
	call	*48(%rax)
.LVL332:
.L191:
	.loc 1 422 26 view .LVU1006
.LBE2841:
.LBE2843:
	.loc 1 452 77 view .LVU1007
	movb	%al, 4(%rsp)
	movq	%r12, 8(%rsp)
.LVL333:
	.loc 1 452 77 view .LVU1008
.LBE2845:
.LBE2847:
.LBE2849:
	.loc 3 133 9 is_stmt 1 view .LVU1009
	.loc 3 133 16 is_stmt 0 view .LVU1010
	movq	8(%rbx), %rdi
	.loc 3 133 42 view .LVU1011
	movq	(%rdi), %rax
	.loc 3 133 31 view .LVU1012
	movq	%rsp, %rdx
	movl	%r13d, %esi
	call	*16(%rax)
.LVL334:
	jmp	.L179
.LVL335:
.L196:
	.loc 3 133 31 view .LVU1013
.LBE2851:
.LBE2865:
.LBE2888:
.LBB2889:
	.loc 3 119 9 is_stmt 1 view .LVU1014
	.loc 3 119 64 is_stmt 0 view .LVU1015
	movq	8(%rdi), %r12
.LVL336:
.LBB2890:
.LBI2890:
	.loc 42 257 5 is_stmt 1 view .LVU1016
.LBB2891:
	.loc 42 257 30 view .LVU1017
	.loc 42 257 37 is_stmt 0 view .LVU1018
	movl	(%rdx), %esi
.LVL337:
	.loc 42 257 37 view .LVU1019
.LBE2891:
.LBE2890:
.LBB2892:
.LBI2892:
	.loc 1 451 15 is_stmt 1 view .LVU1020
.LBB2893:
.LBB2894:
	.loc 1 452 77 is_stmt 0 view .LVU1021
	movl	%esi, (%rsp)
.LVL338:
.LBB2895:
.LBI2895:
	.loc 1 414 23 is_stmt 1 view .LVU1022
.LBB2896:
	.loc 1 416 5 view .LVU1023
.LBB2897:
.LBI2897:
	.loc 1 233 20 view .LVU1024
.LBB2898:
	.loc 1 235 9 view .LVU1025
	.loc 1 235 44 is_stmt 0 view .LVU1026
	movq	8(%r12), %rax
.LVL339:
	.loc 1 235 44 view .LVU1027
.LBE2898:
.LBE2897:
	.loc 1 416 34 view .LVU1028
	movabsq	$-8093018978436915045, %rdx
.LVL340:
	.loc 1 416 34 view .LVU1029
	cmpq	%rdx, %rax
	je	.L181
.LVL341:
	.loc 1 416 34 view .LVU1030
.LBE2896:
.LBE2895:
.LBE2894:
.LBE2893:
.LBE2892:
.LBE2889:
.LBE2921:
	.loc 1 235 9 is_stmt 1 view .LVU1031
.LBB2922:
.LBB2909:
.LBB2907:
.LBB2905:
.LBB2903:
.LBB2901:
.LBB2899:
	.loc 1 416 34 is_stmt 0 view .LVU1032
	movabsq	$-5572340897628102899, %rdx
	cmpq	%rdx, %rax
	je	.L181
	.loc 1 422 9 is_stmt 1 view .LVU1033
	.loc 1 422 31 is_stmt 0 view .LVU1034
	movq	(%r12), %rax
	.loc 1 422 26 view .LVU1035
	movq	%r12, %rdi
	call	*48(%rax)
.LVL342:
.L183:
	.loc 1 422 26 view .LVU1036
.LBE2899:
.LBE2901:
	.loc 1 452 77 view .LVU1037
	movb	%al, 4(%rsp)
	movq	%r12, 8(%rsp)
.LVL343:
	.loc 1 452 77 view .LVU1038
.LBE2903:
.LBE2905:
.LBE2907:
	.loc 3 120 9 is_stmt 1 view .LVU1039
	.loc 3 120 16 is_stmt 0 view .LVU1040
	movq	8(%rbx), %rdi
	.loc 3 120 42 view .LVU1041
	movq	(%rdi), %rax
	.loc 3 120 31 view .LVU1042
	movq	%rsp, %rdx
	movl	%r13d, %esi
	call	*16(%rax)
.LVL344:
	jmp	.L179
.LVL345:
.L181:
.LBB2908:
.LBB2906:
.LBB2904:
.LBB2902:
.LBB2900:
	.loc 1 418 9 is_stmt 1 view .LVU1043
	.loc 1 418 22 is_stmt 0 view .LVU1044
	testl	%esi, %esi
	setne	%al
	jmp	.L183
.LVL346:
.L197:
	.loc 1 418 22 view .LVU1045
.LBE2900:
.LBE2902:
.LBE2904:
.LBE2906:
.LBE2908:
.LBE2909:
.LBB2910:
.LBB2866:
.LBB2825:
.LBB2823:
	.loc 3 88 67 view .LVU1046
	movl	$_ZGVZN5boost6system6detail15to_std_categoryERKNS0_14error_categoryEE16generic_instance, %edi
	call	__cxa_guard_acquire
.LVL347:
	testl	%eax, %eax
	je	.L186
.LVL348:
.LBB2819:
.LBI2819:
	.loc 3 34 14 is_stmt 1 view .LVU1047
.LBB2820:
.LBB2821:
.LBB2822:
.LBI2822:
	.loc 42 77 15 view .LVU1048
	.loc 42 77 15 is_stmt 0 view .LVU1049
.LBE2822:
	.loc 3 34 93 view .LVU1050
	movq	$_ZTVN5boost6system6detail12std_categoryE+16, _ZZN5boost6system6detail15to_std_categoryERKNS0_14error_categoryEE16generic_instance(%rip)
	movq	$_ZN5boost6system6detail10cat_holderIvE25generic_category_instanceE, _ZZN5boost6system6detail15to_std_categoryERKNS0_14error_categoryEE16generic_instance+8(%rip)
	.loc 3 36 9 is_stmt 1 view .LVU1051
.LVL349:
	.loc 3 36 9 is_stmt 0 view .LVU1052
.LBE2821:
.LBE2820:
.LBE2819:
	.loc 3 88 67 view .LVU1053
	movl	$_ZGVZN5boost6system6detail15to_std_categoryERKNS0_14error_categoryEE16generic_instance, %edi
	call	__cxa_guard_release
.LVL350:
	movl	$__dso_handle, %edx
	movl	$_ZZN5boost6system6detail15to_std_categoryERKNS0_14error_categoryEE16generic_instance, %esi
	movl	$_ZN5boost6system6detail12std_categoryD1Ev, %edi
	call	__cxa_atexit
.LVL351:
	jmp	.L186
.LVL352:
.L185:
	.loc 3 88 67 view .LVU1054
.LBE2823:
.LBE2825:
.LBE2866:
.LBB2867:
	.loc 3 124 9 is_stmt 1 discriminator 3 view .LVU1055
.LBB2868:
.LBI2868:
	.loc 42 257 5 discriminator 3 view .LVU1056
.LBB2869:
	.loc 42 257 30 discriminator 3 view .LVU1057
	.loc 42 257 37 is_stmt 0 discriminator 3 view .LVU1058
	movl	0(%rbp), %eax
.LVL353:
	.loc 42 257 37 discriminator 3 view .LVU1059
.LBE2869:
.LBE2868:
.LBB2870:
.LBI2870:
	.loc 1 451 15 is_stmt 1 discriminator 3 view .LVU1060
.LBB2871:
.LBB2872:
	.loc 1 452 77 is_stmt 0 discriminator 3 view .LVU1061
	movl	%eax, (%rsp)
.LVL354:
.LBB2873:
.LBI2873:
	.loc 1 414 23 is_stmt 1 discriminator 3 view .LVU1062
.LBB2874:
	.loc 1 416 5 discriminator 3 view .LVU1063
	.loc 1 416 5 is_stmt 0 discriminator 3 view .LVU1064
.LBE2874:
.LBE2873:
.LBE2872:
.LBE2871:
.LBE2870:
.LBE2867:
.LBE2910:
.LBE2922:
	.loc 1 235 9 is_stmt 1 discriminator 3 view .LVU1065
	.loc 1 235 9 discriminator 3 view .LVU1066
.LBB2923:
.LBB2911:
.LBB2880:
.LBB2879:
.LBB2878:
.LBB2877:
.LBB2876:
.LBB2875:
	.loc 1 418 9 discriminator 3 view .LVU1067
	.loc 1 418 22 is_stmt 0 discriminator 3 view .LVU1068
	testl	%eax, %eax
.LVL355:
	.loc 1 418 22 discriminator 3 view .LVU1069
.LBE2875:
.LBE2876:
	.loc 1 452 77 discriminator 3 view .LVU1070
	setne	4(%rsp)
	movq	$_ZN5boost6system6detail10cat_holderIvE25generic_category_instanceE, 8(%rsp)
.LVL356:
	.loc 1 452 77 discriminator 3 view .LVU1071
.LBE2877:
.LBE2878:
.LBE2879:
	.loc 3 125 9 is_stmt 1 discriminator 3 view .LVU1072
	.loc 3 125 16 is_stmt 0 discriminator 3 view .LVU1073
	movq	8(%rbx), %rdi
	.loc 3 125 42 discriminator 3 view .LVU1074
	movq	(%rdi), %rax
	.loc 3 125 31 discriminator 3 view .LVU1075
	movq	%rsp, %rdx
	movl	%r13d, %esi
	call	*16(%rax)
.LVL357:
.L179:
	.loc 3 125 31 discriminator 3 view .LVU1076
.LBE2880:
.LBE2911:
.LBE2923:
	.loc 3 142 1 view .LVU1077
	addq	$24, %rsp
	.cfi_remember_state
	.cfi_def_cfa_offset 40
	popq	%rbx
	.cfi_def_cfa_offset 32
.LVL358:
	.loc 3 142 1 view .LVU1078
	popq	%rbp
	.cfi_def_cfa_offset 24
.LVL359:
	.loc 3 142 1 view .LVU1079
	popq	%r12
	.cfi_def_cfa_offset 16
	popq	%r13
	.cfi_def_cfa_offset 8
.LVL360:
	.loc 3 142 1 view .LVU1080
	ret
.LVL361:
.L189:
	.cfi_restore_state
.LBB2924:
.LBB2912:
.LBB2881:
.LBB2852:
.LBB2850:
.LBB2848:
.LBB2846:
.LBB2844:
.LBB2842:
	.loc 1 418 9 is_stmt 1 view .LVU1081
	.loc 1 418 22 is_stmt 0 view .LVU1082
	testl	%esi, %esi
	setne	%al
	jmp	.L191
.LVL362:
.L188:
	.loc 1 418 22 view .LVU1083
.LBE2842:
.LBE2844:
.LBE2846:
.LBE2848:
.LBE2850:
.LBE2852:
	.loc 3 140 9 is_stmt 1 view .LVU1084
	.loc 3 140 46 is_stmt 0 view .LVU1085
	movq	(%rbx), %rax
	movl	%r13d, %esi
	movq	%rbx, %rdi
	call	*40(%rax)
.LVL363:
.LBB2853:
.LBI2853:
	.loc 42 311 3 is_stmt 1 view .LVU1086
.LBB2854:
	.loc 42 314 5 view .LVU1087
.LBB2855:
.LBI2855:
	.loc 42 260 5 view .LVU1088
.LBB2856:
	.loc 42 260 33 view .LVU1089
	.loc 42 260 33 is_stmt 0 view .LVU1090
.LBE2856:
.LBE2855:
.LBB2857:
.LBI2857:
	.loc 42 260 5 is_stmt 1 view .LVU1091
.LBB2858:
	.loc 42 260 33 view .LVU1092
	.loc 42 260 33 is_stmt 0 view .LVU1093
.LBE2858:
.LBE2857:
.LBE2854:
.LBE2853:
.LBE2881:
.LBE2912:
.LBE2924:
	.loc 42 126 7 is_stmt 1 view .LVU1094
.LBB2925:
.LBB2913:
.LBB2882:
.LBB2864:
.LBB2863:
	.loc 42 315 6 is_stmt 0 view .LVU1095
	cmpq	%rdx, 8(%rbp)
	je	.L198
	movl	$0, %eax
	jmp	.L179
.L198:
.LVL364:
.LBB2859:
.LBI2859:
	.loc 42 257 5 is_stmt 1 view .LVU1096
.LBB2860:
	.loc 42 257 30 view .LVU1097
	.loc 42 257 30 is_stmt 0 view .LVU1098
.LBE2860:
.LBE2859:
.LBB2861:
.LBI2861:
	.loc 42 257 5 is_stmt 1 view .LVU1099
.LBB2862:
	.loc 42 257 30 view .LVU1100
	.loc 42 257 30 is_stmt 0 view .LVU1101
.LBE2862:
.LBE2861:
	.loc 42 315 6 view .LVU1102
	cmpl	0(%rbp), %eax
	je	.L199
	movl	$0, %eax
.LVL365:
	.loc 42 315 6 view .LVU1103
	jmp	.L179
.LVL366:
.L199:
	.loc 42 315 6 view .LVU1104
	movl	$1, %eax
	jmp	.L179
.LBE2863:
.LBE2864:
.LBE2882:
.LBE2913:
.LBE2925:
	.cfi_endproc
.LFE5136:
	.size	_ZNK5boost6system6detail12std_category10equivalentEiRKSt15error_condition, .-_ZNK5boost6system6detail12std_category10equivalentEiRKSt15error_condition
	.section	.text._ZNK5boost6system6detail12std_category23default_error_conditionEi,"axG",@progbits,_ZNK5boost6system6detail12std_category23default_error_conditionEi,comdat
	.align 2
	.weak	_ZNK5boost6system6detail12std_category23default_error_conditionEi
	.type	_ZNK5boost6system6detail12std_category23default_error_conditionEi, @function
_ZNK5boost6system6detail12std_category23default_error_conditionEi:
.LVL367:
.LFB5099:
	.loc 3 60 34 is_stmt 1 view -0
	.cfi_startproc
	.cfi_personality 0x3,__gxx_personality_v0
	.cfi_lsda 0x3,.LLSDA5099
	.loc 3 60 34 is_stmt 0 view .LVU1106
	pushq	%rbp
	.cfi_def_cfa_offset 16
	.cfi_offset 6, -16
	pushq	%rbx
	.cfi_def_cfa_offset 24
	.cfi_offset 3, -24
	subq	$40, %rsp
	.cfi_def_cfa_offset 64
	.loc 3 62 9 is_stmt 1 view .LVU1107
	.loc 3 62 16 is_stmt 0 view .LVU1108
	movq	8(%rdi), %rdi
.LVL368:
	.loc 3 62 49 view .LVU1109
	movq	(%rdi), %rax
	call	*8(%rax)
.LVL369:
	.loc 3 62 49 view .LVU1110
	movq	%rax, %rbx
	movq	%rdx, %rbp
.LVL370:
.LBB3059:
.LBI3059:
	.loc 1 553 5 is_stmt 1 view .LVU1111
.LBB3060:
	.loc 1 555 9 view .LVU1112
.LBB3061:
.LBI3061:
	.loc 1 493 38 view .LVU1113
.LBB3062:
	.loc 1 495 9 view .LVU1114
	.loc 1 495 9 is_stmt 0 view .LVU1115
.LBE3062:
.LBE3061:
.LBB3063:
.LBI3063:
	.loc 1 964 8 is_stmt 1 view .LVU1116
.LBE3063:
.LBE3060:
.LBE3059:
	.loc 1 966 5 view .LVU1117
.LBB3244:
.LBB3235:
.LBB3221:
.LBB3064:
.LBI3064:
	.loc 3 79 36 view .LVU1118
.LBE3064:
.LBE3221:
.LBE3235:
.LBE3244:
	.loc 3 81 5 view .LVU1119
.LBB3245:
.LBB3236:
.LBB3222:
.LBB3213:
.LBB3065:
.LBB3066:
.LBI3066:
	.loc 1 233 20 view .LVU1120
.LBB3067:
	.loc 1 235 9 view .LVU1121
	.loc 1 235 44 is_stmt 0 view .LVU1122
	movq	8(%rdx), %rax
.LVL371:
	.loc 1 235 44 view .LVU1123
.LBE3067:
.LBE3066:
	.loc 3 81 5 view .LVU1124
	movabsq	$-8093018978436915045, %rdx
.LVL372:
	.loc 3 81 5 view .LVU1125
	cmpq	%rdx, %rax
	je	.L221
.LBE3065:
.LBE3213:
.LBE3222:
.LBE3236:
.LBE3245:
	.loc 3 86 10 is_stmt 1 view .LVU1126
.LVL373:
	.loc 1 235 9 view .LVU1127
.LBB3246:
.LBB3237:
.LBB3223:
.LBB3214:
.LBB3206:
.LBB3068:
	.loc 3 86 10 is_stmt 0 view .LVU1128
	movabsq	$-5572340897628102899, %rdx
	cmpq	%rdx, %rax
	je	.L222
.LBB3069:
	.loc 3 93 9 is_stmt 1 view .LVU1129
	.loc 3 95 9 view .LVU1130
	.loc 3 95 25 is_stmt 0 view .LVU1131
	movzbl	_ZGVZN5boost6system6detail15to_std_categoryERKNS0_14error_categoryEE4map_(%rip), %eax
	testb	%al, %al
	je	.L223
.L204:
	.loc 3 96 9 is_stmt 1 view .LVU1132
	.loc 3 98 9 view .LVU1133
.LVL374:
.LBB3070:
.LBI3070:
	.file 43 "/usr/include/c++/8/bits/std_mutex.h"
	.loc 43 161 16 view .LVU1134
.LBB3071:
.LBI3071:
	.loc 43 101 5 view .LVU1135
.LBB3072:
	.loc 43 103 7 view .LVU1136
.LBB3073:
.LBI3073:
	.file 44 "/usr/include/c++/8/x86_64-suse-linux/bits/gthr-default.h"
	.loc 44 745 1 view .LVU1137
.LBB3074:
	.loc 44 747 3 view .LVU1138
.LBB3075:
.LBI3075:
	.loc 44 247 1 view .LVU1139
.LBE3075:
.LBE3074:
.LBE3073:
.LBE3072:
.LBE3071:
.LBE3070:
.LBE3069:
.LBE3068:
.LBE3206:
.LBE3214:
.LBE3223:
.LBE3237:
.LBE3246:
	.loc 44 249 3 view .LVU1140
	.loc 44 251 3 view .LVU1141
.LBB3247:
.LBB3238:
.LBB3224:
.LBB3215:
.LBB3207:
.LBB3195:
.LBB3184:
.LBB3082:
.LBB3080:
.LBB3078:
.LBB3077:
.LBB3076:
	.loc 44 747 3 is_stmt 0 view .LVU1142
	movl	$_ZL28__gthrw___pthread_key_createPjPFvPvE, %eax
	testq	%rax, %rax
	je	.L205
	.loc 44 748 5 is_stmt 1 view .LVU1143
	.loc 44 748 39 is_stmt 0 view .LVU1144
	movl	$_ZZN5boost6system6detail15to_std_categoryERKNS0_14error_categoryEE7map_mx_, %edi
	call	_ZL26__gthrw_pthread_mutex_lockP15pthread_mutex_t
.LVL375:
	.loc 44 748 39 view .LVU1145
.LBE3076:
.LBE3077:
	.loc 43 106 7 is_stmt 1 view .LVU1146
	testl	%eax, %eax
	jne	.L224
.LVL376:
.L205:
	.loc 43 106 7 is_stmt 0 view .LVU1147
.LBE3078:
.LBE3080:
.LBE3082:
	.loc 3 100 9 is_stmt 1 view .LVU1148
	.loc 3 100 43 is_stmt 0 view .LVU1149
	movq	%rbp, 24(%rsp)
.LVL377:
.LBB3083:
.LBI3083:
	.loc 37 1169 7 is_stmt 1 view .LVU1150
.LBB3084:
	.loc 37 1170 29 is_stmt 0 view .LVU1151
	leaq	24(%rsp), %rsi
.LVL378:
	.loc 37 1170 29 view .LVU1152
	movl	$_ZZN5boost6system6detail15to_std_categoryERKNS0_14error_categoryEE4map_, %edi
	call	_ZNSt8_Rb_treeIPKN5boost6system14error_categoryESt4pairIKS4_St10unique_ptrINS1_6detail12std_categoryESt14default_deleteIS9_EEESt10_Select1stISD_ENS8_12cat_ptr_lessESaISD_EE4findERS6_
.LVL379:
	.loc 37 1170 29 view .LVU1153
.LBE3084:
.LBE3083:
	.loc 3 100 48 view .LVU1154
	movq	%rax, %rdx
.LVL380:
	.loc 3 102 9 is_stmt 1 view .LVU1155
.LBB3085:
.LBB3086:
.LBI3086:
	.loc 37 372 7 view .LVU1156
.LBB3087:
.LBI3087:
	.loc 34 984 7 view .LVU1157
.LBB3088:
.LBI3088:
	.loc 34 273 7 view .LVU1158
	.loc 34 273 7 is_stmt 0 view .LVU1159
.LBE3088:
.LBE3087:
.LBE3086:
.LBB3089:
.LBI3089:
	.loc 34 315 7 is_stmt 1 view .LVU1160
	.loc 34 315 7 is_stmt 0 view .LVU1161
.LBE3089:
	.loc 3 102 9 view .LVU1162
	cmpq	$_ZZN5boost6system6detail15to_std_categoryERKNS0_14error_categoryEE4map_+8, %rax
	je	.L225
.LVL381:
.L206:
	.loc 3 102 9 view .LVU1163
.LBE3085:
	.loc 3 111 9 is_stmt 1 view .LVU1164
.LBB3143:
.LBI3143:
	.loc 34 281 7 view .LVU1165
	.loc 34 281 7 is_stmt 0 view .LVU1166
.LBE3143:
.LBB3144:
.LBI3144:
	.loc 36 326 7 is_stmt 1 view .LVU1167
.LBB3145:
.LBI3145:
	.loc 36 342 7 view .LVU1168
.LBB3146:
.LBI3146:
	.loc 36 150 15 view .LVU1169
.LBB3147:
	.loc 36 150 55 is_stmt 0 view .LVU1170
	movq	40(%rdx), %rbp
.LVL382:
	.loc 36 150 55 view .LVU1171
.LBE3147:
.LBE3146:
.LBE3145:
.LBE3144:
.LBB3148:
.LBI3148:
	.loc 43 167 7 is_stmt 1 view .LVU1172
.LBB3149:
.LBI3149:
	.loc 43 118 5 view .LVU1173
.LBE3149:
.LBE3148:
.LBE3184:
.LBE3195:
.LBE3207:
.LBE3215:
.LBE3224:
.LBE3238:
.LBE3247:
	.loc 43 121 7 view .LVU1174
.LBB3248:
.LBB3239:
.LBB3225:
.LBB3216:
.LBB3208:
.LBB3196:
.LBB3185:
.LBB3157:
.LBB3155:
.LBB3150:
.LBI3150:
	.loc 44 775 1 view .LVU1175
.LBB3151:
	.loc 44 777 3 view .LVU1176
.LBB3152:
.LBI3152:
	.loc 44 247 1 view .LVU1177
.LBE3152:
.LBE3151:
.LBE3150:
.LBE3155:
.LBE3157:
.LBE3185:
.LBE3196:
.LBE3208:
.LBE3216:
.LBE3225:
.LBE3239:
.LBE3248:
	.loc 44 249 3 view .LVU1178
	.loc 44 251 3 view .LVU1179
.LBB3249:
.LBB3240:
.LBB3226:
.LBB3217:
.LBB3209:
.LBB3197:
.LBB3186:
.LBB3158:
.LBB3156:
.LBB3154:
.LBB3153:
	.loc 44 777 3 is_stmt 0 view .LVU1180
	movl	$_ZL28__gthrw___pthread_key_createPjPFvPvE, %eax
	testq	%rax, %rax
	je	.L202
	.loc 44 778 5 is_stmt 1 view .LVU1181
	.loc 44 778 41 is_stmt 0 view .LVU1182
	movl	$_ZZN5boost6system6detail15to_std_categoryERKNS0_14error_categoryEE7map_mx_, %edi
	call	_ZL28__gthrw_pthread_mutex_unlockP15pthread_mutex_t
.LVL383:
.L202:
	.loc 44 778 41 view .LVU1183
.LBE3153:
.LBE3154:
.LBE3156:
.LBE3158:
.LBE3186:
.LBE3197:
.LBE3209:
.LBE3217:
.LBE3226:
.LBB3227:
.LBI3227:
	.loc 1 488 19 is_stmt 1 view .LVU1184
.LBB3228:
	.loc 1 490 9 view .LVU1185
	.loc 1 490 9 is_stmt 0 view .LVU1186
.LBE3228:
.LBE3227:
.LBB3229:
.LBI3229:
	.loc 42 229 5 is_stmt 1 view .LVU1187
.LBB3230:
.LBB3231:
	.loc 42 230 35 is_stmt 0 view .LVU1188
	movl	%ebx, %eax
.LVL384:
	.loc 42 230 35 view .LVU1189
.LBE3231:
.LBE3230:
.LBE3229:
.LBE3240:
.LBE3249:
	.loc 3 63 5 view .LVU1190
	movq	%rbp, %rdx
.LVL385:
	.loc 3 63 5 view .LVU1191
	addq	$40, %rsp
	.cfi_remember_state
	.cfi_def_cfa_offset 24
	popq	%rbx
	.cfi_def_cfa_offset 16
	popq	%rbp
	.cfi_def_cfa_offset 8
	ret
.LVL386:
.L221:
	.cfi_restore_state
.LBB3250:
.LBB3241:
.LBB3232:
.LBB3218:
.LBB3210:
.LBB3198:
	.loc 3 83 9 is_stmt 1 view .LVU1192
	.loc 3 83 66 is_stmt 0 view .LVU1193
	movzbl	_ZGVZN5boost6system6detail15to_std_categoryERKNS0_14error_categoryEE15system_instance(%rip), %eax
	testb	%al, %al
	je	.L226
	.loc 3 84 16 view .LVU1194
	movl	$_ZZN5boost6system6detail15to_std_categoryERKNS0_14error_categoryEE15system_instance, %ebp
.LVL387:
	.loc 3 84 16 view .LVU1195
	jmp	.L202
.LVL388:
.L226:
	.loc 3 83 66 view .LVU1196
	movl	$_ZGVZN5boost6system6detail15to_std_categoryERKNS0_14error_categoryEE15system_instance, %edi
	call	__cxa_guard_acquire
.LVL389:
	testl	%eax, %eax
	jne	.L227
	.loc 3 84 16 view .LVU1197
	movl	$_ZZN5boost6system6detail15to_std_categoryERKNS0_14error_categoryEE15system_instance, %ebp
.LVL390:
	.loc 3 84 16 view .LVU1198
	jmp	.L202
.LVL391:
.L227:
.LBB3199:
.LBI3199:
	.loc 3 34 14 is_stmt 1 view .LVU1199
.LBB3200:
.LBB3201:
.LBB3202:
.LBI3202:
	.loc 42 77 15 view .LVU1200
	.loc 42 77 15 is_stmt 0 view .LVU1201
.LBE3202:
	.loc 3 34 93 view .LVU1202
	movq	$_ZTVN5boost6system6detail12std_categoryE+16, _ZZN5boost6system6detail15to_std_categoryERKNS0_14error_categoryEE15system_instance(%rip)
	movq	%rbp, _ZZN5boost6system6detail15to_std_categoryERKNS0_14error_categoryEE15system_instance+8(%rip)
	.loc 3 36 9 is_stmt 1 view .LVU1203
.LVL392:
	.loc 3 36 9 is_stmt 0 view .LVU1204
.LBE3201:
.LBE3200:
.LBE3199:
	.loc 3 83 66 view .LVU1205
	movl	$_ZGVZN5boost6system6detail15to_std_categoryERKNS0_14error_categoryEE15system_instance, %edi
	call	__cxa_guard_release
.LVL393:
	movl	$__dso_handle, %edx
	movl	$_ZZN5boost6system6detail15to_std_categoryERKNS0_14error_categoryEE15system_instance, %esi
	movl	$_ZN5boost6system6detail12std_categoryD1Ev, %edi
	call	__cxa_atexit
.LVL394:
	.loc 3 84 16 view .LVU1206
	movl	$_ZZN5boost6system6detail15to_std_categoryERKNS0_14error_categoryEE15system_instance, %ebp
.LVL395:
	.loc 3 84 16 view .LVU1207
	jmp	.L202
.LVL396:
.L222:
	.loc 3 84 16 view .LVU1208
.LBE3198:
.LBB3203:
.LBB3187:
	.loc 3 88 9 is_stmt 1 view .LVU1209
	.loc 3 88 67 is_stmt 0 view .LVU1210
	movzbl	_ZGVZN5boost6system6detail15to_std_categoryERKNS0_14error_categoryEE16generic_instance(%rip), %eax
	testb	%al, %al
	je	.L228
	.loc 3 89 16 view .LVU1211
	movl	$_ZZN5boost6system6detail15to_std_categoryERKNS0_14error_categoryEE16generic_instance, %ebp
.LVL397:
	.loc 3 89 16 view .LVU1212
	jmp	.L202
.LVL398:
.L228:
	.loc 3 88 67 view .LVU1213
	movl	$_ZGVZN5boost6system6detail15to_std_categoryERKNS0_14error_categoryEE16generic_instance, %edi
	call	__cxa_guard_acquire
.LVL399:
	testl	%eax, %eax
	jne	.L229
	.loc 3 89 16 view .LVU1214
	movl	$_ZZN5boost6system6detail15to_std_categoryERKNS0_14error_categoryEE16generic_instance, %ebp
.LVL400:
	.loc 3 89 16 view .LVU1215
	jmp	.L202
.LVL401:
.L229:
.LBB3188:
.LBI3188:
	.loc 3 34 14 is_stmt 1 view .LVU1216
.LBB3189:
.LBB3190:
.LBB3191:
.LBI3191:
	.loc 42 77 15 view .LVU1217
	.loc 42 77 15 is_stmt 0 view .LVU1218
.LBE3191:
	.loc 3 34 93 view .LVU1219
	movq	$_ZTVN5boost6system6detail12std_categoryE+16, _ZZN5boost6system6detail15to_std_categoryERKNS0_14error_categoryEE16generic_instance(%rip)
	movq	%rbp, _ZZN5boost6system6detail15to_std_categoryERKNS0_14error_categoryEE16generic_instance+8(%rip)
	.loc 3 36 9 is_stmt 1 view .LVU1220
.LVL402:
	.loc 3 36 9 is_stmt 0 view .LVU1221
.LBE3190:
.LBE3189:
.LBE3188:
	.loc 3 88 67 view .LVU1222
	movl	$_ZGVZN5boost6system6detail15to_std_categoryERKNS0_14error_categoryEE16generic_instance, %edi
	call	__cxa_guard_release
.LVL403:
	movl	$__dso_handle, %edx
	movl	$_ZZN5boost6system6detail15to_std_categoryERKNS0_14error_categoryEE16generic_instance, %esi
	movl	$_ZN5boost6system6detail12std_categoryD1Ev, %edi
	call	__cxa_atexit
.LVL404:
	.loc 3 89 16 view .LVU1223
	movl	$_ZZN5boost6system6detail15to_std_categoryERKNS0_14error_categoryEE16generic_instance, %ebp
.LVL405:
	.loc 3 89 16 view .LVU1224
	jmp	.L202
.LVL406:
.L223:
	.loc 3 89 16 view .LVU1225
.LBE3187:
.LBB3192:
	.loc 3 95 25 view .LVU1226
	movl	$_ZGVZN5boost6system6detail15to_std_categoryERKNS0_14error_categoryEE4map_, %edi
	call	__cxa_guard_acquire
.LVL407:
	testl	%eax, %eax
	je	.L204
.LVL408:
.LBB3159:
.LBI3159:
	.loc 37 183 7 is_stmt 1 view .LVU1227
.LBB3160:
.LBI3160:
	.loc 34 929 7 view .LVU1228
.LBB3161:
.LBI3161:
	.loc 34 699 4 view .LVU1229
.LBB3162:
.LBB3163:
.LBI3163:
	.loc 13 131 7 view .LVU1230
.LBB3164:
.LBI3164:
	.loc 12 79 7 view .LVU1231
	.loc 12 79 7 is_stmt 0 view .LVU1232
.LBE3164:
.LBE3163:
.LBB3165:
.LBI3165:
	.loc 34 146 7 is_stmt 1 view .LVU1233
	.loc 34 146 7 is_stmt 0 view .LVU1234
.LBE3165:
.LBB3166:
.LBI3166:
	.loc 34 173 5 is_stmt 1 view .LVU1235
.LBB3167:
.LBB3168:
	.loc 34 175 7 view .LVU1236
	.loc 34 175 26 is_stmt 0 view .LVU1237
	movl	$0, _ZZN5boost6system6detail15to_std_categoryERKNS0_14error_categoryEE4map_+8(%rip)
	.loc 34 176 7 is_stmt 1 view .LVU1238
.LVL409:
.LBB3169:
.LBI3169:
	.loc 34 206 5 view .LVU1239
.LBB3170:
	.loc 34 208 7 view .LVU1240
	.loc 34 208 27 is_stmt 0 view .LVU1241
	movq	$0, _ZZN5boost6system6detail15to_std_categoryERKNS0_14error_categoryEE4map_+16(%rip)
	.loc 34 209 7 is_stmt 1 view .LVU1242
	.loc 34 209 25 is_stmt 0 view .LVU1243
	movq	$_ZZN5boost6system6detail15to_std_categoryERKNS0_14error_categoryEE4map_+8, _ZZN5boost6system6detail15to_std_categoryERKNS0_14error_categoryEE4map_+24(%rip)
	.loc 34 210 7 is_stmt 1 view .LVU1244
	.loc 34 210 26 is_stmt 0 view .LVU1245
	movq	$_ZZN5boost6system6detail15to_std_categoryERKNS0_14error_categoryEE4map_+8, _ZZN5boost6system6detail15to_std_categoryERKNS0_14error_categoryEE4map_+32(%rip)
	.loc 34 211 7 is_stmt 1 view .LVU1246
	.loc 34 211 21 is_stmt 0 view .LVU1247
	movq	$0, _ZZN5boost6system6detail15to_std_categoryERKNS0_14error_categoryEE4map_+40(%rip)
.LVL410:
	.loc 34 211 21 view .LVU1248
.LBE3170:
.LBE3169:
.LBE3168:
.LBE3167:
.LBE3166:
.LBE3162:
.LBE3161:
.LBE3160:
.LBE3159:
	.loc 3 95 25 view .LVU1249
	movl	$_ZGVZN5boost6system6detail15to_std_categoryERKNS0_14error_categoryEE4map_, %edi
	call	__cxa_guard_release
.LVL411:
	movl	$__dso_handle, %edx
	movl	$_ZZN5boost6system6detail15to_std_categoryERKNS0_14error_categoryEE4map_, %esi
	movl	$_ZNSt3mapIPKN5boost6system14error_categoryESt10unique_ptrINS1_6detail12std_categoryESt14default_deleteIS7_EENS6_12cat_ptr_lessESaISt4pairIKS4_SA_EEED1Ev, %edi
	call	__cxa_atexit
.LVL412:
	jmp	.L204
.LVL413:
.L224:
.LBB3171:
.LBB3081:
.LBB3079:
	.loc 43 107 2 is_stmt 1 view .LVU1250
	.loc 43 107 22 is_stmt 0 view .LVU1251
	movl	%eax, %edi
	call	_ZSt20__throw_system_errori
.LVL414:
.L225:
	.loc 43 107 22 view .LVU1252
.LBE3079:
.LBE3081:
.LBE3171:
.LBB3172:
.LBB3090:
	.loc 3 104 13 is_stmt 1 view .LVU1253
	.loc 3 104 72 is_stmt 0 view .LVU1254
	movl	$16, %edi
.LEHB1:
	call	_Znwm
.LVL415:
.LEHE1:
.LBB3091:
.LBI3091:
	.loc 3 34 14 is_stmt 1 view .LVU1255
.LBB3092:
.LBB3093:
.LBI3093:
	.loc 42 77 15 view .LVU1256
	.loc 42 77 15 is_stmt 0 view .LVU1257
.LBE3093:
	.loc 3 34 93 view .LVU1258
	movq	$_ZTVN5boost6system6detail12std_categoryE+16, (%rax)
	movq	%rbp, 8(%rax)
	.loc 3 36 9 is_stmt 1 view .LVU1259
.LVL416:
	.loc 3 36 9 is_stmt 0 view .LVU1260
.LBE3092:
.LBE3091:
.LBB3094:
.LBI3094:
	.loc 36 204 2 is_stmt 1 view .LVU1261
.LBB3095:
.LBI3095:
	.loc 36 143 7 view .LVU1262
.LBB3096:
.LBI3096:
	.loc 41 919 17 view .LVU1263
.LBB3097:
.LBI3097:
	.loc 41 206 17 view .LVU1264
.LBB3098:
.LBI3098:
	.loc 41 356 17 view .LVU1265
.LBB3099:
.LBI3099:
	.loc 41 76 17 view .LVU1266
	.loc 41 76 17 is_stmt 0 view .LVU1267
.LBE3099:
.LBE3098:
.LBB3100:
.LBI3100:
	.loc 41 122 17 is_stmt 1 view .LVU1268
	.loc 41 122 17 is_stmt 0 view .LVU1269
.LBE3100:
.LBE3097:
.LBE3096:
.LBB3101:
.LBI3101:
	.loc 36 149 16 is_stmt 1 view .LVU1270
	.loc 36 149 16 is_stmt 0 view .LVU1271
.LBE3101:
.LBE3095:
.LBE3094:
	.loc 3 106 13 is_stmt 1 view .LVU1272
.LBB3102:
.LBI3102:
	.loc 35 330 12 view .LVU1273
.LBB3103:
.LBB3104:
.LBI3104:
	.loc 39 74 5 view .LVU1274
.LBE3104:
	.loc 35 331 64 is_stmt 0 view .LVU1275
	movq	%rbp, (%rsp)
.LVL417:
.LBB3105:
.LBI3105:
	.loc 39 74 5 is_stmt 1 view .LVU1276
	.loc 39 74 5 is_stmt 0 view .LVU1277
.LBE3105:
.LBB3106:
.LBI3106:
	.loc 36 241 7 is_stmt 1 view .LVU1278
.LBB3107:
.LBI3107:
	.loc 36 347 7 view .LVU1279
	.loc 36 347 7 is_stmt 0 view .LVU1280
.LBE3107:
.LBB3108:
.LBI3108:
	.loc 39 74 5 is_stmt 1 view .LVU1281
	.loc 39 74 5 is_stmt 0 view .LVU1282
.LBE3108:
.LBB3109:
.LBI3109:
	.loc 36 363 7 is_stmt 1 view .LVU1283
	.loc 36 363 7 is_stmt 0 view .LVU1284
.LBE3109:
.LBB3110:
.LBI3110:
	.loc 36 146 7 is_stmt 1 view .LVU1285
.LBB3111:
.LBI3111:
	.loc 39 74 5 view .LVU1286
	.loc 39 74 5 is_stmt 0 view .LVU1287
.LBE3111:
.LBB3112:
.LBI3112:
	.loc 41 971 19 is_stmt 1 view .LVU1288
.LBB3113:
.LBI3113:
	.loc 39 74 5 view .LVU1289
	.loc 39 74 5 is_stmt 0 view .LVU1290
.LBE3113:
.LBB3114:
.LBI3114:
	.loc 39 74 5 is_stmt 1 view .LVU1291
	.loc 39 74 5 is_stmt 0 view .LVU1292
.LBE3114:
.LBB3115:
.LBI3115:
	.loc 41 216 19 is_stmt 1 view .LVU1293
.LBB3116:
.LBI3116:
	.loc 39 74 5 view .LVU1294
	.loc 39 74 5 is_stmt 0 view .LVU1295
.LBE3116:
.LBB3117:
.LBI3117:
	.loc 41 365 19 is_stmt 1 view .LVU1296
.LBB3118:
.LBI3118:
	.loc 41 86 19 view .LVU1297
	.loc 41 86 19 is_stmt 0 view .LVU1298
.LBE3118:
.LBE3117:
.LBB3119:
.LBI3119:
	.loc 39 74 5 is_stmt 1 view .LVU1299
	.loc 39 74 5 is_stmt 0 view .LVU1300
.LBE3119:
.LBB3120:
.LBI3120:
	.loc 41 132 19 is_stmt 1 view .LVU1301
.LBB3121:
.LBB3122:
.LBB3123:
.LBI3123:
	.loc 39 74 5 view .LVU1302
	.loc 39 74 5 is_stmt 0 view .LVU1303
.LBE3123:
	.loc 41 133 42 view .LVU1304
	movq	%rax, 8(%rsp)
.LVL418:
	.loc 41 133 42 view .LVU1305
.LBE3122:
.LBE3121:
.LBE3120:
.LBE3115:
.LBE3112:
.LBE3110:
.LBE3106:
.LBE3103:
.LBE3102:
.LBB3124:
.LBI3124:
	.loc 37 808 7 is_stmt 1 view .LVU1306
.LBB3125:
	.loc 37 809 52 is_stmt 0 view .LVU1307
	movq	%rsp, %rsi
	movl	$_ZZN5boost6system6detail15to_std_categoryERKNS0_14error_categoryEE4map_, %edi
.LEHB2:
	call	_ZNSt8_Rb_treeIPKN5boost6system14error_categoryESt4pairIKS4_St10unique_ptrINS1_6detail12std_categoryESt14default_deleteIS9_EEESt10_Select1stISD_ENS8_12cat_ptr_lessESaISD_EE16_M_insert_uniqueISD_EES5_ISt17_Rb_tree_iteratorISD_EbEOT_
.LVL419:
.LEHE2:
	.loc 37 809 52 view .LVU1308
.LBE3125:
.LBE3124:
	.loc 3 106 111 view .LVU1309
	movq	%rax, %rbp
.LVL420:
.LBB3126:
.LBI3126:
	.loc 35 198 12 is_stmt 1 view .LVU1310
.LBB3127:
.LBI3127:
	.loc 36 270 7 view .LVU1311
.LBB3128:
.LBB3129:
.LBI3129:
	.loc 36 149 16 view .LVU1312
	.loc 36 149 16 is_stmt 0 view .LVU1313
.LBE3129:
	.loc 36 273 12 view .LVU1314
	movq	8(%rsp), %rdi
	.loc 36 273 2 view .LVU1315
	testq	%rdi, %rdi
	je	.L207
.LVL421:
.LBB3130:
.LBI3130:
	.loc 36 347 7 is_stmt 1 view .LVU1316
	.loc 36 347 7 is_stmt 0 view .LVU1317
.LBE3130:
.LBB3131:
.LBI3131:
	.loc 36 75 7 is_stmt 1 view .LVU1318
.LBB3132:
	.loc 36 81 2 is_stmt 0 view .LVU1319
	movq	(%rdi), %rax
	call	*8(%rax)
.LVL422:
.L207:
	.loc 36 81 2 view .LVU1320
.LBE3132:
.LBE3131:
.LBE3128:
.LBE3127:
.LBE3126:
	.loc 3 108 13 is_stmt 1 view .LVU1321
	.loc 3 108 15 is_stmt 0 view .LVU1322
	movq	%rbp, %rdx
.LVL423:
.LBB3133:
.LBI3133:
	.loc 36 270 7 is_stmt 1 view .LVU1323
.LBB3134:
.LBB3135:
.LBI3135:
	.loc 36 149 16 view .LVU1324
	.loc 36 149 16 is_stmt 0 view .LVU1325
	jmp	.L206
.LVL424:
.L218:
	.loc 36 149 16 view .LVU1326
.LBE3135:
.LBE3134:
.LBE3133:
.LBB3136:
.LBI3136:
	.loc 35 198 12 is_stmt 1 view .LVU1327
.LBB3137:
.LBI3137:
	.loc 36 270 7 view .LVU1328
.LBB3138:
.LBB3139:
.LBI3139:
	.loc 36 149 16 view .LVU1329
	.loc 36 149 16 is_stmt 0 view .LVU1330
.LBE3139:
	.loc 36 273 12 view .LVU1331
	movq	8(%rsp), %rdi
	.loc 36 273 2 view .LVU1332
	testq	%rdi, %rdi
	je	.L211
.LVL425:
.LBB3140:
.LBI3140:
	.loc 36 347 7 is_stmt 1 view .LVU1333
	.loc 36 347 7 is_stmt 0 view .LVU1334
.LBE3140:
.LBB3141:
.LBI3141:
	.loc 36 75 7 is_stmt 1 view .LVU1335
.LBB3142:
	.loc 36 81 2 is_stmt 0 view .LVU1336
	movq	(%rdi), %rax
	call	*8(%rax)
.LVL426:
.L211:
	.loc 36 81 2 view .LVU1337
.LBE3142:
.LBE3141:
.LBE3138:
.LBE3137:
.LBE3136:
.LBE3090:
.LBE3172:
.LBB3173:
.LBI3173:
	.loc 43 167 7 is_stmt 1 view .LVU1338
.LBB3174:
.LBI3174:
	.loc 43 118 5 view .LVU1339
.LBE3174:
.LBE3173:
.LBE3192:
.LBE3203:
.LBE3210:
.LBE3218:
.LBE3232:
.LBE3241:
.LBE3250:
	.loc 43 121 7 view .LVU1340
.LBB3251:
.LBB3242:
.LBB3233:
.LBB3219:
.LBB3211:
.LBB3204:
.LBB3193:
.LBB3182:
.LBB3180:
.LBB3175:
.LBI3175:
	.loc 44 775 1 view .LVU1341
.LBB3176:
	.loc 44 777 3 view .LVU1342
.LBB3177:
.LBI3177:
	.loc 44 247 1 view .LVU1343
.LBE3177:
.LBE3176:
.LBE3175:
.LBE3180:
.LBE3182:
.LBE3193:
.LBE3204:
.LBE3211:
.LBE3219:
.LBE3233:
.LBE3242:
.LBE3251:
	.loc 44 249 3 view .LVU1344
	.loc 44 251 3 view .LVU1345
.LBB3252:
.LBB3243:
.LBB3234:
.LBB3220:
.LBB3212:
.LBB3205:
.LBB3194:
.LBB3183:
.LBB3181:
.LBB3179:
.LBB3178:
	.loc 44 777 3 is_stmt 0 view .LVU1346
	movl	$_ZL28__gthrw___pthread_key_createPjPFvPvE, %eax
	testq	%rax, %rax
	je	.L212
	.loc 44 778 5 is_stmt 1 view .LVU1347
	.loc 44 778 41 is_stmt 0 view .LVU1348
	movl	$_ZZN5boost6system6detail15to_std_categoryERKNS0_14error_categoryEE7map_mx_, %edi
	call	_ZL28__gthrw_pthread_mutex_unlockP15pthread_mutex_t
.LVL427:
.L212:
	.loc 44 778 41 view .LVU1349
.LBE3178:
.LBE3179:
.LBE3181:
.LBE3183:
.LBE3194:
.LBE3205:
.LBE3212:
.LBE3220:
.LBE3234:
.LBE3243:
.LBE3252:
	.loc 3 60 34 view .LVU1350
	call	_ZSt9terminatev
.LVL428:
.L217:
	jmp	.L211
	.cfi_endproc
.LFE5099:
	.section	.gcc_except_table._ZNK5boost6system6detail12std_category23default_error_conditionEi,"aG",@progbits,_ZNK5boost6system6detail12std_category23default_error_conditionEi,comdat
.LLSDA5099:
	.byte	0xff
	.byte	0xff
	.byte	0x1
	.uleb128 .LLSDACSE5099-.LLSDACSB5099
.LLSDACSB5099:
	.uleb128 .LEHB1-.LFB5099
	.uleb128 .LEHE1-.LEHB1
	.uleb128 .L217-.LFB5099
	.uleb128 0
	.uleb128 .LEHB2-.LFB5099
	.uleb128 .LEHE2-.LEHB2
	.uleb128 .L218-.LFB5099
	.uleb128 0
.LLSDACSE5099:
	.section	.text._ZNK5boost6system6detail12std_category23default_error_conditionEi,"axG",@progbits,_ZNK5boost6system6detail12std_category23default_error_conditionEi,comdat
	.size	_ZNK5boost6system6detail12std_category23default_error_conditionEi, .-_ZNK5boost6system6detail12std_category23default_error_conditionEi
	.section	.text._ZNK5boost6system6detail12std_category10equivalentERKSt10error_codei,"axG",@progbits,_ZNK5boost6system6detail12std_category10equivalentERKSt10error_codei,comdat
	.align 2
	.weak	_ZNK5boost6system6detail12std_category10equivalentERKSt10error_codei
	.type	_ZNK5boost6system6detail12std_category10equivalentERKSt10error_codei, @function
_ZNK5boost6system6detail12std_category10equivalentERKSt10error_codei:
.LVL429:
.LFB5137:
	.loc 3 145 1 is_stmt 1 view -0
	.cfi_startproc
	.loc 3 145 1 is_stmt 0 view .LVU1352
	pushq	%r14
	.cfi_def_cfa_offset 16
	.cfi_offset 14, -16
	pushq	%r13
	.cfi_def_cfa_offset 24
	.cfi_offset 13, -24
	pushq	%r12
	.cfi_def_cfa_offset 32
	.cfi_offset 12, -32
	pushq	%rbp
	.cfi_def_cfa_offset 40
	.cfi_offset 6, -40
	pushq	%rbx
	.cfi_def_cfa_offset 48
	.cfi_offset 3, -48
	subq	$16, %rsp
	.cfi_def_cfa_offset 64
	movq	%rdi, %rbp
	movq	%rsi, %rbx
	movl	%edx, %r13d
	.loc 3 146 5 is_stmt 1 view .LVU1353
.LVL430:
.LBB3414:
.LBB3415:
.LBI3415:
	.loc 42 181 5 view .LVU1354
.LBB3416:
	.loc 42 181 33 view .LVU1355
	.loc 42 181 41 is_stmt 0 view .LVU1356
	movq	8(%rsi), %r12
.LVL431:
	.loc 42 181 41 view .LVU1357
.LBE3416:
.LBE3415:
.LBE3414:
	.loc 42 126 7 is_stmt 1 view .LVU1358
.LBB3504:
	.loc 3 146 5 is_stmt 0 view .LVU1359
	cmpq	%r12, %rdi
	je	.L245
.LBE3504:
	.loc 3 151 10 is_stmt 1 view .LVU1360
.LBB3505:
.LBB3417:
	.loc 3 151 30 is_stmt 0 view .LVU1361
	call	_ZNSt3_V216generic_categoryEv
.LVL432:
	.loc 3 151 30 view .LVU1362
	movq	%rax, %r14
.LVL433:
	.loc 3 151 30 view .LVU1363
.LBE3417:
.LBE3505:
	.loc 42 181 33 is_stmt 1 view .LVU1364
	.loc 42 126 7 view .LVU1365
.LBB3506:
.LBB3474:
	.loc 3 151 57 is_stmt 0 view .LVU1366
	cmpq	%r12, %rax
	je	.L236
.LVL434:
.LBB3418:
.LBI3418:
	.loc 1 964 8 is_stmt 1 view .LVU1367
.LBE3418:
.LBE3474:
.LBE3506:
	.loc 1 966 5 view .LVU1368
.LBB3507:
.LBB3475:
.LBB3428:
.LBB3419:
.LBI3419:
	.loc 3 79 36 view .LVU1369
.LBE3419:
.LBE3428:
.LBE3475:
.LBE3507:
	.loc 3 81 5 view .LVU1370
	.loc 1 235 9 view .LVU1371
	.loc 3 86 10 view .LVU1372
	.loc 1 235 9 view .LVU1373
.LBB3508:
.LBB3476:
.LBB3429:
.LBB3426:
.LBB3420:
	.loc 3 88 9 view .LVU1374
	.loc 3 88 67 is_stmt 0 view .LVU1375
	movzbl	_ZGVZN5boost6system6detail15to_std_categoryERKNS0_14error_categoryEE16generic_instance(%rip), %eax
	testb	%al, %al
	je	.L246
.L237:
.LVL435:
	.loc 3 88 67 view .LVU1376
.LBE3420:
.LBE3426:
.LBE3429:
.LBB3430:
.LBI3430:
	.loc 42 181 5 is_stmt 1 view .LVU1377
.LBB3431:
	.loc 42 181 33 view .LVU1378
	.loc 42 181 41 is_stmt 0 view .LVU1379
	movq	8(%rbx), %rdi
.LVL436:
	.loc 42 181 41 view .LVU1380
.LBE3431:
.LBE3430:
.LBE3476:
.LBE3508:
	.loc 42 126 7 is_stmt 1 view .LVU1381
.LBB3509:
.LBB3477:
	.loc 3 151 57 is_stmt 0 view .LVU1382
	cmpq	$_ZZN5boost6system6detail15to_std_categoryERKNS0_14error_categoryEE16generic_instance, %rdi
	je	.L236
.LBE3477:
.LBE3509:
	.loc 3 159 10 is_stmt 1 view .LVU1383
.LVL437:
	.loc 42 181 33 view .LVU1384
.LBB3510:
.LBB3478:
.LBB3432:
	.loc 3 159 40 is_stmt 0 view .LVU1385
	testq	%rdi, %rdi
	je	.L239
	.loc 3 159 94 discriminator 1 view .LVU1386
	movl	$0, %ecx
	movl	$_ZTIN5boost6system6detail12std_categoryE, %edx
	movl	$_ZTINSt3_V214error_categoryE, %esi
	call	__dynamic_cast
.LVL438:
	.loc 3 159 10 discriminator 1 view .LVU1387
	testq	%rax, %rax
	je	.L239
.LBB3433:
	.loc 3 161 9 is_stmt 1 view .LVU1388
	.loc 3 161 59 is_stmt 0 view .LVU1389
	movq	8(%rax), %r12
.LVL439:
.LBB3434:
.LBI3434:
	.loc 42 178 5 is_stmt 1 view .LVU1390
.LBB3435:
	.loc 42 178 30 view .LVU1391
	.loc 42 178 37 is_stmt 0 view .LVU1392
	movl	(%rbx), %esi
.LVL440:
	.loc 42 178 37 view .LVU1393
.LBE3435:
.LBE3434:
.LBB3436:
.LBI3436:
	.loc 1 587 15 is_stmt 1 view .LVU1394
.LBB3437:
.LBB3438:
	.loc 1 588 77 is_stmt 0 view .LVU1395
	movl	%esi, (%rsp)
.LVL441:
.LBB3439:
.LBI3439:
	.loc 1 414 23 is_stmt 1 view .LVU1396
.LBB3440:
	.loc 1 416 5 view .LVU1397
.LBB3441:
.LBI3441:
	.loc 1 233 20 view .LVU1398
.LBB3442:
	.loc 1 235 9 view .LVU1399
	.loc 1 235 44 is_stmt 0 view .LVU1400
	movq	8(%r12), %rax
.LVL442:
	.loc 1 235 44 view .LVU1401
.LBE3442:
.LBE3441:
	.loc 1 416 34 view .LVU1402
	movabsq	$-8093018978436915045, %rdx
	cmpq	%rdx, %rax
	je	.L240
.LVL443:
	.loc 1 416 34 view .LVU1403
.LBE3440:
.LBE3439:
.LBE3438:
.LBE3437:
.LBE3436:
.LBE3433:
.LBE3432:
.LBE3478:
.LBE3510:
	.loc 1 235 9 is_stmt 1 view .LVU1404
.LBB3511:
.LBB3479:
.LBB3457:
.LBB3453:
.LBB3451:
.LBB3449:
.LBB3447:
.LBB3445:
.LBB3443:
	.loc 1 416 34 is_stmt 0 view .LVU1405
	movabsq	$-5572340897628102899, %rdx
	cmpq	%rdx, %rax
	je	.L240
	.loc 1 422 9 is_stmt 1 view .LVU1406
	.loc 1 422 31 is_stmt 0 view .LVU1407
	movq	(%r12), %rax
	.loc 1 422 26 view .LVU1408
	movq	%r12, %rdi
	call	*48(%rax)
.LVL444:
.L242:
	.loc 1 422 26 view .LVU1409
.LBE3443:
.LBE3445:
	.loc 1 588 77 view .LVU1410
	movb	%al, 4(%rsp)
	movq	%r12, 8(%rsp)
.LVL445:
	.loc 1 588 77 view .LVU1411
.LBE3447:
.LBE3449:
.LBE3451:
	.loc 3 162 9 is_stmt 1 view .LVU1412
	.loc 3 162 16 is_stmt 0 view .LVU1413
	movq	8(%rbp), %rdi
	.loc 3 162 47 view .LVU1414
	movq	(%rdi), %rax
	.loc 3 162 31 view .LVU1415
	movl	%r13d, %edx
	movq	%rsp, %rsi
	call	*24(%rax)
.LVL446:
	jmp	.L230
.LVL447:
.L245:
	.loc 3 162 31 view .LVU1416
.LBE3453:
.LBE3457:
.LBE3479:
.LBB3480:
	.loc 3 148 9 is_stmt 1 view .LVU1417
	.loc 3 148 54 is_stmt 0 view .LVU1418
	movq	8(%rdi), %r12
.LVL448:
.LBB3481:
.LBI3481:
	.loc 42 178 5 is_stmt 1 view .LVU1419
.LBB3482:
	.loc 42 178 30 view .LVU1420
	.loc 42 178 37 is_stmt 0 view .LVU1421
	movl	(%rsi), %esi
.LVL449:
	.loc 42 178 37 view .LVU1422
.LBE3482:
.LBE3481:
.LBB3483:
.LBI3483:
	.loc 1 587 15 is_stmt 1 view .LVU1423
.LBB3484:
.LBB3485:
	.loc 1 588 77 is_stmt 0 view .LVU1424
	movl	%esi, (%rsp)
.LVL450:
.LBB3486:
.LBI3486:
	.loc 1 414 23 is_stmt 1 view .LVU1425
.LBB3487:
	.loc 1 416 5 view .LVU1426
.LBB3488:
.LBI3488:
	.loc 1 233 20 view .LVU1427
.LBB3489:
	.loc 1 235 9 view .LVU1428
	.loc 1 235 44 is_stmt 0 view .LVU1429
	movq	8(%r12), %rax
.LVL451:
	.loc 1 235 44 view .LVU1430
.LBE3489:
.LBE3488:
	.loc 1 416 34 view .LVU1431
	movabsq	$-8093018978436915045, %rdx
.LVL452:
	.loc 1 416 34 view .LVU1432
	cmpq	%rdx, %rax
	je	.L232
.LVL453:
	.loc 1 416 34 view .LVU1433
.LBE3487:
.LBE3486:
.LBE3485:
.LBE3484:
.LBE3483:
.LBE3480:
.LBE3511:
	.loc 1 235 9 is_stmt 1 view .LVU1434
.LBB3512:
.LBB3500:
.LBB3498:
.LBB3496:
.LBB3494:
.LBB3492:
.LBB3490:
	.loc 1 416 34 is_stmt 0 view .LVU1435
	movabsq	$-5572340897628102899, %rdx
	cmpq	%rdx, %rax
	je	.L232
	.loc 1 422 9 is_stmt 1 view .LVU1436
	.loc 1 422 31 is_stmt 0 view .LVU1437
	movq	(%r12), %rax
	.loc 1 422 26 view .LVU1438
	movq	%r12, %rdi
.LVL454:
	.loc 1 422 26 view .LVU1439
	call	*48(%rax)
.LVL455:
.L234:
	.loc 1 422 26 view .LVU1440
.LBE3490:
.LBE3492:
	.loc 1 588 77 view .LVU1441
	movb	%al, 4(%rsp)
	movq	%r12, 8(%rsp)
.LVL456:
	.loc 1 588 77 view .LVU1442
.LBE3494:
.LBE3496:
.LBE3498:
	.loc 3 149 9 is_stmt 1 view .LVU1443
	.loc 3 149 16 is_stmt 0 view .LVU1444
	movq	8(%rbp), %rdi
	.loc 3 149 47 view .LVU1445
	movq	(%rdi), %rax
	.loc 3 149 31 view .LVU1446
	movl	%r13d, %edx
	movq	%rsp, %rsi
	call	*24(%rax)
.LVL457:
	jmp	.L230
.LVL458:
.L232:
.LBB3499:
.LBB3497:
.LBB3495:
.LBB3493:
.LBB3491:
	.loc 1 418 9 is_stmt 1 view .LVU1447
	.loc 1 418 22 is_stmt 0 view .LVU1448
	testl	%esi, %esi
	setne	%al
	jmp	.L234
.LVL459:
.L246:
	.loc 1 418 22 view .LVU1449
.LBE3491:
.LBE3493:
.LBE3495:
.LBE3497:
.LBE3499:
.LBE3500:
.LBB3501:
.LBB3458:
.LBB3427:
.LBB3425:
	.loc 3 88 67 view .LVU1450
	movl	$_ZGVZN5boost6system6detail15to_std_categoryERKNS0_14error_categoryEE16generic_instance, %edi
	call	__cxa_guard_acquire
.LVL460:
	testl	%eax, %eax
	je	.L237
.LVL461:
.LBB3421:
.LBI3421:
	.loc 3 34 14 is_stmt 1 view .LVU1451
.LBB3422:
.LBB3423:
.LBB3424:
.LBI3424:
	.loc 42 77 15 view .LVU1452
	.loc 42 77 15 is_stmt 0 view .LVU1453
.LBE3424:
	.loc 3 34 93 view .LVU1454
	movq	$_ZTVN5boost6system6detail12std_categoryE+16, _ZZN5boost6system6detail15to_std_categoryERKNS0_14error_categoryEE16generic_instance(%rip)
	movq	$_ZN5boost6system6detail10cat_holderIvE25generic_category_instanceE, _ZZN5boost6system6detail15to_std_categoryERKNS0_14error_categoryEE16generic_instance+8(%rip)
	.loc 3 36 9 is_stmt 1 view .LVU1455
.LVL462:
	.loc 3 36 9 is_stmt 0 view .LVU1456
.LBE3423:
.LBE3422:
.LBE3421:
	.loc 3 88 67 view .LVU1457
	movl	$_ZGVZN5boost6system6detail15to_std_categoryERKNS0_14error_categoryEE16generic_instance, %edi
	call	__cxa_guard_release
.LVL463:
	movl	$__dso_handle, %edx
	movl	$_ZZN5boost6system6detail15to_std_categoryERKNS0_14error_categoryEE16generic_instance, %esi
	movl	$_ZN5boost6system6detail12std_categoryD1Ev, %edi
	call	__cxa_atexit
.LVL464:
	jmp	.L237
.LVL465:
.L236:
	.loc 3 88 67 view .LVU1458
.LBE3425:
.LBE3427:
.LBE3458:
.LBB3459:
	.loc 3 153 9 is_stmt 1 discriminator 3 view .LVU1459
.LBB3460:
.LBI3460:
	.loc 42 178 5 discriminator 3 view .LVU1460
.LBB3461:
	.loc 42 178 30 discriminator 3 view .LVU1461
	.loc 42 178 37 is_stmt 0 discriminator 3 view .LVU1462
	movl	(%rbx), %eax
.LVL466:
	.loc 42 178 37 discriminator 3 view .LVU1463
.LBE3461:
.LBE3460:
.LBB3462:
.LBI3462:
	.loc 1 587 15 is_stmt 1 discriminator 3 view .LVU1464
.LBB3463:
.LBB3464:
	.loc 1 588 77 is_stmt 0 discriminator 3 view .LVU1465
	movl	%eax, (%rsp)
.LVL467:
.LBB3465:
.LBI3465:
	.loc 1 414 23 is_stmt 1 discriminator 3 view .LVU1466
.LBB3466:
	.loc 1 416 5 discriminator 3 view .LVU1467
	.loc 1 416 5 is_stmt 0 discriminator 3 view .LVU1468
.LBE3466:
.LBE3465:
.LBE3464:
.LBE3463:
.LBE3462:
.LBE3459:
.LBE3501:
.LBE3512:
	.loc 1 235 9 is_stmt 1 discriminator 3 view .LVU1469
	.loc 1 235 9 discriminator 3 view .LVU1470
.LBB3513:
.LBB3502:
.LBB3472:
.LBB3471:
.LBB3470:
.LBB3469:
.LBB3468:
.LBB3467:
	.loc 1 418 9 discriminator 3 view .LVU1471
	.loc 1 418 22 is_stmt 0 discriminator 3 view .LVU1472
	testl	%eax, %eax
.LVL468:
	.loc 1 418 22 discriminator 3 view .LVU1473
.LBE3467:
.LBE3468:
	.loc 1 588 77 discriminator 3 view .LVU1474
	setne	4(%rsp)
	movq	$_ZN5boost6system6detail10cat_holderIvE25generic_category_instanceE, 8(%rsp)
.LVL469:
	.loc 1 588 77 discriminator 3 view .LVU1475
.LBE3469:
.LBE3470:
.LBE3471:
	.loc 3 154 9 is_stmt 1 discriminator 3 view .LVU1476
	.loc 3 154 16 is_stmt 0 discriminator 3 view .LVU1477
	movq	8(%rbp), %rdi
	.loc 3 154 47 discriminator 3 view .LVU1478
	movq	(%rdi), %rax
	.loc 3 154 31 discriminator 3 view .LVU1479
	movl	%r13d, %edx
	movq	%rsp, %rsi
	call	*24(%rax)
.LVL470:
.L230:
	.loc 3 154 31 discriminator 3 view .LVU1480
.LBE3472:
.LBE3502:
.LBE3513:
	.loc 3 174 1 view .LVU1481
	addq	$16, %rsp
	.cfi_remember_state
	.cfi_def_cfa_offset 48
	popq	%rbx
	.cfi_def_cfa_offset 40
.LVL471:
	.loc 3 174 1 view .LVU1482
	popq	%rbp
	.cfi_def_cfa_offset 32
.LVL472:
	.loc 3 174 1 view .LVU1483
	popq	%r12
	.cfi_def_cfa_offset 24
	popq	%r13
	.cfi_def_cfa_offset 16
.LVL473:
	.loc 3 174 1 view .LVU1484
	popq	%r14
	.cfi_def_cfa_offset 8
	ret
.LVL474:
.L240:
	.cfi_restore_state
.LBB3514:
.LBB3503:
.LBB3473:
.LBB3454:
.LBB3452:
.LBB3450:
.LBB3448:
.LBB3446:
.LBB3444:
	.loc 1 418 9 is_stmt 1 view .LVU1485
	.loc 1 418 22 is_stmt 0 view .LVU1486
	testl	%esi, %esi
	setne	%al
	jmp	.L242
.LVL475:
.L239:
	.loc 1 418 22 view .LVU1487
.LBE3444:
.LBE3446:
.LBE3448:
.LBE3450:
.LBE3452:
.LBE3454:
	.loc 3 166 10 is_stmt 1 view .LVU1488
	.loc 3 166 15 is_stmt 0 view .LVU1489
	movq	8(%rbp), %rdx
.LVL476:
.LBB3455:
.LBI3455:
	.loc 1 233 20 is_stmt 1 view .LVU1490
.LBB3456:
	.loc 1 235 9 view .LVU1491
	.loc 1 235 9 is_stmt 0 view .LVU1492
.LBE3456:
.LBE3455:
	.loc 3 166 10 view .LVU1493
	movabsq	$-5572340897628102899, %rax
	cmpq	%rax, 8(%rdx)
	jne	.L243
	.loc 3 168 9 is_stmt 1 view .LVU1494
	.loc 3 168 68 is_stmt 0 view .LVU1495
	movq	(%r14), %rax
	.loc 3 168 50 view .LVU1496
	movl	%r13d, %edx
	movq	%rbx, %rsi
	movq	%r14, %rdi
	call	*56(%rax)
.LVL477:
	.loc 3 168 68 view .LVU1497
	jmp	.L230
.L243:
	.loc 3 172 16 view .LVU1498
	movl	$0, %eax
	jmp	.L230
.LBE3473:
.LBE3503:
.LBE3514:
	.cfi_endproc
.LFE5137:
	.size	_ZNK5boost6system6detail12std_category10equivalentERKSt10error_codei, .-_ZNK5boost6system6detail12std_category10equivalentERKSt10error_codei
	.section	.rodata._ZNSt7__cxx1112basic_stringIcSt11char_traitsIcESaIcEE9_M_createERmm.str1.1,"aMS",@progbits,1
.LC8:
	.string	"basic_string::_M_create"
	.section	.text._ZNSt7__cxx1112basic_stringIcSt11char_traitsIcESaIcEE9_M_createERmm,"axG",@progbits,_ZNSt7__cxx1112basic_stringIcSt11char_traitsIcESaIcEE9_M_createERmm,comdat
	.align 2
	.weak	_ZNSt7__cxx1112basic_stringIcSt11char_traitsIcESaIcEE9_M_createERmm
	.type	_ZNSt7__cxx1112basic_stringIcSt11char_traitsIcESaIcEE9_M_createERmm, @function
_ZNSt7__cxx1112basic_stringIcSt11char_traitsIcESaIcEE9_M_createERmm:
.LVL478:
.LFB13375:
	.file 45 "/usr/include/c++/8/bits/basic_string.tcc"
	.loc 45 132 5 is_stmt 1 view -0
	.cfi_startproc
	.loc 45 132 5 is_stmt 0 view .LVU1500
	subq	$8, %rsp
	.cfi_def_cfa_offset 16
	.loc 45 137 22 view .LVU1501
	movq	(%rsi), %rax
	.loc 45 137 7 view .LVU1502
	testq	%rax, %rax
	js	.L251
	.loc 45 143 7 view .LVU1503
	cmpq	%rdx, %rax
	jbe	.L249
	.loc 45 143 57 discriminator 1 view .LVU1504
	addq	%rdx, %rdx
.LVL479:
	.loc 45 143 39 discriminator 1 view .LVU1505
	cmpq	%rdx, %rax
	jnb	.L249
	.loc 45 145 4 view .LVU1506
	movq	%rdx, (%rsi)
	.loc 45 147 4 view .LVU1507
	testq	%rdx, %rdx
	js	.L252
.L249:
	.loc 45 153 37 view .LVU1508
	movq	(%rsi), %rdi
.LVL480:
	.loc 45 153 37 view .LVU1509
	addq	$1, %rdi
.LVL481:
.LBB3515:
.LBI3515:
	.loc 11 435 7 is_stmt 1 view .LVU1510
.LBB3516:
.LBI3516:
	.loc 12 99 7 view .LVU1511
.LBB3517:
	.loc 12 111 41 is_stmt 0 view .LVU1512
	call	_Znwm
.LVL482:
	.loc 12 111 41 view .LVU1513
.LBE3517:
.LBE3516:
.LBE3515:
	.loc 45 154 5 view .LVU1514
	addq	$8, %rsp
	.cfi_remember_state
	.cfi_def_cfa_offset 8
	ret
.LVL483:
.L251:
	.cfi_restore_state
	.loc 45 138 27 view .LVU1515
	movl	$.LC8, %edi
.LVL484:
	.loc 45 138 27 view .LVU1516
	call	_ZSt20__throw_length_errorPKc
.LVL485:
.L252:
	.loc 45 148 6 view .LVU1517
	movabsq	$9223372036854775807, %rax
	movq	%rax, (%rsi)
	jmp	.L249
	.cfi_endproc
.LFE13375:
	.size	_ZNSt7__cxx1112basic_stringIcSt11char_traitsIcESaIcEE9_M_createERmm, .-_ZNSt7__cxx1112basic_stringIcSt11char_traitsIcESaIcEE9_M_createERmm
	.section	.text._ZNSt7__cxx1112basic_stringIcSt11char_traitsIcESaIcEE9_M_mutateEmmPKcm,"axG",@progbits,_ZNSt7__cxx1112basic_stringIcSt11char_traitsIcESaIcEE9_M_mutateEmmPKcm,comdat
	.align 2
	.weak	_ZNSt7__cxx1112basic_stringIcSt11char_traitsIcESaIcEE9_M_mutateEmmPKcm
	.type	_ZNSt7__cxx1112basic_stringIcSt11char_traitsIcESaIcEE9_M_mutateEmmPKcm, @function
_ZNSt7__cxx1112basic_stringIcSt11char_traitsIcESaIcEE9_M_mutateEmmPKcm:
.LVL486:
.LFB13029:
	.loc 45 310 5 is_stmt 1 view -0
	.cfi_startproc
	.loc 45 310 5 is_stmt 0 view .LVU1519
	pushq	%r15
	.cfi_def_cfa_offset 16
	.cfi_offset 15, -16
	pushq	%r14
	.cfi_def_cfa_offset 24
	.cfi_offset 14, -24
	pushq	%r13
	.cfi_def_cfa_offset 32
	.cfi_offset 13, -32
	pushq	%r12
	.cfi_def_cfa_offset 40
	.cfi_offset 12, -40
	pushq	%rbp
	.cfi_def_cfa_offset 48
	.cfi_offset 6, -48
	pushq	%rbx
	.cfi_def_cfa_offset 56
	.cfi_offset 3, -56
	subq	$40, %rsp
	.cfi_def_cfa_offset 96
	movq	%rdi, %rbx
	movq	%rsi, %rbp
	movq	%rdx, 8(%rsp)
	movq	%rcx, (%rsp)
	movq	%r8, %r13
.LVL487:
.LBB3518:
.LBI3518:
	.loc 10 927 7 is_stmt 1 view .LVU1520
.LBB3519:
	.loc 10 928 16 is_stmt 0 view .LVU1521
	movq	8(%rdi), %rax
.LVL488:
	.loc 10 928 16 view .LVU1522
.LBE3519:
.LBE3518:
	.loc 45 314 45 view .LVU1523
	movq	%rax, %r12
	subq	%rsi, %r12
	.loc 45 314 23 view .LVU1524
	subq	%rdx, %r12
.LVL489:
	.loc 45 316 43 view .LVU1525
	addq	%r8, %rax
	.loc 45 316 52 view .LVU1526
	subq	%rdx, %rax
	.loc 45 316 17 view .LVU1527
	movq	%rax, 24(%rsp)
.LVL490:
.LBB3520:
.LBI3520:
	.loc 10 984 7 is_stmt 1 view .LVU1528
.LBB3521:
.LBB3522:
.LBI3522:
	.loc 10 210 7 view .LVU1529
.LBB3523:
.LBI3523:
	.loc 10 175 7 view .LVU1530
	.loc 10 175 7 is_stmt 0 view .LVU1531
.LBE3523:
.LBB3524:
.LBI3524:
	.loc 10 189 7 is_stmt 1 view .LVU1532
.LBB3525:
	.loc 10 192 57 is_stmt 0 view .LVU1533
	leaq	16(%rdi), %r15
.LVL491:
	.loc 10 192 57 view .LVU1534
.LBE3525:
.LBE3524:
.LBE3522:
	.loc 10 986 23 view .LVU1535
	cmpq	(%rdi), %r15
	je	.L262
	movq	16(%rdi), %rdx
.LVL492:
.L254:
	.loc 10 986 23 view .LVU1536
.LBE3521:
.LBE3520:
	.loc 45 317 15 view .LVU1537
	leaq	24(%rsp), %rsi
.LVL493:
	.loc 45 317 15 view .LVU1538
	movq	%rbx, %rdi
.LVL494:
	.loc 45 317 15 view .LVU1539
	call	_ZNSt7__cxx1112basic_stringIcSt11char_traitsIcESaIcEE9_M_createERmm
.LVL495:
	.loc 45 317 15 view .LVU1540
	movq	%rax, %r14
.LVL496:
	.loc 45 319 7 view .LVU1541
	testq	%rbp, %rbp
	je	.L255
.LVL497:
.LBB3527:
.LBI3527:
	.loc 10 175 7 is_stmt 1 view .LVU1542
.LBB3528:
	.loc 10 176 28 is_stmt 0 view .LVU1543
	movq	(%rbx), %rsi
.LVL498:
	.loc 10 176 28 view .LVU1544
.LBE3528:
.LBE3527:
.LBB3529:
.LBI3529:
	.loc 10 335 7 is_stmt 1 view .LVU1545
.LBB3530:
	.loc 10 337 2 is_stmt 0 view .LVU1546
	cmpq	$1, %rbp
	je	.L264
.LVL499:
.LBB3531:
.LBI3531:
	.file 46 "/usr/include/c++/8/bits/char_traits.h"
	.loc 46 346 7 is_stmt 1 view .LVU1547
.LBB3532:
	.loc 46 348 2 view .LVU1548
	.loc 46 350 2 view .LVU1549
	.loc 46 350 49 is_stmt 0 view .LVU1550
	movq	%rbp, %rdx
	movq	%rax, %rdi
	call	memcpy
.LVL500:
.L255:
	.loc 46 350 49 view .LVU1551
.LBE3532:
.LBE3531:
.LBE3530:
.LBE3529:
	.loc 45 321 15 view .LVU1552
	cmpq	$0, (%rsp)
	setne	%dl
	testq	%r13, %r13
	setne	%al
	.loc 45 321 7 view .LVU1553
	testb	%al, %dl
	je	.L257
	.loc 45 322 2 view .LVU1554
	leaq	(%r14,%rbp), %rdi
.LVL501:
.LBB3536:
.LBI3536:
	.loc 10 335 7 is_stmt 1 view .LVU1555
.LBB3537:
	.loc 10 337 2 is_stmt 0 view .LVU1556
	cmpq	$1, %r13
	je	.L265
.LVL502:
.LBB3538:
.LBI3538:
	.loc 46 346 7 is_stmt 1 view .LVU1557
.LBB3539:
	.loc 46 348 2 view .LVU1558
	testq	%r13, %r13
	je	.L257
	.loc 46 350 2 view .LVU1559
	.loc 46 350 49 is_stmt 0 view .LVU1560
	movq	%r13, %rdx
	movq	(%rsp), %rsi
	call	memcpy
.LVL503:
	.loc 46 350 49 view .LVU1561
	jmp	.L257
.LVL504:
.L262:
	.loc 46 350 49 view .LVU1562
.LBE3539:
.LBE3538:
.LBE3537:
.LBE3536:
.LBB3543:
.LBB3526:
	.loc 10 986 23 view .LVU1563
	movl	$15, %edx
.LVL505:
	.loc 10 986 23 view .LVU1564
	jmp	.L254
.LVL506:
.L264:
	.loc 10 986 23 view .LVU1565
.LBE3526:
.LBE3543:
.LBB3544:
.LBB3535:
.LBB3533:
.LBI3533:
	.loc 46 284 7 is_stmt 1 view .LVU1566
.LBB3534:
	.loc 46 285 9 view .LVU1567
	.loc 46 285 16 is_stmt 0 view .LVU1568
	movzbl	(%rsi), %eax
.LVL507:
	.loc 46 285 14 view .LVU1569
	movb	%al, (%r14)
	jmp	.L255
.LVL508:
.L265:
	.loc 46 285 14 view .LVU1570
.LBE3534:
.LBE3533:
.LBE3535:
.LBE3544:
.LBB3545:
.LBB3542:
.LBB3540:
.LBI3540:
	.loc 46 284 7 is_stmt 1 view .LVU1571
.LBB3541:
	.loc 46 285 9 view .LVU1572
	.loc 46 285 16 is_stmt 0 view .LVU1573
	movq	(%rsp), %rax
	movzbl	(%rax), %eax
	.loc 46 285 14 view .LVU1574
	movb	%al, (%rdi)
.LVL509:
.L257:
	.loc 46 285 14 view .LVU1575
.LBE3541:
.LBE3540:
.LBE3542:
.LBE3545:
	.loc 45 323 7 view .LVU1576
	testq	%r12, %r12
	je	.L259
.LVL510:
.LBB3546:
.LBI3546:
	.loc 10 175 7 is_stmt 1 view .LVU1577
	.loc 10 175 7 is_stmt 0 view .LVU1578
.LBE3546:
	.loc 45 325 27 view .LVU1579
	movq	8(%rsp), %rsi
	addq	%rbp, %rsi
	addq	(%rbx), %rsi
	.loc 45 324 28 view .LVU1580
	addq	%r13, %rbp
.LVL511:
	.loc 45 324 2 view .LVU1581
	leaq	(%r14,%rbp), %rdi
.LVL512:
.LBB3547:
.LBI3547:
	.loc 10 335 7 is_stmt 1 view .LVU1582
.LBB3548:
	.loc 10 337 2 is_stmt 0 view .LVU1583
	cmpq	$1, %r12
	je	.L266
.LVL513:
.LBB3549:
.LBI3549:
	.loc 46 346 7 is_stmt 1 view .LVU1584
.LBB3550:
	.loc 46 348 2 view .LVU1585
	.loc 46 350 2 view .LVU1586
	.loc 46 350 49 is_stmt 0 view .LVU1587
	movq	%r12, %rdx
	call	memcpy
.LVL514:
.L259:
	.loc 46 350 49 view .LVU1588
.LBE3550:
.LBE3549:
.LBE3548:
.LBE3547:
.LBB3554:
.LBI3554:
	.loc 10 218 7 is_stmt 1 view .LVU1589
.LBB3555:
.LBB3556:
.LBI3556:
	.loc 10 210 7 view .LVU1590
.LBB3557:
.LBI3557:
	.loc 10 175 7 view .LVU1591
.LBB3558:
	.loc 10 176 28 is_stmt 0 view .LVU1592
	movq	(%rbx), %rdi
.LVL515:
	.loc 10 176 28 view .LVU1593
.LBE3558:
.LBE3557:
.LBE3556:
	.loc 10 220 2 view .LVU1594
	cmpq	%rdi, %r15
	je	.L261
.LVL516:
.LBB3559:
.LBI3559:
	.loc 10 225 7 is_stmt 1 view .LVU1595
.LBB3560:
.LBI3560:
	.loc 11 461 7 view .LVU1596
.LBB3561:
.LBI3561:
	.loc 12 116 7 view .LVU1597
.LBB3562:
	.loc 12 125 19 is_stmt 0 view .LVU1598
	call	_ZdlPv
.LVL517:
.L261:
	.loc 12 125 19 view .LVU1599
.LBE3562:
.LBE3561:
.LBE3560:
.LBE3559:
.LBE3555:
.LBE3554:
.LBB3563:
.LBI3563:
	.loc 10 167 7 is_stmt 1 view .LVU1600
.LBB3564:
	.loc 10 168 9 is_stmt 0 view .LVU1601
	movq	%r14, (%rbx)
.LVL518:
	.loc 10 168 9 view .LVU1602
.LBE3564:
.LBE3563:
	.loc 45 329 7 view .LVU1603
	movq	24(%rsp), %rax
.LVL519:
.LBB3565:
.LBI3565:
	.loc 10 199 7 is_stmt 1 view .LVU1604
.LBB3566:
	.loc 10 200 9 is_stmt 0 view .LVU1605
	movq	%rax, 16(%rbx)
.LVL520:
	.loc 10 200 9 view .LVU1606
.LBE3566:
.LBE3565:
	.loc 45 330 5 view .LVU1607
	addq	$40, %rsp
	.cfi_remember_state
	.cfi_def_cfa_offset 56
.LVL521:
	.loc 45 330 5 view .LVU1608
	popq	%rbx
	.cfi_def_cfa_offset 48
.LVL522:
	.loc 45 330 5 view .LVU1609
	popq	%rbp
	.cfi_def_cfa_offset 40
	popq	%r12
	.cfi_def_cfa_offset 32
.LVL523:
	.loc 45 330 5 view .LVU1610
	popq	%r13
	.cfi_def_cfa_offset 24
.LVL524:
	.loc 45 330 5 view .LVU1611
	popq	%r14
	.cfi_def_cfa_offset 16
.LVL525:
	.loc 45 330 5 view .LVU1612
	popq	%r15
	.cfi_def_cfa_offset 8
.LVL526:
	.loc 45 330 5 view .LVU1613
	ret
.LVL527:
.L266:
	.cfi_restore_state
.LBB3567:
.LBB3553:
.LBB3551:
.LBI3551:
	.loc 46 284 7 is_stmt 1 view .LVU1614
.LBB3552:
	.loc 46 285 9 view .LVU1615
	.loc 46 285 16 is_stmt 0 view .LVU1616
	movzbl	(%rsi), %eax
	.loc 46 285 14 view .LVU1617
	movb	%al, (%rdi)
	jmp	.L259
.LBE3552:
.LBE3551:
.LBE3553:
.LBE3567:
	.cfi_endproc
.LFE13029:
	.size	_ZNSt7__cxx1112basic_stringIcSt11char_traitsIcESaIcEE9_M_mutateEmmPKcm, .-_ZNSt7__cxx1112basic_stringIcSt11char_traitsIcESaIcEE9_M_mutateEmmPKcm
	.section	.rodata._ZNSt7__cxx1112basic_stringIcSt11char_traitsIcESaIcEE10_M_replaceEmmPKcm.str1.1,"aMS",@progbits,1
.LC9:
	.string	"basic_string::_M_replace"
	.section	.text._ZNSt7__cxx1112basic_stringIcSt11char_traitsIcESaIcEE10_M_replaceEmmPKcm,"axG",@progbits,_ZNSt7__cxx1112basic_stringIcSt11char_traitsIcESaIcEE10_M_replaceEmmPKcm,comdat
	.align 2
	.weak	_ZNSt7__cxx1112basic_stringIcSt11char_traitsIcESaIcEE10_M_replaceEmmPKcm
	.type	_ZNSt7__cxx1112basic_stringIcSt11char_traitsIcESaIcEE10_M_replaceEmmPKcm, @function
_ZNSt7__cxx1112basic_stringIcSt11char_traitsIcESaIcEE10_M_replaceEmmPKcm:
.LVL528:
.LFB12492:
	.loc 45 421 5 is_stmt 1 view -0
	.cfi_startproc
	.loc 45 421 5 is_stmt 0 view .LVU1619
	pushq	%r15
	.cfi_def_cfa_offset 16
	.cfi_offset 15, -16
	pushq	%r14
	.cfi_def_cfa_offset 24
	.cfi_offset 14, -24
	pushq	%r13
	.cfi_def_cfa_offset 32
	.cfi_offset 13, -32
	pushq	%r12
	.cfi_def_cfa_offset 40
	.cfi_offset 12, -40
	pushq	%rbp
	.cfi_def_cfa_offset 48
	.cfi_offset 6, -48
	pushq	%rbx
	.cfi_def_cfa_offset 56
	.cfi_offset 3, -56
	subq	$24, %rsp
	.cfi_def_cfa_offset 80
	movq	%rdx, %r13
	movq	%rcx, %r15
.LVL529:
.LBB3568:
.LBI3568:
	.loc 10 309 7 is_stmt 1 view .LVU1620
.LBB3569:
.LBB3570:
.LBI3570:
	.loc 10 921 7 view .LVU1621
.LBB3571:
	.loc 10 922 16 is_stmt 0 view .LVU1622
	movq	8(%rdi), %rdx
.LVL530:
	.loc 10 922 16 view .LVU1623
.LBE3571:
.LBE3570:
	.loc 10 311 39 view .LVU1624
	movq	%r13, %rax
	subq	%rdx, %rax
	.loc 10 311 23 view .LVU1625
	movabsq	$9223372036854775807, %rcx
.LVL531:
	.loc 10 311 23 view .LVU1626
	addq	%rcx, %rax
	.loc 10 311 2 view .LVU1627
	cmpq	%rax, %r8
	ja	.L290
	movq	%rdi, %rbx
	movq	%r8, %r12
.LVL532:
	.loc 10 311 2 view .LVU1628
.LBE3569:
.LBE3568:
	.loc 45 428 47 view .LVU1629
	leaq	(%r8,%rdx), %rbp
	.loc 45 428 23 view .LVU1630
	subq	%r13, %rbp
.LVL533:
.LBB3573:
.LBB3574:
.LBI3574:
	.loc 10 984 7 is_stmt 1 view .LVU1631
.LBB3575:
.LBB3576:
.LBI3576:
	.loc 10 210 7 view .LVU1632
.LBB3577:
.LBI3577:
	.loc 10 175 7 view .LVU1633
.LBB3578:
	.loc 10 176 28 is_stmt 0 view .LVU1634
	movq	(%rdi), %rax
.LVL534:
	.loc 10 176 28 view .LVU1635
.LBE3578:
.LBE3577:
.LBB3579:
.LBI3579:
	.loc 10 189 7 is_stmt 1 view .LVU1636
.LBB3580:
	.loc 10 192 57 is_stmt 0 view .LVU1637
	leaq	16(%rdi), %rcx
.LVL535:
	.loc 10 192 57 view .LVU1638
.LBE3580:
.LBE3579:
.LBE3576:
	.loc 10 986 23 view .LVU1639
	cmpq	%rax, %rcx
	je	.L288
	movq	16(%rdi), %rcx
.L269:
.LVL536:
	.loc 10 986 23 view .LVU1640
.LBE3575:
.LBE3574:
	.loc 45 430 7 view .LVU1641
	cmpq	%rbp, %rcx
	jb	.L270
.LBB3582:
	.loc 45 432 12 view .LVU1642
	leaq	(%rax,%rsi), %rdi
.LVL537:
	.loc 45 432 12 view .LVU1643
	movq	%rdi, 8(%rsp)
.LVL538:
	.loc 45 434 44 view .LVU1644
	movq	%rdx, %r14
	subq	%rsi, %r14
	.loc 45 434 20 view .LVU1645
	subq	%r13, %r14
.LVL539:
.LBB3583:
.LBB3584:
.LBI3584:
	.loc 10 326 7 is_stmt 1 view .LVU1646
.LBB3585:
.LBB3586:
.LBI3586:
	.loc 38 427 7 view .LVU1647
	.loc 38 427 7 is_stmt 0 view .LVU1648
.LBE3586:
	.loc 10 329 3 view .LVU1649
	cmpq	%rax, %r15
	jb	.L271
	.loc 10 329 38 view .LVU1650
	addq	%rdx, %rax
.LVL540:
.LBB3587:
.LBI3587:
	.loc 38 427 7 is_stmt 1 view .LVU1651
	.loc 38 427 7 is_stmt 0 view .LVU1652
.LBE3587:
	.loc 10 329 3 view .LVU1653
	cmpq	%r15, %rax
	jb	.L271
.LVL541:
	.loc 10 329 3 view .LVU1654
.LBE3585:
.LBE3584:
.LBB3588:
	.loc 45 445 29 view .LVU1655
	cmpq	%r12, %r13
	setnb	%al
	.loc 45 445 19 view .LVU1656
	testq	%r12, %r12
	setne	%dl
.LVL542:
	.loc 45 445 8 view .LVU1657
	testb	%al, %dl
	jne	.L272
.LVL543:
.L273:
	.loc 45 447 33 view .LVU1658
	cmpq	%r12, %r13
	setne	%al
	.loc 45 447 23 view .LVU1659
	testq	%r14, %r14
	setne	%dl
	.loc 45 447 8 view .LVU1660
	testb	%al, %dl
	je	.L279
	.loc 45 448 35 view .LVU1661
	movq	8(%rsp), %rax
	leaq	(%rax,%r13), %rsi
	.loc 45 448 3 view .LVU1662
	leaq	(%rax,%r12), %rdi
.LVL544:
.LBB3589:
.LBI3589:
	.loc 10 344 7 is_stmt 1 view .LVU1663
.LBB3590:
	.loc 10 346 2 is_stmt 0 view .LVU1664
	cmpq	$1, %r14
	je	.L291
.LVL545:
.LBB3591:
.LBI3591:
	.loc 46 338 7 is_stmt 1 view .LVU1665
.LBB3592:
	.loc 46 340 2 view .LVU1666
	testq	%r14, %r14
	je	.L279
	.loc 46 342 2 view .LVU1667
	.loc 46 342 50 is_stmt 0 view .LVU1668
	movq	%r14, %rdx
	call	memmove
.LVL546:
	.loc 46 342 50 view .LVU1669
	jmp	.L279
.LVL547:
.L290:
	.loc 46 342 50 view .LVU1670
.LBE3592:
.LBE3591:
.LBE3590:
.LBE3589:
.LBE3588:
.LBE3583:
.LBE3582:
.LBE3573:
.LBB3647:
.LBB3572:
	.loc 10 312 24 view .LVU1671
	movl	$.LC9, %edi
.LVL548:
	.loc 10 312 24 view .LVU1672
	call	_ZSt20__throw_length_errorPKc
.LVL549:
.L288:
	.loc 10 312 24 view .LVU1673
.LBE3572:
.LBE3647:
.LBB3648:
.LBB3645:
.LBB3581:
	.loc 10 986 23 view .LVU1674
	movl	$15, %ecx
	jmp	.L269
.LVL550:
.L271:
	.loc 10 986 23 view .LVU1675
.LBE3581:
.LBE3645:
.LBB3646:
.LBB3644:
	.loc 45 437 33 view .LVU1676
	cmpq	%r12, %r13
	setne	%al
	.loc 45 437 23 view .LVU1677
	testq	%r14, %r14
	setne	%dl
.LVL551:
	.loc 45 437 8 view .LVU1678
	testb	%al, %dl
	je	.L274
	.loc 45 438 35 view .LVU1679
	movq	8(%rsp), %rax
	leaq	(%rax,%r13), %rsi
.LVL552:
	.loc 45 438 3 view .LVU1680
	leaq	(%rax,%r12), %rdi
.LVL553:
.LBB3631:
.LBI3631:
	.loc 10 344 7 is_stmt 1 view .LVU1681
.LBB3632:
	.loc 10 346 2 is_stmt 0 view .LVU1682
	cmpq	$1, %r14
	je	.L292
.LVL554:
.LBB3633:
.LBI3633:
	.loc 46 338 7 is_stmt 1 view .LVU1683
.LBB3634:
	.loc 46 340 2 view .LVU1684
	testq	%r14, %r14
	je	.L274
	.loc 46 342 2 view .LVU1685
	.loc 46 342 50 is_stmt 0 view .LVU1686
	movq	%r14, %rdx
	call	memmove
.LVL555:
	.loc 46 342 50 view .LVU1687
	jmp	.L274
.LVL556:
.L292:
	.loc 46 342 50 view .LVU1688
.LBE3634:
.LBE3633:
.LBB3635:
.LBI3635:
	.loc 46 284 7 is_stmt 1 view .LVU1689
.LBB3636:
	.loc 46 285 9 view .LVU1690
	.loc 46 285 16 is_stmt 0 view .LVU1691
	movzbl	(%rsi), %eax
	.loc 46 285 14 view .LVU1692
	movb	%al, (%rdi)
.LVL557:
.L274:
	.loc 46 285 14 view .LVU1693
.LBE3636:
.LBE3635:
.LBE3632:
.LBE3631:
	.loc 45 439 8 view .LVU1694
	testq	%r12, %r12
	je	.L276
.LVL558:
.LBB3637:
.LBI3637:
	.loc 10 335 7 is_stmt 1 view .LVU1695
.LBB3638:
	.loc 10 337 2 is_stmt 0 view .LVU1696
	cmpq	$1, %r12
	je	.L293
.LVL559:
.LBB3639:
.LBI3639:
	.loc 46 346 7 is_stmt 1 view .LVU1697
.LBB3640:
	.loc 46 348 2 view .LVU1698
	.loc 46 350 2 view .LVU1699
	.loc 46 350 49 is_stmt 0 view .LVU1700
	movq	%r12, %rdx
	movq	%r15, %rsi
	movq	8(%rsp), %rdi
	call	memcpy
.LVL560:
	jmp	.L276
.LVL561:
.L293:
	.loc 46 350 49 view .LVU1701
.LBE3640:
.LBE3639:
.LBB3641:
.LBI3641:
	.loc 46 284 7 is_stmt 1 view .LVU1702
.LBB3642:
	.loc 46 285 9 view .LVU1703
	.loc 46 285 16 is_stmt 0 view .LVU1704
	movzbl	(%r15), %eax
	.loc 46 285 14 view .LVU1705
	movq	8(%rsp), %rdi
	movb	%al, (%rdi)
	jmp	.L276
.LVL562:
.L272:
	.loc 46 285 14 view .LVU1706
.LBE3642:
.LBE3641:
.LBE3638:
.LBE3637:
.LBB3643:
.LBB3596:
.LBI3596:
	.loc 10 344 7 is_stmt 1 view .LVU1707
.LBB3597:
	.loc 10 346 2 is_stmt 0 view .LVU1708
	cmpq	$1, %r12
	je	.L294
.LVL563:
.LBB3598:
.LBI3598:
	.loc 46 338 7 is_stmt 1 view .LVU1709
.LBB3599:
	.loc 46 340 2 view .LVU1710
	testq	%r12, %r12
	je	.L273
	.loc 46 342 2 view .LVU1711
	.loc 46 342 50 is_stmt 0 view .LVU1712
	movq	%r12, %rdx
	movq	%r15, %rsi
.LVL564:
	.loc 46 342 50 view .LVU1713
	movq	8(%rsp), %rdi
.LVL565:
	.loc 46 342 50 view .LVU1714
	call	memmove
.LVL566:
	.loc 46 342 50 view .LVU1715
	jmp	.L273
.LVL567:
.L294:
	.loc 46 342 50 view .LVU1716
.LBE3599:
.LBE3598:
.LBB3600:
.LBI3600:
	.loc 46 284 7 is_stmt 1 view .LVU1717
.LBB3601:
	.loc 46 285 9 view .LVU1718
	.loc 46 285 16 is_stmt 0 view .LVU1719
	movzbl	(%r15), %eax
	.loc 46 285 14 view .LVU1720
	movq	8(%rsp), %rdi
.LVL568:
	.loc 46 285 14 view .LVU1721
	movb	%al, (%rdi)
.LVL569:
	.loc 46 285 14 view .LVU1722
	jmp	.L273
.LVL570:
.L291:
	.loc 46 285 14 view .LVU1723
.LBE3601:
.LBE3600:
.LBE3597:
.LBE3596:
.LBB3602:
.LBB3595:
.LBB3593:
.LBI3593:
	.loc 46 284 7 is_stmt 1 view .LVU1724
.LBB3594:
	.loc 46 285 9 view .LVU1725
	.loc 46 285 16 is_stmt 0 view .LVU1726
	movzbl	(%rsi), %eax
	.loc 46 285 14 view .LVU1727
	movb	%al, (%rdi)
.LVL571:
.L279:
	.loc 46 285 14 view .LVU1728
.LBE3594:
.LBE3593:
.LBE3595:
.LBE3602:
.LBB3603:
	.loc 45 449 8 view .LVU1729
	cmpq	%r12, %r13
	jnb	.L276
.LBB3604:
	.loc 45 451 13 view .LVU1730
	leaq	(%r15,%r12), %rax
	.loc 45 451 29 view .LVU1731
	movq	8(%rsp), %rdi
	addq	%r13, %rdi
	.loc 45 451 5 view .LVU1732
	cmpq	%rdi, %rax
	ja	.L281
.LVL572:
.LBB3605:
.LBI3605:
	.loc 10 344 7 is_stmt 1 view .LVU1733
.LBB3606:
	.loc 10 346 2 is_stmt 0 view .LVU1734
	cmpq	$1, %r12
	je	.L295
.LVL573:
.LBB3607:
.LBI3607:
	.loc 46 338 7 is_stmt 1 view .LVU1735
.LBB3608:
	.loc 46 340 2 view .LVU1736
	testq	%r12, %r12
	je	.L276
	.loc 46 342 2 view .LVU1737
	.loc 46 342 50 is_stmt 0 view .LVU1738
	movq	%r12, %rdx
	movq	%r15, %rsi
	movq	8(%rsp), %rdi
	call	memmove
.LVL574:
	jmp	.L276
.LVL575:
.L295:
	.loc 46 342 50 view .LVU1739
.LBE3608:
.LBE3607:
.LBB3609:
.LBI3609:
	.loc 46 284 7 is_stmt 1 view .LVU1740
.LBB3610:
	.loc 46 285 9 view .LVU1741
	.loc 46 285 16 is_stmt 0 view .LVU1742
	movzbl	(%r15), %eax
	.loc 46 285 14 view .LVU1743
	movq	8(%rsp), %rdi
	movb	%al, (%rdi)
	jmp	.L276
.LVL576:
.L281:
	.loc 46 285 14 view .LVU1744
.LBE3610:
.LBE3609:
.LBE3606:
.LBE3605:
.LBB3611:
	.loc 45 453 10 view .LVU1745
	cmpq	%r15, %rdi
	ja	.L283
	.loc 45 454 39 view .LVU1746
	movq	%r12, %rsi
	subq	%r13, %rsi
	.loc 45 454 7 view .LVU1747
	addq	%r15, %rsi
.LVL577:
.LBB3612:
.LBI3612:
	.loc 10 335 7 is_stmt 1 view .LVU1748
.LBB3613:
	.loc 10 337 2 is_stmt 0 view .LVU1749
	cmpq	$1, %r12
	je	.L296
.LVL578:
.LBB3614:
.LBI3614:
	.loc 46 346 7 is_stmt 1 view .LVU1750
.LBB3615:
	.loc 46 348 2 view .LVU1751
	testq	%r12, %r12
	je	.L276
	.loc 46 350 2 view .LVU1752
	.loc 46 350 49 is_stmt 0 view .LVU1753
	movq	%r12, %rdx
	movq	8(%rsp), %rdi
	call	memcpy
.LVL579:
	.loc 46 350 49 view .LVU1754
	jmp	.L276
.LVL580:
.L296:
	.loc 46 350 49 view .LVU1755
.LBE3615:
.LBE3614:
.LBB3616:
.LBI3616:
	.loc 46 284 7 is_stmt 1 view .LVU1756
.LBB3617:
	.loc 46 285 9 view .LVU1757
	.loc 46 285 16 is_stmt 0 view .LVU1758
	movzbl	(%rsi), %eax
	.loc 46 285 14 view .LVU1759
	movq	8(%rsp), %rdi
	movb	%al, (%rdi)
	jmp	.L276
.LVL581:
.L283:
	.loc 46 285 14 view .LVU1760
.LBE3617:
.LBE3616:
.LBE3613:
.LBE3612:
.LBB3618:
	.loc 45 457 50 view .LVU1761
	subq	%r15, %rdi
	movq	%rdi, %r13
.LVL582:
.LBB3619:
.LBI3619:
	.loc 10 344 7 is_stmt 1 view .LVU1762
.LBB3620:
	.loc 10 346 2 is_stmt 0 view .LVU1763
	cmpq	$1, %rdi
	je	.L297
.LVL583:
.LBB3621:
.LBI3621:
	.loc 46 338 7 is_stmt 1 view .LVU1764
.LBB3622:
	.loc 46 340 2 view .LVU1765
	testq	%rdi, %rdi
	je	.L286
	.loc 46 342 2 view .LVU1766
	.loc 46 342 50 is_stmt 0 view .LVU1767
	movq	%rdi, %rdx
	movq	%r15, %rsi
	movq	8(%rsp), %rdi
.LVL584:
	.loc 46 342 50 view .LVU1768
	call	memmove
.LVL585:
	.loc 46 342 50 view .LVU1769
	jmp	.L286
.LVL586:
.L297:
	.loc 46 342 50 view .LVU1770
.LBE3622:
.LBE3621:
.LBB3623:
.LBI3623:
	.loc 46 284 7 is_stmt 1 view .LVU1771
.LBB3624:
	.loc 46 285 9 view .LVU1772
	.loc 46 285 16 is_stmt 0 view .LVU1773
	movzbl	(%r15), %eax
	.loc 46 285 14 view .LVU1774
	movq	8(%rsp), %rdi
.LVL587:
	.loc 46 285 14 view .LVU1775
	movb	%al, (%rdi)
.LVL588:
.L286:
	.loc 46 285 14 view .LVU1776
.LBE3624:
.LBE3623:
.LBE3620:
.LBE3619:
	.loc 45 459 9 view .LVU1777
	movq	%r12, %rdx
	subq	%r13, %rdx
	.loc 45 459 42 view .LVU1778
	movq	8(%rsp), %rax
	leaq	(%rax,%r12), %rsi
	.loc 45 459 9 view .LVU1779
	leaq	(%rax,%r13), %rdi
.LVL589:
.LBB3625:
.LBI3625:
	.loc 10 335 7 is_stmt 1 view .LVU1780
.LBB3626:
	.loc 10 337 2 is_stmt 0 view .LVU1781
	cmpq	$1, %rdx
	je	.L298
.LVL590:
.LBB3627:
.LBI3627:
	.loc 46 346 7 is_stmt 1 view .LVU1782
.LBB3628:
	.loc 46 348 2 view .LVU1783
	testq	%rdx, %rdx
	je	.L276
	.loc 46 350 2 view .LVU1784
	.loc 46 350 49 is_stmt 0 view .LVU1785
	call	memcpy
.LVL591:
	.loc 46 350 49 view .LVU1786
	jmp	.L276
.LVL592:
.L298:
	.loc 46 350 49 view .LVU1787
.LBE3628:
.LBE3627:
.LBB3629:
.LBI3629:
	.loc 46 284 7 is_stmt 1 view .LVU1788
.LBB3630:
	.loc 46 285 9 view .LVU1789
	.loc 46 285 16 is_stmt 0 view .LVU1790
	movzbl	(%rsi), %eax
	.loc 46 285 14 view .LVU1791
	movb	%al, (%rdi)
	jmp	.L276
.LVL593:
.L270:
	.loc 46 285 14 view .LVU1792
.LBE3630:
.LBE3629:
.LBE3626:
.LBE3625:
.LBE3618:
.LBE3611:
.LBE3604:
.LBE3603:
.LBE3643:
.LBE3644:
.LBE3646:
	.loc 45 466 2 view .LVU1793
	movq	%r12, %r8
.LVL594:
	.loc 45 466 2 view .LVU1794
	movq	%r15, %rcx
	movq	%r13, %rdx
.LVL595:
	.loc 45 466 2 view .LVU1795
	movq	%rbx, %rdi
	call	_ZNSt7__cxx1112basic_stringIcSt11char_traitsIcESaIcEE9_M_mutateEmmPKcm
.LVL596:
.L276:
	.loc 45 466 2 view .LVU1796
.LBE3648:
.LBB3649:
.LBI3649:
	.loc 10 203 7 is_stmt 1 view .LVU1797
.LBB3650:
.LBB3651:
.LBI3651:
	.loc 10 171 7 view .LVU1798
.LBB3652:
	.loc 10 172 9 is_stmt 0 view .LVU1799
	movq	%rbp, 8(%rbx)
.LVL597:
	.loc 10 172 9 view .LVU1800
.LBE3652:
.LBE3651:
.LBB3653:
.LBI3653:
	.loc 10 175 7 is_stmt 1 view .LVU1801
	.loc 10 175 7 is_stmt 0 view .LVU1802
.LBE3653:
	.loc 10 206 31 view .LVU1803
	addq	(%rbx), %rbp
.LVL598:
.LBB3654:
.LBI3654:
	.loc 46 284 7 is_stmt 1 view .LVU1804
.LBB3655:
	.loc 46 285 9 view .LVU1805
	.loc 46 285 14 is_stmt 0 view .LVU1806
	movb	$0, 0(%rbp)
.LVL599:
	.loc 46 285 14 view .LVU1807
.LBE3655:
.LBE3654:
.LBE3650:
.LBE3649:
	.loc 45 470 5 view .LVU1808
	movq	%rbx, %rax
	addq	$24, %rsp
	.cfi_def_cfa_offset 56
	popq	%rbx
	.cfi_def_cfa_offset 48
.LVL600:
	.loc 45 470 5 view .LVU1809
	popq	%rbp
	.cfi_def_cfa_offset 40
	popq	%r12
	.cfi_def_cfa_offset 32
.LVL601:
	.loc 45 470 5 view .LVU1810
	popq	%r13
	.cfi_def_cfa_offset 24
	popq	%r14
	.cfi_def_cfa_offset 16
	popq	%r15
	.cfi_def_cfa_offset 8
.LVL602:
	.loc 45 470 5 view .LVU1811
	ret
	.cfi_endproc
.LFE12492:
	.size	_ZNSt7__cxx1112basic_stringIcSt11char_traitsIcESaIcEE10_M_replaceEmmPKcm, .-_ZNSt7__cxx1112basic_stringIcSt11char_traitsIcESaIcEE10_M_replaceEmmPKcm
	.section	.text._ZNSt7__cxx1112basic_stringIcSt11char_traitsIcESaIcEE9_M_appendEPKcm,"axG",@progbits,_ZNSt7__cxx1112basic_stringIcSt11char_traitsIcESaIcEE9_M_appendEPKcm,comdat
	.align 2
	.weak	_ZNSt7__cxx1112basic_stringIcSt11char_traitsIcESaIcEE9_M_appendEPKcm
	.type	_ZNSt7__cxx1112basic_stringIcSt11char_traitsIcESaIcEE9_M_appendEPKcm, @function
_ZNSt7__cxx1112basic_stringIcSt11char_traitsIcESaIcEE9_M_appendEPKcm:
.LVL603:
.LFB12424:
	.loc 45 359 5 is_stmt 1 view -0
	.cfi_startproc
	.loc 45 359 5 is_stmt 0 view .LVU1813
	pushq	%rbp
	.cfi_def_cfa_offset 16
	.cfi_offset 6, -16
	pushq	%rbx
	.cfi_def_cfa_offset 24
	.cfi_offset 3, -24
	subq	$8, %rsp
	.cfi_def_cfa_offset 32
	movq	%rdi, %rbx
.LVL604:
.LBB3656:
.LBI3656:
	.loc 10 921 7 is_stmt 1 view .LVU1814
.LBB3657:
	.loc 10 922 16 is_stmt 0 view .LVU1815
	movq	8(%rdi), %rax
.LVL605:
	.loc 10 922 16 view .LVU1816
.LBE3657:
.LBE3656:
	.loc 45 362 23 view .LVU1817
	leaq	(%rax,%rdx), %rbp
.LVL606:
.LBB3658:
.LBI3658:
	.loc 10 984 7 is_stmt 1 view .LVU1818
.LBB3659:
.LBB3660:
.LBI3660:
	.loc 10 210 7 view .LVU1819
.LBB3661:
.LBI3661:
	.loc 10 175 7 view .LVU1820
.LBB3662:
	.loc 10 176 28 is_stmt 0 view .LVU1821
	movq	(%rdi), %rdi
.LVL607:
	.loc 10 176 28 view .LVU1822
.LBE3662:
.LBE3661:
.LBB3663:
.LBI3663:
	.loc 10 189 7 is_stmt 1 view .LVU1823
.LBB3664:
	.loc 10 192 57 is_stmt 0 view .LVU1824
	leaq	16(%rbx), %r8
.LVL608:
	.loc 10 192 57 view .LVU1825
.LBE3664:
.LBE3663:
.LBE3660:
	.loc 10 986 23 view .LVU1826
	cmpq	%rdi, %r8
	je	.L304
	movq	16(%rbx), %r8
.L300:
.LVL609:
	.loc 10 986 23 view .LVU1827
.LBE3659:
.LBE3658:
	.loc 45 364 7 view .LVU1828
	cmpq	%r8, %rbp
	ja	.L301
	.loc 45 366 4 view .LVU1829
	testq	%rdx, %rdx
	je	.L302
	.loc 45 367 6 view .LVU1830
	addq	%rax, %rdi
.LVL610:
.LBB3666:
.LBI3666:
	.loc 10 335 7 is_stmt 1 view .LVU1831
.LBB3667:
	.loc 10 337 2 is_stmt 0 view .LVU1832
	cmpq	$1, %rdx
	je	.L306
.LVL611:
.LBB3668:
.LBI3668:
	.loc 46 346 7 is_stmt 1 view .LVU1833
.LBB3669:
	.loc 46 348 2 view .LVU1834
	.loc 46 350 2 view .LVU1835
	.loc 46 350 49 is_stmt 0 view .LVU1836
	call	memcpy
.LVL612:
	.loc 46 350 49 view .LVU1837
	jmp	.L302
.LVL613:
.L304:
	.loc 46 350 49 view .LVU1838
.LBE3669:
.LBE3668:
.LBE3667:
.LBE3666:
.LBB3673:
.LBB3665:
	.loc 10 986 23 view .LVU1839
	movl	$15, %r8d
	jmp	.L300
.LVL614:
.L306:
	.loc 10 986 23 view .LVU1840
.LBE3665:
.LBE3673:
.LBB3674:
.LBB3672:
.LBB3670:
.LBI3670:
	.loc 46 284 7 is_stmt 1 view .LVU1841
.LBB3671:
	.loc 46 285 9 view .LVU1842
	.loc 46 285 16 is_stmt 0 view .LVU1843
	movzbl	(%rsi), %eax
	.loc 46 285 14 view .LVU1844
	movb	%al, (%rdi)
	jmp	.L302
.LVL615:
.L301:
	.loc 46 285 14 view .LVU1845
.LBE3671:
.LBE3670:
.LBE3672:
.LBE3674:
	.loc 45 370 2 view .LVU1846
	movq	%rdx, %r8
	movq	%rsi, %rcx
	movl	$0, %edx
.LVL616:
	.loc 45 370 2 view .LVU1847
	movq	%rax, %rsi
.LVL617:
	.loc 45 370 2 view .LVU1848
	movq	%rbx, %rdi
	call	_ZNSt7__cxx1112basic_stringIcSt11char_traitsIcESaIcEE9_M_mutateEmmPKcm
.LVL618:
.L302:
.LBB3675:
.LBI3675:
	.loc 10 203 7 is_stmt 1 view .LVU1849
.LBB3676:
.LBB3677:
.LBI3677:
	.loc 10 171 7 view .LVU1850
.LBB3678:
	.loc 10 172 9 is_stmt 0 view .LVU1851
	movq	%rbp, 8(%rbx)
.LVL619:
	.loc 10 172 9 view .LVU1852
.LBE3678:
.LBE3677:
.LBB3679:
.LBI3679:
	.loc 10 175 7 is_stmt 1 view .LVU1853
	.loc 10 175 7 is_stmt 0 view .LVU1854
.LBE3679:
	.loc 10 206 31 view .LVU1855
	addq	(%rbx), %rbp
.LVL620:
.LBB3680:
.LBI3680:
	.loc 46 284 7 is_stmt 1 view .LVU1856
.LBB3681:
	.loc 46 285 9 view .LVU1857
	.loc 46 285 14 is_stmt 0 view .LVU1858
	movb	$0, 0(%rbp)
.LVL621:
	.loc 46 285 14 view .LVU1859
.LBE3681:
.LBE3680:
.LBE3676:
.LBE3675:
	.loc 45 374 5 view .LVU1860
	movq	%rbx, %rax
	addq	$8, %rsp
	.cfi_def_cfa_offset 24
	popq	%rbx
	.cfi_def_cfa_offset 16
.LVL622:
	.loc 45 374 5 view .LVU1861
	popq	%rbp
	.cfi_def_cfa_offset 8
	ret
	.cfi_endproc
.LFE12424:
	.size	_ZNSt7__cxx1112basic_stringIcSt11char_traitsIcESaIcEE9_M_appendEPKcm, .-_ZNSt7__cxx1112basic_stringIcSt11char_traitsIcESaIcEE9_M_appendEPKcm
	.section	.rodata._ZNSt7__cxx1112basic_stringIcSt11char_traitsIcESaIcEE12_M_constructIPKcEEvT_S8_St20forward_iterator_tag.str1.8,"aMS",@progbits,1
	.align 8
.LC10:
	.string	"basic_string::_M_construct null not valid"
	.section	.text._ZNSt7__cxx1112basic_stringIcSt11char_traitsIcESaIcEE12_M_constructIPKcEEvT_S8_St20forward_iterator_tag,"axG",@progbits,_ZNSt7__cxx1112basic_stringIcSt11char_traitsIcESaIcEE12_M_constructIPKcEEvT_S8_St20forward_iterator_tag,comdat
	.align 2
	.weak	_ZNSt7__cxx1112basic_stringIcSt11char_traitsIcESaIcEE12_M_constructIPKcEEvT_S8_St20forward_iterator_tag
	.type	_ZNSt7__cxx1112basic_stringIcSt11char_traitsIcESaIcEE12_M_constructIPKcEEvT_S8_St20forward_iterator_tag, @function
_ZNSt7__cxx1112basic_stringIcSt11char_traitsIcESaIcEE12_M_constructIPKcEEvT_S8_St20forward_iterator_tag:
.LVL623:
.LFB12995:
	.loc 45 206 7 is_stmt 1 view -0
	.cfi_startproc
	.loc 45 206 7 is_stmt 0 view .LVU1863
	pushq	%r12
	.cfi_def_cfa_offset 16
	.cfi_offset 12, -16
	pushq	%rbp
	.cfi_def_cfa_offset 24
	.cfi_offset 6, -24
	pushq	%rbx
	.cfi_def_cfa_offset 32
	.cfi_offset 3, -32
	subq	$16, %rsp
	.cfi_def_cfa_offset 48
	movq	%rdi, %rbp
	movq	%rsi, %r12
	.loc 45 211 42 view .LVU1864
	testq	%rsi, %rsi
	je	.L313
.L308:
.LVL624:
.LBB3682:
.LBI3682:
	.file 47 "/usr/include/c++/8/bits/stl_iterator_base_funcs.h"
	.loc 47 138 5 is_stmt 1 view .LVU1865
.LBB3683:
.LBI3683:
	.loc 47 98 5 view .LVU1866
.LBB3684:
	.loc 47 104 23 is_stmt 0 view .LVU1867
	subq	%r12, %rdx
.LVL625:
	.loc 47 104 23 view .LVU1868
	movq	%rdx, %rbx
.LVL626:
	.loc 47 104 23 view .LVU1869
.LBE3684:
.LBE3683:
.LBE3682:
	.loc 45 215 12 view .LVU1870
	movq	%rdx, 8(%rsp)
	.loc 45 217 2 view .LVU1871
	cmpq	$15, %rdx
	ja	.L314
.LVL627:
.L309:
.LBB3685:
.LBI3685:
	.loc 10 175 7 is_stmt 1 view .LVU1872
.LBB3686:
	.loc 10 176 28 is_stmt 0 view .LVU1873
	movq	0(%rbp), %rdi
.LVL628:
	.loc 10 176 28 view .LVU1874
.LBE3686:
.LBE3685:
.LBB3687:
.LBI3687:
	.loc 10 385 7 is_stmt 1 view .LVU1875
.LBB3688:
.LBI3688:
	.loc 10 335 7 view .LVU1876
.LBB3689:
	.loc 10 337 2 is_stmt 0 view .LVU1877
	cmpq	$1, %rbx
	je	.L315
.LVL629:
.LBB3690:
.LBI3690:
	.loc 46 346 7 is_stmt 1 view .LVU1878
.LBB3691:
	.loc 46 348 2 view .LVU1879
	testq	%rbx, %rbx
	je	.L311
	.loc 46 350 2 view .LVU1880
	.loc 46 350 49 is_stmt 0 view .LVU1881
	movq	%rbx, %rdx
	movq	%r12, %rsi
	call	memcpy
.LVL630:
	.loc 46 350 49 view .LVU1882
	jmp	.L311
.LVL631:
.L313:
	.loc 46 350 49 view .LVU1883
.LBE3691:
.LBE3690:
.LBE3689:
.LBE3688:
.LBE3687:
	.loc 45 211 42 discriminator 1 view .LVU1884
	cmpq	%rdx, %rsi
	je	.L308
	.loc 45 212 28 view .LVU1885
	movl	$.LC10, %edi
.LVL632:
	.loc 45 212 28 view .LVU1886
	call	_ZSt19__throw_logic_errorPKc
.LVL633:
.L314:
	.loc 45 219 6 view .LVU1887
	movl	$0, %edx
	leaq	8(%rsp), %rsi
.LVL634:
	.loc 45 219 6 view .LVU1888
	movq	%rbp, %rdi
.LVL635:
	.loc 45 219 6 view .LVU1889
	call	_ZNSt7__cxx1112basic_stringIcSt11char_traitsIcESaIcEE9_M_createERmm
.LVL636:
.LBB3696:
.LBI3696:
	.loc 10 167 7 is_stmt 1 view .LVU1890
.LBB3697:
	.loc 10 168 9 is_stmt 0 view .LVU1891
	movq	%rax, 0(%rbp)
.LVL637:
	.loc 10 168 9 view .LVU1892
.LBE3697:
.LBE3696:
	.loc 45 220 6 view .LVU1893
	movq	8(%rsp), %rax
.LVL638:
.LBB3698:
.LBI3698:
	.loc 10 199 7 is_stmt 1 view .LVU1894
.LBB3699:
	.loc 10 200 9 is_stmt 0 view .LVU1895
	movq	%rax, 16(%rbp)
	jmp	.L309
.LVL639:
.L315:
	.loc 10 200 9 view .LVU1896
.LBE3699:
.LBE3698:
.LBB3700:
.LBB3695:
.LBB3694:
.LBB3692:
.LBI3692:
	.loc 46 284 7 is_stmt 1 view .LVU1897
.LBB3693:
	.loc 46 285 9 view .LVU1898
	.loc 46 285 16 is_stmt 0 view .LVU1899
	movzbl	(%r12), %eax
	.loc 46 285 14 view .LVU1900
	movb	%al, (%rdi)
.LVL640:
.L311:
	.loc 46 285 14 view .LVU1901
.LBE3693:
.LBE3692:
.LBE3694:
.LBE3695:
.LBE3700:
	.loc 45 232 2 view .LVU1902
	movq	8(%rsp), %rax
.LVL641:
.LBB3701:
.LBI3701:
	.loc 10 203 7 is_stmt 1 view .LVU1903
.LBB3702:
.LBB3703:
.LBI3703:
	.loc 10 171 7 view .LVU1904
.LBB3704:
	.loc 10 172 9 is_stmt 0 view .LVU1905
	movq	%rax, 8(%rbp)
.LVL642:
	.loc 10 172 9 view .LVU1906
.LBE3704:
.LBE3703:
.LBB3705:
.LBI3705:
	.loc 10 175 7 is_stmt 1 view .LVU1907
	.loc 10 175 7 is_stmt 0 view .LVU1908
.LBE3705:
	.loc 10 206 31 view .LVU1909
	addq	0(%rbp), %rax
.LVL643:
.LBB3706:
.LBI3706:
	.loc 46 284 7 is_stmt 1 view .LVU1910
.LBB3707:
	.loc 46 285 9 view .LVU1911
	.loc 46 285 14 is_stmt 0 view .LVU1912
	movb	$0, (%rax)
.LVL644:
	.loc 46 285 14 view .LVU1913
.LBE3707:
.LBE3706:
.LBE3702:
.LBE3701:
	.loc 45 233 7 view .LVU1914
	addq	$16, %rsp
	.cfi_def_cfa_offset 32
	popq	%rbx
	.cfi_def_cfa_offset 24
	popq	%rbp
	.cfi_def_cfa_offset 16
.LVL645:
	.loc 45 233 7 view .LVU1915
	popq	%r12
	.cfi_def_cfa_offset 8
.LVL646:
	.loc 45 233 7 view .LVU1916
	ret
	.cfi_endproc
.LFE12995:
	.size	_ZNSt7__cxx1112basic_stringIcSt11char_traitsIcESaIcEE12_M_constructIPKcEEvT_S8_St20forward_iterator_tag, .-_ZNSt7__cxx1112basic_stringIcSt11char_traitsIcESaIcEE12_M_constructIPKcEEvT_S8_St20forward_iterator_tag
	.section	.text._ZNK5boost6system6detail21system_error_category7messageB5cxx11Ei,"axG",@progbits,_ZNK5boost6system6detail21system_error_category7messageB5cxx11Ei,comdat
	.align 2
	.weak	_ZNK5boost6system6detail21system_error_category7messageB5cxx11Ei
	.type	_ZNK5boost6system6detail21system_error_category7messageB5cxx11Ei, @function
_ZNK5boost6system6detail21system_error_category7messageB5cxx11Ei:
.LVL647:
.LFB4559:
	.loc 1 947 1 is_stmt 1 view -0
	.cfi_startproc
	.loc 1 947 1 is_stmt 0 view .LVU1918
	pushq	%rbx
	.cfi_def_cfa_offset 16
	.cfi_offset 3, -16
	addq	$-128, %rsp
	.cfi_def_cfa_offset 144
	movq	%rdi, %rbx
	movl	%edx, %edi
.LVL648:
	.loc 1 948 5 is_stmt 1 view .LVU1919
.LBB3743:
.LBI3743:
	.loc 19 40 20 view .LVU1920
.LBB3744:
	.loc 19 42 5 view .LVU1921
	.loc 19 43 5 view .LVU1922
.LBB3745:
.LBI3745:
	.loc 13 131 7 view .LVU1923
.LBB3746:
.LBI3746:
	.loc 12 79 7 view .LVU1924
	.loc 12 79 7 is_stmt 0 view .LVU1925
.LBE3746:
.LBE3745:
.LBB3747:
.LBI3747:
	.loc 19 35 21 is_stmt 1 view .LVU1926
.LBB3748:
	.loc 19 37 5 view .LVU1927
	.loc 19 37 41 is_stmt 0 view .LVU1928
	movl	$128, %edx
.LVL649:
	.loc 19 37 41 view .LVU1929
	movq	%rsp, %rsi
.LVL650:
	.loc 19 37 41 view .LVU1930
	call	strerror_r
.LVL651:
	.loc 19 37 41 view .LVU1931
	movq	%rax, %rsi
.LVL652:
	.loc 19 37 41 view .LVU1932
.LBE3748:
.LBE3747:
.LBE3744:
.LBE3743:
	.loc 19 27 5 is_stmt 1 view .LVU1933
.LBB3769:
.LBB3767:
.LBB3749:
.LBI3749:
	.loc 10 514 7 view .LVU1934
.LBB3750:
.LBB3751:
.LBI3751:
	.loc 10 179 7 view .LVU1935
.LBB3752:
	.loc 10 182 51 is_stmt 0 view .LVU1936
	leaq	16(%rbx), %rax
.LVL653:
	.loc 10 182 51 view .LVU1937
.LBE3752:
.LBE3751:
.LBB3753:
.LBI3753:
	.loc 10 145 2 is_stmt 1 view .LVU1938
.LBB3754:
.LBB3755:
.LBI3755:
	.loc 13 133 7 view .LVU1939
.LBB3756:
.LBI3756:
	.loc 12 81 7 view .LVU1940
	.loc 12 81 7 is_stmt 0 view .LVU1941
.LBE3756:
.LBE3755:
	.loc 10 146 35 view .LVU1942
	movq	%rax, (%rbx)
.LVL654:
	.loc 10 146 35 view .LVU1943
.LBE3754:
.LBE3753:
	.loc 10 516 9 view .LVU1944
	testq	%rsi, %rsi
	je	.L317
.LBB3757:
.LBB3758:
	.loc 46 320 2 is_stmt 1 view .LVU1945
	.loc 46 320 25 is_stmt 0 view .LVU1946
	movq	$-1, %rcx
	movl	$0, %eax
	movq	%rsi, %rdi
	repnz scasb
	notq	%rcx
.LBE3758:
.LBE3757:
	.loc 10 516 9 view .LVU1947
	leaq	-1(%rsi,%rcx), %rdx
.L318:
.LVL655:
.LBB3759:
.LBI3759:
	.loc 10 252 9 is_stmt 1 view .LVU1948
.LBB3760:
.LBB3761:
.LBI3761:
	.loc 10 232 9 view .LVU1949
.LBB3762:
	.loc 10 236 11 is_stmt 0 view .LVU1950
	movq	%rbx, %rdi
	call	_ZNSt7__cxx1112basic_stringIcSt11char_traitsIcESaIcEE12_M_constructIPKcEEvT_S8_St20forward_iterator_tag
.LVL656:
	.loc 10 236 11 view .LVU1951
.LBE3762:
.LBE3761:
.LBE3760:
.LBE3759:
.LBE3750:
.LBE3749:
.LBB3764:
.LBI3764:
	.loc 13 139 7 is_stmt 1 view .LVU1952
.LBB3765:
.LBI3765:
	.loc 12 86 7 view .LVU1953
	.loc 12 86 7 is_stmt 0 view .LVU1954
.LBE3765:
.LBE3764:
.LBE3767:
.LBE3769:
	.loc 1 949 1 view .LVU1955
	movq	%rbx, %rax
	subq	$-128, %rsp
	.cfi_remember_state
	.cfi_def_cfa_offset 16
	popq	%rbx
	.cfi_def_cfa_offset 8
.LVL657:
	.loc 1 949 1 view .LVU1956
	ret
.LVL658:
.L317:
	.cfi_restore_state
.LBB3770:
.LBB3768:
.LBB3766:
.LBB3763:
	.loc 10 516 9 view .LVU1957
	leaq	-1(%rsi), %rdx
	jmp	.L318
.LBE3763:
.LBE3766:
.LBE3768:
.LBE3770:
	.cfi_endproc
.LFE4559:
	.size	_ZNK5boost6system6detail21system_error_category7messageB5cxx11Ei, .-_ZNK5boost6system6detail21system_error_category7messageB5cxx11Ei
	.section	.text._ZNK5boost6system6detail22generic_error_category7messageB5cxx11Ei,"axG",@progbits,_ZNK5boost6system6detail22generic_error_category7messageB5cxx11Ei,comdat
	.align 2
	.weak	_ZNK5boost6system6detail22generic_error_category7messageB5cxx11Ei
	.type	_ZNK5boost6system6detail22generic_error_category7messageB5cxx11Ei, @function
_ZNK5boost6system6detail22generic_error_category7messageB5cxx11Ei:
.LVL659:
.LFB4554:
	.loc 1 907 1 is_stmt 1 view -0
	.cfi_startproc
	.loc 1 907 1 is_stmt 0 view .LVU1959
	pushq	%rbx
	.cfi_def_cfa_offset 16
	.cfi_offset 3, -16
	addq	$-128, %rsp
	.cfi_def_cfa_offset 144
	movq	%rdi, %rbx
	movl	%edx, %edi
.LVL660:
	.loc 1 908 5 is_stmt 1 view .LVU1960
.LBB3806:
.LBI3806:
	.loc 19 40 20 view .LVU1961
.LBB3807:
	.loc 19 42 5 view .LVU1962
	.loc 19 43 5 view .LVU1963
.LBB3808:
.LBI3808:
	.loc 13 131 7 view .LVU1964
.LBB3809:
.LBI3809:
	.loc 12 79 7 view .LVU1965
	.loc 12 79 7 is_stmt 0 view .LVU1966
.LBE3809:
.LBE3808:
.LBB3810:
.LBI3810:
	.loc 19 35 21 is_stmt 1 view .LVU1967
.LBB3811:
	.loc 19 37 5 view .LVU1968
	.loc 19 37 41 is_stmt 0 view .LVU1969
	movl	$128, %edx
.LVL661:
	.loc 19 37 41 view .LVU1970
	movq	%rsp, %rsi
.LVL662:
	.loc 19 37 41 view .LVU1971
	call	strerror_r
.LVL663:
	.loc 19 37 41 view .LVU1972
	movq	%rax, %rsi
.LVL664:
	.loc 19 37 41 view .LVU1973
.LBE3811:
.LBE3810:
.LBE3807:
.LBE3806:
	.loc 19 27 5 is_stmt 1 view .LVU1974
.LBB3832:
.LBB3830:
.LBB3812:
.LBI3812:
	.loc 10 514 7 view .LVU1975
.LBB3813:
.LBB3814:
.LBI3814:
	.loc 10 179 7 view .LVU1976
.LBB3815:
	.loc 10 182 51 is_stmt 0 view .LVU1977
	leaq	16(%rbx), %rax
.LVL665:
	.loc 10 182 51 view .LVU1978
.LBE3815:
.LBE3814:
.LBB3816:
.LBI3816:
	.loc 10 145 2 is_stmt 1 view .LVU1979
.LBB3817:
.LBB3818:
.LBI3818:
	.loc 13 133 7 view .LVU1980
.LBB3819:
.LBI3819:
	.loc 12 81 7 view .LVU1981
	.loc 12 81 7 is_stmt 0 view .LVU1982
.LBE3819:
.LBE3818:
	.loc 10 146 35 view .LVU1983
	movq	%rax, (%rbx)
.LVL666:
	.loc 10 146 35 view .LVU1984
.LBE3817:
.LBE3816:
	.loc 10 516 9 view .LVU1985
	testq	%rsi, %rsi
	je	.L321
.LBB3820:
.LBB3821:
	.loc 46 320 2 is_stmt 1 view .LVU1986
	.loc 46 320 25 is_stmt 0 view .LVU1987
	movq	$-1, %rcx
	movl	$0, %eax
	movq	%rsi, %rdi
	repnz scasb
	notq	%rcx
.LBE3821:
.LBE3820:
	.loc 10 516 9 view .LVU1988
	leaq	-1(%rsi,%rcx), %rdx
.L322:
.LVL667:
.LBB3822:
.LBI3822:
	.loc 10 252 9 is_stmt 1 view .LVU1989
.LBB3823:
.LBB3824:
.LBI3824:
	.loc 10 232 9 view .LVU1990
.LBB3825:
	.loc 10 236 11 is_stmt 0 view .LVU1991
	movq	%rbx, %rdi
	call	_ZNSt7__cxx1112basic_stringIcSt11char_traitsIcESaIcEE12_M_constructIPKcEEvT_S8_St20forward_iterator_tag
.LVL668:
	.loc 10 236 11 view .LVU1992
.LBE3825:
.LBE3824:
.LBE3823:
.LBE3822:
.LBE3813:
.LBE3812:
.LBB3827:
.LBI3827:
	.loc 13 139 7 is_stmt 1 view .LVU1993
.LBB3828:
.LBI3828:
	.loc 12 86 7 view .LVU1994
	.loc 12 86 7 is_stmt 0 view .LVU1995
.LBE3828:
.LBE3827:
.LBE3830:
.LBE3832:
	.loc 1 909 1 view .LVU1996
	movq	%rbx, %rax
	subq	$-128, %rsp
	.cfi_remember_state
	.cfi_def_cfa_offset 16
	popq	%rbx
	.cfi_def_cfa_offset 8
.LVL669:
	.loc 1 909 1 view .LVU1997
	ret
.LVL670:
.L321:
	.cfi_restore_state
.LBB3833:
.LBB3831:
.LBB3829:
.LBB3826:
	.loc 10 516 9 view .LVU1998
	leaq	-1(%rsi), %rdx
	jmp	.L322
.LBE3826:
.LBE3829:
.LBE3831:
.LBE3833:
	.cfi_endproc
.LFE4554:
	.size	_ZNK5boost6system6detail22generic_error_category7messageB5cxx11Ei, .-_ZNK5boost6system6detail22generic_error_category7messageB5cxx11Ei
	.section	.rodata._ZNK5boost4asio5error6detail17addrinfo_category7messageB5cxx11Ei.str1.1,"aMS",@progbits,1
.LC11:
	.string	"Service not found"
.LC12:
	.string	"Socket type not supported"
.LC13:
	.string	"asio.addrinfo error"
	.section	.text._ZNK5boost4asio5error6detail17addrinfo_category7messageB5cxx11Ei,"axG",@progbits,_ZNK5boost4asio5error6detail17addrinfo_category7messageB5cxx11Ei,comdat
	.align 2
	.weak	_ZNK5boost4asio5error6detail17addrinfo_category7messageB5cxx11Ei
	.type	_ZNK5boost4asio5error6detail17addrinfo_category7messageB5cxx11Ei, @function
_ZNK5boost4asio5error6detail17addrinfo_category7messageB5cxx11Ei:
.LVL671:
.LFB5294:
	.loc 4 72 15 is_stmt 1 view -0
	.cfi_startproc
	.loc 4 72 15 is_stmt 0 view .LVU2000
	pushq	%rbx
	.cfi_def_cfa_offset 16
	.cfi_offset 3, -16
	movq	%rdi, %rbx
	.loc 4 74 5 is_stmt 1 view .LVU2001
	cmpl	$-8, %edx
	je	.L329
	.loc 4 76 5 view .LVU2002
	cmpl	$-7, %edx
	je	.L330
	.loc 4 78 5 view .LVU2003
.LVL672:
.LBB3927:
.LBI3927:
	.loc 13 131 7 view .LVU2004
.LBB3928:
.LBI3928:
	.loc 12 79 7 view .LVU2005
	.loc 12 79 7 is_stmt 0 view .LVU2006
.LBE3928:
.LBE3927:
.LBB3929:
.LBI3929:
	.loc 10 514 7 is_stmt 1 view .LVU2007
.LBB3930:
.LBB3931:
.LBI3931:
	.loc 10 179 7 view .LVU2008
.LBB3932:
	.loc 10 182 51 is_stmt 0 view .LVU2009
	leaq	16(%rdi), %rax
.LVL673:
	.loc 10 182 51 view .LVU2010
.LBE3932:
.LBE3931:
.LBB3933:
.LBI3933:
	.loc 10 145 2 is_stmt 1 view .LVU2011
.LBB3934:
.LBB3935:
.LBI3935:
	.loc 13 133 7 view .LVU2012
.LBB3936:
.LBI3936:
	.loc 12 81 7 view .LVU2013
	.loc 12 81 7 is_stmt 0 view .LVU2014
.LBE3936:
.LBE3935:
	.loc 10 146 35 view .LVU2015
	movq	%rax, (%rdi)
.LVL674:
	.loc 10 146 35 view .LVU2016
.LBE3934:
.LBE3933:
.LBB3937:
.LBI3937:
	.loc 46 314 7 is_stmt 1 view .LVU2017
	.loc 46 314 7 is_stmt 0 view .LVU2018
.LBE3937:
.LBB3938:
.LBI3938:
	.loc 10 252 9 is_stmt 1 view .LVU2019
.LBB3939:
.LBB3940:
.LBI3940:
	.loc 10 232 9 view .LVU2020
.LBB3941:
	.loc 10 236 11 is_stmt 0 view .LVU2021
	movl	$.LC13+19, %edx
.LVL675:
	.loc 10 236 11 view .LVU2022
	movl	$.LC13, %esi
.LVL676:
	.loc 10 236 11 view .LVU2023
	call	_ZNSt7__cxx1112basic_stringIcSt11char_traitsIcESaIcEE12_M_constructIPKcEEvT_S8_St20forward_iterator_tag
.LVL677:
	.loc 10 236 11 view .LVU2024
.LBE3941:
.LBE3940:
.LBE3939:
.LBE3938:
.LBE3930:
.LBE3929:
.LBB3942:
.LBI3942:
	.loc 13 139 7 is_stmt 1 view .LVU2025
.LBB3943:
.LBI3943:
	.loc 12 86 7 view .LVU2026
.L324:
	.loc 12 86 7 is_stmt 0 view .LVU2027
.LBE3943:
.LBE3942:
	.loc 4 79 3 view .LVU2028
	movq	%rbx, %rax
	popq	%rbx
	.cfi_remember_state
	.cfi_def_cfa_offset 8
.LVL678:
	.loc 4 79 3 view .LVU2029
	ret
.LVL679:
.L329:
	.cfi_restore_state
	.loc 4 75 7 is_stmt 1 view .LVU2030
.LBB3944:
.LBI3944:
	.loc 13 131 7 view .LVU2031
.LBB3945:
.LBI3945:
	.loc 12 79 7 view .LVU2032
	.loc 12 79 7 is_stmt 0 view .LVU2033
.LBE3945:
.LBE3944:
.LBB3946:
.LBI3946:
	.loc 10 514 7 is_stmt 1 view .LVU2034
.LBB3947:
.LBB3948:
.LBI3948:
	.loc 10 179 7 view .LVU2035
.LBB3949:
	.loc 10 182 51 is_stmt 0 view .LVU2036
	leaq	16(%rdi), %rax
.LVL680:
	.loc 10 182 51 view .LVU2037
.LBE3949:
.LBE3948:
.LBB3950:
.LBI3950:
	.loc 10 145 2 is_stmt 1 view .LVU2038
.LBB3951:
.LBB3952:
.LBI3952:
	.loc 13 133 7 view .LVU2039
.LBB3953:
.LBI3953:
	.loc 12 81 7 view .LVU2040
	.loc 12 81 7 is_stmt 0 view .LVU2041
.LBE3953:
.LBE3952:
	.loc 10 146 35 view .LVU2042
	movq	%rax, (%rdi)
.LVL681:
	.loc 10 146 35 view .LVU2043
.LBE3951:
.LBE3950:
.LBB3954:
.LBI3954:
	.loc 46 314 7 is_stmt 1 view .LVU2044
	.loc 46 314 7 is_stmt 0 view .LVU2045
.LBE3954:
.LBB3955:
.LBI3955:
	.loc 10 252 9 is_stmt 1 view .LVU2046
.LBB3956:
.LBB3957:
.LBI3957:
	.loc 10 232 9 view .LVU2047
.LBB3958:
	.loc 10 236 11 is_stmt 0 view .LVU2048
	movl	$.LC11+17, %edx
.LVL682:
	.loc 10 236 11 view .LVU2049
	movl	$.LC11, %esi
.LVL683:
	.loc 10 236 11 view .LVU2050
	call	_ZNSt7__cxx1112basic_stringIcSt11char_traitsIcESaIcEE12_M_constructIPKcEEvT_S8_St20forward_iterator_tag
.LVL684:
	.loc 10 236 11 view .LVU2051
.LBE3958:
.LBE3957:
.LBE3956:
.LBE3955:
.LBE3947:
.LBE3946:
.LBB3959:
.LBI3959:
	.loc 13 139 7 is_stmt 1 view .LVU2052
.LBB3960:
.LBI3960:
	.loc 12 86 7 view .LVU2053
	.loc 12 86 7 is_stmt 0 view .LVU2054
	jmp	.L324
.LVL685:
.L330:
	.loc 12 86 7 view .LVU2055
.LBE3960:
.LBE3959:
	.loc 4 77 7 is_stmt 1 view .LVU2056
.LBB3961:
.LBI3961:
	.loc 13 131 7 view .LVU2057
.LBB3962:
.LBI3962:
	.loc 12 79 7 view .LVU2058
	.loc 12 79 7 is_stmt 0 view .LVU2059
.LBE3962:
.LBE3961:
.LBB3963:
.LBI3963:
	.loc 10 514 7 is_stmt 1 view .LVU2060
.LBB3964:
.LBB3965:
.LBI3965:
	.loc 10 179 7 view .LVU2061
.LBB3966:
	.loc 10 182 51 is_stmt 0 view .LVU2062
	leaq	16(%rdi), %rax
.LVL686:
	.loc 10 182 51 view .LVU2063
.LBE3966:
.LBE3965:
.LBB3967:
.LBI3967:
	.loc 10 145 2 is_stmt 1 view .LVU2064
.LBB3968:
.LBB3969:
.LBI3969:
	.loc 13 133 7 view .LVU2065
.LBB3970:
.LBI3970:
	.loc 12 81 7 view .LVU2066
	.loc 12 81 7 is_stmt 0 view .LVU2067
.LBE3970:
.LBE3969:
	.loc 10 146 35 view .LVU2068
	movq	%rax, (%rdi)
.LVL687:
	.loc 10 146 35 view .LVU2069
.LBE3968:
.LBE3967:
.LBB3971:
.LBI3971:
	.loc 46 314 7 is_stmt 1 view .LVU2070
	.loc 46 314 7 is_stmt 0 view .LVU2071
.LBE3971:
.LBB3972:
.LBI3972:
	.loc 10 252 9 is_stmt 1 view .LVU2072
.LBB3973:
.LBB3974:
.LBI3974:
	.loc 10 232 9 view .LVU2073
.LBB3975:
	.loc 10 236 11 is_stmt 0 view .LVU2074
	movl	$.LC12+25, %edx
.LVL688:
	.loc 10 236 11 view .LVU2075
	movl	$.LC12, %esi
.LVL689:
	.loc 10 236 11 view .LVU2076
	call	_ZNSt7__cxx1112basic_stringIcSt11char_traitsIcESaIcEE12_M_constructIPKcEEvT_S8_St20forward_iterator_tag
.LVL690:
	.loc 10 236 11 view .LVU2077
.LBE3975:
.LBE3974:
.LBE3973:
.LBE3972:
.LBE3964:
.LBE3963:
.LBB3976:
.LBI3976:
	.loc 13 139 7 is_stmt 1 view .LVU2078
.LBB3977:
.LBI3977:
	.loc 12 86 7 view .LVU2079
	.loc 12 86 7 is_stmt 0 view .LVU2080
	jmp	.L324
.LBE3977:
.LBE3976:
	.cfi_endproc
.LFE5294:
	.size	_ZNK5boost4asio5error6detail17addrinfo_category7messageB5cxx11Ei, .-_ZNK5boost4asio5error6detail17addrinfo_category7messageB5cxx11Ei
	.section	.rodata._ZNK5boost4asio5error6detail14netdb_category7messageB5cxx11Ei.str1.8,"aMS",@progbits,1
	.align 8
.LC14:
	.string	"Host not found (authoritative)"
	.align 8
.LC15:
	.string	"Host not found (non-authoritative), try again later"
	.align 8
.LC16:
	.string	"The query is valid, but it does not have associated data"
	.align 8
.LC17:
	.string	"A non-recoverable error occurred during database lookup"
	.section	.rodata._ZNK5boost4asio5error6detail14netdb_category7messageB5cxx11Ei.str1.1,"aMS",@progbits,1
.LC18:
	.string	"asio.netdb error"
	.section	.text._ZNK5boost4asio5error6detail14netdb_category7messageB5cxx11Ei,"axG",@progbits,_ZNK5boost4asio5error6detail14netdb_category7messageB5cxx11Ei,comdat
	.align 2
	.weak	_ZNK5boost4asio5error6detail14netdb_category7messageB5cxx11Ei
	.type	_ZNK5boost4asio5error6detail14netdb_category7messageB5cxx11Ei, @function
_ZNK5boost4asio5error6detail14netdb_category7messageB5cxx11Ei:
.LVL691:
.LFB5288:
	.loc 4 40 15 is_stmt 1 view -0
	.cfi_startproc
	.loc 4 40 15 is_stmt 0 view .LVU2082
	pushq	%rbx
	.cfi_def_cfa_offset 16
	.cfi_offset 3, -16
	movq	%rdi, %rbx
	.loc 4 42 5 is_stmt 1 view .LVU2083
	cmpl	$1, %edx
	je	.L338
	.loc 4 44 5 view .LVU2084
	cmpl	$2, %edx
	je	.L339
	.loc 4 46 5 view .LVU2085
	cmpl	$4, %edx
	je	.L340
	.loc 4 48 5 view .LVU2086
	cmpl	$3, %edx
	je	.L341
	.loc 4 50 5 view .LVU2087
.LVL692:
.LBB4133:
.LBI4133:
	.loc 13 131 7 view .LVU2088
.LBB4134:
.LBI4134:
	.loc 12 79 7 view .LVU2089
	.loc 12 79 7 is_stmt 0 view .LVU2090
.LBE4134:
.LBE4133:
.LBB4135:
.LBI4135:
	.loc 10 514 7 is_stmt 1 view .LVU2091
.LBB4136:
.LBB4137:
.LBI4137:
	.loc 10 179 7 view .LVU2092
.LBB4138:
	.loc 10 182 51 is_stmt 0 view .LVU2093
	leaq	16(%rdi), %rax
.LVL693:
	.loc 10 182 51 view .LVU2094
.LBE4138:
.LBE4137:
.LBB4139:
.LBI4139:
	.loc 10 145 2 is_stmt 1 view .LVU2095
.LBB4140:
.LBB4141:
.LBI4141:
	.loc 13 133 7 view .LVU2096
.LBB4142:
.LBI4142:
	.loc 12 81 7 view .LVU2097
	.loc 12 81 7 is_stmt 0 view .LVU2098
.LBE4142:
.LBE4141:
	.loc 10 146 35 view .LVU2099
	movq	%rax, (%rdi)
.LVL694:
	.loc 10 146 35 view .LVU2100
.LBE4140:
.LBE4139:
.LBB4143:
.LBI4143:
	.loc 46 314 7 is_stmt 1 view .LVU2101
	.loc 46 314 7 is_stmt 0 view .LVU2102
.LBE4143:
.LBB4144:
.LBI4144:
	.loc 10 252 9 is_stmt 1 view .LVU2103
.LBB4145:
.LBB4146:
.LBI4146:
	.loc 10 232 9 view .LVU2104
.LBB4147:
	.loc 10 236 11 is_stmt 0 view .LVU2105
	movl	$.LC18+16, %edx
.LVL695:
	.loc 10 236 11 view .LVU2106
	movl	$.LC18, %esi
.LVL696:
	.loc 10 236 11 view .LVU2107
	call	_ZNSt7__cxx1112basic_stringIcSt11char_traitsIcESaIcEE12_M_constructIPKcEEvT_S8_St20forward_iterator_tag
.LVL697:
	.loc 10 236 11 view .LVU2108
.LBE4147:
.LBE4146:
.LBE4145:
.LBE4144:
.LBE4136:
.LBE4135:
.LBB4148:
.LBI4148:
	.loc 13 139 7 is_stmt 1 view .LVU2109
.LBB4149:
.LBI4149:
	.loc 12 86 7 view .LVU2110
.L331:
	.loc 12 86 7 is_stmt 0 view .LVU2111
.LBE4149:
.LBE4148:
	.loc 4 51 3 view .LVU2112
	movq	%rbx, %rax
	popq	%rbx
	.cfi_remember_state
	.cfi_def_cfa_offset 8
.LVL698:
	.loc 4 51 3 view .LVU2113
	ret
.LVL699:
.L338:
	.cfi_restore_state
	.loc 4 43 7 is_stmt 1 view .LVU2114
.LBB4150:
.LBI4150:
	.loc 13 131 7 view .LVU2115
.LBB4151:
.LBI4151:
	.loc 12 79 7 view .LVU2116
	.loc 12 79 7 is_stmt 0 view .LVU2117
.LBE4151:
.LBE4150:
.LBB4152:
.LBI4152:
	.loc 10 514 7 is_stmt 1 view .LVU2118
.LBB4153:
.LBB4154:
.LBI4154:
	.loc 10 179 7 view .LVU2119
.LBB4155:
	.loc 10 182 51 is_stmt 0 view .LVU2120
	leaq	16(%rdi), %rax
.LVL700:
	.loc 10 182 51 view .LVU2121
.LBE4155:
.LBE4154:
.LBB4156:
.LBI4156:
	.loc 10 145 2 is_stmt 1 view .LVU2122
.LBB4157:
.LBB4158:
.LBI4158:
	.loc 13 133 7 view .LVU2123
.LBB4159:
.LBI4159:
	.loc 12 81 7 view .LVU2124
	.loc 12 81 7 is_stmt 0 view .LVU2125
.LBE4159:
.LBE4158:
	.loc 10 146 35 view .LVU2126
	movq	%rax, (%rdi)
.LVL701:
	.loc 10 146 35 view .LVU2127
.LBE4157:
.LBE4156:
.LBB4160:
.LBI4160:
	.loc 46 314 7 is_stmt 1 view .LVU2128
	.loc 46 314 7 is_stmt 0 view .LVU2129
.LBE4160:
.LBB4161:
.LBI4161:
	.loc 10 252 9 is_stmt 1 view .LVU2130
.LBB4162:
.LBB4163:
.LBI4163:
	.loc 10 232 9 view .LVU2131
.LBB4164:
	.loc 10 236 11 is_stmt 0 view .LVU2132
	movl	$.LC14+30, %edx
.LVL702:
	.loc 10 236 11 view .LVU2133
	movl	$.LC14, %esi
.LVL703:
	.loc 10 236 11 view .LVU2134
	call	_ZNSt7__cxx1112basic_stringIcSt11char_traitsIcESaIcEE12_M_constructIPKcEEvT_S8_St20forward_iterator_tag
.LVL704:
	.loc 10 236 11 view .LVU2135
.LBE4164:
.LBE4163:
.LBE4162:
.LBE4161:
.LBE4153:
.LBE4152:
.LBB4165:
.LBI4165:
	.loc 13 139 7 is_stmt 1 view .LVU2136
.LBB4166:
.LBI4166:
	.loc 12 86 7 view .LVU2137
	.loc 12 86 7 is_stmt 0 view .LVU2138
	jmp	.L331
.LVL705:
.L339:
	.loc 12 86 7 view .LVU2139
.LBE4166:
.LBE4165:
	.loc 4 45 7 is_stmt 1 view .LVU2140
.LBB4167:
.LBI4167:
	.loc 13 131 7 view .LVU2141
.LBB4168:
.LBI4168:
	.loc 12 79 7 view .LVU2142
	.loc 12 79 7 is_stmt 0 view .LVU2143
.LBE4168:
.LBE4167:
.LBB4169:
.LBI4169:
	.loc 10 514 7 is_stmt 1 view .LVU2144
.LBB4170:
.LBB4171:
.LBI4171:
	.loc 10 179 7 view .LVU2145
.LBB4172:
	.loc 10 182 51 is_stmt 0 view .LVU2146
	leaq	16(%rdi), %rax
.LVL706:
	.loc 10 182 51 view .LVU2147
.LBE4172:
.LBE4171:
.LBB4173:
.LBI4173:
	.loc 10 145 2 is_stmt 1 view .LVU2148
.LBB4174:
.LBB4175:
.LBI4175:
	.loc 13 133 7 view .LVU2149
.LBB4176:
.LBI4176:
	.loc 12 81 7 view .LVU2150
	.loc 12 81 7 is_stmt 0 view .LVU2151
.LBE4176:
.LBE4175:
	.loc 10 146 35 view .LVU2152
	movq	%rax, (%rdi)
.LVL707:
	.loc 10 146 35 view .LVU2153
.LBE4174:
.LBE4173:
.LBB4177:
.LBI4177:
	.loc 46 314 7 is_stmt 1 view .LVU2154
	.loc 46 314 7 is_stmt 0 view .LVU2155
.LBE4177:
.LBB4178:
.LBI4178:
	.loc 10 252 9 is_stmt 1 view .LVU2156
.LBB4179:
.LBB4180:
.LBI4180:
	.loc 10 232 9 view .LVU2157
.LBB4181:
	.loc 10 236 11 is_stmt 0 view .LVU2158
	movl	$.LC15+51, %edx
.LVL708:
	.loc 10 236 11 view .LVU2159
	movl	$.LC15, %esi
.LVL709:
	.loc 10 236 11 view .LVU2160
	call	_ZNSt7__cxx1112basic_stringIcSt11char_traitsIcESaIcEE12_M_constructIPKcEEvT_S8_St20forward_iterator_tag
.LVL710:
	.loc 10 236 11 view .LVU2161
.LBE4181:
.LBE4180:
.LBE4179:
.LBE4178:
.LBE4170:
.LBE4169:
.LBB4182:
.LBI4182:
	.loc 13 139 7 is_stmt 1 view .LVU2162
.LBB4183:
.LBI4183:
	.loc 12 86 7 view .LVU2163
	.loc 12 86 7 is_stmt 0 view .LVU2164
	jmp	.L331
.LVL711:
.L340:
	.loc 12 86 7 view .LVU2165
.LBE4183:
.LBE4182:
	.loc 4 47 7 is_stmt 1 view .LVU2166
.LBB4184:
.LBI4184:
	.loc 13 131 7 view .LVU2167
.LBB4185:
.LBI4185:
	.loc 12 79 7 view .LVU2168
	.loc 12 79 7 is_stmt 0 view .LVU2169
.LBE4185:
.LBE4184:
.LBB4186:
.LBI4186:
	.loc 10 514 7 is_stmt 1 view .LVU2170
.LBB4187:
.LBB4188:
.LBI4188:
	.loc 10 179 7 view .LVU2171
.LBB4189:
	.loc 10 182 51 is_stmt 0 view .LVU2172
	leaq	16(%rdi), %rax
.LVL712:
	.loc 10 182 51 view .LVU2173
.LBE4189:
.LBE4188:
.LBB4190:
.LBI4190:
	.loc 10 145 2 is_stmt 1 view .LVU2174
.LBB4191:
.LBB4192:
.LBI4192:
	.loc 13 133 7 view .LVU2175
.LBB4193:
.LBI4193:
	.loc 12 81 7 view .LVU2176
	.loc 12 81 7 is_stmt 0 view .LVU2177
.LBE4193:
.LBE4192:
	.loc 10 146 35 view .LVU2178
	movq	%rax, (%rdi)
.LVL713:
	.loc 10 146 35 view .LVU2179
.LBE4191:
.LBE4190:
.LBB4194:
.LBI4194:
	.loc 46 314 7 is_stmt 1 view .LVU2180
	.loc 46 314 7 is_stmt 0 view .LVU2181
.LBE4194:
.LBB4195:
.LBI4195:
	.loc 10 252 9 is_stmt 1 view .LVU2182
.LBB4196:
.LBB4197:
.LBI4197:
	.loc 10 232 9 view .LVU2183
.LBB4198:
	.loc 10 236 11 is_stmt 0 view .LVU2184
	movl	$.LC16+56, %edx
.LVL714:
	.loc 10 236 11 view .LVU2185
	movl	$.LC16, %esi
.LVL715:
	.loc 10 236 11 view .LVU2186
	call	_ZNSt7__cxx1112basic_stringIcSt11char_traitsIcESaIcEE12_M_constructIPKcEEvT_S8_St20forward_iterator_tag
.LVL716:
	.loc 10 236 11 view .LVU2187
.LBE4198:
.LBE4197:
.LBE4196:
.LBE4195:
.LBE4187:
.LBE4186:
.LBB4199:
.LBI4199:
	.loc 13 139 7 is_stmt 1 view .LVU2188
.LBB4200:
.LBI4200:
	.loc 12 86 7 view .LVU2189
	.loc 12 86 7 is_stmt 0 view .LVU2190
	jmp	.L331
.LVL717:
.L341:
	.loc 12 86 7 view .LVU2191
.LBE4200:
.LBE4199:
	.loc 4 49 7 is_stmt 1 view .LVU2192
.LBB4201:
.LBI4201:
	.loc 13 131 7 view .LVU2193
.LBB4202:
.LBI4202:
	.loc 12 79 7 view .LVU2194
	.loc 12 79 7 is_stmt 0 view .LVU2195
.LBE4202:
.LBE4201:
.LBB4203:
.LBI4203:
	.loc 10 514 7 is_stmt 1 view .LVU2196
.LBB4204:
.LBB4205:
.LBI4205:
	.loc 10 179 7 view .LVU2197
.LBB4206:
	.loc 10 182 51 is_stmt 0 view .LVU2198
	leaq	16(%rdi), %rax
.LVL718:
	.loc 10 182 51 view .LVU2199
.LBE4206:
.LBE4205:
.LBB4207:
.LBI4207:
	.loc 10 145 2 is_stmt 1 view .LVU2200
.LBB4208:
.LBB4209:
.LBI4209:
	.loc 13 133 7 view .LVU2201
.LBB4210:
.LBI4210:
	.loc 12 81 7 view .LVU2202
	.loc 12 81 7 is_stmt 0 view .LVU2203
.LBE4210:
.LBE4209:
	.loc 10 146 35 view .LVU2204
	movq	%rax, (%rdi)
.LVL719:
	.loc 10 146 35 view .LVU2205
.LBE4208:
.LBE4207:
.LBB4211:
.LBI4211:
	.loc 46 314 7 is_stmt 1 view .LVU2206
	.loc 46 314 7 is_stmt 0 view .LVU2207
.LBE4211:
.LBB4212:
.LBI4212:
	.loc 10 252 9 is_stmt 1 view .LVU2208
.LBB4213:
.LBB4214:
.LBI4214:
	.loc 10 232 9 view .LVU2209
.LBB4215:
	.loc 10 236 11 is_stmt 0 view .LVU2210
	movl	$.LC17+55, %edx
.LVL720:
	.loc 10 236 11 view .LVU2211
	movl	$.LC17, %esi
.LVL721:
	.loc 10 236 11 view .LVU2212
	call	_ZNSt7__cxx1112basic_stringIcSt11char_traitsIcESaIcEE12_M_constructIPKcEEvT_S8_St20forward_iterator_tag
.LVL722:
	.loc 10 236 11 view .LVU2213
.LBE4215:
.LBE4214:
.LBE4213:
.LBE4212:
.LBE4204:
.LBE4203:
.LBB4216:
.LBI4216:
	.loc 13 139 7 is_stmt 1 view .LVU2214
.LBB4217:
.LBI4217:
	.loc 12 86 7 view .LVU2215
	.loc 12 86 7 is_stmt 0 view .LVU2216
	jmp	.L331
.LBE4217:
.LBE4216:
	.cfi_endproc
.LFE5288:
	.size	_ZNK5boost4asio5error6detail14netdb_category7messageB5cxx11Ei, .-_ZNK5boost4asio5error6detail14netdb_category7messageB5cxx11Ei
	.section	.rodata._ZNK5boost4asio5error6detail13misc_category7messageB5cxx11Ei.str1.1,"aMS",@progbits,1
.LC19:
	.string	"Already open"
.LC20:
	.string	"End of file"
.LC21:
	.string	"Element not found"
	.section	.rodata._ZNK5boost4asio5error6detail13misc_category7messageB5cxx11Ei.str1.8,"aMS",@progbits,1
	.align 8
.LC22:
	.string	"The descriptor does not fit into the select call's fd_set"
	.section	.rodata._ZNK5boost4asio5error6detail13misc_category7messageB5cxx11Ei.str1.1
.LC23:
	.string	"asio.misc error"
	.section	.text._ZNK5boost4asio5error6detail13misc_category7messageB5cxx11Ei,"axG",@progbits,_ZNK5boost4asio5error6detail13misc_category7messageB5cxx11Ei,comdat
	.align 2
	.weak	_ZNK5boost4asio5error6detail13misc_category7messageB5cxx11Ei
	.type	_ZNK5boost4asio5error6detail13misc_category7messageB5cxx11Ei, @function
_ZNK5boost4asio5error6detail13misc_category7messageB5cxx11Ei:
.LVL723:
.LFB5300:
	.loc 4 102 15 is_stmt 1 view -0
	.cfi_startproc
	.loc 4 102 15 is_stmt 0 view .LVU2218
	pushq	%rbx
	.cfi_def_cfa_offset 16
	.cfi_offset 3, -16
	movq	%rdi, %rbx
	.loc 4 104 5 is_stmt 1 view .LVU2219
	cmpl	$1, %edx
	je	.L349
	.loc 4 106 5 view .LVU2220
	cmpl	$2, %edx
	je	.L350
	.loc 4 108 5 view .LVU2221
	cmpl	$3, %edx
	je	.L351
	.loc 4 110 5 view .LVU2222
	cmpl	$4, %edx
	je	.L352
	.loc 4 112 5 view .LVU2223
.LVL724:
.LBB4373:
.LBI4373:
	.loc 13 131 7 view .LVU2224
.LBB4374:
.LBI4374:
	.loc 12 79 7 view .LVU2225
	.loc 12 79 7 is_stmt 0 view .LVU2226
.LBE4374:
.LBE4373:
.LBB4375:
.LBI4375:
	.loc 10 514 7 is_stmt 1 view .LVU2227
.LBB4376:
.LBB4377:
.LBI4377:
	.loc 10 179 7 view .LVU2228
.LBB4378:
	.loc 10 182 51 is_stmt 0 view .LVU2229
	leaq	16(%rdi), %rax
.LVL725:
	.loc 10 182 51 view .LVU2230
.LBE4378:
.LBE4377:
.LBB4379:
.LBI4379:
	.loc 10 145 2 is_stmt 1 view .LVU2231
.LBB4380:
.LBB4381:
.LBI4381:
	.loc 13 133 7 view .LVU2232
.LBB4382:
.LBI4382:
	.loc 12 81 7 view .LVU2233
	.loc 12 81 7 is_stmt 0 view .LVU2234
.LBE4382:
.LBE4381:
	.loc 10 146 35 view .LVU2235
	movq	%rax, (%rdi)
.LVL726:
	.loc 10 146 35 view .LVU2236
.LBE4380:
.LBE4379:
.LBB4383:
.LBI4383:
	.loc 46 314 7 is_stmt 1 view .LVU2237
	.loc 46 314 7 is_stmt 0 view .LVU2238
.LBE4383:
.LBB4384:
.LBI4384:
	.loc 10 252 9 is_stmt 1 view .LVU2239
.LBB4385:
.LBB4386:
.LBI4386:
	.loc 10 232 9 view .LVU2240
.LBB4387:
	.loc 10 236 11 is_stmt 0 view .LVU2241
	movl	$.LC23+15, %edx
.LVL727:
	.loc 10 236 11 view .LVU2242
	movl	$.LC23, %esi
.LVL728:
	.loc 10 236 11 view .LVU2243
	call	_ZNSt7__cxx1112basic_stringIcSt11char_traitsIcESaIcEE12_M_constructIPKcEEvT_S8_St20forward_iterator_tag
.LVL729:
	.loc 10 236 11 view .LVU2244
.LBE4387:
.LBE4386:
.LBE4385:
.LBE4384:
.LBE4376:
.LBE4375:
.LBB4388:
.LBI4388:
	.loc 13 139 7 is_stmt 1 view .LVU2245
.LBB4389:
.LBI4389:
	.loc 12 86 7 view .LVU2246
.L342:
	.loc 12 86 7 is_stmt 0 view .LVU2247
.LBE4389:
.LBE4388:
	.loc 4 113 3 view .LVU2248
	movq	%rbx, %rax
	popq	%rbx
	.cfi_remember_state
	.cfi_def_cfa_offset 8
.LVL730:
	.loc 4 113 3 view .LVU2249
	ret
.LVL731:
.L349:
	.cfi_restore_state
	.loc 4 105 7 is_stmt 1 view .LVU2250
.LBB4390:
.LBI4390:
	.loc 13 131 7 view .LVU2251
.LBB4391:
.LBI4391:
	.loc 12 79 7 view .LVU2252
	.loc 12 79 7 is_stmt 0 view .LVU2253
.LBE4391:
.LBE4390:
.LBB4392:
.LBI4392:
	.loc 10 514 7 is_stmt 1 view .LVU2254
.LBB4393:
.LBB4394:
.LBI4394:
	.loc 10 179 7 view .LVU2255
.LBB4395:
	.loc 10 182 51 is_stmt 0 view .LVU2256
	leaq	16(%rdi), %rax
.LVL732:
	.loc 10 182 51 view .LVU2257
.LBE4395:
.LBE4394:
.LBB4396:
.LBI4396:
	.loc 10 145 2 is_stmt 1 view .LVU2258
.LBB4397:
.LBB4398:
.LBI4398:
	.loc 13 133 7 view .LVU2259
.LBB4399:
.LBI4399:
	.loc 12 81 7 view .LVU2260
	.loc 12 81 7 is_stmt 0 view .LVU2261
.LBE4399:
.LBE4398:
	.loc 10 146 35 view .LVU2262
	movq	%rax, (%rdi)
.LVL733:
	.loc 10 146 35 view .LVU2263
.LBE4397:
.LBE4396:
.LBB4400:
.LBI4400:
	.loc 46 314 7 is_stmt 1 view .LVU2264
	.loc 46 314 7 is_stmt 0 view .LVU2265
.LBE4400:
.LBB4401:
.LBI4401:
	.loc 10 252 9 is_stmt 1 view .LVU2266
.LBB4402:
.LBB4403:
.LBI4403:
	.loc 10 232 9 view .LVU2267
.LBB4404:
	.loc 10 236 11 is_stmt 0 view .LVU2268
	movl	$.LC19+12, %edx
.LVL734:
	.loc 10 236 11 view .LVU2269
	movl	$.LC19, %esi
.LVL735:
	.loc 10 236 11 view .LVU2270
	call	_ZNSt7__cxx1112basic_stringIcSt11char_traitsIcESaIcEE12_M_constructIPKcEEvT_S8_St20forward_iterator_tag
.LVL736:
	.loc 10 236 11 view .LVU2271
.LBE4404:
.LBE4403:
.LBE4402:
.LBE4401:
.LBE4393:
.LBE4392:
.LBB4405:
.LBI4405:
	.loc 13 139 7 is_stmt 1 view .LVU2272
.LBB4406:
.LBI4406:
	.loc 12 86 7 view .LVU2273
	.loc 12 86 7 is_stmt 0 view .LVU2274
	jmp	.L342
.LVL737:
.L350:
	.loc 12 86 7 view .LVU2275
.LBE4406:
.LBE4405:
	.loc 4 107 7 is_stmt 1 view .LVU2276
.LBB4407:
.LBI4407:
	.loc 13 131 7 view .LVU2277
.LBB4408:
.LBI4408:
	.loc 12 79 7 view .LVU2278
	.loc 12 79 7 is_stmt 0 view .LVU2279
.LBE4408:
.LBE4407:
.LBB4409:
.LBI4409:
	.loc 10 514 7 is_stmt 1 view .LVU2280
.LBB4410:
.LBB4411:
.LBI4411:
	.loc 10 179 7 view .LVU2281
.LBB4412:
	.loc 10 182 51 is_stmt 0 view .LVU2282
	leaq	16(%rdi), %rax
.LVL738:
	.loc 10 182 51 view .LVU2283
.LBE4412:
.LBE4411:
.LBB4413:
.LBI4413:
	.loc 10 145 2 is_stmt 1 view .LVU2284
.LBB4414:
.LBB4415:
.LBI4415:
	.loc 13 133 7 view .LVU2285
.LBB4416:
.LBI4416:
	.loc 12 81 7 view .LVU2286
	.loc 12 81 7 is_stmt 0 view .LVU2287
.LBE4416:
.LBE4415:
	.loc 10 146 35 view .LVU2288
	movq	%rax, (%rdi)
.LVL739:
	.loc 10 146 35 view .LVU2289
.LBE4414:
.LBE4413:
.LBB4417:
.LBI4417:
	.loc 46 314 7 is_stmt 1 view .LVU2290
	.loc 46 314 7 is_stmt 0 view .LVU2291
.LBE4417:
.LBB4418:
.LBI4418:
	.loc 10 252 9 is_stmt 1 view .LVU2292
.LBB4419:
.LBB4420:
.LBI4420:
	.loc 10 232 9 view .LVU2293
.LBB4421:
	.loc 10 236 11 is_stmt 0 view .LVU2294
	movl	$.LC20+11, %edx
.LVL740:
	.loc 10 236 11 view .LVU2295
	movl	$.LC20, %esi
.LVL741:
	.loc 10 236 11 view .LVU2296
	call	_ZNSt7__cxx1112basic_stringIcSt11char_traitsIcESaIcEE12_M_constructIPKcEEvT_S8_St20forward_iterator_tag
.LVL742:
	.loc 10 236 11 view .LVU2297
.LBE4421:
.LBE4420:
.LBE4419:
.LBE4418:
.LBE4410:
.LBE4409:
.LBB4422:
.LBI4422:
	.loc 13 139 7 is_stmt 1 view .LVU2298
.LBB4423:
.LBI4423:
	.loc 12 86 7 view .LVU2299
	.loc 12 86 7 is_stmt 0 view .LVU2300
	jmp	.L342
.LVL743:
.L351:
	.loc 12 86 7 view .LVU2301
.LBE4423:
.LBE4422:
	.loc 4 109 7 is_stmt 1 view .LVU2302
.LBB4424:
.LBI4424:
	.loc 13 131 7 view .LVU2303
.LBB4425:
.LBI4425:
	.loc 12 79 7 view .LVU2304
	.loc 12 79 7 is_stmt 0 view .LVU2305
.LBE4425:
.LBE4424:
.LBB4426:
.LBI4426:
	.loc 10 514 7 is_stmt 1 view .LVU2306
.LBB4427:
.LBB4428:
.LBI4428:
	.loc 10 179 7 view .LVU2307
.LBB4429:
	.loc 10 182 51 is_stmt 0 view .LVU2308
	leaq	16(%rdi), %rax
.LVL744:
	.loc 10 182 51 view .LVU2309
.LBE4429:
.LBE4428:
.LBB4430:
.LBI4430:
	.loc 10 145 2 is_stmt 1 view .LVU2310
.LBB4431:
.LBB4432:
.LBI4432:
	.loc 13 133 7 view .LVU2311
.LBB4433:
.LBI4433:
	.loc 12 81 7 view .LVU2312
	.loc 12 81 7 is_stmt 0 view .LVU2313
.LBE4433:
.LBE4432:
	.loc 10 146 35 view .LVU2314
	movq	%rax, (%rdi)
.LVL745:
	.loc 10 146 35 view .LVU2315
.LBE4431:
.LBE4430:
.LBB4434:
.LBI4434:
	.loc 46 314 7 is_stmt 1 view .LVU2316
	.loc 46 314 7 is_stmt 0 view .LVU2317
.LBE4434:
.LBB4435:
.LBI4435:
	.loc 10 252 9 is_stmt 1 view .LVU2318
.LBB4436:
.LBB4437:
.LBI4437:
	.loc 10 232 9 view .LVU2319
.LBB4438:
	.loc 10 236 11 is_stmt 0 view .LVU2320
	movl	$.LC21+17, %edx
.LVL746:
	.loc 10 236 11 view .LVU2321
	movl	$.LC21, %esi
.LVL747:
	.loc 10 236 11 view .LVU2322
	call	_ZNSt7__cxx1112basic_stringIcSt11char_traitsIcESaIcEE12_M_constructIPKcEEvT_S8_St20forward_iterator_tag
.LVL748:
	.loc 10 236 11 view .LVU2323
.LBE4438:
.LBE4437:
.LBE4436:
.LBE4435:
.LBE4427:
.LBE4426:
.LBB4439:
.LBI4439:
	.loc 13 139 7 is_stmt 1 view .LVU2324
.LBB4440:
.LBI4440:
	.loc 12 86 7 view .LVU2325
	.loc 12 86 7 is_stmt 0 view .LVU2326
	jmp	.L342
.LVL749:
.L352:
	.loc 12 86 7 view .LVU2327
.LBE4440:
.LBE4439:
	.loc 4 111 7 is_stmt 1 view .LVU2328
.LBB4441:
.LBI4441:
	.loc 13 131 7 view .LVU2329
.LBB4442:
.LBI4442:
	.loc 12 79 7 view .LVU2330
	.loc 12 79 7 is_stmt 0 view .LVU2331
.LBE4442:
.LBE4441:
.LBB4443:
.LBI4443:
	.loc 10 514 7 is_stmt 1 view .LVU2332
.LBB4444:
.LBB4445:
.LBI4445:
	.loc 10 179 7 view .LVU2333
.LBB4446:
	.loc 10 182 51 is_stmt 0 view .LVU2334
	leaq	16(%rdi), %rax
.LVL750:
	.loc 10 182 51 view .LVU2335
.LBE4446:
.LBE4445:
.LBB4447:
.LBI4447:
	.loc 10 145 2 is_stmt 1 view .LVU2336
.LBB4448:
.LBB4449:
.LBI4449:
	.loc 13 133 7 view .LVU2337
.LBB4450:
.LBI4450:
	.loc 12 81 7 view .LVU2338
	.loc 12 81 7 is_stmt 0 view .LVU2339
.LBE4450:
.LBE4449:
	.loc 10 146 35 view .LVU2340
	movq	%rax, (%rdi)
.LVL751:
	.loc 10 146 35 view .LVU2341
.LBE4448:
.LBE4447:
.LBB4451:
.LBI4451:
	.loc 46 314 7 is_stmt 1 view .LVU2342
	.loc 46 314 7 is_stmt 0 view .LVU2343
.LBE4451:
.LBB4452:
.LBI4452:
	.loc 10 252 9 is_stmt 1 view .LVU2344
.LBB4453:
.LBB4454:
.LBI4454:
	.loc 10 232 9 view .LVU2345
.LBB4455:
	.loc 10 236 11 is_stmt 0 view .LVU2346
	movl	$.LC22+57, %edx
.LVL752:
	.loc 10 236 11 view .LVU2347
	movl	$.LC22, %esi
.LVL753:
	.loc 10 236 11 view .LVU2348
	call	_ZNSt7__cxx1112basic_stringIcSt11char_traitsIcESaIcEE12_M_constructIPKcEEvT_S8_St20forward_iterator_tag
.LVL754:
	.loc 10 236 11 view .LVU2349
.LBE4455:
.LBE4454:
.LBE4453:
.LBE4452:
.LBE4444:
.LBE4443:
.LBB4456:
.LBI4456:
	.loc 13 139 7 is_stmt 1 view .LVU2350
.LBB4457:
.LBI4457:
	.loc 12 86 7 view .LVU2351
	.loc 12 86 7 is_stmt 0 view .LVU2352
	jmp	.L342
.LBE4457:
.LBE4456:
	.cfi_endproc
.LFE5300:
	.size	_ZNK5boost4asio5error6detail13misc_category7messageB5cxx11Ei, .-_ZNK5boost4asio5error6detail13misc_category7messageB5cxx11Ei
	.text
	.type	_GLOBAL__sub_I__ZN3mpp10ReqHandler9handleReqERKNS_7RequestERNS_5ReplyE, @function
_GLOBAL__sub_I__ZN3mpp10ReqHandler9handleReqERKNS_7RequestERNS_5ReplyE:
.LFB14113:
	.loc 14 13 1 is_stmt 1 view -0
	.cfi_startproc
	subq	$8, %rsp
	.cfi_def_cfa_offset 16
	.loc 14 13 1 is_stmt 0 view .LVU2354
	movl	$65535, %esi
	movl	$1, %edi
	call	_Z41__static_initialization_and_destruction_0ii
.LVL755:
	addq	$8, %rsp
	.cfi_def_cfa_offset 8
	ret
	.cfi_endproc
.LFE14113:
	.size	_GLOBAL__sub_I__ZN3mpp10ReqHandler9handleReqERKNS_7RequestERNS_5ReplyE, .-_GLOBAL__sub_I__ZN3mpp10ReqHandler9handleReqERKNS_7RequestERNS_5ReplyE
	.section	.init_array,"aw"
	.align 8
	.quad	_GLOBAL__sub_I__ZN3mpp10ReqHandler9handleReqERKNS_7RequestERNS_5ReplyE
	.section	.rodata._ZNK5boost6system12system_error4whatEv.str1.1,"aMS",@progbits,1
.LC24:
	.string	"basic_string::append"
.LC25:
	.string	": "
	.section	.text._ZNK5boost6system12system_error4whatEv,"axG",@progbits,_ZNK5boost6system12system_error4whatEv,comdat
	.align 2
	.weak	_ZNK5boost6system12system_error4whatEv
	.type	_ZNK5boost6system12system_error4whatEv, @function
_ZNK5boost6system12system_error4whatEv:
.LVL756:
.LFB5278:
	.loc 9 61 5 is_stmt 1 view -0
	.cfi_startproc
	.cfi_personality 0x3,__gxx_personality_v0
	.cfi_lsda 0x3,.LLSDA5278
	.loc 9 61 5 is_stmt 0 view .LVU2356
	pushq	%rbp
	.cfi_def_cfa_offset 16
	.cfi_offset 6, -16
	pushq	%rbx
	.cfi_def_cfa_offset 24
	.cfi_offset 3, -24
	subq	$40, %rsp
	.cfi_def_cfa_offset 64
	movq	%rdi, %rbx
	.loc 9 62 7 is_stmt 1 view .LVU2357
.LVL757:
.LBB4536:
.LBI4536:
	.loc 10 1022 7 view .LVU2358
.LBB4537:
.LBI4537:
	.loc 10 921 7 view .LVU2359
	.loc 10 921 7 is_stmt 0 view .LVU2360
.LBE4537:
.LBE4536:
	.loc 9 62 7 view .LVU2361
	cmpq	$0, 40(%rdi)
	je	.L367
.LVL758:
.L356:
	.loc 9 76 7 is_stmt 1 view .LVU2362
.LBB4538:
.LBI4538:
	.loc 10 2281 7 view .LVU2363
.LBB4539:
.LBI4539:
	.loc 10 175 7 view .LVU2364
.LBB4540:
	.loc 10 176 28 is_stmt 0 view .LVU2365
	movq	32(%rbx), %rbx
.LVL759:
.L355:
	.loc 10 176 28 view .LVU2366
.LBE4540:
.LBE4539:
.LBE4538:
	.loc 9 77 5 view .LVU2367
	movq	%rbx, %rax
	addq	$40, %rsp
	.cfi_remember_state
	.cfi_def_cfa_offset 24
	popq	%rbx
	.cfi_def_cfa_offset 16
	popq	%rbp
	.cfi_def_cfa_offset 8
	ret
.LVL760:
.L367:
	.cfi_restore_state
	.loc 9 65 9 is_stmt 1 view .LVU2368
	.loc 9 68 11 view .LVU2369
	.loc 9 68 51 is_stmt 0 view .LVU2370
	call	_ZNKSt13runtime_error4whatEv
.LVL761:
	movq	%rax, %rsi
	leaq	32(%rbx), %rbp
.LVL762:
.LBB4541:
.LBI4541:
	.loc 10 703 7 is_stmt 1 view .LVU2371
.LBB4542:
.LBI4542:
	.loc 10 1426 7 view .LVU2372
.LBB4543:
.LBB4544:
.LBI4544:
	.loc 46 314 7 view .LVU2373
.LBB4545:
	.loc 46 320 2 view .LVU2374
	.loc 46 320 25 is_stmt 0 view .LVU2375
	movq	$-1, %rcx
	movl	$0, %eax
.LVL763:
	.loc 46 320 25 view .LVU2376
	movq	%rsi, %rdi
	repnz scasb
	notq	%rcx
.LVL764:
	.loc 46 320 25 view .LVU2377
.LBE4545:
.LBE4544:
.LBB4546:
.LBI4546:
	.loc 10 921 7 is_stmt 1 view .LVU2378
.LBB4547:
	.loc 10 922 16 is_stmt 0 view .LVU2379
	movq	8(%rbp), %rdx
.LVL765:
	.loc 10 922 16 view .LVU2380
.LBE4547:
.LBE4546:
	.loc 10 1430 30 view .LVU2381
	leaq	-1(%rcx), %r8
	movq	%rsi, %rcx
	movl	$0, %esi
.LVL766:
	.loc 10 1430 30 view .LVU2382
	movq	%rbp, %rdi
.LEHB3:
	call	_ZNSt7__cxx1112basic_stringIcSt11char_traitsIcESaIcEE10_M_replaceEmmPKcm
.LVL767:
	.loc 10 1430 30 view .LVU2383
.LBE4543:
.LBE4542:
.LBE4541:
	.loc 9 69 11 is_stmt 1 view .LVU2384
.LBB4548:
.LBI4548:
	.loc 10 1022 7 view .LVU2385
.LBB4549:
.LBI4549:
	.loc 10 921 7 view .LVU2386
	.loc 10 921 7 is_stmt 0 view .LVU2387
.LBE4549:
.LBE4548:
	.loc 9 69 11 view .LVU2388
	cmpq	$0, 40(%rbx)
	jne	.L368
.L357:
	.loc 9 70 11 is_stmt 1 view .LVU2389
.LVL768:
.LBB4550:
.LBI4550:
	.loc 1 639 17 view .LVU2390
.LBB4551:
	.loc 1 641 9 view .LVU2391
	.loc 1 641 16 is_stmt 0 view .LVU2392
	movq	24(%rbx), %rsi
.LVL769:
.LBB4552:
.LBI4552:
	.loc 1 624 19 is_stmt 1 view .LVU2393
.LBB4553:
	.loc 1 626 9 view .LVU2394
	.loc 1 626 16 is_stmt 0 view .LVU2395
	movl	16(%rbx), %edx
.LVL770:
	.loc 1 626 16 view .LVU2396
.LBE4553:
.LBE4552:
	.loc 1 641 39 view .LVU2397
	movq	(%rsi), %rax
	movq	%rsp, %rdi
	call	*32(%rax)
.LVL771:
	jmp	.L369
.LVL772:
.L368:
	.loc 1 641 39 view .LVU2398
.LBE4551:
.LBE4550:
.LBB4554:
.LBB4555:
.LBB4556:
.LBB4557:
.LBI4557:
	.loc 10 309 7 is_stmt 1 view .LVU2399
.LBB4558:
.LBB4559:
.LBI4559:
	.loc 10 921 7 view .LVU2400
	.loc 10 921 7 is_stmt 0 view .LVU2401
.LBE4559:
	.loc 10 311 2 view .LVU2402
	movabsq	$9223372036854775807, %rax
	subq	8(%rbp), %rax
	cmpq	$1, %rax
	jbe	.L370
.LVL773:
	.loc 10 311 2 view .LVU2403
.LBE4558:
.LBE4557:
	.loc 10 1259 27 view .LVU2404
	movl	$2, %edx
	movl	$.LC25, %esi
	movq	%rbp, %rdi
	call	_ZNSt7__cxx1112basic_stringIcSt11char_traitsIcESaIcEE9_M_appendEPKcm
.LVL774:
	jmp	.L357
.LVL775:
.L370:
.LBB4561:
.LBB4560:
	.loc 10 312 24 view .LVU2405
	movl	$.LC24, %edi
	call	_ZSt20__throw_length_errorPKc
.LVL776:
.LEHE3:
.L364:
	.loc 10 312 24 view .LVU2406
	jmp	.L362
.LVL777:
.L369:
	.loc 10 312 24 view .LVU2407
.LBE4560:
.LBE4561:
.LBE4556:
.LBE4555:
.LBE4554:
.LBB4562:
.LBI4562:
	.loc 10 1159 7 is_stmt 1 discriminator 1 view .LVU2408
.LBB4563:
.LBI4563:
	.loc 10 1212 7 discriminator 1 view .LVU2409
.LBB4564:
.LBB4565:
.LBI4565:
	.loc 10 921 7 discriminator 1 view .LVU2410
	.loc 10 921 7 is_stmt 0 discriminator 1 view .LVU2411
.LBE4565:
.LBB4566:
.LBI4566:
	.loc 10 175 7 is_stmt 1 discriminator 1 view .LVU2412
	.loc 10 175 7 is_stmt 0 discriminator 1 view .LVU2413
.LBE4566:
	.loc 10 1213 55 discriminator 1 view .LVU2414
	movq	8(%rsp), %rdx
	movq	(%rsp), %rsi
	movq	%rbp, %rdi
.LEHB4:
	call	_ZNSt7__cxx1112basic_stringIcSt11char_traitsIcESaIcEE9_M_appendEPKcm
.LVL778:
.LEHE4:
	.loc 10 1213 55 discriminator 1 view .LVU2415
.LBE4564:
.LBE4563:
.LBE4562:
.LBB4567:
.LBI4567:
	.loc 10 656 7 is_stmt 1 view .LVU2416
.LBB4568:
.LBI4568:
	.loc 10 218 7 view .LVU2417
.LBB4569:
.LBB4570:
.LBI4570:
	.loc 10 210 7 view .LVU2418
.LBB4571:
.LBI4571:
	.loc 10 175 7 view .LVU2419
.LBB4572:
	.loc 10 176 28 is_stmt 0 view .LVU2420
	movq	(%rsp), %rdi
.LVL779:
	.loc 10 176 28 view .LVU2421
.LBE4572:
.LBE4571:
.LBB4573:
.LBI4573:
	.loc 10 189 7 is_stmt 1 view .LVU2422
	.loc 10 189 7 is_stmt 0 view .LVU2423
.LBE4573:
.LBE4570:
	.loc 10 220 2 view .LVU2424
	leaq	16(%rsp), %rax
	cmpq	%rax, %rdi
	je	.L356
.LVL780:
.LBB4574:
.LBI4574:
	.loc 10 225 7 is_stmt 1 view .LVU2425
.LBB4575:
.LBI4575:
	.loc 11 461 7 view .LVU2426
.LBB4576:
.LBI4576:
	.loc 12 116 7 view .LVU2427
.LBB4577:
	.loc 12 125 19 is_stmt 0 view .LVU2428
	call	_ZdlPv
.LVL781:
	.loc 12 125 19 view .LVU2429
.LBE4577:
.LBE4576:
.LBE4575:
.LBE4574:
.LBE4569:
.LBE4568:
.LBB4578:
.LBI4578:
	.loc 10 139 14 is_stmt 1 view .LVU2430
.LBB4579:
.LBI4579:
	.loc 13 139 7 view .LVU2431
.LBB4580:
.LBI4580:
	.loc 12 86 7 view .LVU2432
	.loc 12 86 7 is_stmt 0 view .LVU2433
	jmp	.L356
.LVL782:
.L365:
	.loc 12 86 7 view .LVU2434
	movq	%rax, %rbp
.LVL783:
	.loc 12 86 7 view .LVU2435
.LBE4580:
.LBE4579:
.LBE4578:
.LBE4567:
.LBB4581:
.LBI4581:
	.loc 10 656 7 is_stmt 1 view .LVU2436
.LBB4582:
.LBI4582:
	.loc 10 218 7 view .LVU2437
.LBB4583:
.LBB4584:
.LBI4584:
	.loc 10 210 7 view .LVU2438
.LBB4585:
.LBI4585:
	.loc 10 175 7 view .LVU2439
.LBB4586:
	.loc 10 176 28 is_stmt 0 view .LVU2440
	movq	(%rsp), %rdi
.LVL784:
	.loc 10 176 28 view .LVU2441
.LBE4586:
.LBE4585:
.LBB4587:
.LBI4587:
	.loc 10 189 7 is_stmt 1 view .LVU2442
	.loc 10 189 7 is_stmt 0 view .LVU2443
.LBE4587:
.LBE4584:
	.loc 10 220 2 view .LVU2444
	leaq	16(%rsp), %rax
	cmpq	%rax, %rdi
	je	.L361
.LVL785:
.LBB4588:
.LBI4588:
	.loc 10 225 7 is_stmt 1 view .LVU2445
.LBB4589:
.LBI4589:
	.loc 11 461 7 view .LVU2446
.LBB4590:
.LBI4590:
	.loc 12 116 7 view .LVU2447
.LBB4591:
	.loc 12 125 19 is_stmt 0 view .LVU2448
	call	_ZdlPv
.LVL786:
.L361:
	.loc 12 125 19 view .LVU2449
.LBE4591:
.LBE4590:
.LBE4589:
.LBE4588:
.LBE4583:
.LBE4582:
.LBB4592:
.LBI4592:
	.loc 10 139 14 is_stmt 1 view .LVU2450
.LBB4593:
.LBI4593:
	.loc 13 139 7 view .LVU2451
.LBB4594:
.LBI4594:
	.loc 12 86 7 view .LVU2452
	.loc 12 86 7 is_stmt 0 view .LVU2453
	movq	%rbp, %rax
.LVL787:
.L362:
	.loc 12 86 7 view .LVU2454
.LBE4594:
.LBE4593:
.LBE4592:
.LBE4581:
	.loc 9 73 16 view .LVU2455
	movq	%rax, %rdi
	call	__cxa_begin_catch
.LVL788:
	.loc 9 73 23 is_stmt 1 view .LVU2456
	.loc 9 73 54 is_stmt 0 view .LVU2457
	movq	%rbx, %rdi
	call	_ZNKSt13runtime_error4whatEv
.LVL789:
	movq	%rax, %rbx
.LVL790:
	.loc 9 73 16 view .LVU2458
	call	__cxa_end_catch
.LVL791:
	jmp	.L355
	.cfi_endproc
.LFE5278:
	.section	.gcc_except_table._ZNK5boost6system12system_error4whatEv,"aG",@progbits,_ZNK5boost6system12system_error4whatEv,comdat
	.align 4
.LLSDA5278:
	.byte	0xff
	.byte	0x3
	.uleb128 .LLSDATT5278-.LLSDATTD5278
.LLSDATTD5278:
	.byte	0x1
	.uleb128 .LLSDACSE5278-.LLSDACSB5278
.LLSDACSB5278:
	.uleb128 .LEHB3-.LFB5278
	.uleb128 .LEHE3-.LEHB3
	.uleb128 .L364-.LFB5278
	.uleb128 0x1
	.uleb128 .LEHB4-.LFB5278
	.uleb128 .LEHE4-.LEHB4
	.uleb128 .L365-.LFB5278
	.uleb128 0x3
.LLSDACSE5278:
	.byte	0x1
	.byte	0
	.byte	0
	.byte	0x7d
	.align 4
	.long	0

.LLSDATT5278:
	.section	.text._ZNK5boost6system12system_error4whatEv,"axG",@progbits,_ZNK5boost6system12system_error4whatEv,comdat
	.size	_ZNK5boost6system12system_error4whatEv, .-_ZNK5boost6system12system_error4whatEv
	.section	.rodata
	.align 32
	.type	_ZZN5boost4asio6detail11posix_event10signal_allINS1_27conditionally_enabled_mutex11scoped_lockEEEvRT_E19__PRETTY_FUNCTION__, @object
	.size	_ZZN5boost4asio6detail11posix_event10signal_allINS1_27conditionally_enabled_mutex11scoped_lockEEEvRT_E19__PRETTY_FUNCTION__, 133
_ZZN5boost4asio6detail11posix_event10signal_allINS1_27conditionally_enabled_mutex11scoped_lockEEEvRT_E19__PRETTY_FUNCTION__:
	.string	"void boost::asio::detail::posix_event::signal_all(Lock&) [with Lock = boost::asio::detail::conditionally_enabled_mutex::scoped_lock]"
	.weak	_ZN5boost4asio6detail17posix_global_implINS0_14system_contextEE11static_ptr_E
	.section	.bss._ZN5boost4asio6detail17posix_global_implINS0_14system_contextEE11static_ptr_E,"awG",@nobits,_ZN5boost4asio6detail17posix_global_implINS0_14system_contextEE11static_ptr_E,comdat
	.align 8
	.type	_ZN5boost4asio6detail17posix_global_implINS0_14system_contextEE11static_ptr_E, @gnu_unique_object
	.size	_ZN5boost4asio6detail17posix_global_implINS0_14system_contextEE11static_ptr_E, 8
_ZN5boost4asio6detail17posix_global_implINS0_14system_contextEE11static_ptr_E:
	.zero	8
	.weak	_ZGVN5boost4asio6detail30execution_context_service_baseINS1_13epoll_reactorEE2idE
	.section	.bss._ZGVN5boost4asio6detail30execution_context_service_baseINS1_13epoll_reactorEE2idE,"awG",@nobits,_ZGVN5boost4asio6detail30execution_context_service_baseINS1_13epoll_reactorEE2idE,comdat
	.align 8
	.type	_ZGVN5boost4asio6detail30execution_context_service_baseINS1_13epoll_reactorEE2idE, @gnu_unique_object
	.size	_ZGVN5boost4asio6detail30execution_context_service_baseINS1_13epoll_reactorEE2idE, 8
_ZGVN5boost4asio6detail30execution_context_service_baseINS1_13epoll_reactorEE2idE:
	.zero	8
	.weak	_ZGVN5boost4asio6detail30execution_context_service_baseINS1_9schedulerEE2idE
	.section	.bss._ZGVN5boost4asio6detail30execution_context_service_baseINS1_9schedulerEE2idE,"awG",@nobits,_ZGVN5boost4asio6detail30execution_context_service_baseINS1_9schedulerEE2idE,comdat
	.align 8
	.type	_ZGVN5boost4asio6detail30execution_context_service_baseINS1_9schedulerEE2idE, @gnu_unique_object
	.size	_ZGVN5boost4asio6detail30execution_context_service_baseINS1_9schedulerEE2idE, 8
_ZGVN5boost4asio6detail30execution_context_service_baseINS1_9schedulerEE2idE:
	.zero	8
	.weak	_ZGVN5boost4asio6detail17posix_global_implINS0_14system_contextEE9instance_E
	.section	.bss._ZGVN5boost4asio6detail17posix_global_implINS0_14system_contextEE9instance_E,"awG",@nobits,_ZGVN5boost4asio6detail17posix_global_implINS0_14system_contextEE9instance_E,comdat
	.align 8
	.type	_ZGVN5boost4asio6detail17posix_global_implINS0_14system_contextEE9instance_E, @gnu_unique_object
	.size	_ZGVN5boost4asio6detail17posix_global_implINS0_14system_contextEE9instance_E, 8
_ZGVN5boost4asio6detail17posix_global_implINS0_14system_contextEE9instance_E:
	.zero	8
	.weak	_ZGVN5boost4asio6detail10call_stackINS1_23strand_executor_service11strand_implEhE4top_E
	.section	.bss._ZGVN5boost4asio6detail10call_stackINS1_23strand_executor_service11strand_implEhE4top_E,"awG",@nobits,_ZGVN5boost4asio6detail10call_stackINS1_23strand_executor_service11strand_implEhE4top_E,comdat
	.align 8
	.type	_ZGVN5boost4asio6detail10call_stackINS1_23strand_executor_service11strand_implEhE4top_E, @gnu_unique_object
	.size	_ZGVN5boost4asio6detail10call_stackINS1_23strand_executor_service11strand_implEhE4top_E, 8
_ZGVN5boost4asio6detail10call_stackINS1_23strand_executor_service11strand_implEhE4top_E:
	.zero	8
	.weak	_ZGVN5boost4asio6detail12service_baseINS1_14strand_serviceEE2idE
	.section	.bss._ZGVN5boost4asio6detail12service_baseINS1_14strand_serviceEE2idE,"awG",@nobits,_ZGVN5boost4asio6detail12service_baseINS1_14strand_serviceEE2idE,comdat
	.align 8
	.type	_ZGVN5boost4asio6detail12service_baseINS1_14strand_serviceEE2idE, @gnu_unique_object
	.size	_ZGVN5boost4asio6detail12service_baseINS1_14strand_serviceEE2idE, 8
_ZGVN5boost4asio6detail12service_baseINS1_14strand_serviceEE2idE:
	.zero	8
	.weak	_ZGVN5boost4asio6detail10call_stackINS1_14strand_service11strand_implEhE4top_E
	.section	.bss._ZGVN5boost4asio6detail10call_stackINS1_14strand_service11strand_implEhE4top_E,"awG",@nobits,_ZGVN5boost4asio6detail10call_stackINS1_14strand_service11strand_implEhE4top_E,comdat
	.align 8
	.type	_ZGVN5boost4asio6detail10call_stackINS1_14strand_service11strand_implEhE4top_E, @gnu_unique_object
	.size	_ZGVN5boost4asio6detail10call_stackINS1_14strand_service11strand_implEhE4top_E, 8
_ZGVN5boost4asio6detail10call_stackINS1_14strand_service11strand_implEhE4top_E:
	.zero	8
	.weak	_ZGVN5boost4asio6detail10call_stackINS1_14thread_contextENS1_16thread_info_baseEE4top_E
	.section	.bss._ZGVN5boost4asio6detail10call_stackINS1_14thread_contextENS1_16thread_info_baseEE4top_E,"awG",@nobits,_ZGVN5boost4asio6detail10call_stackINS1_14thread_contextENS1_16thread_info_baseEE4top_E,comdat
	.align 8
	.type	_ZGVN5boost4asio6detail10call_stackINS1_14thread_contextENS1_16thread_info_baseEE4top_E, @gnu_unique_object
	.size	_ZGVN5boost4asio6detail10call_stackINS1_14thread_contextENS1_16thread_info_baseEE4top_E, 8
_ZGVN5boost4asio6detail10call_stackINS1_14thread_contextENS1_16thread_info_baseEE4top_E:
	.zero	8
	.weak	_ZN5boost4asio6detail30execution_context_service_baseINS1_13epoll_reactorEE2idE
	.section	.bss._ZN5boost4asio6detail30execution_context_service_baseINS1_13epoll_reactorEE2idE,"awG",@nobits,_ZN5boost4asio6detail30execution_context_service_baseINS1_13epoll_reactorEE2idE,comdat
	.type	_ZN5boost4asio6detail30execution_context_service_baseINS1_13epoll_reactorEE2idE, @gnu_unique_object
	.size	_ZN5boost4asio6detail30execution_context_service_baseINS1_13epoll_reactorEE2idE, 1
_ZN5boost4asio6detail30execution_context_service_baseINS1_13epoll_reactorEE2idE:
	.zero	1
	.weak	_ZN5boost4asio6detail30execution_context_service_baseINS1_9schedulerEE2idE
	.section	.bss._ZN5boost4asio6detail30execution_context_service_baseINS1_9schedulerEE2idE,"awG",@nobits,_ZN5boost4asio6detail30execution_context_service_baseINS1_9schedulerEE2idE,comdat
	.type	_ZN5boost4asio6detail30execution_context_service_baseINS1_9schedulerEE2idE, @gnu_unique_object
	.size	_ZN5boost4asio6detail30execution_context_service_baseINS1_9schedulerEE2idE, 1
_ZN5boost4asio6detail30execution_context_service_baseINS1_9schedulerEE2idE:
	.zero	1
	.weak	_ZN5boost4asio6detail17posix_global_implINS0_14system_contextEE9instance_E
	.section	.bss._ZN5boost4asio6detail17posix_global_implINS0_14system_contextEE9instance_E,"awG",@nobits,_ZN5boost4asio6detail17posix_global_implINS0_14system_contextEE9instance_E,comdat
	.align 8
	.type	_ZN5boost4asio6detail17posix_global_implINS0_14system_contextEE9instance_E, @gnu_unique_object
	.size	_ZN5boost4asio6detail17posix_global_implINS0_14system_contextEE9instance_E, 8
_ZN5boost4asio6detail17posix_global_implINS0_14system_contextEE9instance_E:
	.zero	8
	.weak	_ZN5boost4asio6detail10call_stackINS1_23strand_executor_service11strand_implEhE4top_E
	.section	.bss._ZN5boost4asio6detail10call_stackINS1_23strand_executor_service11strand_implEhE4top_E,"awG",@nobits,_ZN5boost4asio6detail10call_stackINS1_23strand_executor_service11strand_implEhE4top_E,comdat
	.type	_ZN5boost4asio6detail10call_stackINS1_23strand_executor_service11strand_implEhE4top_E, @gnu_unique_object
	.size	_ZN5boost4asio6detail10call_stackINS1_23strand_executor_service11strand_implEhE4top_E, 1
_ZN5boost4asio6detail10call_stackINS1_23strand_executor_service11strand_implEhE4top_E:
	.zero	1
	.weak	_ZN5boost4asio6detail12service_baseINS1_14strand_serviceEE2idE
	.section	.bss._ZN5boost4asio6detail12service_baseINS1_14strand_serviceEE2idE,"awG",@nobits,_ZN5boost4asio6detail12service_baseINS1_14strand_serviceEE2idE,comdat
	.type	_ZN5boost4asio6detail12service_baseINS1_14strand_serviceEE2idE, @gnu_unique_object
	.size	_ZN5boost4asio6detail12service_baseINS1_14strand_serviceEE2idE, 1
_ZN5boost4asio6detail12service_baseINS1_14strand_serviceEE2idE:
	.zero	1
	.weak	_ZN5boost4asio6detail10call_stackINS1_14strand_service11strand_implEhE4top_E
	.section	.bss._ZN5boost4asio6detail10call_stackINS1_14strand_service11strand_implEhE4top_E,"awG",@nobits,_ZN5boost4asio6detail10call_stackINS1_14strand_service11strand_implEhE4top_E,comdat
	.type	_ZN5boost4asio6detail10call_stackINS1_14strand_service11strand_implEhE4top_E, @gnu_unique_object
	.size	_ZN5boost4asio6detail10call_stackINS1_14strand_service11strand_implEhE4top_E, 1
_ZN5boost4asio6detail10call_stackINS1_14strand_service11strand_implEhE4top_E:
	.zero	1
	.weak	_ZN5boost4asio6detail10call_stackINS1_14thread_contextENS1_16thread_info_baseEE4top_E
	.section	.bss._ZN5boost4asio6detail10call_stackINS1_14thread_contextENS1_16thread_info_baseEE4top_E,"awG",@nobits,_ZN5boost4asio6detail10call_stackINS1_14thread_contextENS1_16thread_info_baseEE4top_E,comdat
	.type	_ZN5boost4asio6detail10call_stackINS1_14thread_contextENS1_16thread_info_baseEE4top_E, @gnu_unique_object
	.size	_ZN5boost4asio6detail10call_stackINS1_14thread_contextENS1_16thread_info_baseEE4top_E, 1
_ZN5boost4asio6detail10call_stackINS1_14thread_contextENS1_16thread_info_baseEE4top_E:
	.zero	1
	.weak	_ZTSN5boost6system14error_categoryE
	.section	.rodata._ZTSN5boost6system14error_categoryE,"aG",@progbits,_ZTSN5boost6system14error_categoryE,comdat
	.align 32
	.type	_ZTSN5boost6system14error_categoryE, @object
	.size	_ZTSN5boost6system14error_categoryE, 32
_ZTSN5boost6system14error_categoryE:
	.string	"N5boost6system14error_categoryE"
	.weak	_ZTIN5boost6system14error_categoryE
	.section	.rodata._ZTIN5boost6system14error_categoryE,"aG",@progbits,_ZTIN5boost6system14error_categoryE,comdat
	.align 8
	.type	_ZTIN5boost6system14error_categoryE, @object
	.size	_ZTIN5boost6system14error_categoryE, 16
_ZTIN5boost6system14error_categoryE:
	.quad	_ZTVN10__cxxabiv117__class_type_infoE+16
	.quad	_ZTSN5boost6system14error_categoryE
	.weak	_ZTSN5boost6system6detail22generic_error_categoryE
	.section	.rodata._ZTSN5boost6system6detail22generic_error_categoryE,"aG",@progbits,_ZTSN5boost6system6detail22generic_error_categoryE,comdat
	.align 32
	.type	_ZTSN5boost6system6detail22generic_error_categoryE, @object
	.size	_ZTSN5boost6system6detail22generic_error_categoryE, 47
_ZTSN5boost6system6detail22generic_error_categoryE:
	.string	"N5boost6system6detail22generic_error_categoryE"
	.weak	_ZTIN5boost6system6detail22generic_error_categoryE
	.section	.rodata._ZTIN5boost6system6detail22generic_error_categoryE,"aG",@progbits,_ZTIN5boost6system6detail22generic_error_categoryE,comdat
	.align 8
	.type	_ZTIN5boost6system6detail22generic_error_categoryE, @object
	.size	_ZTIN5boost6system6detail22generic_error_categoryE, 24
_ZTIN5boost6system6detail22generic_error_categoryE:
	.quad	_ZTVN10__cxxabiv120__si_class_type_infoE+16
	.quad	_ZTSN5boost6system6detail22generic_error_categoryE
	.quad	_ZTIN5boost6system14error_categoryE
	.weak	_ZTSN5boost6system6detail21system_error_categoryE
	.section	.rodata._ZTSN5boost6system6detail21system_error_categoryE,"aG",@progbits,_ZTSN5boost6system6detail21system_error_categoryE,comdat
	.align 32
	.type	_ZTSN5boost6system6detail21system_error_categoryE, @object
	.size	_ZTSN5boost6system6detail21system_error_categoryE, 46
_ZTSN5boost6system6detail21system_error_categoryE:
	.string	"N5boost6system6detail21system_error_categoryE"
	.weak	_ZTIN5boost6system6detail21system_error_categoryE
	.section	.rodata._ZTIN5boost6system6detail21system_error_categoryE,"aG",@progbits,_ZTIN5boost6system6detail21system_error_categoryE,comdat
	.align 8
	.type	_ZTIN5boost6system6detail21system_error_categoryE, @object
	.size	_ZTIN5boost6system6detail21system_error_categoryE, 24
_ZTIN5boost6system6detail21system_error_categoryE:
	.quad	_ZTVN10__cxxabiv120__si_class_type_infoE+16
	.quad	_ZTSN5boost6system6detail21system_error_categoryE
	.quad	_ZTIN5boost6system14error_categoryE
	.weak	_ZTSN5boost6system6detail12std_categoryE
	.section	.rodata._ZTSN5boost6system6detail12std_categoryE,"aG",@progbits,_ZTSN5boost6system6detail12std_categoryE,comdat
	.align 32
	.type	_ZTSN5boost6system6detail12std_categoryE, @object
	.size	_ZTSN5boost6system6detail12std_categoryE, 37
_ZTSN5boost6system6detail12std_categoryE:
	.string	"N5boost6system6detail12std_categoryE"
	.weak	_ZTIN5boost6system6detail12std_categoryE
	.section	.rodata._ZTIN5boost6system6detail12std_categoryE,"aG",@progbits,_ZTIN5boost6system6detail12std_categoryE,comdat
	.align 8
	.type	_ZTIN5boost6system6detail12std_categoryE, @object
	.size	_ZTIN5boost6system6detail12std_categoryE, 24
_ZTIN5boost6system6detail12std_categoryE:
	.quad	_ZTVN10__cxxabiv120__si_class_type_infoE+16
	.quad	_ZTSN5boost6system6detail12std_categoryE
	.quad	_ZTINSt3_V214error_categoryE
	.weak	_ZTSN5boost6system12system_errorE
	.section	.rodata._ZTSN5boost6system12system_errorE,"aG",@progbits,_ZTSN5boost6system12system_errorE,comdat
	.align 16
	.type	_ZTSN5boost6system12system_errorE, @object
	.size	_ZTSN5boost6system12system_errorE, 30
_ZTSN5boost6system12system_errorE:
	.string	"N5boost6system12system_errorE"
	.weak	_ZTIN5boost6system12system_errorE
	.section	.rodata._ZTIN5boost6system12system_errorE,"aG",@progbits,_ZTIN5boost6system12system_errorE,comdat
	.align 8
	.type	_ZTIN5boost6system12system_errorE, @object
	.size	_ZTIN5boost6system12system_errorE, 24
_ZTIN5boost6system12system_errorE:
	.quad	_ZTVN10__cxxabiv120__si_class_type_infoE+16
	.quad	_ZTSN5boost6system12system_errorE
	.quad	_ZTISt13runtime_error
	.weak	_ZTVN5boost6system14error_categoryE
	.section	.rodata._ZTVN5boost6system14error_categoryE,"aG",@progbits,_ZTVN5boost6system14error_categoryE,comdat
	.align 8
	.type	_ZTVN5boost6system14error_categoryE, @object
	.size	_ZTVN5boost6system14error_categoryE, 72
_ZTVN5boost6system14error_categoryE:
	.quad	0
	.quad	_ZTIN5boost6system14error_categoryE
	.quad	__cxa_pure_virtual
	.quad	_ZNK5boost6system14error_category23default_error_conditionEi
	.quad	_ZNK5boost6system14error_category10equivalentEiRKNS0_15error_conditionE
	.quad	_ZNK5boost6system14error_category10equivalentERKNS0_10error_codeEi
	.quad	__cxa_pure_virtual
	.quad	_ZNK5boost6system14error_category7messageEiPcm
	.quad	_ZNK5boost6system14error_category6failedEi
	.weak	_ZTVN5boost6system6detail22generic_error_categoryE
	.section	.rodata._ZTVN5boost6system6detail22generic_error_categoryE,"aG",@progbits,_ZTVN5boost6system6detail22generic_error_categoryE,comdat
	.align 8
	.type	_ZTVN5boost6system6detail22generic_error_categoryE, @object
	.size	_ZTVN5boost6system6detail22generic_error_categoryE, 72
_ZTVN5boost6system6detail22generic_error_categoryE:
	.quad	0
	.quad	_ZTIN5boost6system6detail22generic_error_categoryE
	.quad	_ZNK5boost6system6detail22generic_error_category4nameEv
	.quad	_ZNK5boost6system14error_category23default_error_conditionEi
	.quad	_ZNK5boost6system14error_category10equivalentEiRKNS0_15error_conditionE
	.quad	_ZNK5boost6system14error_category10equivalentERKNS0_10error_codeEi
	.quad	_ZNK5boost6system6detail22generic_error_category7messageB5cxx11Ei
	.quad	_ZNK5boost6system6detail22generic_error_category7messageEiPcm
	.quad	_ZNK5boost6system14error_category6failedEi
	.weak	_ZTVN5boost6system6detail21system_error_categoryE
	.section	.rodata._ZTVN5boost6system6detail21system_error_categoryE,"aG",@progbits,_ZTVN5boost6system6detail21system_error_categoryE,comdat
	.align 8
	.type	_ZTVN5boost6system6detail21system_error_categoryE, @object
	.size	_ZTVN5boost6system6detail21system_error_categoryE, 72
_ZTVN5boost6system6detail21system_error_categoryE:
	.quad	0
	.quad	_ZTIN5boost6system6detail21system_error_categoryE
	.quad	_ZNK5boost6system6detail21system_error_category4nameEv
	.quad	_ZNK5boost6system6detail21system_error_category23default_error_conditionEi
	.quad	_ZNK5boost6system14error_category10equivalentEiRKNS0_15error_conditionE
	.quad	_ZNK5boost6system14error_category10equivalentERKNS0_10error_codeEi
	.quad	_ZNK5boost6system6detail21system_error_category7messageB5cxx11Ei
	.quad	_ZNK5boost6system6detail21system_error_category7messageEiPcm
	.quad	_ZNK5boost6system14error_category6failedEi
	.weak	_ZTVN5boost6system6detail12std_categoryE
	.section	.rodata._ZTVN5boost6system6detail12std_categoryE,"aG",@progbits,_ZTVN5boost6system6detail12std_categoryE,comdat
	.align 8
	.type	_ZTVN5boost6system6detail12std_categoryE, @object
	.size	_ZTVN5boost6system6detail12std_categoryE, 80
_ZTVN5boost6system6detail12std_categoryE:
	.quad	0
	.quad	_ZTIN5boost6system6detail12std_categoryE
	.quad	_ZN5boost6system6detail12std_categoryD1Ev
	.quad	_ZN5boost6system6detail12std_categoryD0Ev
	.quad	_ZNK5boost6system6detail12std_category4nameEv
	.quad	_ZNKSt3_V214error_category10_M_messageB5cxx11Ei
	.quad	_ZNK5boost6system6detail12std_category7messageB5cxx11Ei
	.quad	_ZNK5boost6system6detail12std_category23default_error_conditionEi
	.quad	_ZNK5boost6system6detail12std_category10equivalentEiRKSt15error_condition
	.quad	_ZNK5boost6system6detail12std_category10equivalentERKSt10error_codei
	.weak	_ZTVN5boost6system12system_errorE
	.section	.rodata._ZTVN5boost6system12system_errorE,"aG",@progbits,_ZTVN5boost6system12system_errorE,comdat
	.align 8
	.type	_ZTVN5boost6system12system_errorE, @object
	.size	_ZTVN5boost6system12system_errorE, 40
_ZTVN5boost6system12system_errorE:
	.quad	0
	.quad	_ZTIN5boost6system12system_errorE
	.quad	_ZN5boost6system12system_errorD1Ev
	.quad	_ZN5boost6system12system_errorD0Ev
	.quad	_ZNK5boost6system12system_error4whatEv
	.weak	_ZZN5boost6system6detail15to_std_categoryERKNS0_14error_categoryEE7map_mx_
	.section	.bss._ZZN5boost6system6detail15to_std_categoryERKNS0_14error_categoryEE7map_mx_,"awG",@nobits,_ZZN5boost6system6detail15to_std_categoryERKNS0_14error_categoryEE7map_mx_,comdat
	.align 32
	.type	_ZZN5boost6system6detail15to_std_categoryERKNS0_14error_categoryEE7map_mx_, @gnu_unique_object
	.size	_ZZN5boost6system6detail15to_std_categoryERKNS0_14error_categoryEE7map_mx_, 40
_ZZN5boost6system6detail15to_std_categoryERKNS0_14error_categoryEE7map_mx_:
	.zero	40
	.weak	_ZGVZN5boost6system6detail15to_std_categoryERKNS0_14error_categoryEE4map_
	.section	.bss._ZGVZN5boost6system6detail15to_std_categoryERKNS0_14error_categoryEE4map_,"awG",@nobits,_ZGVZN5boost6system6detail15to_std_categoryERKNS0_14error_categoryEE4map_,comdat
	.align 8
	.type	_ZGVZN5boost6system6detail15to_std_categoryERKNS0_14error_categoryEE4map_, @gnu_unique_object
	.size	_ZGVZN5boost6system6detail15to_std_categoryERKNS0_14error_categoryEE4map_, 8
_ZGVZN5boost6system6detail15to_std_categoryERKNS0_14error_categoryEE4map_:
	.zero	8
	.weak	_ZZN5boost6system6detail15to_std_categoryERKNS0_14error_categoryEE4map_
	.section	.bss._ZZN5boost6system6detail15to_std_categoryERKNS0_14error_categoryEE4map_,"awG",@nobits,_ZZN5boost6system6detail15to_std_categoryERKNS0_14error_categoryEE4map_,comdat
	.align 32
	.type	_ZZN5boost6system6detail15to_std_categoryERKNS0_14error_categoryEE4map_, @gnu_unique_object
	.size	_ZZN5boost6system6detail15to_std_categoryERKNS0_14error_categoryEE4map_, 48
_ZZN5boost6system6detail15to_std_categoryERKNS0_14error_categoryEE4map_:
	.zero	48
	.weak	_ZGVZN5boost6system6detail15to_std_categoryERKNS0_14error_categoryEE16generic_instance
	.section	.bss._ZGVZN5boost6system6detail15to_std_categoryERKNS0_14error_categoryEE16generic_instance,"awG",@nobits,_ZGVZN5boost6system6detail15to_std_categoryERKNS0_14error_categoryEE16generic_instance,comdat
	.align 8
	.type	_ZGVZN5boost6system6detail15to_std_categoryERKNS0_14error_categoryEE16generic_instance, @gnu_unique_object
	.size	_ZGVZN5boost6system6detail15to_std_categoryERKNS0_14error_categoryEE16generic_instance, 8
_ZGVZN5boost6system6detail15to_std_categoryERKNS0_14error_categoryEE16generic_instance:
	.zero	8
	.weak	_ZZN5boost6system6detail15to_std_categoryERKNS0_14error_categoryEE16generic_instance
	.section	.bss._ZZN5boost6system6detail15to_std_categoryERKNS0_14error_categoryEE16generic_instance,"awG",@nobits,_ZZN5boost6system6detail15to_std_categoryERKNS0_14error_categoryEE16generic_instance,comdat
	.align 16
	.type	_ZZN5boost6system6detail15to_std_categoryERKNS0_14error_categoryEE16generic_instance, @gnu_unique_object
	.size	_ZZN5boost6system6detail15to_std_categoryERKNS0_14error_categoryEE16generic_instance, 16
_ZZN5boost6system6detail15to_std_categoryERKNS0_14error_categoryEE16generic_instance:
	.zero	16
	.weak	_ZGVZN5boost6system6detail15to_std_categoryERKNS0_14error_categoryEE15system_instance
	.section	.bss._ZGVZN5boost6system6detail15to_std_categoryERKNS0_14error_categoryEE15system_instance,"awG",@nobits,_ZGVZN5boost6system6detail15to_std_categoryERKNS0_14error_categoryEE15system_instance,comdat
	.align 8
	.type	_ZGVZN5boost6system6detail15to_std_categoryERKNS0_14error_categoryEE15system_instance, @gnu_unique_object
	.size	_ZGVZN5boost6system6detail15to_std_categoryERKNS0_14error_categoryEE15system_instance, 8
_ZGVZN5boost6system6detail15to_std_categoryERKNS0_14error_categoryEE15system_instance:
	.zero	8
	.weak	_ZZN5boost6system6detail15to_std_categoryERKNS0_14error_categoryEE15system_instance
	.section	.bss._ZZN5boost6system6detail15to_std_categoryERKNS0_14error_categoryEE15system_instance,"awG",@nobits,_ZZN5boost6system6detail15to_std_categoryERKNS0_14error_categoryEE15system_instance,comdat
	.align 16
	.type	_ZZN5boost6system6detail15to_std_categoryERKNS0_14error_categoryEE15system_instance, @gnu_unique_object
	.size	_ZZN5boost6system6detail15to_std_categoryERKNS0_14error_categoryEE15system_instance, 16
_ZZN5boost6system6detail15to_std_categoryERKNS0_14error_categoryEE15system_instance:
	.zero	16
	.weak	_ZZN5boost6system6detail16is_generic_valueEiE3gen
	.section	.rodata._ZZN5boost6system6detail16is_generic_valueEiE3gen,"aG",@progbits,_ZZN5boost6system6detail16is_generic_valueEiE3gen,comdat
	.align 32
	.type	_ZZN5boost6system6detail16is_generic_valueEiE3gen, @gnu_unique_object
	.size	_ZZN5boost6system6detail16is_generic_valueEiE3gen, 316
_ZZN5boost6system6detail16is_generic_valueEiE3gen:
	.long	0
	.long	97
	.long	98
	.long	99
	.long	106
	.long	7
	.long	33
	.long	14
	.long	9
	.long	74
	.long	32
	.long	103
	.long	114
	.long	111
	.long	104
	.long	18
	.long	89
	.long	16
	.long	39
	.long	8
	.long	17
	.long	27
	.long	36
	.long	38
	.long	113
	.long	43
	.long	84
	.long	25
	.long	4
	.long	22
	.long	29
	.long	5
	.long	21
	.long	90
	.long	100
	.long	102
	.long	101
	.long	105
	.long	10
	.long	67
	.long	37
	.long	61
	.long	42
	.long	92
	.long	28
	.long	63
	.long	6
	.long	19
	.long	2
	.long	3
	.long	20
	.long	88
	.long	60
	.long	107
	.long	12
	.long	95
	.long	125
	.long	115
	.long	1
	.long	95
	.long	11
	.long	130
	.long	13
	.long	71
	.long	93
	.long	30
	.long	35
	.long	11
	.long	34
	.long	131
	.long	62
	.long	26
	.long	110
	.long	23
	.long	24
	.long	31
	.long	40
	.long	75
	.long	91
	.weak	_ZN5boost6system6detail10cat_holderIvE25generic_category_instanceE
	.section	.rodata._ZN5boost6system6detail10cat_holderIvE25generic_category_instanceE,"aG",@progbits,_ZN5boost6system6detail10cat_holderIvE25generic_category_instanceE,comdat
	.align 16
	.type	_ZN5boost6system6detail10cat_holderIvE25generic_category_instanceE, @gnu_unique_object
	.size	_ZN5boost6system6detail10cat_holderIvE25generic_category_instanceE, 16
_ZN5boost6system6detail10cat_holderIvE25generic_category_instanceE:
	.quad	_ZTVN5boost6system6detail22generic_error_categoryE+16
	.quad	-5572340897628102899
	.weak	_ZN5boost6system6detail10cat_holderIvE24system_category_instanceE
	.section	.rodata._ZN5boost6system6detail10cat_holderIvE24system_category_instanceE,"aG",@progbits,_ZN5boost6system6detail10cat_holderIvE24system_category_instanceE,comdat
	.align 16
	.type	_ZN5boost6system6detail10cat_holderIvE24system_category_instanceE, @gnu_unique_object
	.size	_ZN5boost6system6detail10cat_holderIvE24system_category_instanceE, 16
_ZN5boost6system6detail10cat_holderIvE24system_category_instanceE:
	.quad	_ZTVN5boost6system6detail21system_error_categoryE+16
	.quad	-8093018978436915045
	.weakref	_ZL28__gthrw___pthread_key_createPjPFvPvE,__pthread_key_create
	.weakref	_ZL28__gthrw_pthread_mutex_unlockP15pthread_mutex_t,pthread_mutex_unlock
	.weakref	_ZL26__gthrw_pthread_mutex_lockP15pthread_mutex_t,pthread_mutex_lock
	.text
.Letext0:
	.file 48 "/usr/include/c++/8/bits/stringfwd.h"
	.file 49 "/usr/include/c++/8/type_traits"
	.file 50 "/usr/include/c++/8/bits/stl_iterator_base_types.h"
	.file 51 "/usr/include/c++/8/bits/cpp_type_traits.h"
	.file 52 "/usr/include/c++/8/debug/debug.h"
	.file 53 "/usr/include/c++/8/bits/exception_ptr.h"
	.file 54 "/usr/include/c++/8/x86_64-suse-linux/bits/c++config.h"
	.file 55 "/usr/include/c++/8/bits/forward_list.h"
	.file 56 "/usr/include/c++/8/cwchar"
	.file 57 "/usr/include/c++/8/cstdint"
	.file 58 "/usr/include/c++/8/clocale"
	.file 59 "/usr/include/c++/8/limits"
	.file 60 "/usr/include/c++/8/string_view"
	.file 61 "/usr/include/c++/8/chrono"
	.file 62 "/usr/include/c++/8/cstdlib"
	.file 63 "/usr/include/c++/8/cstdio"
	.file 64 "/usr/include/c++/8/initializer_list"
	.file 65 "/usr/include/c++/8/utility"
	.file 66 "/usr/include/c++/8/any"
	.file 67 "/usr/include/c++/8/bits/forward_list.tcc"
	.file 68 "/usr/include/c++/8/cstddef"
	.file 69 "/usr/include/c++/8/bits/uses_allocator.h"
	.file 70 "/usr/include/c++/8/bits/shared_ptr_base.h"
	.file 71 "/usr/include/c++/8/atomic"
	.file 72 "/usr/include/c++/8/cwctype"
	.file 73 "/usr/include/c++/8/optional"
	.file 74 "/usr/include/c++/8/functional"
	.file 75 "/usr/include/c++/8/cstring"
	.file 76 "/usr/include/c++/8/ctime"
	.file 77 "/usr/include/c++/8/ratio"
	.file 78 "/usr/include/c++/8/mutex"
	.file 79 "/usr/include/c++/8/bits/node_handle.h"
	.file 80 "/usr/include/c++/8/bits/enable_special_members.h"
	.file 81 "/usr/include/c++/8/bits/ptr_traits.h"
	.file 82 "/usr/include/c++/8/csignal"
	.file 83 "/usr/include/c++/8/cmath"
	.file 84 "/usr/include/c++/8/istream"
	.file 85 "/usr/include/c++/8/ostream"
	.file 86 "/usr/include/c++/8/future"
	.file 87 "/usr/include/c++/8/bits/shared_ptr.h"
	.file 88 "/usr/include/c++/8/array"
	.file 89 "/usr/include/c++/8/stdexcept"
	.file 90 "/usr/include/c++/8/bits/functexcept.h"
	.file 91 "/usr/include/c++/8/bits/predefined_ops.h"
	.file 92 "/usr/include/c++/8/ext/numeric_traits.h"
	.file 93 "/usr/include/c++/8/ext/alloc_traits.h"
	.file 94 "/usr/include/c++/8/bits/stl_iterator.h"
	.file 95 "/usr/include/c++/8/ext/concurrence.h"
	.file 96 "/usr/include/c++/8/ext/aligned_buffer.h"
	.file 97 "/usr/include/c++/8/ext/type_traits.h"
	.file 98 "/usr/lib64/gcc/x86_64-suse-linux/8/include/stddef.h"
	.file 99 "<built-in>"
	.file 100 "/usr/include/bits/types/wint_t.h"
	.file 101 "/usr/include/bits/types/__mbstate_t.h"
	.file 102 "/usr/include/bits/types/mbstate_t.h"
	.file 103 "/usr/include/bits/types/__FILE.h"
	.file 104 "/usr/include/libio.h"
	.file 105 "/usr/include/bits/types/FILE.h"
	.file 106 "/usr/include/wchar.h"
	.file 107 "/usr/include/bits/types/struct_tm.h"
	.file 108 "/usr/include/bits/types.h"
	.file 109 "/usr/include/bits/stdint-intn.h"
	.file 110 "/usr/include/bits/stdint-uintn.h"
	.file 111 "/usr/include/stdint.h"
	.file 112 "/usr/include/locale.h"
	.file 113 "/usr/include/bits/types/time_t.h"
	.file 114 "/usr/include/bits/types/struct_timespec.h"
	.file 115 "/usr/include/bits/types/clock_t.h"
	.file 116 "/usr/include/bits/types/struct_itimerspec.h"
	.file 117 "/usr/include/time.h"
	.file 118 "/usr/include/bits/thread-shared-types.h"
	.file 119 "/usr/include/bits/pthreadtypes.h"
	.file 120 "/usr/include/pthread.h"
	.file 121 "/usr/include/c++/8/x86_64-suse-linux/bits/atomic_word.h"
	.file 122 "/usr/include/stdlib.h"
	.file 123 "/usr/include/bits/stdlib-float.h"
	.file 124 "/usr/include/bits/stdlib-bsearch.h"
	.file 125 "/usr/include/_G_config.h"
	.file 126 "/usr/include/stdio.h"
	.file 127 "/usr/include/bits/sys_errlist.h"
	.file 128 "/usr/include/bits/stdio.h"
	.file 129 "/usr/include/errno.h"
	.file 130 "./hpp/mpp/Header.hpp"
	.file 131 "./hpp/mpp/Request.hpp"
	.file 132 "./hpp/mpp/Reply.hpp"
	.file 133 "./hpp/mpp/ReqHandler.hpp"
	.file 134 "/usr/include/unistd.h"
	.file 135 "/usr/include/bits/getopt_core.h"
	.file 136 "/usr/local/include/boost/config/detail/suffix.hpp"
	.file 137 "/usr/local/include/boost/asio/detail/type_traits.hpp"
	.file 138 "/usr/local/include/boost/asio/associated_allocator.hpp"
	.file 139 "/usr/local/include/boost/asio/detail/thread_context.hpp"
	.file 140 "/usr/local/include/boost/asio/detail/thread_info_base.hpp"
	.file 141 "/usr/local/include/boost/asio/detail/scheduler_operation.hpp"
	.file 142 "/usr/local/include/boost/asio/detail/service_registry.hpp"
	.file 143 "/usr/local/include/boost/asio/detail/mutex.hpp"
	.file 144 "/usr/local/include/boost/asio/detail/event.hpp"
	.file 145 "/usr/local/include/boost/asio/detail/posix_thread.hpp"
	.file 146 "/usr/local/include/boost/asio/detail/op_queue.hpp"
	.file 147 "/usr/local/include/boost/asio/detail/reactor_op.hpp"
	.file 148 "/usr/local/include/boost/asio/detail/socket_types.hpp"
	.file 149 "/usr/local/include/boost/asio/detail/timer_queue_set.hpp"
	.file 150 "/usr/local/include/boost/asio/detail/timer_queue_base.hpp"
	.file 151 "/usr/local/include/boost/asio/detail/epoll_reactor.hpp"
	.file 152 "/usr/local/include/boost/asio/detail/operation.hpp"
	.file 153 "/usr/local/include/boost/asio/detail/object_pool.hpp"
	.file 154 "/usr/local/include/boost/asio/detail/scheduler_thread_info.hpp"
	.file 155 "/usr/local/include/boost/asio/detail/thread.hpp"
	.file 156 "/usr/local/include/boost/asio/detail/io_control.hpp"
	.file 157 "/usr/local/include/boost/asio/detail/socket_option.hpp"
	.file 158 "/usr/local/include/boost/asio/detail/socket_ops.hpp"
	.file 159 "/usr/local/include/boost/asio/detail/reactor_fwd.hpp"
	.file 160 "/usr/local/include/boost/asio/detail/descriptor_ops.hpp"
	.file 161 "/usr/local/include/boost/asio/detail/signal_set_service.hpp"
	.file 162 "/usr/local/include/boost/asio/detail/strand_service.hpp"
	.file 163 "/usr/local/include/boost/asio/detail/impl/strand_service.ipp"
	.file 164 "/usr/local/include/boost/asio/detail/scoped_ptr.hpp"
	.file 165 "/usr/local/include/boost/asio/detail/strand_executor_service.hpp"
	.file 166 "/usr/local/include/boost/asio/detail/impl/strand_executor_service.ipp"
	.file 167 "/usr/local/include/boost/asio/detail/select_interrupter.hpp"
	.file 168 "/usr/local/include/boost/asio/detail/atomic_count.hpp"
	.file 169 "/usr/local/include/boost/asio/system_executor.hpp"
	.file 170 "/usr/local/include/boost/asio/system_context.hpp"
	.file 171 "/usr/local/include/boost/asio/detail/memory.hpp"
	.file 172 "/usr/local/include/boost/asio/impl/execution_context.hpp"
	.file 173 "/usr/local/include/boost/asio/detail/cstdint.hpp"
	.file 174 "/usr/local/include/boost/asio/detail/chrono.hpp"
	.file 175 "/usr/local/include/boost/asio/impl/io_context.hpp"
	.file 176 "/usr/local/include/boost/asio/impl/io_context.ipp"
	.file 177 "/usr/local/include/boost/asio/detail/cstddef.hpp"
	.file 178 "/usr/local/include/boost/asio/detail/string_view.hpp"
	.file 179 "/usr/local/include/boost/asio/posix/descriptor_base.hpp"
	.file 180 "/usr/local/include/boost/asio/uses_executor.hpp"
	.file 181 "/usr/local/include/boost/asio/detached.hpp"
	.file 182 "/usr/local/include/boost/asio/generic/detail/endpoint.hpp"
	.file 183 "/usr/local/include/boost/asio/ip/address_v4.hpp"
	.file 184 "/usr/local/include/boost/asio/ip/detail/endpoint.hpp"
	.file 185 "/usr/local/include/boost/asio/local/detail/endpoint.hpp"
	.file 186 "/usr/local/include/boost/asio/this_coro.hpp"
	.file 187 "/usr/local/include/boost/asio/use_future.hpp"
	.file 188 "/usr/local/include/boost/cstdint.hpp"
	.file 189 "/usr/local/include/boost/exception/exception.hpp"
	.file 190 "/usr/local/include/boost/asio/detail/date_time_fwd.hpp"
	.file 191 "/usr/local/include/boost/date_time/special_defs.hpp"
	.file 192 "/usr/local/include/boost/date_time/date_defs.hpp"
	.file 193 "/usr/local/include/boost/operators.hpp"
	.file 194 "/usr/local/include/boost/type_traits/integral_constant.hpp"
	.file 195 "/usr/local/include/boost/mpl/aux_/adl_barrier.hpp"
	.file 196 "/usr/local/include/boost/mpl/aux_/value_wknd.hpp"
	.file 197 "/usr/local/include/boost/mpl/void_fwd.hpp"
	.file 198 "/usr/local/include/boost/mpl/bool_fwd.hpp"
	.file 199 "/usr/local/include/boost/mpl/integral_c_tag.hpp"
	.file 200 "/usr/local/include/boost/mpl/aux_/na_fwd.hpp"
	.file 201 "/usr/local/include/boost/date_time/gregorian/greg_weekday.hpp"
	.file 202 "/usr/local/include/boost/date_time/gregorian/greg_month.hpp"
	.file 203 "/usr/local/include/boost/date_time/gregorian/greg_date.hpp"
	.file 204 "/usr/local/include/boost/date_time/posix_time/ptime.hpp"
	.file 205 "/usr/local/include/boost/numeric/conversion/detail/meta.hpp"
	.file 206 "/usr/local/include/boost/numeric/conversion/converter_policies.hpp"
	.file 207 "/usr/local/include/boost/numeric/conversion/cast.hpp"
	.file 208 "/usr/local/include/boost/regex/v4/match_flags.hpp"
	.file 209 "/usr/local/include/boost/core/noncopyable.hpp"
	.file 210 "/usr/include/bits/wctype-wchar.h"
	.file 211 "/usr/include/wctype.h"
	.file 212 "/usr/include/string.h"
	.file 213 "/usr/include/bits/socket.h"
	.file 214 "/usr/include/netinet/in.h"
	.file 215 "/usr/include/bits/timerfd.h"
	.file 216 "/usr/include/sys/timerfd.h"
	.file 217 "/usr/include/bits/epoll.h"
	.file 218 "/usr/include/sys/epoll.h"
	.file 219 "/usr/include/bits/types/sig_atomic_t.h"
	.file 220 "/usr/include/signal.h"
	.file 221 "/usr/include/sys/time.h"
	.file 222 "/usr/include/math.h"
	.file 223 "/usr/local/include/boost/mpl/bool.hpp"
	.file 224 "/usr/local/include/boost/date_time/constrained_value.hpp"
	.file 225 "/usr/local/include/boost/mpl/void.hpp"
	.file 226 "/usr/local/include/boost/mpl/aux_/integral_wrapper.hpp"
	.file 227 "/usr/include/assert.h"