	.file	"ReqParser.cpp"
	.text
.Ltext0:
	.type	_Z41__static_initialization_and_destruction_0ii, @function
_Z41__static_initialization_and_destruction_0ii:
.LVL0:
.LFB7483:
	.file 1 "cpp/ReqParser.cpp"
	.loc 1 618 1 view -0
	.cfi_startproc
	.loc 1 618 1 is_stmt 0 view .LVU1
	cmpl	$1, %edi
	je	.L8
.L5:
	ret
.L8:
	.loc 1 618 1 discriminator 1 view .LVU2
	cmpl	$65535, %esi
	jne	.L5
	.loc 1 618 1 view .LVU3
	subq	$8, %rsp
	.cfi_def_cfa_offset 16
	.file 2 "/usr/include/c++/8/iostream"
	.loc 2 74 25 view .LVU4
	movl	$_ZStL8__ioinit, %edi
.LVL1:
	.loc 2 74 25 view .LVU5
	call	_ZNSt8ios_base4InitC1Ev
.LVL2:
	.loc 2 74 25 view .LVU6
	movl	$__dso_handle, %edx
	movl	$_ZStL8__ioinit, %esi
	movl	$_ZNSt8ios_base4InitD1Ev, %edi
	call	__cxa_atexit
.LVL3:
	.file 3 "/usr/local/include/boost/logic/tribool_io.hpp"
	.loc 3 150 42 view .LVU7
	cmpb	$0, _ZGVN5boost5logic18indeterminate_nameIcE2idE(%rip)
	jne	.L3
	.loc 3 150 42 discriminator 1 view .LVU8
	movb	$1, _ZGVN5boost5logic18indeterminate_nameIcE2idE(%rip)
.LVL4:
.LBB3860:
.LBI3860:
	.file 4 "/usr/include/c++/8/bits/locale_classes.h"
	.loc 4 514 5 is_stmt 1 discriminator 1 view .LVU9
.L3:
	.loc 4 514 5 is_stmt 0 discriminator 1 view .LVU10
.LBE3860:
	.loc 3 150 42 discriminator 3 view .LVU11
	cmpb	$0, _ZGVN5boost5logic18indeterminate_nameIwE2idE(%rip)
	jne	.L1
	.loc 3 150 42 discriminator 4 view .LVU12
	movb	$1, _ZGVN5boost5logic18indeterminate_nameIwE2idE(%rip)
.LVL5:
.LBB3861:
.LBI3861:
	.loc 4 514 5 is_stmt 1 discriminator 4 view .LVU13
.L1:
	.loc 4 514 5 is_stmt 0 discriminator 4 view .LVU14
.LBE3861:
	.loc 1 618 1 view .LVU15
	addq	$8, %rsp
	.cfi_def_cfa_offset 8
	ret
	.cfi_endproc
.LFE7483:
	.size	_Z41__static_initialization_and_destruction_0ii, .-_Z41__static_initialization_and_destruction_0ii
	.align 2
	.globl	_ZNK3mpp9ReqParser9getStatusEv
	.type	_ZNK3mpp9ReqParser9getStatusEv, @function
_ZNK3mpp9ReqParser9getStatusEv:
.LVL6:
.LFB6224:
	.loc 1 616 1 is_stmt 1 view -0
	.cfi_startproc
	.loc 1 617 2 view .LVU17
	.loc 1 617 9 is_stmt 0 view .LVU18
	movl	8(%rdi), %eax
	.loc 1 618 1 view .LVU19
	ret
	.cfi_endproc
.LFE6224:
	.size	_ZNK3mpp9ReqParser9getStatusEv, .-_ZNK3mpp9ReqParser9getStatusEv
	.section	.text._ZNSt7__cxx1115basic_stringbufIwSt11char_traitsIwESaIwEED2Ev,"axG",@progbits,_ZNSt7__cxx1115basic_stringbufIwSt11char_traitsIwESaIwEED5Ev,comdat
	.align 2
	.weak	_ZNSt7__cxx1115basic_stringbufIwSt11char_traitsIwESaIwEED2Ev
	.type	_ZNSt7__cxx1115basic_stringbufIwSt11char_traitsIwESaIwEED2Ev, @function
_ZNSt7__cxx1115basic_stringbufIwSt11char_traitsIwESaIwEED2Ev:
.LVL7:
.LFB6601:
	.file 5 "/usr/include/c++/8/sstream"
	.loc 5 65 11 is_stmt 1 view -0
	.cfi_startproc
	.loc 5 65 11 is_stmt 0 view .LVU21
	pushq	%rbx
	.cfi_def_cfa_offset 16
	.cfi_offset 3, -16
	movq	%rdi, %rbx
.LBB3881:
	.loc 5 65 11 view .LVU22
	movq	$_ZTVNSt7__cxx1115basic_stringbufIwSt11char_traitsIwESaIwEEE+16, (%rdi)
.LVL8:
.LBB3882:
.LBI3882:
	.file 6 "/usr/include/c++/8/bits/basic_string.h"
	.loc 6 656 7 is_stmt 1 view .LVU23
.LBB3883:
.LBI3883:
	.loc 6 218 7 view .LVU24
.LBB3884:
.LBB3885:
.LBI3885:
	.loc 6 210 7 view .LVU25
.LBB3886:
.LBI3886:
	.loc 6 175 7 view .LVU26
.LBB3887:
	.loc 6 176 28 is_stmt 0 view .LVU27
	movq	72(%rdi), %rdi
.LVL9:
	.loc 6 176 28 view .LVU28
.LBE3887:
.LBE3886:
.LBB3888:
.LBI3888:
	.loc 6 189 7 is_stmt 1 view .LVU29
.LBB3889:
	.loc 6 192 57 is_stmt 0 view .LVU30
	leaq	88(%rbx), %rax
.LVL10:
	.loc 6 192 57 view .LVU31
.LBE3889:
.LBE3888:
.LBE3885:
	.loc 6 220 2 view .LVU32
	cmpq	%rax, %rdi
	je	.L11
.LVL11:
.LBB3890:
.LBI3890:
	.loc 6 225 7 is_stmt 1 view .LVU33
.LBB3891:
.LBI3891:
	.file 7 "/usr/include/c++/8/bits/alloc_traits.h"
	.loc 7 461 7 view .LVU34
.LBB3892:
.LBI3892:
	.file 8 "/usr/include/c++/8/ext/new_allocator.h"
	.loc 8 116 7 view .LVU35
.LBB3893:
	.loc 8 125 19 is_stmt 0 view .LVU36
	call	_ZdlPv
.LVL12:
.L11:
	.loc 8 125 19 view .LVU37
.LBE3893:
.LBE3892:
.LBE3891:
.LBE3890:
.LBE3884:
.LBE3883:
.LBB3894:
.LBI3894:
	.loc 6 139 14 is_stmt 1 view .LVU38
.LBB3895:
.LBI3895:
	.file 9 "/usr/include/c++/8/bits/allocator.h"
	.loc 9 139 7 view .LVU39
.LBB3896:
.LBI3896:
	.loc 8 86 7 view .LVU40
	.loc 8 86 7 is_stmt 0 view .LVU41
.LBE3896:
.LBE3895:
.LBE3894:
.LBE3882:
.LBB3897:
.LBI3897:
	.file 10 "/usr/include/c++/8/streambuf"
	.loc 10 204 7 is_stmt 1 view .LVU42
.LBB3898:
	.loc 10 205 9 is_stmt 0 view .LVU43
	movq	$_ZTVSt15basic_streambufIwSt11char_traitsIwEE+16, (%rbx)
	leaq	56(%rbx), %rdi
	call	_ZNSt6localeD1Ev
.LVL13:
	.loc 10 205 9 view .LVU44
.LBE3898:
.LBE3897:
.LBE3881:
	.loc 5 65 11 view .LVU45
	popq	%rbx
	.cfi_def_cfa_offset 8
.LVL14:
	.loc 5 65 11 view .LVU46
	ret
	.cfi_endproc
.LFE6601:
	.size	_ZNSt7__cxx1115basic_stringbufIwSt11char_traitsIwESaIwEED2Ev, .-_ZNSt7__cxx1115basic_stringbufIwSt11char_traitsIwESaIwEED2Ev
	.weak	_ZNSt7__cxx1115basic_stringbufIwSt11char_traitsIwESaIwEED1Ev
	.set	_ZNSt7__cxx1115basic_stringbufIwSt11char_traitsIwESaIwEED1Ev,_ZNSt7__cxx1115basic_stringbufIwSt11char_traitsIwESaIwEED2Ev
	.section	.text._ZNSt7__cxx1115basic_stringbufIwSt11char_traitsIwESaIwEED0Ev,"axG",@progbits,_ZNSt7__cxx1115basic_stringbufIwSt11char_traitsIwESaIwEED5Ev,comdat
	.align 2
	.weak	_ZNSt7__cxx1115basic_stringbufIwSt11char_traitsIwESaIwEED0Ev
	.type	_ZNSt7__cxx1115basic_stringbufIwSt11char_traitsIwESaIwEED0Ev, @function
_ZNSt7__cxx1115basic_stringbufIwSt11char_traitsIwESaIwEED0Ev:
.LVL15:
.LFB6603:
	.loc 5 65 11 is_stmt 1 view -0
	.cfi_startproc
	.loc 5 65 11 is_stmt 0 view .LVU48
	pushq	%rbx
	.cfi_def_cfa_offset 16
	.cfi_offset 3, -16
	movq	%rdi, %rbx
.LVL16:
.LBB3920:
.LBI3920:
	.loc 5 65 11 is_stmt 1 view .LVU49
.LBB3921:
	movq	$_ZTVNSt7__cxx1115basic_stringbufIwSt11char_traitsIwESaIwEEE+16, (%rdi)
.LVL17:
.LBB3922:
.LBI3922:
	.loc 6 656 7 view .LVU50
.LBB3923:
.LBI3923:
	.loc 6 218 7 view .LVU51
.LBB3924:
.LBB3925:
.LBI3925:
	.loc 6 210 7 view .LVU52
.LBB3926:
.LBI3926:
	.loc 6 175 7 view .LVU53
.LBB3927:
	.loc 6 176 28 is_stmt 0 view .LVU54
	movq	72(%rdi), %rdi
.LVL18:
	.loc 6 176 28 view .LVU55
.LBE3927:
.LBE3926:
.LBB3928:
.LBI3928:
	.loc 6 189 7 is_stmt 1 view .LVU56
.LBB3929:
	.loc 6 192 57 is_stmt 0 view .LVU57
	leaq	88(%rbx), %rax
.LVL19:
	.loc 6 192 57 view .LVU58
.LBE3929:
.LBE3928:
.LBE3925:
	.loc 6 220 2 view .LVU59
	cmpq	%rax, %rdi
	je	.L14
.LVL20:
.LBB3930:
.LBI3930:
	.loc 6 225 7 is_stmt 1 view .LVU60
.LBB3931:
.LBI3931:
	.loc 7 461 7 view .LVU61
.LBB3932:
.LBI3932:
	.loc 8 116 7 view .LVU62
.LBB3933:
	.loc 8 125 19 is_stmt 0 view .LVU63
	call	_ZdlPv
.LVL21:
.L14:
	.loc 8 125 19 view .LVU64
.LBE3933:
.LBE3932:
.LBE3931:
.LBE3930:
.LBE3924:
.LBE3923:
.LBB3934:
.LBI3934:
	.loc 6 139 14 is_stmt 1 view .LVU65
.LBB3935:
.LBI3935:
	.loc 9 139 7 view .LVU66
.LBB3936:
.LBI3936:
	.loc 8 86 7 view .LVU67
	.loc 8 86 7 is_stmt 0 view .LVU68
.LBE3936:
.LBE3935:
.LBE3934:
.LBE3922:
.LBB3937:
.LBI3937:
	.loc 10 204 7 is_stmt 1 view .LVU69
.LBB3938:
	.loc 10 205 9 is_stmt 0 view .LVU70
	movq	$_ZTVSt15basic_streambufIwSt11char_traitsIwEE+16, (%rbx)
	leaq	56(%rbx), %rdi
	call	_ZNSt6localeD1Ev
.LVL22:
	.loc 10 205 9 view .LVU71
.LBE3938:
.LBE3937:
.LBE3921:
.LBE3920:
	.loc 5 65 11 view .LVU72
	movl	$104, %esi
	movq	%rbx, %rdi
	call	_ZdlPvm
.LVL23:
	popq	%rbx
	.cfi_def_cfa_offset 8
.LVL24:
	.loc 5 65 11 view .LVU73
	ret
	.cfi_endproc
.LFE6603:
	.size	_ZNSt7__cxx1115basic_stringbufIwSt11char_traitsIwESaIwEED0Ev, .-_ZNSt7__cxx1115basic_stringbufIwSt11char_traitsIwESaIwEED0Ev
	.section	.text._ZNSt8_Rb_treeIN3mpp9ReqParser5StateESt4pairIKS2_NSt7__cxx1112basic_stringIcSt11char_traitsIcESaIcEEEESt10_Select1stISB_ESt4lessIS2_ESaISB_EE8_M_eraseEPSt13_Rb_tree_nodeISB_E,"axG",@progbits,_ZNSt8_Rb_treeIN3mpp9ReqParser5StateESt4pairIKS2_NSt7__cxx1112basic_stringIcSt11char_traitsIcESaIcEEEESt10_Select1stISB_ESt4lessIS2_ESaISB_EE8_M_eraseEPSt13_Rb_tree_nodeISB_E,comdat
	.align 2
	.weak	_ZNSt8_Rb_treeIN3mpp9ReqParser5StateESt4pairIKS2_NSt7__cxx1112basic_stringIcSt11char_traitsIcESaIcEEEESt10_Select1stISB_ESt4lessIS2_ESaISB_EE8_M_eraseEPSt13_Rb_tree_nodeISB_E
	.type	_ZNSt8_Rb_treeIN3mpp9ReqParser5StateESt4pairIKS2_NSt7__cxx1112basic_stringIcSt11char_traitsIcESaIcEEEESt10_Select1stISB_ESt4lessIS2_ESaISB_EE8_M_eraseEPSt13_Rb_tree_nodeISB_E, @function
_ZNSt8_Rb_treeIN3mpp9ReqParser5StateESt4pairIKS2_NSt7__cxx1112basic_stringIcSt11char_traitsIcESaIcEEEESt10_Select1stISB_ESt4lessIS2_ESaISB_EE8_M_eraseEPSt13_Rb_tree_nodeISB_E:
.LVL25:
.LFB6899:
	.file 11 "/usr/include/c++/8/bits/stl_tree.h"
	.loc 11 1866 5 is_stmt 1 view -0
	.cfi_startproc
	.loc 11 1866 5 is_stmt 0 view .LVU75
	pushq	%r12
	.cfi_def_cfa_offset 16
	.cfi_offset 12, -16
	pushq	%rbp
	.cfi_def_cfa_offset 24
	.cfi_offset 6, -24
	pushq	%rbx
	.cfi_def_cfa_offset 32
	.cfi_offset 3, -32
	movq	%rdi, %r12
	movq	%rsi, %rbx
	jmp	.L19
.LVL26:
.L21:
.LBB3939:
.LBB3940:
.LBB3941:
.LBB3942:
.LBB3943:
.LBB3944:
.LBB3945:
.LBB3946:
.LBB3947:
.LBB3948:
.LBI3948:
	.loc 6 225 7 is_stmt 1 view .LVU76
.LBB3949:
.LBI3949:
	.loc 7 461 7 view .LVU77
.LBB3950:
.LBI3950:
	.loc 8 116 7 view .LVU78
.LBB3951:
	.loc 8 125 19 is_stmt 0 view .LVU79
	call	_ZdlPv
.LVL27:
.L18:
	.loc 8 125 19 view .LVU80
.LBE3951:
.LBE3950:
.LBE3949:
.LBE3948:
.LBE3947:
.LBE3946:
.LBB3958:
.LBI3958:
	.loc 6 139 14 is_stmt 1 view .LVU81
.LBB3959:
.LBI3959:
	.loc 9 139 7 view .LVU82
.LBB3960:
.LBI3960:
	.loc 8 86 7 view .LVU83
	.loc 8 86 7 is_stmt 0 view .LVU84
.LBE3960:
.LBE3959:
.LBE3958:
.LBE3945:
.LBE3944:
.LBE3943:
.LBE3942:
.LBE3941:
.LBB3966:
.LBI3966:
	.loc 11 602 7 is_stmt 1 view .LVU85
.LBB3967:
.LBI3967:
	.loc 7 461 7 view .LVU86
.LBB3968:
.LBI3968:
	.loc 8 116 7 view .LVU87
.LBB3969:
	.loc 8 125 19 is_stmt 0 view .LVU88
	movq	%rbx, %rdi
	call	_ZdlPv
.LVL28:
	.loc 8 125 19 view .LVU89
.LBE3969:
.LBE3968:
.LBE3967:
.LBE3966:
.LBE3940:
	.loc 11 1875 4 view .LVU90
	movq	%rbp, %rbx
.LVL29:
.L19:
	.loc 11 1875 4 view .LVU91
.LBE3939:
	.loc 11 1870 18 view .LVU92
	testq	%rbx, %rbx
	je	.L16
.LVL30:
.LBB3976:
.LBB3971:
.LBI3971:
	.loc 11 787 7 is_stmt 1 view .LVU93
.LBB3972:
	.loc 11 788 53 is_stmt 0 view .LVU94
	movq	24(%rbx), %rsi
.LVL31:
	.loc 11 788 53 view .LVU95
.LBE3972:
.LBE3971:
	.loc 11 1872 4 view .LVU96
	movq	%r12, %rdi
	call	_ZNSt8_Rb_treeIN3mpp9ReqParser5StateESt4pairIKS2_NSt7__cxx1112basic_stringIcSt11char_traitsIcESaIcEEEESt10_Select1stISB_ESt4lessIS2_ESaISB_EE8_M_eraseEPSt13_Rb_tree_nodeISB_E
.LVL32:
.LBB3973:
.LBI3973:
	.loc 11 779 7 is_stmt 1 view .LVU97
.LBB3974:
	.loc 11 780 52 is_stmt 0 view .LVU98
	movq	16(%rbx), %rbp
.LVL33:
	.loc 11 780 52 view .LVU99
.LBE3974:
.LBE3973:
.LBB3975:
.LBI3940:
	.loc 11 667 7 is_stmt 1 view .LVU100
.LBB3970:
.LBI3941:
	.loc 11 659 7 view .LVU101
.LBB3965:
.LBI3942:
	.loc 7 486 2 view .LVU102
.LBB3964:
.LBI3943:
	.loc 8 140 2 view .LVU103
.LBB3963:
.LBI3944:
	.file 12 "/usr/include/c++/8/bits/stl_pair.h"
	.loc 12 198 12 view .LVU104
.LBB3962:
.LBI3945:
	.loc 6 656 7 view .LVU105
.LBB3961:
.LBI3946:
	.loc 6 218 7 view .LVU106
.LBB3957:
.LBB3952:
.LBI3952:
	.loc 6 210 7 view .LVU107
.LBB3953:
.LBI3953:
	.loc 6 175 7 view .LVU108
.LBB3954:
	.loc 6 176 28 is_stmt 0 view .LVU109
	movq	40(%rbx), %rdi
.LVL34:
	.loc 6 176 28 view .LVU110
.LBE3954:
.LBE3953:
.LBB3955:
.LBI3955:
	.loc 6 189 7 is_stmt 1 view .LVU111
.LBB3956:
	.loc 6 192 57 is_stmt 0 view .LVU112
	leaq	56(%rbx), %rax
.LVL35:
	.loc 6 192 57 view .LVU113
.LBE3956:
.LBE3955:
.LBE3952:
	.loc 6 220 2 view .LVU114
	cmpq	%rdi, %rax
	jne	.L21
	jmp	.L18
.LVL36:
.L16:
	.loc 6 220 2 view .LVU115
.LBE3957:
.LBE3961:
.LBE3962:
.LBE3963:
.LBE3964:
.LBE3965:
.LBE3970:
.LBE3975:
.LBE3976:
	.loc 11 1877 5 view .LVU116
	popq	%rbx
	.cfi_def_cfa_offset 24
.LVL37:
	.loc 11 1877 5 view .LVU117
	popq	%rbp
	.cfi_def_cfa_offset 16
	popq	%r12
	.cfi_def_cfa_offset 8
.LVL38:
	.loc 11 1877 5 view .LVU118
	ret
	.cfi_endproc
.LFE6899:
	.size	_ZNSt8_Rb_treeIN3mpp9ReqParser5StateESt4pairIKS2_NSt7__cxx1112basic_stringIcSt11char_traitsIcESaIcEEEESt10_Select1stISB_ESt4lessIS2_ESaISB_EE8_M_eraseEPSt13_Rb_tree_nodeISB_E, .-_ZNSt8_Rb_treeIN3mpp9ReqParser5StateESt4pairIKS2_NSt7__cxx1112basic_stringIcSt11char_traitsIcESaIcEEEESt10_Select1stISB_ESt4lessIS2_ESaISB_EE8_M_eraseEPSt13_Rb_tree_nodeISB_E
	.section	.text._ZSt9has_facetIN5boost5logic18indeterminate_nameIcEEEbRKSt6locale,"axG",@progbits,_ZSt9has_facetIN5boost5logic18indeterminate_nameIcEEEbRKSt6locale,comdat
	.weak	_ZSt9has_facetIN5boost5logic18indeterminate_nameIcEEEbRKSt6locale
	.type	_ZSt9has_facetIN5boost5logic18indeterminate_nameIcEEEbRKSt6locale, @function
_ZSt9has_facetIN5boost5logic18indeterminate_nameIcEEEbRKSt6locale:
.LVL39:
.LFB6968:
	.file 13 "/usr/include/c++/8/bits/locale_classes.tcc"
	.loc 13 104 5 is_stmt 1 view -0
	.cfi_startproc
	.loc 13 104 5 is_stmt 0 view .LVU120
	pushq	%rbx
	.cfi_def_cfa_offset 16
	.cfi_offset 3, -16
	movq	%rdi, %rbx
	.loc 13 106 20 view .LVU121
	movl	$_ZN5boost5logic18indeterminate_nameIcE2idE, %edi
.LVL40:
	.loc 13 106 20 view .LVU122
	call	_ZNKSt6locale2id5_M_idEv
.LVL41:
	.loc 13 107 46 view .LVU123
	movq	(%rbx), %rdx
	.loc 13 107 29 view .LVU124
	movq	8(%rdx), %rcx
.LVL42:
	.loc 13 110 8 view .LVU125
	cmpq	%rax, 16(%rdx)
	jbe	.L24
	.loc 13 110 11 discriminator 1 view .LVU126
	movq	(%rcx,%rax,8), %rdi
	.loc 13 110 8 discriminator 1 view .LVU127
	testq	%rdi, %rdi
	je	.L25
	.loc 13 110 11 discriminator 3 view .LVU128
	movl	$0, %ecx
.LVL43:
	.loc 13 110 11 discriminator 3 view .LVU129
	movl	$_ZTIN5boost5logic18indeterminate_nameIcEE, %edx
.LVL44:
	.loc 13 110 11 discriminator 3 view .LVU130
	movl	$_ZTINSt6locale5facetE, %esi
	call	__dynamic_cast
.LVL45:
	.loc 13 110 8 discriminator 3 view .LVU131
	testq	%rax, %rax
	je	.L22
	.loc 13 110 8 view .LVU132
	movl	$1, %eax
	.loc 13 110 53 view .LVU133
	jmp	.L22
.LVL46:
.L24:
	.loc 13 110 8 view .LVU134
	movl	$0, %eax
.LVL47:
.L22:
	.loc 13 114 5 view .LVU135
	popq	%rbx
	.cfi_remember_state
	.cfi_def_cfa_offset 8
.LVL48:
	.loc 13 114 5 view .LVU136
	ret
.LVL49:
.L25:
	.cfi_restore_state
	.loc 13 110 8 view .LVU137
	movl	$0, %eax
.LVL50:
	.loc 13 110 8 view .LVU138
	jmp	.L22
	.cfi_endproc
.LFE6968:
	.size	_ZSt9has_facetIN5boost5logic18indeterminate_nameIcEEEbRKSt6locale, .-_ZSt9has_facetIN5boost5logic18indeterminate_nameIcEEEbRKSt6locale
	.section	.text._ZSt9use_facetIN5boost5logic18indeterminate_nameIcEEERKT_RKSt6locale,"axG",@progbits,_ZSt9use_facetIN5boost5logic18indeterminate_nameIcEEERKT_RKSt6locale,comdat
	.weak	_ZSt9use_facetIN5boost5logic18indeterminate_nameIcEEERKT_RKSt6locale
	.type	_ZSt9use_facetIN5boost5logic18indeterminate_nameIcEEERKT_RKSt6locale, @function
_ZSt9use_facetIN5boost5logic18indeterminate_nameIcEEERKT_RKSt6locale:
.LVL51:
.LFB6969:
	.loc 13 132 5 is_stmt 1 view -0
	.cfi_startproc
	.loc 13 132 5 is_stmt 0 view .LVU140
	pushq	%rbx
	.cfi_def_cfa_offset 16
	.cfi_offset 3, -16
	movq	%rdi, %rbx
	.loc 13 134 20 view .LVU141
	movl	$_ZN5boost5logic18indeterminate_nameIcE2idE, %edi
.LVL52:
	.loc 13 134 20 view .LVU142
	call	_ZNKSt6locale2id5_M_idEv
.LVL53:
	.loc 13 135 46 view .LVU143
	movq	(%rbx), %rdx
	.loc 13 135 29 view .LVU144
	movq	8(%rdx), %rcx
.LVL54:
	.loc 13 136 7 view .LVU145
	cmpq	%rax, 16(%rdx)
	jbe	.L29
	.loc 13 136 51 discriminator 1 view .LVU146
	movq	(%rcx,%rax,8), %rdi
	.loc 13 136 48 discriminator 1 view .LVU147
	testq	%rdi, %rdi
	je	.L29
	.loc 13 139 14 view .LVU148
	movl	$0, %ecx
.LVL55:
	.loc 13 139 14 view .LVU149
	movl	$_ZTIN5boost5logic18indeterminate_nameIcEE, %edx
.LVL56:
	.loc 13 139 14 view .LVU150
	movl	$_ZTINSt6locale5facetE, %esi
	call	__dynamic_cast
.LVL57:
	.loc 13 139 56 view .LVU151
	testq	%rax, %rax
	je	.L34
	.loc 13 143 5 view .LVU152
	popq	%rbx
	.cfi_remember_state
	.cfi_def_cfa_offset 8
.LVL58:
	.loc 13 143 5 view .LVU153
	ret
.LVL59:
.L29:
	.cfi_restore_state
	.loc 13 137 25 view .LVU154
	call	_ZSt16__throw_bad_castv
.LVL60:
.L34:
	.loc 13 139 14 discriminator 2 view .LVU155
	call	__cxa_bad_cast
.LVL61:
	.cfi_endproc
.LFE6969:
	.size	_ZSt9use_facetIN5boost5logic18indeterminate_nameIcEEERKT_RKSt6locale, .-_ZSt9use_facetIN5boost5logic18indeterminate_nameIcEEERKT_RKSt6locale
	.section	.text._ZSt9has_facetIN5boost5logic18indeterminate_nameIwEEEbRKSt6locale,"axG",@progbits,_ZSt9has_facetIN5boost5logic18indeterminate_nameIwEEEbRKSt6locale,comdat
	.weak	_ZSt9has_facetIN5boost5logic18indeterminate_nameIwEEEbRKSt6locale
	.type	_ZSt9has_facetIN5boost5logic18indeterminate_nameIwEEEbRKSt6locale, @function
_ZSt9has_facetIN5boost5logic18indeterminate_nameIwEEEbRKSt6locale:
.LVL62:
.LFB6986:
	.loc 13 104 5 is_stmt 1 view -0
	.cfi_startproc
	.loc 13 104 5 is_stmt 0 view .LVU157
	pushq	%rbx
	.cfi_def_cfa_offset 16
	.cfi_offset 3, -16
	movq	%rdi, %rbx
	.loc 13 106 20 view .LVU158
	movl	$_ZN5boost5logic18indeterminate_nameIwE2idE, %edi
.LVL63:
	.loc 13 106 20 view .LVU159
	call	_ZNKSt6locale2id5_M_idEv
.LVL64:
	.loc 13 107 46 view .LVU160
	movq	(%rbx), %rdx
	.loc 13 107 29 view .LVU161
	movq	8(%rdx), %rcx
.LVL65:
	.loc 13 110 8 view .LVU162
	cmpq	%rax, 16(%rdx)
	jbe	.L37
	.loc 13 110 11 discriminator 1 view .LVU163
	movq	(%rcx,%rax,8), %rdi
	.loc 13 110 8 discriminator 1 view .LVU164
	testq	%rdi, %rdi
	je	.L38
	.loc 13 110 11 discriminator 3 view .LVU165
	movl	$0, %ecx
.LVL66:
	.loc 13 110 11 discriminator 3 view .LVU166
	movl	$_ZTIN5boost5logic18indeterminate_nameIwEE, %edx
.LVL67:
	.loc 13 110 11 discriminator 3 view .LVU167
	movl	$_ZTINSt6locale5facetE, %esi
	call	__dynamic_cast
.LVL68:
	.loc 13 110 8 discriminator 3 view .LVU168
	testq	%rax, %rax
	je	.L35
	.loc 13 110 8 view .LVU169
	movl	$1, %eax
	.loc 13 110 53 view .LVU170
	jmp	.L35
.LVL69:
.L37:
	.loc 13 110 8 view .LVU171
	movl	$0, %eax
.LVL70:
.L35:
	.loc 13 114 5 view .LVU172
	popq	%rbx
	.cfi_remember_state
	.cfi_def_cfa_offset 8
.LVL71:
	.loc 13 114 5 view .LVU173
	ret
.LVL72:
.L38:
	.cfi_restore_state
	.loc 13 110 8 view .LVU174
	movl	$0, %eax
.LVL73:
	.loc 13 110 8 view .LVU175
	jmp	.L35
	.cfi_endproc
.LFE6986:
	.size	_ZSt9has_facetIN5boost5logic18indeterminate_nameIwEEEbRKSt6locale, .-_ZSt9has_facetIN5boost5logic18indeterminate_nameIwEEEbRKSt6locale
	.section	.text._ZSt9use_facetIN5boost5logic18indeterminate_nameIwEEERKT_RKSt6locale,"axG",@progbits,_ZSt9use_facetIN5boost5logic18indeterminate_nameIwEEERKT_RKSt6locale,comdat
	.weak	_ZSt9use_facetIN5boost5logic18indeterminate_nameIwEEERKT_RKSt6locale
	.type	_ZSt9use_facetIN5boost5logic18indeterminate_nameIwEEERKT_RKSt6locale, @function
_ZSt9use_facetIN5boost5logic18indeterminate_nameIwEEERKT_RKSt6locale:
.LVL74:
.LFB6987:
	.loc 13 132 5 is_stmt 1 view -0
	.cfi_startproc
	.loc 13 132 5 is_stmt 0 view .LVU177
	pushq	%rbx
	.cfi_def_cfa_offset 16
	.cfi_offset 3, -16
	movq	%rdi, %rbx
	.loc 13 134 20 view .LVU178
	movl	$_ZN5boost5logic18indeterminate_nameIwE2idE, %edi
.LVL75:
	.loc 13 134 20 view .LVU179
	call	_ZNKSt6locale2id5_M_idEv
.LVL76:
	.loc 13 135 46 view .LVU180
	movq	(%rbx), %rdx
	.loc 13 135 29 view .LVU181
	movq	8(%rdx), %rcx
.LVL77:
	.loc 13 136 7 view .LVU182
	cmpq	%rax, 16(%rdx)
	jbe	.L42
	.loc 13 136 51 discriminator 1 view .LVU183
	movq	(%rcx,%rax,8), %rdi
	.loc 13 136 48 discriminator 1 view .LVU184
	testq	%rdi, %rdi
	je	.L42
	.loc 13 139 14 view .LVU185
	movl	$0, %ecx
.LVL78:
	.loc 13 139 14 view .LVU186
	movl	$_ZTIN5boost5logic18indeterminate_nameIwEE, %edx
.LVL79:
	.loc 13 139 14 view .LVU187
	movl	$_ZTINSt6locale5facetE, %esi
	call	__dynamic_cast
.LVL80:
	.loc 13 139 56 view .LVU188
	testq	%rax, %rax
	je	.L47
	.loc 13 143 5 view .LVU189
	popq	%rbx
	.cfi_remember_state
	.cfi_def_cfa_offset 8
.LVL81:
	.loc 13 143 5 view .LVU190
	ret
.LVL82:
.L42:
	.cfi_restore_state
	.loc 13 137 25 view .LVU191
	call	_ZSt16__throw_bad_castv
.LVL83:
.L47:
	.loc 13 139 14 discriminator 2 view .LVU192
	call	__cxa_bad_cast
.LVL84:
	.cfi_endproc
.LFE6987:
	.size	_ZSt9use_facetIN5boost5logic18indeterminate_nameIwEEERKT_RKSt6locale, .-_ZSt9use_facetIN5boost5logic18indeterminate_nameIwEEERKT_RKSt6locale
	.section	.text._ZNSt8_Rb_treeIN3mpp9ReqParser5StateESt4pairIKS2_NSt7__cxx1112basic_stringIcSt11char_traitsIcESaIcEEEESt10_Select1stISB_ESt4lessIS2_ESaISB_EE14_M_insert_nodeEPSt18_Rb_tree_node_baseSJ_PSt13_Rb_tree_nodeISB_E,"axG",@progbits,_ZNSt8_Rb_treeIN3mpp9ReqParser5StateESt4pairIKS2_NSt7__cxx1112basic_stringIcSt11char_traitsIcESaIcEEEESt10_Select1stISB_ESt4lessIS2_ESaISB_EE14_M_insert_nodeEPSt18_Rb_tree_node_baseSJ_PSt13_Rb_tree_nodeISB_E,comdat
	.align 2
	.weak	_ZNSt8_Rb_treeIN3mpp9ReqParser5StateESt4pairIKS2_NSt7__cxx1112basic_stringIcSt11char_traitsIcESaIcEEEESt10_Select1stISB_ESt4lessIS2_ESaISB_EE14_M_insert_nodeEPSt18_Rb_tree_node_baseSJ_PSt13_Rb_tree_nodeISB_E
	.type	_ZNSt8_Rb_treeIN3mpp9ReqParser5StateESt4pairIKS2_NSt7__cxx1112basic_stringIcSt11char_traitsIcESaIcEEEESt10_Select1stISB_ESt4lessIS2_ESaISB_EE14_M_insert_nodeEPSt18_Rb_tree_node_baseSJ_PSt13_Rb_tree_nodeISB_E, @function
_ZNSt8_Rb_treeIN3mpp9ReqParser5StateESt4pairIKS2_NSt7__cxx1112basic_stringIcSt11char_traitsIcESaIcEEEESt10_Select1stISB_ESt4lessIS2_ESaISB_EE14_M_insert_nodeEPSt18_Rb_tree_node_baseSJ_PSt13_Rb_tree_nodeISB_E:
.LVL85:
.LFB7146:
	.loc 11 2313 5 is_stmt 1 view -0
	.cfi_startproc
	.loc 11 2313 5 is_stmt 0 view .LVU194
	pushq	%rbp
	.cfi_def_cfa_offset 16
	.cfi_offset 6, -16
	pushq	%rbx
	.cfi_def_cfa_offset 24
	.cfi_offset 3, -24
	subq	$8, %rsp
	.cfi_def_cfa_offset 32
	movq	%rdi, %rbx
	movq	%rcx, %rbp
	.loc 11 2317 8 view .LVU195
	testq	%rsi, %rsi
	je	.L54
	movl	$1, %edi
.LVL86:
.L49:
	.loc 11 2321 23 view .LVU196
	leaq	8(%rbx), %rcx
.LVL87:
	.loc 11 2320 36 view .LVU197
	movzbl	%dil, %edi
	.loc 11 2320 36 view .LVU198
	movq	%rbp, %rsi
.LVL88:
	.loc 11 2320 36 view .LVU199
	call	_ZSt29_Rb_tree_insert_and_rebalancebPSt18_Rb_tree_node_baseS0_RS_
.LVL89:
	.loc 11 2322 7 view .LVU200
	movq	40(%rbx), %rax
	addq	$1, %rax
	movq	%rax, 40(%rbx)
.LVL90:
.LBB3977:
.LBI3977:
	.loc 11 273 7 is_stmt 1 view .LVU201
	.loc 11 273 7 is_stmt 0 view .LVU202
.LBE3977:
	.loc 11 2324 5 view .LVU203
	movq	%rbp, %rax
	addq	$8, %rsp
	.cfi_remember_state
	.cfi_def_cfa_offset 24
	popq	%rbx
	.cfi_def_cfa_offset 16
.LVL91:
	.loc 11 2324 5 view .LVU204
	popq	%rbp
	.cfi_def_cfa_offset 8
.LVL92:
	.loc 11 2324 5 view .LVU205
	ret
.LVL93:
.L54:
	.cfi_restore_state
.LBB3978:
.LBI3978:
	.loc 11 763 7 is_stmt 1 view .LVU206
.LBB3979:
	.loc 11 764 31 is_stmt 0 view .LVU207
	leaq	8(%rdi), %rax
.LVL94:
	.loc 11 764 31 view .LVU208
.LBE3979:
.LBE3978:
	.loc 11 2316 38 view .LVU209
	cmpq	%rax, %rdx
	je	.L51
.LVL95:
.LBB3980:
.LBI3980:
	.file 14 "/usr/include/c++/8/bits/stl_function.h"
	.loc 14 385 7 is_stmt 1 discriminator 2 view .LVU210
	.loc 14 385 7 is_stmt 0 discriminator 2 view .LVU211
.LBE3980:
	.loc 11 2317 8 discriminator 2 view .LVU212
	movl	32(%rdx), %eax
	cmpl	%eax, 32(%rcx)
	jl	.L52
	.loc 11 2317 8 view .LVU213
	movl	$0, %edi
	jmp	.L49
.L51:
	.loc 11 2317 8 view .LVU214
	movl	$1, %edi
	jmp	.L49
.L52:
	.loc 11 2317 8 view .LVU215
	movl	$1, %edi
	jmp	.L49
	.cfi_endproc
.LFE7146:
	.size	_ZNSt8_Rb_treeIN3mpp9ReqParser5StateESt4pairIKS2_NSt7__cxx1112basic_stringIcSt11char_traitsIcESaIcEEEESt10_Select1stISB_ESt4lessIS2_ESaISB_EE14_M_insert_nodeEPSt18_Rb_tree_node_baseSJ_PSt13_Rb_tree_nodeISB_E, .-_ZNSt8_Rb_treeIN3mpp9ReqParser5StateESt4pairIKS2_NSt7__cxx1112basic_stringIcSt11char_traitsIcESaIcEEEESt10_Select1stISB_ESt4lessIS2_ESaISB_EE14_M_insert_nodeEPSt18_Rb_tree_node_baseSJ_PSt13_Rb_tree_nodeISB_E
	.section	.rodata._ZNSt7__cxx1112basic_stringIcSt11char_traitsIcESaIcEE12_M_constructIPKcEEvT_S8_St20forward_iterator_tag.str1.8,"aMS",@progbits,1
	.align 8
.LC0:
	.string	"basic_string::_M_construct null not valid"
	.section	.text._ZNSt7__cxx1112basic_stringIcSt11char_traitsIcESaIcEE12_M_constructIPKcEEvT_S8_St20forward_iterator_tag,"axG",@progbits,_ZNSt7__cxx1112basic_stringIcSt11char_traitsIcESaIcEE12_M_constructIPKcEEvT_S8_St20forward_iterator_tag,comdat
	.align 2
	.weak	_ZNSt7__cxx1112basic_stringIcSt11char_traitsIcESaIcEE12_M_constructIPKcEEvT_S8_St20forward_iterator_tag
	.type	_ZNSt7__cxx1112basic_stringIcSt11char_traitsIcESaIcEE12_M_constructIPKcEEvT_S8_St20forward_iterator_tag, @function
_ZNSt7__cxx1112basic_stringIcSt11char_traitsIcESaIcEE12_M_constructIPKcEEvT_S8_St20forward_iterator_tag:
.LVL96:
.LFB7177:
	.file 15 "/usr/include/c++/8/bits/basic_string.tcc"
	.loc 15 206 7 is_stmt 1 view -0
	.cfi_startproc
	.loc 15 206 7 is_stmt 0 view .LVU217
	pushq	%r12
	.cfi_def_cfa_offset 16
	.cfi_offset 12, -16
	pushq	%rbp
	.cfi_def_cfa_offset 24
	.cfi_offset 6, -24
	pushq	%rbx
	.cfi_def_cfa_offset 32
	.cfi_offset 3, -32
	subq	$16, %rsp
	.cfi_def_cfa_offset 48
	movq	%rdi, %rbp
	movq	%rsi, %r12
	.loc 15 211 42 view .LVU218
	testq	%rsi, %rsi
	je	.L61
.L56:
.LVL97:
.LBB3981:
.LBI3981:
	.file 16 "/usr/include/c++/8/bits/stl_iterator_base_funcs.h"
	.loc 16 138 5 is_stmt 1 view .LVU219
.LBB3982:
.LBI3982:
	.loc 16 98 5 view .LVU220
.LBB3983:
	.loc 16 104 23 is_stmt 0 view .LVU221
	subq	%r12, %rdx
.LVL98:
	.loc 16 104 23 view .LVU222
	movq	%rdx, %rbx
.LVL99:
	.loc 16 104 23 view .LVU223
.LBE3983:
.LBE3982:
.LBE3981:
	.loc 15 215 12 view .LVU224
	movq	%rdx, 8(%rsp)
	.loc 15 217 2 view .LVU225
	cmpq	$15, %rdx
	ja	.L62
.LVL100:
.L57:
.LBB3984:
.LBI3984:
	.loc 6 175 7 is_stmt 1 view .LVU226
.LBB3985:
	.loc 6 176 28 is_stmt 0 view .LVU227
	movq	0(%rbp), %rdi
.LVL101:
	.loc 6 176 28 view .LVU228
.LBE3985:
.LBE3984:
.LBB3986:
.LBI3986:
	.loc 6 385 7 is_stmt 1 view .LVU229
.LBB3987:
.LBI3987:
	.loc 6 335 7 view .LVU230
.LBB3988:
	.loc 6 337 2 is_stmt 0 view .LVU231
	cmpq	$1, %rbx
	je	.L63
.LVL102:
.LBB3989:
.LBI3989:
	.file 17 "/usr/include/c++/8/bits/char_traits.h"
	.loc 17 346 7 is_stmt 1 view .LVU232
.LBB3990:
	.loc 17 348 2 view .LVU233
	testq	%rbx, %rbx
	je	.L59
	.loc 17 350 2 view .LVU234
	.loc 17 350 49 is_stmt 0 view .LVU235
	movq	%rbx, %rdx
	movq	%r12, %rsi
	call	memcpy
.LVL103:
	.loc 17 350 49 view .LVU236
	jmp	.L59
.LVL104:
.L61:
	.loc 17 350 49 view .LVU237
.LBE3990:
.LBE3989:
.LBE3988:
.LBE3987:
.LBE3986:
	.loc 15 211 42 discriminator 1 view .LVU238
	cmpq	%rdx, %rsi
	je	.L56
	.loc 15 212 28 view .LVU239
	movl	$.LC0, %edi
.LVL105:
	.loc 15 212 28 view .LVU240
	call	_ZSt19__throw_logic_errorPKc
.LVL106:
.L62:
	.loc 15 219 6 view .LVU241
	movl	$0, %edx
	leaq	8(%rsp), %rsi
.LVL107:
	.loc 15 219 6 view .LVU242
	movq	%rbp, %rdi
.LVL108:
	.loc 15 219 6 view .LVU243
	call	_ZNSt7__cxx1112basic_stringIcSt11char_traitsIcESaIcEE9_M_createERmm
.LVL109:
.LBB3995:
.LBI3995:
	.loc 6 167 7 is_stmt 1 view .LVU244
.LBB3996:
	.loc 6 168 9 is_stmt 0 view .LVU245
	movq	%rax, 0(%rbp)
.LVL110:
	.loc 6 168 9 view .LVU246
.LBE3996:
.LBE3995:
	.loc 15 220 6 view .LVU247
	movq	8(%rsp), %rax
.LVL111:
.LBB3997:
.LBI3997:
	.loc 6 199 7 is_stmt 1 view .LVU248
.LBB3998:
	.loc 6 200 9 is_stmt 0 view .LVU249
	movq	%rax, 16(%rbp)
	jmp	.L57
.LVL112:
.L63:
	.loc 6 200 9 view .LVU250
.LBE3998:
.LBE3997:
.LBB3999:
.LBB3994:
.LBB3993:
.LBB3991:
.LBI3991:
	.loc 17 284 7 is_stmt 1 view .LVU251
.LBB3992:
	.loc 17 285 9 view .LVU252
	.loc 17 285 16 is_stmt 0 view .LVU253
	movzbl	(%r12), %eax
	.loc 17 285 14 view .LVU254
	movb	%al, (%rdi)
.LVL113:
.L59:
	.loc 17 285 14 view .LVU255
.LBE3992:
.LBE3991:
.LBE3993:
.LBE3994:
.LBE3999:
	.loc 15 232 2 view .LVU256
	movq	8(%rsp), %rax
.LVL114:
.LBB4000:
.LBI4000:
	.loc 6 203 7 is_stmt 1 view .LVU257
.LBB4001:
.LBB4002:
.LBI4002:
	.loc 6 171 7 view .LVU258
.LBB4003:
	.loc 6 172 9 is_stmt 0 view .LVU259
	movq	%rax, 8(%rbp)
.LVL115:
	.loc 6 172 9 view .LVU260
.LBE4003:
.LBE4002:
.LBB4004:
.LBI4004:
	.loc 6 175 7 is_stmt 1 view .LVU261
	.loc 6 175 7 is_stmt 0 view .LVU262
.LBE4004:
	.loc 6 206 31 view .LVU263
	addq	0(%rbp), %rax
.LVL116:
.LBB4005:
.LBI4005:
	.loc 17 284 7 is_stmt 1 view .LVU264
.LBB4006:
	.loc 17 285 9 view .LVU265
	.loc 17 285 14 is_stmt 0 view .LVU266
	movb	$0, (%rax)
.LVL117:
	.loc 17 285 14 view .LVU267
.LBE4006:
.LBE4005:
.LBE4001:
.LBE4000:
	.loc 15 233 7 view .LVU268
	addq	$16, %rsp
	.cfi_def_cfa_offset 32
	popq	%rbx
	.cfi_def_cfa_offset 24
	popq	%rbp
	.cfi_def_cfa_offset 16
.LVL118:
	.loc 15 233 7 view .LVU269
	popq	%r12
	.cfi_def_cfa_offset 8
.LVL119:
	.loc 15 233 7 view .LVU270
	ret
	.cfi_endproc
.LFE7177:
	.size	_ZNSt7__cxx1112basic_stringIcSt11char_traitsIcESaIcEE12_M_constructIPKcEEvT_S8_St20forward_iterator_tag, .-_ZNSt7__cxx1112basic_stringIcSt11char_traitsIcESaIcEE12_M_constructIPKcEEvT_S8_St20forward_iterator_tag
	.section	.text._ZNSt7__cxx1112basic_stringIwSt11char_traitsIwESaIwEE12_M_constructIPKwEEvT_S8_St20forward_iterator_tag,"axG",@progbits,_ZNSt7__cxx1112basic_stringIwSt11char_traitsIwESaIwEE12_M_constructIPKwEEvT_S8_St20forward_iterator_tag,comdat
	.align 2
	.weak	_ZNSt7__cxx1112basic_stringIwSt11char_traitsIwESaIwEE12_M_constructIPKwEEvT_S8_St20forward_iterator_tag
	.type	_ZNSt7__cxx1112basic_stringIwSt11char_traitsIwESaIwEE12_M_constructIPKwEEvT_S8_St20forward_iterator_tag, @function
_ZNSt7__cxx1112basic_stringIwSt11char_traitsIwESaIwEE12_M_constructIPKwEEvT_S8_St20forward_iterator_tag:
.LVL120:
.LFB7178:
	.loc 15 206 7 is_stmt 1 view -0
	.cfi_startproc
	.loc 15 206 7 is_stmt 0 view .LVU272
	pushq	%r12
	.cfi_def_cfa_offset 16
	.cfi_offset 12, -16
	pushq	%rbp
	.cfi_def_cfa_offset 24
	.cfi_offset 6, -24
	pushq	%rbx
	.cfi_def_cfa_offset 32
	.cfi_offset 3, -32
	subq	$16, %rsp
	.cfi_def_cfa_offset 48
	movq	%rdi, %rbp
	movq	%rsi, %r12
	.loc 15 211 42 view .LVU273
	testq	%rsi, %rsi
	je	.L70
.L65:
.LVL121:
.LBB4007:
.LBI4007:
	.loc 16 138 5 is_stmt 1 view .LVU274
.LBB4008:
.LBI4008:
	.loc 16 98 5 view .LVU275
.LBB4009:
	.loc 16 104 21 is_stmt 0 view .LVU276
	subq	%r12, %rdx
.LVL122:
	.loc 16 104 23 view .LVU277
	movq	%rdx, %rbx
	sarq	$2, %rbx
.LVL123:
	.loc 16 104 23 view .LVU278
.LBE4009:
.LBE4008:
.LBE4007:
	.loc 15 215 12 view .LVU279
	movq	%rbx, 8(%rsp)
	.loc 15 217 2 view .LVU280
	cmpq	$3, %rbx
	ja	.L71
.LVL124:
.L66:
.LBB4010:
.LBI4010:
	.loc 6 175 7 is_stmt 1 view .LVU281
.LBB4011:
	.loc 6 176 28 is_stmt 0 view .LVU282
	movq	0(%rbp), %rdi
.LVL125:
	.loc 6 176 28 view .LVU283
.LBE4011:
.LBE4010:
.LBB4012:
.LBI4012:
	.loc 6 385 7 is_stmt 1 view .LVU284
.LBB4013:
.LBI4013:
	.loc 6 335 7 view .LVU285
.LBB4014:
	.loc 6 337 2 is_stmt 0 view .LVU286
	cmpq	$1, %rbx
	je	.L72
.LVL126:
.LBB4015:
.LBI4015:
	.loc 17 458 7 is_stmt 1 view .LVU287
.LBB4016:
	.loc 17 460 2 view .LVU288
	testq	%rbx, %rbx
	je	.L68
	.loc 17 462 2 view .LVU289
	.loc 17 462 16 is_stmt 0 view .LVU290
	movq	%rbx, %rdx
	movq	%r12, %rsi
	call	wmemcpy
.LVL127:
	.loc 17 462 16 view .LVU291
	jmp	.L68
.LVL128:
.L70:
	.loc 17 462 16 view .LVU292
.LBE4016:
.LBE4015:
.LBE4014:
.LBE4013:
.LBE4012:
	.loc 15 211 42 discriminator 1 view .LVU293
	cmpq	%rdx, %rsi
	je	.L65
	.loc 15 212 28 view .LVU294
	movl	$.LC0, %edi
.LVL129:
	.loc 15 212 28 view .LVU295
	call	_ZSt19__throw_logic_errorPKc
.LVL130:
.L71:
	.loc 15 219 6 view .LVU296
	movl	$0, %edx
	leaq	8(%rsp), %rsi
.LVL131:
	.loc 15 219 6 view .LVU297
	movq	%rbp, %rdi
.LVL132:
	.loc 15 219 6 view .LVU298
	call	_ZNSt7__cxx1112basic_stringIwSt11char_traitsIwESaIwEE9_M_createERmm
.LVL133:
.LBB4021:
.LBI4021:
	.loc 6 167 7 is_stmt 1 view .LVU299
.LBB4022:
	.loc 6 168 9 is_stmt 0 view .LVU300
	movq	%rax, 0(%rbp)
.LVL134:
	.loc 6 168 9 view .LVU301
.LBE4022:
.LBE4021:
	.loc 15 220 6 view .LVU302
	movq	8(%rsp), %rax
.LVL135:
.LBB4023:
.LBI4023:
	.loc 6 199 7 is_stmt 1 view .LVU303
.LBB4024:
	.loc 6 200 9 is_stmt 0 view .LVU304
	movq	%rax, 16(%rbp)
	jmp	.L66
.LVL136:
.L72:
	.loc 6 200 9 view .LVU305
.LBE4024:
.LBE4023:
.LBB4025:
.LBB4020:
.LBB4019:
.LBB4017:
.LBI4017:
	.loc 17 397 7 is_stmt 1 view .LVU306
.LBB4018:
	.loc 17 398 9 view .LVU307
	.loc 17 398 16 is_stmt 0 view .LVU308
	movl	(%r12), %eax
	.loc 17 398 14 view .LVU309
	movl	%eax, (%rdi)
.LVL137:
.L68:
	.loc 17 398 14 view .LVU310
.LBE4018:
.LBE4017:
.LBE4019:
.LBE4020:
.LBE4025:
	.loc 15 232 2 view .LVU311
	movq	8(%rsp), %rax
.LVL138:
.LBB4026:
.LBI4026:
	.loc 6 203 7 is_stmt 1 view .LVU312
.LBB4027:
.LBB4028:
.LBI4028:
	.loc 6 171 7 view .LVU313
.LBB4029:
	.loc 6 172 9 is_stmt 0 view .LVU314
	movq	%rax, 8(%rbp)
.LVL139:
	.loc 6 172 9 view .LVU315
.LBE4029:
.LBE4028:
.LBB4030:
.LBI4030:
	.loc 6 175 7 is_stmt 1 view .LVU316
	.loc 6 175 7 is_stmt 0 view .LVU317
.LBE4030:
	.loc 6 206 31 view .LVU318
	salq	$2, %rax
.LVL140:
	.loc 6 206 31 view .LVU319
	addq	0(%rbp), %rax
.LVL141:
.LBB4031:
.LBI4031:
	.loc 17 397 7 is_stmt 1 view .LVU320
.LBB4032:
	.loc 17 398 9 view .LVU321
	.loc 17 398 14 is_stmt 0 view .LVU322
	movl	$0, (%rax)
.LVL142:
	.loc 17 398 14 view .LVU323
.LBE4032:
.LBE4031:
.LBE4027:
.LBE4026:
	.loc 15 233 7 view .LVU324
	addq	$16, %rsp
	.cfi_def_cfa_offset 32
	popq	%rbx
	.cfi_def_cfa_offset 24
	popq	%rbp
	.cfi_def_cfa_offset 16
.LVL143:
	.loc 15 233 7 view .LVU325
	popq	%r12
	.cfi_def_cfa_offset 8
.LVL144:
	.loc 15 233 7 view .LVU326
	ret
	.cfi_endproc
.LFE7178:
	.size	_ZNSt7__cxx1112basic_stringIwSt11char_traitsIwESaIwEE12_M_constructIPKwEEvT_S8_St20forward_iterator_tag, .-_ZNSt7__cxx1112basic_stringIwSt11char_traitsIwESaIwEE12_M_constructIPKwEEvT_S8_St20forward_iterator_tag
	.section	.text._ZNSt7__cxx1112basic_stringIcSt11char_traitsIcESaIcEE12_M_constructIPcEEvT_S7_St20forward_iterator_tag,"axG",@progbits,_ZNSt7__cxx1112basic_stringIcSt11char_traitsIcESaIcEE12_M_constructIPcEEvT_S7_St20forward_iterator_tag,comdat
	.align 2
	.weak	_ZNSt7__cxx1112basic_stringIcSt11char_traitsIcESaIcEE12_M_constructIPcEEvT_S7_St20forward_iterator_tag
	.type	_ZNSt7__cxx1112basic_stringIcSt11char_traitsIcESaIcEE12_M_constructIPcEEvT_S7_St20forward_iterator_tag, @function
_ZNSt7__cxx1112basic_stringIcSt11char_traitsIcESaIcEE12_M_constructIPcEEvT_S7_St20forward_iterator_tag:
.LVL145:
.LFB7221:
	.loc 15 206 7 is_stmt 1 view -0
	.cfi_startproc
	.loc 15 206 7 is_stmt 0 view .LVU328
	pushq	%r12
	.cfi_def_cfa_offset 16
	.cfi_offset 12, -16
	pushq	%rbp
	.cfi_def_cfa_offset 24
	.cfi_offset 6, -24
	pushq	%rbx
	.cfi_def_cfa_offset 32
	.cfi_offset 3, -32
	subq	$16, %rsp
	.cfi_def_cfa_offset 48
	movq	%rdi, %rbp
	movq	%rsi, %r12
	.loc 15 211 42 view .LVU329
	testq	%rsi, %rsi
	je	.L79
.L74:
.LVL146:
.LBB4033:
.LBI4033:
	.loc 16 138 5 is_stmt 1 view .LVU330
.LBB4034:
.LBI4034:
	.loc 16 98 5 view .LVU331
.LBB4035:
	.loc 16 104 23 is_stmt 0 view .LVU332
	subq	%r12, %rdx
.LVL147:
	.loc 16 104 23 view .LVU333
	movq	%rdx, %rbx
.LVL148:
	.loc 16 104 23 view .LVU334
.LBE4035:
.LBE4034:
.LBE4033:
	.loc 15 215 12 view .LVU335
	movq	%rdx, 8(%rsp)
	.loc 15 217 2 view .LVU336
	cmpq	$15, %rdx
	ja	.L80
.LVL149:
.L75:
.LBB4036:
.LBI4036:
	.loc 6 175 7 is_stmt 1 view .LVU337
.LBB4037:
	.loc 6 176 28 is_stmt 0 view .LVU338
	movq	0(%rbp), %rdi
.LVL150:
	.loc 6 176 28 view .LVU339
.LBE4037:
.LBE4036:
.LBB4038:
.LBI4038:
	.loc 6 381 7 is_stmt 1 view .LVU340
.LBB4039:
.LBI4039:
	.loc 6 335 7 view .LVU341
.LBB4040:
	.loc 6 337 2 is_stmt 0 view .LVU342
	cmpq	$1, %rbx
	je	.L81
.LVL151:
.LBB4041:
.LBI4041:
	.loc 17 346 7 is_stmt 1 view .LVU343
.LBB4042:
	.loc 17 348 2 view .LVU344
	testq	%rbx, %rbx
	je	.L77
	.loc 17 350 2 view .LVU345
	.loc 17 350 49 is_stmt 0 view .LVU346
	movq	%rbx, %rdx
	movq	%r12, %rsi
	call	memcpy
.LVL152:
	.loc 17 350 49 view .LVU347
	jmp	.L77
.LVL153:
.L79:
	.loc 17 350 49 view .LVU348
.LBE4042:
.LBE4041:
.LBE4040:
.LBE4039:
.LBE4038:
	.loc 15 211 42 discriminator 1 view .LVU349
	cmpq	%rdx, %rsi
	je	.L74
	.loc 15 212 28 view .LVU350
	movl	$.LC0, %edi
.LVL154:
	.loc 15 212 28 view .LVU351
	call	_ZSt19__throw_logic_errorPKc
.LVL155:
.L80:
	.loc 15 219 6 view .LVU352
	movl	$0, %edx
	leaq	8(%rsp), %rsi
.LVL156:
	.loc 15 219 6 view .LVU353
	movq	%rbp, %rdi
.LVL157:
	.loc 15 219 6 view .LVU354
	call	_ZNSt7__cxx1112basic_stringIcSt11char_traitsIcESaIcEE9_M_createERmm
.LVL158:
.LBB4047:
.LBI4047:
	.loc 6 167 7 is_stmt 1 view .LVU355
.LBB4048:
	.loc 6 168 9 is_stmt 0 view .LVU356
	movq	%rax, 0(%rbp)
.LVL159:
	.loc 6 168 9 view .LVU357
.LBE4048:
.LBE4047:
	.loc 15 220 6 view .LVU358
	movq	8(%rsp), %rax
.LVL160:
.LBB4049:
.LBI4049:
	.loc 6 199 7 is_stmt 1 view .LVU359
.LBB4050:
	.loc 6 200 9 is_stmt 0 view .LVU360
	movq	%rax, 16(%rbp)
	jmp	.L75
.LVL161:
.L81:
	.loc 6 200 9 view .LVU361
.LBE4050:
.LBE4049:
.LBB4051:
.LBB4046:
.LBB4045:
.LBB4043:
.LBI4043:
	.loc 17 284 7 is_stmt 1 view .LVU362
.LBB4044:
	.loc 17 285 9 view .LVU363
	.loc 17 285 16 is_stmt 0 view .LVU364
	movzbl	(%r12), %eax
	.loc 17 285 14 view .LVU365
	movb	%al, (%rdi)
.LVL162:
.L77:
	.loc 17 285 14 view .LVU366
.LBE4044:
.LBE4043:
.LBE4045:
.LBE4046:
.LBE4051:
	.loc 15 232 2 view .LVU367
	movq	8(%rsp), %rax
.LVL163:
.LBB4052:
.LBI4052:
	.loc 6 203 7 is_stmt 1 view .LVU368
.LBB4053:
.LBB4054:
.LBI4054:
	.loc 6 171 7 view .LVU369
.LBB4055:
	.loc 6 172 9 is_stmt 0 view .LVU370
	movq	%rax, 8(%rbp)
.LVL164:
	.loc 6 172 9 view .LVU371
.LBE4055:
.LBE4054:
.LBB4056:
.LBI4056:
	.loc 6 175 7 is_stmt 1 view .LVU372
	.loc 6 175 7 is_stmt 0 view .LVU373
.LBE4056:
	.loc 6 206 31 view .LVU374
	addq	0(%rbp), %rax
.LVL165:
.LBB4057:
.LBI4057:
	.loc 17 284 7 is_stmt 1 view .LVU375
.LBB4058:
	.loc 17 285 9 view .LVU376
	.loc 17 285 14 is_stmt 0 view .LVU377
	movb	$0, (%rax)
.LVL166:
	.loc 17 285 14 view .LVU378
.LBE4058:
.LBE4057:
.LBE4053:
.LBE4052:
	.loc 15 233 7 view .LVU379
	addq	$16, %rsp
	.cfi_def_cfa_offset 32
	popq	%rbx
	.cfi_def_cfa_offset 24
	popq	%rbp
	.cfi_def_cfa_offset 16
.LVL167:
	.loc 15 233 7 view .LVU380
	popq	%r12
	.cfi_def_cfa_offset 8
.LVL168:
	.loc 15 233 7 view .LVU381
	ret
	.cfi_endproc
.LFE7221:
	.size	_ZNSt7__cxx1112basic_stringIcSt11char_traitsIcESaIcEE12_M_constructIPcEEvT_S7_St20forward_iterator_tag, .-_ZNSt7__cxx1112basic_stringIcSt11char_traitsIcESaIcEE12_M_constructIPcEEvT_S7_St20forward_iterator_tag
	.section	.rodata._ZN5boost5logiclsIcSt11char_traitsIcEEERSt13basic_ostreamIT_T0_ES8_NS0_7triboolE.str1.1,"aMS",@progbits,1
.LC1:
	.string	"indeterminate"
	.section	.text._ZN5boost5logiclsIcSt11char_traitsIcEEERSt13basic_ostreamIT_T0_ES8_NS0_7triboolE,"axG",@progbits,_ZN5boost5logiclsIcSt11char_traitsIcEEERSt13basic_ostreamIT_T0_ES8_NS0_7triboolE,comdat
	.weak	_ZN5boost5logiclsIcSt11char_traitsIcEEERSt13basic_ostreamIT_T0_ES8_NS0_7triboolE
	.type	_ZN5boost5logiclsIcSt11char_traitsIcEEERSt13basic_ostreamIT_T0_ES8_NS0_7triboolE, @function
_ZN5boost5logiclsIcSt11char_traitsIcEEERSt13basic_ostreamIT_T0_ES8_NS0_7triboolE:
.LVL169:
.LFB6643:
	.loc 3 173 1 is_stmt 1 view -0
	.cfi_startproc
	.cfi_personality 0x3,__gxx_personality_v0
	.cfi_lsda 0x3,.LLSDA6643
	.loc 3 173 1 is_stmt 0 view .LVU383
	pushq	%rbp
	.cfi_def_cfa_offset 16
	.cfi_offset 6, -16
	pushq	%rbx
	.cfi_def_cfa_offset 24
	.cfi_offset 3, -24
	subq	$72, %rsp
	.cfi_def_cfa_offset 96
	movq	%rdi, %rbx
.LBB4352:
.LBB4353:
.LBI4353:
	.file 18 "/usr/local/include/boost/logic/tribool.hpp"
	.loc 18 139 23 is_stmt 1 view .LVU384
.LBB4354:
	.loc 18 141 3 view .LVU385
.LBE4354:
.LBE4353:
	.loc 3 175 3 is_stmt 0 view .LVU386
	cmpl	$2, %esi
	je	.L83
.LVL170:
.LBB4355:
.LBI4355:
	.loc 18 116 22 is_stmt 1 view .LVU387
.LBB4356:
	.loc 18 118 5 view .LVU388
	.loc 18 118 21 is_stmt 0 view .LVU389
	cmpl	$1, %esi
.LVL171:
	.loc 18 118 21 view .LVU390
.LBE4356:
.LBE4355:
	.loc 3 176 9 view .LVU391
	sete	%sil
.LVL172:
	.loc 3 176 9 view .LVU392
	movzbl	%sil, %esi
.LVL173:
.LBB4357:
.LBI4357:
	.file 19 "/usr/include/c++/8/ostream"
	.loc 19 174 7 is_stmt 1 view .LVU393
.LEHB0:
.LBB4358:
	.loc 19 175 29 is_stmt 0 view .LVU394
	call	_ZNSo9_M_insertIbEERSoT_
.LVL174:
.L101:
	.loc 19 175 29 view .LVU395
.LBE4358:
.LBE4357:
.LBE4352:
	.loc 3 198 1 view .LVU396
	movq	%rbx, %rax
	addq	$72, %rsp
	.cfi_remember_state
	.cfi_def_cfa_offset 24
	popq	%rbx
	.cfi_def_cfa_offset 16
.LVL175:
	.loc 3 198 1 view .LVU397
	popq	%rbp
	.cfi_def_cfa_offset 8
	ret
.LVL176:
.L83:
	.cfi_restore_state
.LBB4518:
.LBB4359:
	.loc 3 178 56 view .LVU398
	movq	%rdi, %rsi
.LVL177:
	.loc 3 178 56 view .LVU399
	movq	%rsp, %rdi
	call	_ZNSo6sentryC1ERSo
.LVL178:
.LEHE0:
.LBB4360:
.LBB4361:
.LBI4361:
	.loc 19 475 7 is_stmt 1 view .LVU400
	.loc 19 475 7 is_stmt 0 view .LVU401
.LBE4361:
	.loc 3 179 5 view .LVU402
	cmpb	$0, (%rsp)
	je	.L85
.LBB4362:
	.loc 3 180 23 view .LVU403
	movq	(%rbx), %rax
	movq	%rbx, %rsi
	addq	-24(%rax), %rsi
.LVL179:
.LBB4363:
.LBI4363:
	.file 20 "/usr/include/c++/8/bits/ios_base.h"
	.loc 20 621 5 is_stmt 1 view .LVU404
.LBB4364:
	.loc 20 622 7 view .LVU405
	.loc 20 622 7 is_stmt 0 view .LVU406
.LBE4364:
.LBE4363:
.LBB4365:
.LBI4365:
	.loc 20 83 3 is_stmt 1 view .LVU407
.LBB4366:
	.loc 20 84 5 view .LVU408
	.loc 20 84 5 is_stmt 0 view .LVU409
.LBE4366:
.LBE4365:
	.loc 3 180 7 view .LVU410
	testb	$1, 24(%rsi)
	je	.L86
.LVL180:
.LBB4367:
.LBB4368:
.LBI4368:
	.loc 20 765 5 is_stmt 1 view .LVU411
.LBB4369:
	.loc 20 766 7 view .LVU412
	.loc 20 766 14 is_stmt 0 view .LVU413
	addq	$208, %rsi
.LVL181:
	.loc 20 766 14 view .LVU414
	leaq	48(%rsp), %rdi
	call	_ZNSt6localeC1ERKS_
.LVL182:
	.loc 20 766 14 view .LVU415
.LBE4369:
.LBE4368:
	.loc 3 182 56 view .LVU416
	leaq	48(%rsp), %rdi
	call	_ZSt9has_facetIN5boost5logic18indeterminate_nameIcEEEbRKSt6locale
.LVL183:
	movl	%eax, %ebp
	leaq	48(%rsp), %rdi
	call	_ZNSt6localeD1Ev
.LVL184:
	.loc 3 182 9 view .LVU417
	testb	%bpl, %bpl
	je	.L87
.LBB4370:
	.loc 3 184 56 view .LVU418
	movq	(%rbx), %rax
	movq	%rbx, %rsi
	addq	-24(%rax), %rsi
.LVL185:
.LBB4371:
.LBI4371:
	.loc 20 765 5 is_stmt 1 view .LVU419
.LBB4372:
	.loc 20 766 7 view .LVU420
	.loc 20 766 14 is_stmt 0 view .LVU421
	addq	$208, %rsi
.LVL186:
	.loc 20 766 14 view .LVU422
	leaq	56(%rsp), %rdi
	call	_ZNSt6localeC1ERKS_
.LVL187:
	.loc 20 766 14 view .LVU423
.LBE4372:
.LBE4371:
	.loc 3 184 56 view .LVU424
	leaq	56(%rsp), %rdi
.LEHB1:
	call	_ZSt9use_facetIN5boost5logic18indeterminate_nameIcEEERKT_RKSt6locale
.LVL188:
.LEHE1:
	movq	%rax, %rbp
.LVL189:
	.loc 3 184 56 view .LVU425
	leaq	56(%rsp), %rdi
	call	_ZNSt6localeD1Ev
.LVL190:
.LBB4373:
.LBI4373:
	.loc 3 141 15 is_stmt 1 view .LVU426
.LBB4374:
.LBI4374:
	.loc 6 437 7 view .LVU427
.LBB4375:
.LBB4376:
.LBI4376:
	.loc 6 279 7 view .LVU428
	.loc 6 279 7 is_stmt 0 view .LVU429
.LBE4376:
.LBB4377:
.LBI4377:
	.file 21 "/usr/include/c++/8/ext/alloc_traits.h"
	.loc 21 94 19 is_stmt 1 view .LVU430
.LBB4378:
.LBI4378:
	.loc 7 504 7 view .LVU431
.LBB4379:
.LBI4379:
	.loc 9 133 7 view .LVU432
.LBB4380:
.LBI4380:
	.loc 8 81 7 view .LVU433
	.loc 8 81 7 is_stmt 0 view .LVU434
.LBE4380:
.LBE4379:
.LBE4378:
.LBE4377:
.LBB4381:
.LBI4381:
	.loc 6 179 7 is_stmt 1 view .LVU435
	.loc 6 179 7 is_stmt 0 view .LVU436
.LBE4381:
.LBB4382:
.LBI4382:
	.loc 6 148 2 is_stmt 1 view .LVU437
.LBB4383:
.LBB4384:
.LBI4384:
	.file 22 "/usr/include/c++/8/bits/move.h"
	.loc 22 99 5 view .LVU438
	.loc 22 99 5 is_stmt 0 view .LVU439
.LBE4384:
.LBB4385:
.LBI4385:
	.loc 9 133 7 is_stmt 1 view .LVU440
.LBB4386:
.LBI4386:
	.loc 8 81 7 view .LVU441
	.loc 8 81 7 is_stmt 0 view .LVU442
.LBE4386:
.LBE4385:
	.loc 6 149 46 view .LVU443
	leaq	32(%rsp), %rax
.LVL191:
	.loc 6 149 46 view .LVU444
	movq	%rax, 16(%rsp)
.LVL192:
	.loc 6 149 46 view .LVU445
.LBE4383:
.LBE4382:
.LBB4387:
.LBI4387:
	.loc 9 139 7 is_stmt 1 view .LVU446
.LBB4388:
.LBI4388:
	.loc 8 86 7 view .LVU447
	.loc 8 86 7 is_stmt 0 view .LVU448
.LBE4388:
.LBE4387:
.LBB4389:
.LBI4389:
	.loc 6 175 7 is_stmt 1 view .LVU449
.LBB4390:
	.loc 6 176 28 is_stmt 0 view .LVU450
	movq	16(%rbp), %rsi
.LVL193:
	.loc 6 176 28 view .LVU451
.LBE4390:
.LBE4389:
.LBB4391:
.LBI4391:
	.loc 6 927 7 is_stmt 1 view .LVU452
	.loc 6 927 7 is_stmt 0 view .LVU453
.LBE4391:
	.loc 6 440 9 view .LVU454
	movq	%rsi, %rdx
	addq	24(%rbp), %rdx
.LVL194:
.LBB4392:
.LBI4392:
	.loc 6 175 7 is_stmt 1 view .LVU455
	.loc 6 175 7 is_stmt 0 view .LVU456
.LBE4392:
.LBB4393:
.LBI4393:
	.loc 6 252 9 is_stmt 1 view .LVU457
.LBB4394:
.LBB4395:
.LBI4395:
	.loc 6 232 9 view .LVU458
.LBB4396:
	.loc 6 236 11 is_stmt 0 view .LVU459
	leaq	16(%rsp), %rdi
.LVL195:
.LEHB2:
	.loc 6 236 11 view .LVU460
	call	_ZNSt7__cxx1112basic_stringIcSt11char_traitsIcESaIcEE12_M_constructIPcEEvT_S7_St20forward_iterator_tag
.LVL196:
.LEHE2:
	.loc 6 236 11 view .LVU461
.LBE4396:
.LBE4395:
.LBE4394:
.LBE4393:
.LBE4375:
.LBE4374:
.LBE4373:
.LBB4397:
.LBI4397:
	.loc 6 6314 5 is_stmt 1 view .LVU462
.LBB4398:
.LBB4399:
.LBI4399:
	.loc 6 921 7 view .LVU463
	.loc 6 921 7 is_stmt 0 view .LVU464
.LBE4399:
.LBB4400:
.LBI4400:
	.loc 6 2293 7 is_stmt 1 view .LVU465
.LBB4401:
.LBI4401:
	.loc 6 175 7 view .LVU466
	.loc 6 175 7 is_stmt 0 view .LVU467
.LBE4401:
.LBE4400:
	.loc 6 6319 30 view .LVU468
	movq	24(%rsp), %rdx
	movq	16(%rsp), %rsi
	movq	%rbx, %rdi
.LEHB3:
	call	_ZSt16__ostream_insertIcSt11char_traitsIcEERSt13basic_ostreamIT_T0_ES6_PKS3_l
.LVL197:
.LEHE3:
	.loc 6 6319 30 view .LVU469
.LBE4398:
.LBE4397:
.LBB4402:
.LBI4402:
	.loc 6 656 7 is_stmt 1 view .LVU470
.LBB4403:
.LBI4403:
	.loc 6 218 7 view .LVU471
.LBB4404:
.LBB4405:
.LBI4405:
	.loc 6 210 7 view .LVU472
.LBB4406:
.LBI4406:
	.loc 6 175 7 view .LVU473
.LBB4407:
	.loc 6 176 28 is_stmt 0 view .LVU474
	movq	16(%rsp), %rdi
.LVL198:
	.loc 6 176 28 view .LVU475
.LBE4407:
.LBE4406:
.LBB4408:
.LBI4408:
	.loc 6 189 7 is_stmt 1 view .LVU476
	.loc 6 189 7 is_stmt 0 view .LVU477
.LBE4408:
.LBE4405:
	.loc 6 220 2 view .LVU478
	leaq	32(%rsp), %rax
	cmpq	%rax, %rdi
	je	.L85
.LVL199:
.LBB4409:
.LBI4409:
	.loc 6 225 7 is_stmt 1 view .LVU479
.LBB4410:
.LBI4410:
	.loc 7 461 7 view .LVU480
.LBB4411:
.LBI4411:
	.loc 8 116 7 view .LVU481
.LBB4412:
	.loc 8 125 19 is_stmt 0 view .LVU482
	call	_ZdlPv
.LVL200:
	.loc 8 125 19 view .LVU483
.LBE4412:
.LBE4411:
.LBE4410:
.LBE4409:
.LBE4404:
.LBE4403:
.LBB4413:
.LBI4413:
	.loc 6 139 14 is_stmt 1 view .LVU484
.LBB4414:
.LBI4414:
	.loc 9 139 7 view .LVU485
.LBB4415:
.LBI4415:
	.loc 8 86 7 view .LVU486
.L85:
	.loc 8 86 7 is_stmt 0 view .LVU487
.LBE4415:
.LBE4414:
.LBE4413:
.LBE4402:
.LBE4370:
.LBE4367:
.LBE4362:
.LBE4360:
.LBB4497:
.LBI4497:
	.loc 19 454 7 is_stmt 1 discriminator 2 view .LVU488
.LBB4498:
	.loc 19 457 11 is_stmt 0 discriminator 2 view .LVU489
	movq	8(%rsp), %rax
	.loc 19 457 25 discriminator 2 view .LVU490
	movq	(%rax), %rdx
	addq	-24(%rdx), %rax
	movq	%rax, %rbp
.LVL201:
.LBB4499:
.LBI4499:
	.loc 20 621 5 is_stmt 1 discriminator 2 view .LVU491
.LBB4500:
	.loc 20 622 7 discriminator 2 view .LVU492
	.loc 20 622 7 is_stmt 0 discriminator 2 view .LVU493
.LBE4500:
.LBE4499:
.LBB4501:
.LBI4501:
	.loc 20 83 3 is_stmt 1 discriminator 2 view .LVU494
.LBB4502:
	.loc 20 84 5 discriminator 2 view .LVU495
	.loc 20 84 5 is_stmt 0 discriminator 2 view .LVU496
.LBE4502:
.LBE4501:
	.loc 19 457 46 discriminator 2 view .LVU497
	testb	$32, 25(%rax)
	je	.L101
	.loc 19 457 68 view .LVU498
	call	_ZSt18uncaught_exceptionv
.LVL202:
	.loc 19 457 46 view .LVU499
	testb	%al, %al
	jne	.L101
.LVL203:
.LBB4503:
.LBI4503:
	.file 23 "/usr/include/c++/8/bits/basic_ios.h"
	.loc 23 321 7 is_stmt 1 view .LVU500
.LBB4504:
	.loc 23 322 16 is_stmt 0 view .LVU501
	movq	232(%rbp), %rdi
.LVL204:
	.loc 23 322 16 view .LVU502
.LBE4504:
.LBE4503:
	.loc 19 460 24 view .LVU503
	testq	%rdi, %rdi
	je	.L101
.LVL205:
.LBB4505:
.LBI4505:
	.loc 23 321 7 is_stmt 1 view .LVU504
	.loc 23 321 7 is_stmt 0 view .LVU505
.LBE4505:
.LBB4506:
.LBI4506:
	.loc 10 278 7 is_stmt 1 view .LVU506
.LBB4507:
	.loc 10 278 37 is_stmt 0 view .LVU507
	movq	(%rdi), %rax
	call	*48(%rax)
.LVL206:
	.loc 10 278 37 view .LVU508
.LBE4507:
.LBE4506:
	.loc 19 460 24 view .LVU509
	cmpl	$-1, %eax
	jne	.L101
	.loc 19 461 8 view .LVU510
	movq	8(%rsp), %rdi
	movq	(%rdi), %rax
	addq	-24(%rax), %rdi
.LVL207:
.LBB4508:
.LBI4508:
	.loc 23 157 7 is_stmt 1 view .LVU511
.LBB4509:
.LBB4510:
.LBI4510:
	.loc 23 137 7 view .LVU512
	.loc 23 137 7 is_stmt 0 view .LVU513
.LBE4510:
.LBB4511:
.LBI4511:
	.loc 20 169 3 is_stmt 1 view .LVU514
.LBB4512:
	.loc 20 170 5 view .LVU515
	.loc 20 170 70 is_stmt 0 view .LVU516
	movl	32(%rdi), %esi
	orl	$1, %esi
.LVL208:
	.loc 20 170 70 view .LVU517
.LBE4512:
.LBE4511:
	.loc 23 158 9 view .LVU518
	call	_ZNSt9basic_iosIcSt11char_traitsIcEE5clearESt12_Ios_Iostate
.LVL209:
	.loc 23 158 9 view .LVU519
.LBE4509:
.LBE4508:
.LBE4498:
.LBE4497:
.LBE4359:
.LBE4518:
	.loc 3 197 10 view .LVU520
	jmp	.L101
.LVL210:
.L87:
.LBB4519:
.LBB4516:
.LBB4513:
.LBB4494:
.LBB4490:
.LBB4430:
.LBI4430:
	.loc 3 104 32 is_stmt 1 view .LVU521
.LBB4431:
	.loc 3 105 3 view .LVU522
.LBB4432:
.LBI4432:
	.loc 9 131 7 view .LVU523
.LBB4433:
.LBI4433:
	.loc 8 79 7 view .LVU524
	.loc 8 79 7 is_stmt 0 view .LVU525
.LBE4433:
.LBE4432:
.LBB4434:
.LBI4434:
	.loc 6 514 7 is_stmt 1 view .LVU526
.LBB4435:
.LBB4436:
.LBB4437:
.LBI4437:
	.loc 6 179 7 view .LVU527
	.loc 6 179 7 is_stmt 0 view .LVU528
.LBE4437:
.LBB4438:
.LBI4438:
	.loc 6 145 2 is_stmt 1 view .LVU529
.LBB4439:
.LBB4440:
.LBB4441:
.LBI4441:
	.loc 9 133 7 view .LVU530
.LBB4442:
.LBI4442:
	.loc 8 81 7 view .LVU531
	.loc 8 81 7 is_stmt 0 view .LVU532
.LBE4442:
.LBE4441:
	.loc 6 146 35 view .LVU533
	leaq	32(%rsp), %rax
.LVL211:
	.loc 6 146 35 view .LVU534
	movq	%rax, 16(%rsp)
.LVL212:
	.loc 6 146 35 view .LVU535
.LBE4440:
.LBE4439:
.LBE4438:
.LBB4443:
.LBI4443:
	.loc 17 314 7 is_stmt 1 view .LVU536
.LBE4443:
.LBE4436:
.LBE4435:
.LBE4434:
.LBE4431:
.LBE4430:
.LBE4490:
.LBE4494:
.LBE4513:
.LBE4516:
.LBE4519:
	.loc 17 320 2 view .LVU537
.LBB4520:
.LBB4517:
.LBB4514:
.LBB4495:
.LBB4491:
.LBB4454:
.LBB4453:
.LBB4450:
.LBB4449:
.LBB4448:
.LBB4444:
.LBI4444:
	.loc 6 252 9 view .LVU538
.LBB4445:
.LBB4446:
.LBI4446:
	.loc 6 232 9 view .LVU539
.LBB4447:
	.loc 6 236 11 is_stmt 0 view .LVU540
	movl	$.LC1+13, %edx
.LVL213:
	.loc 6 236 11 view .LVU541
	movl	$.LC1, %esi
	leaq	16(%rsp), %rdi
.LVL214:
.LEHB4:
	.loc 6 236 11 view .LVU542
	call	_ZNSt7__cxx1112basic_stringIcSt11char_traitsIcESaIcEE12_M_constructIPKcEEvT_S8_St20forward_iterator_tag
.LVL215:
.LEHE4:
	.loc 6 236 11 view .LVU543
.LBE4447:
.LBE4446:
.LBE4445:
.LBE4444:
.LBE4448:
.LBE4449:
.LBE4450:
.LBB4451:
.LBI4451:
	.loc 9 139 7 is_stmt 1 view .LVU544
.LBB4452:
.LBI4452:
	.loc 8 86 7 view .LVU545
	.loc 8 86 7 is_stmt 0 view .LVU546
.LBE4452:
.LBE4451:
.LBE4453:
.LBE4454:
.LBB4455:
.LBI4455:
	.loc 6 6314 5 is_stmt 1 view .LVU547
.LBB4456:
.LBB4457:
.LBI4457:
	.loc 6 921 7 view .LVU548
	.loc 6 921 7 is_stmt 0 view .LVU549
.LBE4457:
.LBB4458:
.LBI4458:
	.loc 6 2293 7 is_stmt 1 view .LVU550
.LBB4459:
.LBI4459:
	.loc 6 175 7 view .LVU551
	.loc 6 175 7 is_stmt 0 view .LVU552
.LBE4459:
.LBE4458:
	.loc 6 6319 30 view .LVU553
	movq	24(%rsp), %rdx
	movq	16(%rsp), %rsi
	movq	%rbx, %rdi
.LEHB5:
	call	_ZSt16__ostream_insertIcSt11char_traitsIcEERSt13basic_ostreamIT_T0_ES6_PKS3_l
.LVL216:
.LEHE5:
	.loc 6 6319 30 view .LVU554
.LBE4456:
.LBE4455:
.LBB4460:
.LBI4460:
	.loc 6 656 7 is_stmt 1 view .LVU555
.LBB4461:
.LBI4461:
	.loc 6 218 7 view .LVU556
.LBB4462:
.LBB4463:
.LBI4463:
	.loc 6 210 7 view .LVU557
.LBB4464:
.LBI4464:
	.loc 6 175 7 view .LVU558
.LBB4465:
	.loc 6 176 28 is_stmt 0 view .LVU559
	movq	16(%rsp), %rdi
.LVL217:
	.loc 6 176 28 view .LVU560
.LBE4465:
.LBE4464:
.LBB4466:
.LBI4466:
	.loc 6 189 7 is_stmt 1 view .LVU561
	.loc 6 189 7 is_stmt 0 view .LVU562
.LBE4466:
.LBE4463:
	.loc 6 220 2 view .LVU563
	leaq	32(%rsp), %rax
	cmpq	%rax, %rdi
	je	.L85
.LVL218:
.LBB4467:
.LBI4467:
	.loc 6 225 7 is_stmt 1 view .LVU564
.LBB4468:
.LBI4468:
	.loc 7 461 7 view .LVU565
.LBB4469:
.LBI4469:
	.loc 8 116 7 view .LVU566
.LBB4470:
	.loc 8 125 19 is_stmt 0 view .LVU567
	call	_ZdlPv
.LVL219:
	.loc 8 125 19 view .LVU568
.LBE4470:
.LBE4469:
.LBE4468:
.LBE4467:
.LBE4462:
.LBE4461:
.LBB4471:
.LBI4471:
	.loc 6 139 14 is_stmt 1 view .LVU569
.LBB4472:
.LBI4472:
	.loc 9 139 7 view .LVU570
.LBB4473:
.LBI4473:
	.loc 8 86 7 view .LVU571
	.loc 8 86 7 is_stmt 0 view .LVU572
	jmp	.L85
.LVL220:
.L86:
	.loc 8 86 7 view .LVU573
.LBE4473:
.LBE4472:
.LBE4471:
.LBE4460:
.LBE4491:
	.loc 3 194 13 view .LVU574
	movl	$2, %esi
	movq	%rbx, %rdi
.LEHB6:
	call	_ZNSolsEi
.LVL221:
.LEHE6:
	jmp	.L85
.L98:
	.loc 3 194 13 view .LVU575
	movq	%rax, %rbx
.LVL222:
.LBB4492:
.LBB4474:
	.loc 3 184 56 view .LVU576
	leaq	56(%rsp), %rdi
	call	_ZNSt6localeD1Ev
.LVL223:
.L92:
.LBE4474:
.LBE4492:
.LBE4495:
.LBE4514:
	.loc 3 178 56 view .LVU577
	movq	%rsp, %rdi
	call	_ZNSo6sentryD1Ev
.LVL224:
	movq	%rbx, %rdi
.LEHB7:
	call	_Unwind_Resume
.LVL225:
.LEHE7:
.L99:
	.loc 3 178 56 view .LVU578
	movq	%rax, %rbx
.LVL226:
.LBB4515:
.LBB4496:
.LBB4493:
.LBB4475:
.LBB4416:
.LBI4416:
	.loc 6 656 7 is_stmt 1 view .LVU579
.LBB4417:
.LBI4417:
	.loc 6 218 7 view .LVU580
.LBB4418:
.LBB4419:
.LBI4419:
	.loc 6 210 7 view .LVU581
.LBB4420:
.LBI4420:
	.loc 6 175 7 view .LVU582
.LBB4421:
	.loc 6 176 28 is_stmt 0 view .LVU583
	movq	16(%rsp), %rdi
.LVL227:
	.loc 6 176 28 view .LVU584
.LBE4421:
.LBE4420:
.LBB4422:
.LBI4422:
	.loc 6 189 7 is_stmt 1 view .LVU585
	.loc 6 189 7 is_stmt 0 view .LVU586
.LBE4422:
.LBE4419:
	.loc 6 220 2 view .LVU587
	leaq	32(%rsp), %rax
	cmpq	%rax, %rdi
	je	.L92
.LVL228:
.LBB4423:
.LBI4423:
	.loc 6 225 7 is_stmt 1 view .LVU588
.LBB4424:
.LBI4424:
	.loc 7 461 7 view .LVU589
.LBB4425:
.LBI4425:
	.loc 8 116 7 view .LVU590
.LBB4426:
	.loc 8 125 19 is_stmt 0 view .LVU591
	call	_ZdlPv
.LVL229:
	.loc 8 125 19 view .LVU592
.LBE4426:
.LBE4425:
.LBE4424:
.LBE4423:
.LBE4418:
.LBE4417:
.LBB4427:
.LBI4427:
	.loc 6 139 14 is_stmt 1 view .LVU593
.LBB4428:
.LBI4428:
	.loc 9 139 7 view .LVU594
.LBB4429:
.LBI4429:
	.loc 8 86 7 view .LVU595
	.loc 8 86 7 is_stmt 0 view .LVU596
	jmp	.L92
.LVL230:
.L100:
	.loc 8 86 7 view .LVU597
	movq	%rax, %rbx
.LVL231:
	.loc 8 86 7 view .LVU598
.LBE4429:
.LBE4428:
.LBE4427:
.LBE4416:
.LBE4475:
.LBB4476:
.LBI4476:
	.loc 6 656 7 is_stmt 1 view .LVU599
.LBB4477:
.LBI4477:
	.loc 6 218 7 view .LVU600
.LBB4478:
.LBB4479:
.LBI4479:
	.loc 6 210 7 view .LVU601
.LBB4480:
.LBI4480:
	.loc 6 175 7 view .LVU602
.LBB4481:
	.loc 6 176 28 is_stmt 0 view .LVU603
	movq	16(%rsp), %rdi
.LVL232:
	.loc 6 176 28 view .LVU604
.LBE4481:
.LBE4480:
.LBB4482:
.LBI4482:
	.loc 6 189 7 is_stmt 1 view .LVU605
	.loc 6 189 7 is_stmt 0 view .LVU606
.LBE4482:
.LBE4479:
	.loc 6 220 2 view .LVU607
	leaq	32(%rsp), %rax
	cmpq	%rax, %rdi
	je	.L92
.LVL233:
.LBB4483:
.LBI4483:
	.loc 6 225 7 is_stmt 1 view .LVU608
.LBB4484:
.LBI4484:
	.loc 7 461 7 view .LVU609
.LBB4485:
.LBI4485:
	.loc 8 116 7 view .LVU610
.LBB4486:
	.loc 8 125 19 is_stmt 0 view .LVU611
	call	_ZdlPv
.LVL234:
	.loc 8 125 19 view .LVU612
.LBE4486:
.LBE4485:
.LBE4484:
.LBE4483:
.LBE4478:
.LBE4477:
.LBB4487:
.LBI4487:
	.loc 6 139 14 is_stmt 1 view .LVU613
.LBB4488:
.LBI4488:
	.loc 9 139 7 view .LVU614
.LBB4489:
.LBI4489:
	.loc 8 86 7 view .LVU615
	.loc 8 86 7 is_stmt 0 view .LVU616
	jmp	.L92
.LVL235:
.L97:
	.loc 8 86 7 view .LVU617
	movq	%rax, %rbx
.LVL236:
	.loc 8 86 7 view .LVU618
	jmp	.L92
.LBE4489:
.LBE4488:
.LBE4487:
.LBE4476:
.LBE4493:
.LBE4496:
.LBE4515:
.LBE4517:
.LBE4520:
	.cfi_endproc
.LFE6643:
	.globl	__gxx_personality_v0
	.section	.gcc_except_table._ZN5boost5logiclsIcSt11char_traitsIcEEERSt13basic_ostreamIT_T0_ES8_NS0_7triboolE,"aG",@progbits,_ZN5boost5logiclsIcSt11char_traitsIcEEERSt13basic_ostreamIT_T0_ES8_NS0_7triboolE,comdat
.LLSDA6643:
	.byte	0xff
	.byte	0xff
	.byte	0x1
	.uleb128 .LLSDACSE6643-.LLSDACSB6643
.LLSDACSB6643:
	.uleb128 .LEHB0-.LFB6643
	.uleb128 .LEHE0-.LEHB0
	.uleb128 0
	.uleb128 0
	.uleb128 .LEHB1-.LFB6643
	.uleb128 .LEHE1-.LEHB1
	.uleb128 .L98-.LFB6643
	.uleb128 0
	.uleb128 .LEHB2-.LFB6643
	.uleb128 .LEHE2-.LEHB2
	.uleb128 .L97-.LFB6643
	.uleb128 0
	.uleb128 .LEHB3-.LFB6643
	.uleb128 .LEHE3-.LEHB3
	.uleb128 .L99-.LFB6643
	.uleb128 0
	.uleb128 .LEHB4-.LFB6643
	.uleb128 .LEHE4-.LEHB4
	.uleb128 .L97-.LFB6643
	.uleb128 0
	.uleb128 .LEHB5-.LFB6643
	.uleb128 .LEHE5-.LEHB5
	.uleb128 .L100-.LFB6643
	.uleb128 0
	.uleb128 .LEHB6-.LFB6643
	.uleb128 .LEHE6-.LEHB6
	.uleb128 .L97-.LFB6643
	.uleb128 0
	.uleb128 .LEHB7-.LFB6643
	.uleb128 .LEHE7-.LEHB7
	.uleb128 0
	.uleb128 0
.LLSDACSE6643:
	.section	.text._ZN5boost5logiclsIcSt11char_traitsIcEEERSt13basic_ostreamIT_T0_ES8_NS0_7triboolE,"axG",@progbits,_ZN5boost5logiclsIcSt11char_traitsIcEEERSt13basic_ostreamIT_T0_ES8_NS0_7triboolE,comdat
	.size	_ZN5boost5logiclsIcSt11char_traitsIcEEERSt13basic_ostreamIT_T0_ES8_NS0_7triboolE, .-_ZN5boost5logiclsIcSt11char_traitsIcEEERSt13basic_ostreamIT_T0_ES8_NS0_7triboolE
	.section	.text._ZNSt8_Rb_treeIN3mpp9ReqParser5StateESt4pairIKS2_NSt7__cxx1112basic_stringIcSt11char_traitsIcESaIcEEEESt10_Select1stISB_ESt4lessIS2_ESaISB_EE14_M_lower_boundEPSt13_Rb_tree_nodeISB_EPSt18_Rb_tree_node_baseRS4_,"axG",@progbits,_ZNSt8_Rb_treeIN3mpp9ReqParser5StateESt4pairIKS2_NSt7__cxx1112basic_stringIcSt11char_traitsIcESaIcEEEESt10_Select1stISB_ESt4lessIS2_ESaISB_EE14_M_lower_boundEPSt13_Rb_tree_nodeISB_EPSt18_Rb_tree_node_baseRS4_,comdat
	.align 2
	.weak	_ZNSt8_Rb_treeIN3mpp9ReqParser5StateESt4pairIKS2_NSt7__cxx1112basic_stringIcSt11char_traitsIcESaIcEEEESt10_Select1stISB_ESt4lessIS2_ESaISB_EE14_M_lower_boundEPSt13_Rb_tree_nodeISB_EPSt18_Rb_tree_node_baseRS4_
	.type	_ZNSt8_Rb_treeIN3mpp9ReqParser5StateESt4pairIKS2_NSt7__cxx1112basic_stringIcSt11char_traitsIcESaIcEEEESt10_Select1stISB_ESt4lessIS2_ESaISB_EE14_M_lower_boundEPSt13_Rb_tree_nodeISB_EPSt18_Rb_tree_node_baseRS4_, @function
_ZNSt8_Rb_treeIN3mpp9ReqParser5StateESt4pairIKS2_NSt7__cxx1112basic_stringIcSt11char_traitsIcESaIcEEEESt10_Select1stISB_ESt4lessIS2_ESaISB_EE14_M_lower_boundEPSt13_Rb_tree_nodeISB_EPSt18_Rb_tree_node_baseRS4_:
.LVL237:
.LFB7249:
	.loc 11 1883 5 is_stmt 1 view -0
	.cfi_startproc
	.loc 11 1883 5 is_stmt 0 view .LVU620
	movq	%rdx, %rax
	jmp	.L104
.LVL238:
.L106:
.LBB4521:
.LBI4521:
	.loc 11 787 7 is_stmt 1 view .LVU621
.LBB4522:
	.loc 11 788 53 is_stmt 0 view .LVU622
	movq	24(%rsi), %rsi
.LVL239:
.L104:
	.loc 11 788 53 view .LVU623
.LBE4522:
.LBE4521:
	.loc 11 1887 18 view .LVU624
	testq	%rsi, %rsi
	je	.L105
.LVL240:
.LBB4523:
.LBI4523:
	.loc 14 385 7 is_stmt 1 view .LVU625
	.loc 14 385 7 is_stmt 0 view .LVU626
.LBE4523:
	.loc 11 1888 2 view .LVU627
	movl	32(%rsi), %edi
	cmpl	%edi, (%rcx)
	jg	.L106
.LVL241:
.LBB4524:
.LBI4524:
	.loc 11 779 7 is_stmt 1 view .LVU628
	.loc 11 779 7 is_stmt 0 view .LVU629
.LBE4524:
	.loc 11 1889 4 view .LVU630
	movq	%rsi, %rax
	.loc 11 1889 28 view .LVU631
	movq	16(%rsi), %rsi
.LVL242:
	.loc 11 1889 28 view .LVU632
	jmp	.L104
.L105:
.LVL243:
.LBB4525:
.LBI4525:
	.loc 11 273 7 is_stmt 1 view .LVU633
	.loc 11 273 7 is_stmt 0 view .LVU634
.LBE4525:
	.loc 11 1893 5 view .LVU635
	ret
	.cfi_endproc
.LFE7249:
	.size	_ZNSt8_Rb_treeIN3mpp9ReqParser5StateESt4pairIKS2_NSt7__cxx1112basic_stringIcSt11char_traitsIcESaIcEEEESt10_Select1stISB_ESt4lessIS2_ESaISB_EE14_M_lower_boundEPSt13_Rb_tree_nodeISB_EPSt18_Rb_tree_node_baseRS4_, .-_ZNSt8_Rb_treeIN3mpp9ReqParser5StateESt4pairIKS2_NSt7__cxx1112basic_stringIcSt11char_traitsIcESaIcEEEESt10_Select1stISB_ESt4lessIS2_ESaISB_EE14_M_lower_boundEPSt13_Rb_tree_nodeISB_EPSt18_Rb_tree_node_baseRS4_
	.section	.text._ZNSt8_Rb_treeIN3mpp9ReqParser5StateESt4pairIKS2_NSt7__cxx1112basic_stringIcSt11char_traitsIcESaIcEEEESt10_Select1stISB_ESt4lessIS2_ESaISB_EE24_M_get_insert_unique_posERS4_,"axG",@progbits,_ZNSt8_Rb_treeIN3mpp9ReqParser5StateESt4pairIKS2_NSt7__cxx1112basic_stringIcSt11char_traitsIcESaIcEEEESt10_Select1stISB_ESt4lessIS2_ESaISB_EE24_M_get_insert_unique_posERS4_,comdat
	.align 2
	.weak	_ZNSt8_Rb_treeIN3mpp9ReqParser5StateESt4pairIKS2_NSt7__cxx1112basic_stringIcSt11char_traitsIcESaIcEEEESt10_Select1stISB_ESt4lessIS2_ESaISB_EE24_M_get_insert_unique_posERS4_
	.type	_ZNSt8_Rb_treeIN3mpp9ReqParser5StateESt4pairIKS2_NSt7__cxx1112basic_stringIcSt11char_traitsIcESaIcEEEESt10_Select1stISB_ESt4lessIS2_ESaISB_EE24_M_get_insert_unique_posERS4_, @function
_ZNSt8_Rb_treeIN3mpp9ReqParser5StateESt4pairIKS2_NSt7__cxx1112basic_stringIcSt11char_traitsIcESaIcEEEESt10_Select1stISB_ESt4lessIS2_ESaISB_EE24_M_get_insert_unique_posERS4_:
.LVL244:
.LFB7261:
	.loc 11 2044 5 is_stmt 1 view -0
	.cfi_startproc
	.loc 11 2044 5 is_stmt 0 view .LVU637
	pushq	%r12
	.cfi_def_cfa_offset 16
	.cfi_offset 12, -16
	pushq	%rbp
	.cfi_def_cfa_offset 24
	.cfi_offset 6, -24
	pushq	%rbx
	.cfi_def_cfa_offset 32
	.cfi_offset 3, -32
	movq	%rsi, %r12
.LVL245:
.LBB4526:
.LBI4526:
	.loc 11 752 7 is_stmt 1 view .LVU638
.LBB4527:
	.loc 11 753 73 is_stmt 0 view .LVU639
	movq	16(%rdi), %rbx
.LVL246:
	.loc 11 753 73 view .LVU640
.LBE4527:
.LBE4526:
.LBB4528:
.LBI4528:
	.loc 11 763 7 is_stmt 1 view .LVU641
.LBB4529:
	.loc 11 764 31 is_stmt 0 view .LVU642
	leaq	8(%rdi), %rbp
.LVL247:
	.loc 11 764 31 view .LVU643
.LBE4529:
.LBE4528:
	.loc 11 2050 12 view .LVU644
	movl	$1, %ecx
	jmp	.L109
.LVL248:
.L111:
.LBB4530:
.LBI4530:
	.loc 11 787 7 is_stmt 1 discriminator 2 view .LVU645
.LBB4531:
	.loc 11 788 53 is_stmt 0 discriminator 2 view .LVU646
	movq	24(%rbx), %rax
.LVL249:
.L112:
	.loc 11 788 53 discriminator 2 view .LVU647
.LBE4531:
.LBE4530:
	.loc 11 2044 5 view .LVU648
	movq	%rbx, %rbp
	movq	%rax, %rbx
.LVL250:
.L109:
	.loc 11 2051 18 view .LVU649
	testq	%rbx, %rbx
	je	.L110
.LVL251:
.LBB4532:
.LBI4532:
	.loc 14 385 7 is_stmt 1 view .LVU650
.LBB4533:
	.loc 14 386 20 is_stmt 0 view .LVU651
	movl	(%r12), %eax
	movl	32(%rbx), %edx
	.loc 14 386 22 view .LVU652
	cmpl	%eax, %edx
	setg	%cl
.LVL252:
	.loc 14 386 22 view .LVU653
.LBE4533:
.LBE4532:
	.loc 11 2055 17 view .LVU654
	jle	.L111
.LVL253:
.LBB4534:
.LBI4534:
	.loc 11 779 7 is_stmt 1 discriminator 1 view .LVU655
.LBB4535:
	.loc 11 780 52 is_stmt 0 discriminator 1 view .LVU656
	movq	16(%rbx), %rax
.LVL254:
	.loc 11 780 52 discriminator 1 view .LVU657
.LBE4535:
.LBE4534:
	jmp	.L112
.LVL255:
.L110:
.LBB4536:
.LBI4536:
	.loc 11 273 7 is_stmt 1 view .LVU658
.LBB4537:
.LBB4538:
	.loc 11 274 20 is_stmt 0 view .LVU659
	movq	%rbp, %rax
.LVL256:
	.loc 11 274 20 view .LVU660
.LBE4538:
.LBE4537:
.LBE4536:
	.loc 11 2058 7 view .LVU661
	testb	%cl, %cl
	je	.L113
.LVL257:
.LBB4539:
.LBI4539:
	.loc 11 976 7 is_stmt 1 view .LVU662
.LBB4540:
.LBB4541:
.LBI4541:
	.loc 11 273 7 view .LVU663
	.loc 11 273 7 is_stmt 0 view .LVU664
.LBE4541:
.LBE4540:
.LBE4539:
	.loc 11 2060 4 view .LVU665
	cmpq	%rbp, 24(%rdi)
	je	.L118
.LVL258:
.LBB4542:
.LBI4542:
	.loc 11 300 7 is_stmt 1 view .LVU666
.LBB4543:
	.loc 11 302 30 is_stmt 0 view .LVU667
	movq	%rbp, %rdi
.LVL259:
	.loc 11 302 30 view .LVU668
	call	_ZSt18_Rb_tree_decrementPSt18_Rb_tree_node_base
.LVL260:
.L113:
	.loc 11 302 30 view .LVU669
.LBE4543:
.LBE4542:
.LBB4544:
.LBI4544:
	.loc 14 385 7 is_stmt 1 view .LVU670
	.loc 14 385 7 is_stmt 0 view .LVU671
.LBE4544:
	.loc 11 2065 7 view .LVU672
	movl	(%r12), %esi
	cmpl	%esi, 32(%rax)
	jge	.L116
.LVL261:
.LBB4545:
.LBI4545:
	.loc 12 330 12 is_stmt 1 view .LVU673
.LBB4546:
.LBB4547:
.LBB4548:
.LBI4548:
	.loc 22 74 5 view .LVU674
	.loc 22 74 5 is_stmt 0 view .LVU675
.LBE4548:
.LBB4549:
.LBI4549:
	.loc 22 74 5 is_stmt 1 view .LVU676
	.loc 22 74 5 is_stmt 0 view .LVU677
.LBE4549:
.LBE4547:
.LBE4546:
.LBE4545:
	.loc 11 2066 22 view .LVU678
	movq	%rbx, %rax
.LVL262:
	.loc 11 2066 22 view .LVU679
	movq	%rbp, %rdx
.LVL263:
.L115:
.LVL264:
	.loc 11 2068 5 view .LVU680
	popq	%rbx
	.cfi_remember_state
	.cfi_def_cfa_offset 24
	popq	%rbp
	.cfi_def_cfa_offset 16
	popq	%r12
	.cfi_def_cfa_offset 8
.LVL265:
	.loc 11 2068 5 view .LVU681
	ret
.LVL266:
.L118:
	.cfi_restore_state
.LBB4550:
.LBI4550:
	.loc 12 330 12 is_stmt 1 view .LVU682
.LBB4551:
.LBB4552:
.LBB4553:
.LBI4553:
	.loc 22 74 5 view .LVU683
	.loc 22 74 5 is_stmt 0 view .LVU684
.LBE4553:
.LBB4554:
.LBI4554:
	.loc 22 74 5 is_stmt 1 view .LVU685
	.loc 22 74 5 is_stmt 0 view .LVU686
.LBE4554:
.LBE4552:
.LBE4551:
.LBE4550:
	.loc 11 2061 26 view .LVU687
	movq	%rbx, %rax
.LVL267:
	.loc 11 2061 26 view .LVU688
	movq	%rbp, %rdx
	jmp	.L115
.LVL268:
.L116:
.LBB4555:
.LBI4555:
	.loc 12 300 18 is_stmt 1 view .LVU689
.LBB4556:
.LBB4557:
.LBB4558:
.LBI4558:
	.loc 22 74 5 view .LVU690
	.loc 22 74 5 is_stmt 0 view .LVU691
.LBE4558:
.LBE4557:
.LBE4556:
.LBE4555:
	.loc 11 2067 33 view .LVU692
	movl	$0, %edx
	jmp	.L115
	.cfi_endproc
.LFE7261:
	.size	_ZNSt8_Rb_treeIN3mpp9ReqParser5StateESt4pairIKS2_NSt7__cxx1112basic_stringIcSt11char_traitsIcESaIcEEEESt10_Select1stISB_ESt4lessIS2_ESaISB_EE24_M_get_insert_unique_posERS4_, .-_ZNSt8_Rb_treeIN3mpp9ReqParser5StateESt4pairIKS2_NSt7__cxx1112basic_stringIcSt11char_traitsIcESaIcEEEESt10_Select1stISB_ESt4lessIS2_ESaISB_EE24_M_get_insert_unique_posERS4_
	.section	.text._ZNSt8_Rb_treeIN3mpp9ReqParser5StateESt4pairIKS2_NSt7__cxx1112basic_stringIcSt11char_traitsIcESaIcEEEESt10_Select1stISB_ESt4lessIS2_ESaISB_EE29_M_get_insert_hint_unique_posESt23_Rb_tree_const_iteratorISB_ERS4_,"axG",@progbits,_ZNSt8_Rb_treeIN3mpp9ReqParser5StateESt4pairIKS2_NSt7__cxx1112basic_stringIcSt11char_traitsIcESaIcEEEESt10_Select1stISB_ESt4lessIS2_ESaISB_EE29_M_get_insert_hint_unique_posESt23_Rb_tree_const_iteratorISB_ERS4_,comdat
	.align 2
	.weak	_ZNSt8_Rb_treeIN3mpp9ReqParser5StateESt4pairIKS2_NSt7__cxx1112basic_stringIcSt11char_traitsIcESaIcEEEESt10_Select1stISB_ESt4lessIS2_ESaISB_EE29_M_get_insert_hint_unique_posESt23_Rb_tree_const_iteratorISB_ERS4_
	.type	_ZNSt8_Rb_treeIN3mpp9ReqParser5StateESt4pairIKS2_NSt7__cxx1112basic_stringIcSt11char_traitsIcESaIcEEEESt10_Select1stISB_ESt4lessIS2_ESaISB_EE29_M_get_insert_hint_unique_posESt23_Rb_tree_const_iteratorISB_ERS4_, @function
_ZNSt8_Rb_treeIN3mpp9ReqParser5StateESt4pairIKS2_NSt7__cxx1112basic_stringIcSt11char_traitsIcESaIcEEEESt10_Select1stISB_ESt4lessIS2_ESaISB_EE29_M_get_insert_hint_unique_posESt23_Rb_tree_const_iteratorISB_ERS4_:
.LVL269:
.LFB7128:
	.loc 11 2146 5 is_stmt 1 view -0
	.cfi_startproc
	.loc 11 2146 5 is_stmt 0 view .LVU694
	pushq	%r13
	.cfi_def_cfa_offset 16
	.cfi_offset 13, -16
	pushq	%r12
	.cfi_def_cfa_offset 24
	.cfi_offset 12, -24
	pushq	%rbp
	.cfi_def_cfa_offset 32
	.cfi_offset 6, -32
	pushq	%rbx
	.cfi_def_cfa_offset 40
	.cfi_offset 3, -40
	subq	$8, %rsp
	.cfi_def_cfa_offset 48
	movq	%rdi, %rbp
	movq	%rdx, %r12
.LVL270:
.LBB4559:
.LBI4559:
	.loc 11 352 7 is_stmt 1 view .LVU695
.LBB4560:
.LBB4561:
.LBI4561:
	.loc 11 273 7 view .LVU696
	.loc 11 273 7 is_stmt 0 view .LVU697
.LBE4561:
.LBE4560:
.LBE4559:
.LBB4562:
.LBB4563:
.LBI4563:
	.loc 11 763 7 is_stmt 1 view .LVU698
.LBB4564:
	.loc 11 764 31 is_stmt 0 view .LVU699
	leaq	8(%rdi), %rax
.LVL271:
	.loc 11 764 31 view .LVU700
.LBE4564:
.LBE4563:
	.loc 11 2154 7 view .LVU701
	cmpq	%rax, %rsi
	je	.L134
	movq	%rsi, %rbx
.LVL272:
.LBB4565:
.LBB4566:
.LBI4566:
	.loc 14 385 7 is_stmt 1 view .LVU702
.LBB4567:
	.loc 14 386 20 is_stmt 0 view .LVU703
	movl	(%rdx), %r13d
	movl	32(%rsi), %eax
.LVL273:
	.loc 14 386 20 view .LVU704
.LBE4567:
.LBE4566:
	.loc 11 2162 12 view .LVU705
	cmpl	%r13d, %eax
	jle	.L123
.LBB4568:
	.loc 11 2166 22 view .LVU706
	movq	24(%rdi), %rdx
.LVL274:
	.loc 11 2166 4 view .LVU707
	cmpq	%rsi, %rdx
	je	.L135
.LVL275:
.LBB4569:
.LBI4569:
	.loc 11 300 7 is_stmt 1 view .LVU708
.LBB4570:
	.loc 11 302 30 is_stmt 0 view .LVU709
	movq	%rsi, %rdi
.LVL276:
	.loc 11 302 30 view .LVU710
	call	_ZSt18_Rb_tree_decrementPSt18_Rb_tree_node_base
.LVL277:
	movq	%rax, %rdx
.LVL278:
	.loc 11 302 30 view .LVU711
.LBE4570:
.LBE4569:
.LBB4571:
.LBI4571:
	.loc 14 385 7 is_stmt 1 view .LVU712
	.loc 14 385 7 is_stmt 0 view .LVU713
.LBE4571:
	.loc 11 2168 9 view .LVU714
	cmpl	32(%rax), %r13d
	jle	.L126
.LVL279:
.LBB4572:
.LBI4572:
	.loc 11 787 7 is_stmt 1 view .LVU715
	.loc 11 787 7 is_stmt 0 view .LVU716
.LBE4572:
	.loc 11 2170 8 view .LVU717
	cmpq	$0, 24(%rax)
	je	.L136
.LVL280:
.LBB4573:
.LBI4573:
	.loc 12 330 12 is_stmt 1 view .LVU718
.LBB4574:
.LBB4575:
.LBB4576:
.LBI4576:
	.loc 22 74 5 view .LVU719
	.loc 22 74 5 is_stmt 0 view .LVU720
.LBE4576:
.LBB4577:
.LBI4577:
	.loc 22 74 5 is_stmt 1 view .LVU721
	.loc 22 74 5 is_stmt 0 view .LVU722
.LBE4577:
.LBE4575:
.LBE4574:
.LBE4573:
	.loc 11 2173 43 view .LVU723
	movq	%rbx, %rax
	movq	%rbx, %rdx
	jmp	.L122
.LVL281:
.L134:
	.loc 11 2173 43 view .LVU724
.LBE4568:
.LBE4565:
.LBB4606:
.LBI4606:
	.loc 11 1012 7 is_stmt 1 view .LVU725
	.loc 11 1012 7 is_stmt 0 view .LVU726
.LBE4606:
	.loc 11 2157 8 view .LVU727
	cmpq	$0, 40(%rdi)
	je	.L121
	.loc 11 2157 8 discriminator 1 view .LVU728
	movq	32(%rdi), %rbx
.LVL282:
.LBB4607:
.LBI4607:
	.loc 14 385 7 is_stmt 1 discriminator 1 view .LVU729
	.loc 14 385 7 is_stmt 0 discriminator 1 view .LVU730
.LBE4607:
	.loc 11 2157 8 discriminator 1 view .LVU731
	movl	32(%rbx), %eax
	cmpl	%eax, (%rdx)
	jle	.L121
.LVL283:
.LBB4608:
.LBI4608:
	.loc 12 314 18 is_stmt 1 view .LVU732
.LBB4609:
.LBB4610:
.LBB4611:
.LBI4611:
	.loc 22 74 5 view .LVU733
	.loc 22 74 5 is_stmt 0 view .LVU734
.LBE4611:
.LBE4610:
.LBE4609:
.LBE4608:
	.loc 11 2158 35 view .LVU735
	movl	$0, %eax
	movq	%rbx, %rdx
.LVL284:
	.loc 11 2158 35 view .LVU736
	jmp	.L122
.LVL285:
.L121:
	.loc 11 2160 41 discriminator 5 view .LVU737
	movq	%r12, %rsi
.LVL286:
	.loc 11 2160 41 discriminator 5 view .LVU738
	movq	%rbp, %rdi
.LVL287:
	.loc 11 2160 41 discriminator 5 view .LVU739
	call	_ZNSt8_Rb_treeIN3mpp9ReqParser5StateESt4pairIKS2_NSt7__cxx1112basic_stringIcSt11char_traitsIcESaIcEEEESt10_Select1stISB_ESt4lessIS2_ESaISB_EE24_M_get_insert_unique_posERS4_
.LVL288:
.L122:
	.loc 11 2160 41 discriminator 5 view .LVU740
.LBE4562:
	.loc 11 2197 5 discriminator 1 view .LVU741
	addq	$8, %rsp
	.cfi_remember_state
	.cfi_def_cfa_offset 40
	popq	%rbx
	.cfi_def_cfa_offset 32
	popq	%rbp
	.cfi_def_cfa_offset 24
.LVL289:
	.loc 11 2197 5 discriminator 1 view .LVU742
	popq	%r12
	.cfi_def_cfa_offset 16
.LVL290:
	.loc 11 2197 5 discriminator 1 view .LVU743
	popq	%r13
	.cfi_def_cfa_offset 8
	ret
.LVL291:
.L135:
	.cfi_restore_state
.LBB4613:
.LBB4612:
.LBB4587:
.LBB4578:
.LBI4578:
	.loc 12 330 12 is_stmt 1 view .LVU744
.LBB4579:
.LBB4580:
.LBB4581:
.LBI4581:
	.loc 22 74 5 view .LVU745
	.loc 22 74 5 is_stmt 0 view .LVU746
.LBE4581:
.LBB4582:
.LBI4582:
	.loc 22 74 5 is_stmt 1 view .LVU747
	.loc 22 74 5 is_stmt 0 view .LVU748
.LBE4582:
.LBE4580:
.LBE4579:
.LBE4578:
	.loc 11 2167 46 view .LVU749
	movq	%rdx, %rax
	jmp	.L122
.LVL292:
.L136:
.LBB4583:
.LBI4583:
	.loc 12 314 18 is_stmt 1 view .LVU750
.LBB4584:
.LBB4585:
.LBB4586:
.LBI4586:
	.loc 22 74 5 view .LVU751
	.loc 22 74 5 is_stmt 0 view .LVU752
.LBE4586:
.LBE4585:
.LBE4584:
.LBE4583:
	.loc 11 2171 34 view .LVU753
	movl	$0, %eax
	jmp	.L122
.L126:
	.loc 11 2176 41 view .LVU754
	movq	%r12, %rsi
	movq	%rbp, %rdi
	call	_ZNSt8_Rb_treeIN3mpp9ReqParser5StateESt4pairIKS2_NSt7__cxx1112basic_stringIcSt11char_traitsIcESaIcEEEESt10_Select1stISB_ESt4lessIS2_ESaISB_EE24_M_get_insert_unique_posERS4_
.LVL293:
	jmp	.L122
.LVL294:
.L123:
	.loc 11 2176 41 view .LVU755
.LBE4587:
.LBB4588:
	.loc 11 2178 12 view .LVU756
	jge	.L128
.LBB4589:
	.loc 11 2182 22 view .LVU757
	movq	32(%rdi), %rdx
.LVL295:
	.loc 11 2182 4 view .LVU758
	cmpq	%rsi, %rdx
	je	.L137
.LVL296:
.LBB4590:
.LBI4590:
	.loc 11 285 7 is_stmt 1 view .LVU759
.LBB4591:
	.loc 11 287 30 is_stmt 0 view .LVU760
	movq	%rsi, %rdi
.LVL297:
	.loc 11 287 30 view .LVU761
	call	_ZSt18_Rb_tree_incrementPSt18_Rb_tree_node_base
.LVL298:
	.loc 11 287 30 view .LVU762
	movq	%rax, %rdx
.LVL299:
	.loc 11 287 30 view .LVU763
.LBE4591:
.LBE4590:
.LBB4592:
.LBI4592:
	.loc 14 385 7 is_stmt 1 view .LVU764
	.loc 14 385 7 is_stmt 0 view .LVU765
.LBE4592:
	.loc 11 2184 9 view .LVU766
	cmpl	32(%rax), %r13d
	jge	.L131
.LVL300:
.LBB4593:
.LBI4593:
	.loc 11 787 7 is_stmt 1 view .LVU767
	.loc 11 787 7 is_stmt 0 view .LVU768
.LBE4593:
	.loc 11 2186 8 view .LVU769
	cmpq	$0, 24(%rbx)
	jne	.L122
.LVL301:
.LBB4594:
.LBI4594:
	.loc 12 314 18 is_stmt 1 view .LVU770
.LBB4595:
.LBB4596:
.LBB4597:
.LBI4597:
	.loc 22 74 5 view .LVU771
	.loc 22 74 5 is_stmt 0 view .LVU772
.LBE4597:
.LBE4596:
.LBE4595:
.LBE4594:
	.loc 11 2187 31 view .LVU773
	movl	$0, %eax
	movq	%rbx, %rdx
	jmp	.L122
.LVL302:
.L137:
.LBB4598:
.LBI4598:
	.loc 12 314 18 is_stmt 1 view .LVU774
.LBB4599:
.LBB4600:
.LBB4601:
.LBI4601:
	.loc 22 74 5 view .LVU775
	.loc 22 74 5 is_stmt 0 view .LVU776
.LBE4601:
.LBE4600:
.LBE4599:
.LBE4598:
	.loc 11 2183 35 view .LVU777
	movl	$0, %eax
	jmp	.L122
.LVL303:
.L131:
	.loc 11 2192 41 view .LVU778
	movq	%r12, %rsi
	movq	%rbp, %rdi
	call	_ZNSt8_Rb_treeIN3mpp9ReqParser5StateESt4pairIKS2_NSt7__cxx1112basic_stringIcSt11char_traitsIcESaIcEEEESt10_Select1stISB_ESt4lessIS2_ESaISB_EE24_M_get_insert_unique_posERS4_
.LVL304:
	jmp	.L122
.LVL305:
.L128:
	.loc 11 2192 41 view .LVU779
.LBE4589:
.LBB4602:
.LBI4602:
	.loc 12 300 18 is_stmt 1 view .LVU780
.LBB4603:
.LBB4604:
.LBB4605:
.LBI4605:
	.loc 22 74 5 view .LVU781
	.loc 22 74 5 is_stmt 0 view .LVU782
.LBE4605:
.LBE4604:
.LBE4603:
.LBE4602:
	.loc 11 2196 30 view .LVU783
	movq	%rsi, %rax
	movl	$0, %edx
.LVL306:
	.loc 11 2196 30 view .LVU784
	jmp	.L122
.LBE4588:
.LBE4612:
.LBE4613:
	.cfi_endproc
.LFE7128:
	.size	_ZNSt8_Rb_treeIN3mpp9ReqParser5StateESt4pairIKS2_NSt7__cxx1112basic_stringIcSt11char_traitsIcESaIcEEEESt10_Select1stISB_ESt4lessIS2_ESaISB_EE29_M_get_insert_hint_unique_posESt23_Rb_tree_const_iteratorISB_ERS4_, .-_ZNSt8_Rb_treeIN3mpp9ReqParser5StateESt4pairIKS2_NSt7__cxx1112basic_stringIcSt11char_traitsIcESaIcEEEESt10_Select1stISB_ESt4lessIS2_ESaISB_EE29_M_get_insert_hint_unique_posESt23_Rb_tree_const_iteratorISB_ERS4_
	.section	.text._ZNSt8_Rb_treeIN3mpp9ReqParser5StateESt4pairIKS2_NSt7__cxx1112basic_stringIcSt11char_traitsIcESaIcEEEESt10_Select1stISB_ESt4lessIS2_ESaISB_EE22_M_emplace_hint_uniqueIJRKSt21piecewise_construct_tSt5tupleIJOS2_EESM_IJEEEEESt17_Rb_tree_iteratorISB_ESt23_Rb_tree_const_iteratorISB_EDpOT_,"axG",@progbits,_ZNSt8_Rb_treeIN3mpp9ReqParser5StateESt4pairIKS2_NSt7__cxx1112basic_stringIcSt11char_traitsIcESaIcEEEESt10_Select1stISB_ESt4lessIS2_ESaISB_EE22_M_emplace_hint_uniqueIJRKSt21piecewise_construct_tSt5tupleIJOS2_EESM_IJEEEEESt17_Rb_tree_iteratorISB_ESt23_Rb_tree_const_iteratorISB_EDpOT_,comdat
	.align 2
	.weak	_ZNSt8_Rb_treeIN3mpp9ReqParser5StateESt4pairIKS2_NSt7__cxx1112basic_stringIcSt11char_traitsIcESaIcEEEESt10_Select1stISB_ESt4lessIS2_ESaISB_EE22_M_emplace_hint_uniqueIJRKSt21piecewise_construct_tSt5tupleIJOS2_EESM_IJEEEEESt17_Rb_tree_iteratorISB_ESt23_Rb_tree_const_iteratorISB_EDpOT_
	.type	_ZNSt8_Rb_treeIN3mpp9ReqParser5StateESt4pairIKS2_NSt7__cxx1112basic_stringIcSt11char_traitsIcESaIcEEEESt10_Select1stISB_ESt4lessIS2_ESaISB_EE22_M_emplace_hint_uniqueIJRKSt21piecewise_construct_tSt5tupleIJOS2_EESM_IJEEEEESt17_Rb_tree_iteratorISB_ESt23_Rb_tree_const_iteratorISB_EDpOT_, @function
_ZNSt8_Rb_treeIN3mpp9ReqParser5StateESt4pairIKS2_NSt7__cxx1112basic_stringIcSt11char_traitsIcESaIcEEEESt10_Select1stISB_ESt4lessIS2_ESaISB_EE22_M_emplace_hint_uniqueIJRKSt21piecewise_construct_tSt5tupleIJOS2_EESM_IJEEEEESt17_Rb_tree_iteratorISB_ESt23_Rb_tree_const_iteratorISB_EDpOT_:
.LVL307:
.LFB6936:
	.loc 11 2411 7 is_stmt 1 view -0
	.cfi_startproc
	.loc 11 2411 7 is_stmt 0 view .LVU786
	pushq	%r13
	.cfi_def_cfa_offset 16
	.cfi_offset 13, -16
	pushq	%r12
	.cfi_def_cfa_offset 24
	.cfi_offset 12, -24
	pushq	%rbp
	.cfi_def_cfa_offset 32
	.cfi_offset 6, -32
	pushq	%rbx
	.cfi_def_cfa_offset 40
	.cfi_offset 3, -40
	subq	$8, %rsp
	.cfi_def_cfa_offset 48
	movq	%rdi, %r12
	movq	%rsi, %rbp
	movq	%rcx, %r13
.LVL308:
.LBB4614:
.LBI4614:
	.loc 11 651 2 is_stmt 1 view .LVU787
.LBB4615:
.LBB4616:
.LBI4616:
	.loc 11 598 7 view .LVU788
.LBB4617:
.LBI4617:
	.loc 7 435 7 view .LVU789
.LBB4618:
.LBI4618:
	.loc 8 99 7 view .LVU790
.LBB4619:
	.loc 8 111 41 is_stmt 0 view .LVU791
	movl	$72, %edi
.LVL309:
	.loc 8 111 41 view .LVU792
	call	_Znwm
.LVL310:
	.loc 8 111 41 view .LVU793
	movq	%rax, %rbx
.LVL311:
	.loc 8 111 41 view .LVU794
.LBE4619:
.LBE4618:
.LBE4617:
.LBE4616:
.LBB4620:
.LBI4620:
	.loc 11 632 2 is_stmt 1 view .LVU795
	.loc 11 632 2 is_stmt 0 view .LVU796
.LBE4620:
.LBE4615:
.LBE4614:
	.file 24 "/usr/include/c++/8/new"
	.loc 24 169 3 is_stmt 1 view .LVU797
.LBB4659:
.LBB4657:
.LBB4655:
.LBB4621:
.LBI4621:
	.loc 7 474 2 view .LVU798
.LBB4622:
.LBI4622:
	.loc 8 135 2 view .LVU799
.LBB4623:
.LBI4623:
	.file 25 "/usr/include/c++/8/tuple"
	.loc 25 662 17 view .LVU800
.LBB4624:
.LBI4624:
	.loc 25 371 7 view .LVU801
.LBB4625:
.LBI4625:
	.loc 25 351 7 view .LVU802
.LBB4626:
.LBI4626:
	.loc 25 160 7 view .LVU803
.LBB4627:
	.loc 25 160 54 is_stmt 0 view .LVU804
	movq	0(%r13), %rax
.LVL312:
	.loc 25 160 54 view .LVU805
.LBE4627:
.LBE4626:
.LBE4625:
.LBB4628:
.LBI4628:
	.loc 22 74 5 is_stmt 1 view .LVU806
	.loc 22 74 5 is_stmt 0 view .LVU807
.LBE4628:
.LBB4629:
.LBI4629:
	.loc 25 132 19 is_stmt 1 view .LVU808
.LBB4630:
.LBI4630:
	.loc 22 74 5 view .LVU809
	.loc 22 74 5 is_stmt 0 view .LVU810
.LBE4630:
.LBE4629:
.LBE4624:
.LBE4623:
.LBE4622:
.LBE4621:
.LBE4655:
.LBE4657:
.LBE4659:
	.loc 24 169 3 is_stmt 1 view .LVU811
.LBB4660:
.LBB4658:
.LBB4656:
.LBB4654:
.LBB4653:
.LBB4631:
.LBI4631:
	.loc 25 1652 7 view .LVU812
.LBB4632:
.LBI4632:
	.loc 25 1664 7 view .LVU813
.LBB4633:
.LBB4634:
.LBI4634:
	.loc 25 1314 5 view .LVU814
	.loc 25 1314 5 is_stmt 0 view .LVU815
.LBE4634:
.LBB4635:
.LBI4635:
	.loc 22 74 5 is_stmt 1 view .LVU816
	.loc 22 74 5 is_stmt 0 view .LVU817
.LBE4635:
	.loc 25 1668 70 view .LVU818
	movl	(%rax), %eax
	movl	%eax, 32(%rbx)
.LVL313:
.LBB4636:
.LBI4636:
	.loc 6 420 7 is_stmt 1 view .LVU819
.LBB4637:
.LBI4637:
	.loc 9 131 7 view .LVU820
.LBB4638:
.LBI4638:
	.loc 8 79 7 view .LVU821
	.loc 8 79 7 is_stmt 0 view .LVU822
.LBE4638:
.LBE4637:
.LBB4639:
.LBI4639:
	.loc 6 179 7 is_stmt 1 view .LVU823
.LBB4640:
	.loc 6 182 51 is_stmt 0 view .LVU824
	leaq	56(%rbx), %r13
.LVL314:
	.loc 6 182 51 view .LVU825
.LBE4640:
.LBE4639:
.LBB4641:
.LBI4641:
	.loc 6 148 2 is_stmt 1 view .LVU826
.LBB4642:
.LBB4643:
.LBI4643:
	.loc 22 99 5 view .LVU827
	.loc 22 99 5 is_stmt 0 view .LVU828
.LBE4643:
.LBB4644:
.LBI4644:
	.loc 9 133 7 is_stmt 1 view .LVU829
.LBB4645:
.LBI4645:
	.loc 8 81 7 view .LVU830
	.loc 8 81 7 is_stmt 0 view .LVU831
.LBE4645:
.LBE4644:
	.loc 6 149 46 view .LVU832
	movq	%r13, 40(%rbx)
.LVL315:
	.loc 6 149 46 view .LVU833
.LBE4642:
.LBE4641:
.LBB4646:
.LBI4646:
	.loc 9 139 7 is_stmt 1 view .LVU834
.LBB4647:
.LBI4647:
	.loc 8 86 7 view .LVU835
	.loc 8 86 7 is_stmt 0 view .LVU836
.LBE4647:
.LBE4646:
.LBB4648:
.LBI4648:
	.loc 6 203 7 is_stmt 1 view .LVU837
.LBB4649:
.LBI4649:
	.loc 6 171 7 view .LVU838
.LBB4650:
	.loc 6 172 9 is_stmt 0 view .LVU839
	movq	$0, 48(%rbx)
.LVL316:
	.loc 6 172 9 view .LVU840
.LBE4650:
.LBE4649:
.LBB4651:
.LBI4651:
	.loc 17 284 7 is_stmt 1 view .LVU841
.LBB4652:
	.loc 17 285 9 view .LVU842
	.loc 17 285 14 is_stmt 0 view .LVU843
	movb	$0, 56(%rbx)
.LVL317:
	.loc 17 285 14 view .LVU844
.LBE4652:
.LBE4651:
.LBE4648:
.LBE4636:
.LBE4633:
.LBE4632:
.LBE4631:
.LBE4653:
.LBE4654:
.LBE4656:
.LBE4658:
.LBE4660:
.LBB4661:
.LBB4662:
.LBI4662:
	.loc 11 775 7 is_stmt 1 view .LVU845
.LBB4663:
.LBI4663:
	.loc 14 1131 7 view .LVU846
.LBB4664:
	.loc 14 1132 20 is_stmt 0 view .LVU847
	leaq	32(%rbx), %rdx
.LVL318:
	.loc 14 1132 20 view .LVU848
.LBE4664:
.LBE4663:
.LBE4662:
	.loc 11 2418 11 view .LVU849
	movq	%rbp, %rsi
	movq	%r12, %rdi
	call	_ZNSt8_Rb_treeIN3mpp9ReqParser5StateESt4pairIKS2_NSt7__cxx1112basic_stringIcSt11char_traitsIcESaIcEEEESt10_Select1stISB_ESt4lessIS2_ESaISB_EE29_M_get_insert_hint_unique_posESt23_Rb_tree_const_iteratorISB_ERS4_
.LVL319:
	movq	%rax, %rbp
.LVL320:
	.loc 11 2420 6 view .LVU850
	testq	%rdx, %rdx
	je	.L139
	.loc 11 2421 60 view .LVU851
	movq	%rbx, %rcx
	.loc 11 2421 60 view .LVU852
	movq	%rax, %rsi
	movq	%r12, %rdi
	call	_ZNSt8_Rb_treeIN3mpp9ReqParser5StateESt4pairIKS2_NSt7__cxx1112basic_stringIcSt11char_traitsIcESaIcEEEESt10_Select1stISB_ESt4lessIS2_ESaISB_EE14_M_insert_nodeEPSt18_Rb_tree_node_baseSJ_PSt13_Rb_tree_nodeISB_E
.LVL321:
.L140:
	.loc 11 2421 60 view .LVU853
.LBE4661:
	.loc 11 2431 7 view .LVU854
	addq	$8, %rsp
	.cfi_remember_state
	.cfi_def_cfa_offset 40
	popq	%rbx
	.cfi_def_cfa_offset 32
.LVL322:
	.loc 11 2431 7 view .LVU855
	popq	%rbp
	.cfi_def_cfa_offset 24
	.loc 11 2431 7 view .LVU856
	popq	%r12
	.cfi_def_cfa_offset 16
.LVL323:
	.loc 11 2431 7 view .LVU857
	popq	%r13
	.cfi_def_cfa_offset 8
.LVL324:
	.loc 11 2431 7 view .LVU858
	ret
.LVL325:
.L139:
	.cfi_restore_state
.LBB4688:
.LBB4665:
.LBI4665:
	.loc 11 667 7 is_stmt 1 view .LVU859
.LBB4666:
.LBI4666:
	.loc 11 659 7 view .LVU860
.LBB4667:
.LBI4667:
	.loc 7 486 2 view .LVU861
.LBB4668:
.LBI4668:
	.loc 8 140 2 view .LVU862
.LBB4669:
.LBI4669:
	.loc 12 198 12 view .LVU863
.LBB4670:
.LBI4670:
	.loc 6 656 7 view .LVU864
.LBB4671:
.LBI4671:
	.loc 6 218 7 view .LVU865
.LBB4672:
.LBB4673:
.LBI4673:
	.loc 6 210 7 view .LVU866
.LBB4674:
.LBI4674:
	.loc 6 175 7 view .LVU867
.LBB4675:
	.loc 6 176 28 is_stmt 0 view .LVU868
	movq	40(%rbx), %rdi
.LVL326:
	.loc 6 176 28 view .LVU869
.LBE4675:
.LBE4674:
.LBE4673:
	.loc 6 220 2 view .LVU870
	cmpq	%rdi, %r13
	je	.L141
.LVL327:
.LBB4676:
.LBI4676:
	.loc 6 225 7 is_stmt 1 view .LVU871
.LBB4677:
.LBI4677:
	.loc 7 461 7 view .LVU872
.LBB4678:
.LBI4678:
	.loc 8 116 7 view .LVU873
.LBB4679:
	.loc 8 125 19 is_stmt 0 view .LVU874
	call	_ZdlPv
.LVL328:
.L141:
	.loc 8 125 19 view .LVU875
.LBE4679:
.LBE4678:
.LBE4677:
.LBE4676:
.LBE4672:
.LBE4671:
.LBB4680:
.LBI4680:
	.loc 6 139 14 is_stmt 1 view .LVU876
.LBB4681:
.LBI4681:
	.loc 9 139 7 view .LVU877
.LBB4682:
.LBI4682:
	.loc 8 86 7 view .LVU878
	.loc 8 86 7 is_stmt 0 view .LVU879
.LBE4682:
.LBE4681:
.LBE4680:
.LBE4670:
.LBE4669:
.LBE4668:
.LBE4667:
.LBE4666:
.LBB4683:
.LBI4683:
	.loc 11 602 7 is_stmt 1 view .LVU880
.LBB4684:
.LBI4684:
	.loc 7 461 7 view .LVU881
.LBB4685:
.LBI4685:
	.loc 8 116 7 view .LVU882
.LBB4686:
	.loc 8 125 19 is_stmt 0 view .LVU883
	movq	%rbx, %rdi
	call	_ZdlPv
.LVL329:
	.loc 8 125 19 view .LVU884
.LBE4686:
.LBE4685:
.LBE4684:
.LBE4683:
.LBE4665:
.LBB4687:
.LBI4687:
	.loc 11 273 7 is_stmt 1 view .LVU885
	.loc 11 273 7 is_stmt 0 view .LVU886
.LBE4687:
	.loc 11 2424 33 view .LVU887
	movq	%rbp, %rax
	jmp	.L140
.LBE4688:
	.cfi_endproc
.LFE6936:
	.size	_ZNSt8_Rb_treeIN3mpp9ReqParser5StateESt4pairIKS2_NSt7__cxx1112basic_stringIcSt11char_traitsIcESaIcEEEESt10_Select1stISB_ESt4lessIS2_ESaISB_EE22_M_emplace_hint_uniqueIJRKSt21piecewise_construct_tSt5tupleIJOS2_EESM_IJEEEEESt17_Rb_tree_iteratorISB_ESt23_Rb_tree_const_iteratorISB_EDpOT_, .-_ZNSt8_Rb_treeIN3mpp9ReqParser5StateESt4pairIKS2_NSt7__cxx1112basic_stringIcSt11char_traitsIcESaIcEEEESt10_Select1stISB_ESt4lessIS2_ESaISB_EE22_M_emplace_hint_uniqueIJRKSt21piecewise_construct_tSt5tupleIJOS2_EESM_IJEEEEESt17_Rb_tree_iteratorISB_ESt23_Rb_tree_const_iteratorISB_EDpOT_
	.section	.text._ZNSt8_Rb_treeIN3mpp9ReqParser5StateESt4pairIKS2_NSt7__cxx1112basic_stringIcSt11char_traitsIcESaIcEEEESt10_Select1stISB_ESt4lessIS2_ESaISB_EE22_M_emplace_hint_uniqueIJRKSt21piecewise_construct_tSt5tupleIJRS4_EESM_IJEEEEESt17_Rb_tree_iteratorISB_ESt23_Rb_tree_const_iteratorISB_EDpOT_,"axG",@progbits,_ZNSt8_Rb_treeIN3mpp9ReqParser5StateESt4pairIKS2_NSt7__cxx1112basic_stringIcSt11char_traitsIcESaIcEEEESt10_Select1stISB_ESt4lessIS2_ESaISB_EE22_M_emplace_hint_uniqueIJRKSt21piecewise_construct_tSt5tupleIJRS4_EESM_IJEEEEESt17_Rb_tree_iteratorISB_ESt23_Rb_tree_const_iteratorISB_EDpOT_,comdat
	.align 2
	.weak	_ZNSt8_Rb_treeIN3mpp9ReqParser5StateESt4pairIKS2_NSt7__cxx1112basic_stringIcSt11char_traitsIcESaIcEEEESt10_Select1stISB_ESt4lessIS2_ESaISB_EE22_M_emplace_hint_uniqueIJRKSt21piecewise_construct_tSt5tupleIJRS4_EESM_IJEEEEESt17_Rb_tree_iteratorISB_ESt23_Rb_tree_const_iteratorISB_EDpOT_
	.type	_ZNSt8_Rb_treeIN3mpp9ReqParser5StateESt4pairIKS2_NSt7__cxx1112basic_stringIcSt11char_traitsIcESaIcEEEESt10_Select1stISB_ESt4lessIS2_ESaISB_EE22_M_emplace_hint_uniqueIJRKSt21piecewise_construct_tSt5tupleIJRS4_EESM_IJEEEEESt17_Rb_tree_iteratorISB_ESt23_Rb_tree_const_iteratorISB_EDpOT_, @function
_ZNSt8_Rb_treeIN3mpp9ReqParser5StateESt4pairIKS2_NSt7__cxx1112basic_stringIcSt11char_traitsIcESaIcEEEESt10_Select1stISB_ESt4lessIS2_ESaISB_EE22_M_emplace_hint_uniqueIJRKSt21piecewise_construct_tSt5tupleIJRS4_EESM_IJEEEEESt17_Rb_tree_iteratorISB_ESt23_Rb_tree_const_iteratorISB_EDpOT_:
.LVL330:
.LFB6954:
	.loc 11 2411 7 is_stmt 1 view -0
	.cfi_startproc
	.loc 11 2411 7 is_stmt 0 view .LVU889
	pushq	%r13
	.cfi_def_cfa_offset 16
	.cfi_offset 13, -16
	pushq	%r12
	.cfi_def_cfa_offset 24
	.cfi_offset 12, -24
	pushq	%rbp
	.cfi_def_cfa_offset 32
	.cfi_offset 6, -32
	pushq	%rbx
	.cfi_def_cfa_offset 40
	.cfi_offset 3, -40
	subq	$8, %rsp
	.cfi_def_cfa_offset 48
	movq	%rdi, %r12
	movq	%rsi, %rbp
	movq	%rcx, %r13
.LVL331:
.LBB4689:
.LBI4689:
	.loc 11 651 2 is_stmt 1 view .LVU890
.LBB4690:
.LBB4691:
.LBI4691:
	.loc 11 598 7 view .LVU891
.LBB4692:
.LBI4692:
	.loc 7 435 7 view .LVU892
.LBB4693:
.LBI4693:
	.loc 8 99 7 view .LVU893
.LBB4694:
	.loc 8 111 41 is_stmt 0 view .LVU894
	movl	$72, %edi
.LVL332:
	.loc 8 111 41 view .LVU895
	call	_Znwm
.LVL333:
	.loc 8 111 41 view .LVU896
	movq	%rax, %rbx
.LVL334:
	.loc 8 111 41 view .LVU897
.LBE4694:
.LBE4693:
.LBE4692:
.LBE4691:
.LBB4695:
.LBI4695:
	.loc 11 632 2 is_stmt 1 view .LVU898
	.loc 11 632 2 is_stmt 0 view .LVU899
.LBE4695:
.LBE4690:
.LBE4689:
	.loc 24 169 3 is_stmt 1 view .LVU900
.LBB4733:
.LBB4731:
.LBB4729:
.LBB4696:
.LBI4696:
	.loc 7 474 2 view .LVU901
.LBB4697:
.LBI4697:
	.loc 8 135 2 view .LVU902
.LBB4698:
.LBI4698:
	.loc 25 662 17 view .LVU903
.LBB4699:
.LBI4699:
	.loc 25 371 7 view .LVU904
.LBB4700:
.LBI4700:
	.loc 25 351 7 view .LVU905
.LBB4701:
.LBI4701:
	.loc 25 160 7 view .LVU906
.LBB4702:
	.loc 25 160 54 is_stmt 0 view .LVU907
	movq	0(%r13), %rax
.LVL335:
	.loc 25 160 54 view .LVU908
.LBE4702:
.LBE4701:
.LBE4700:
.LBB4703:
.LBI4703:
	.loc 22 74 5 is_stmt 1 view .LVU909
	.loc 22 74 5 is_stmt 0 view .LVU910
.LBE4703:
.LBB4704:
.LBI4704:
	.loc 25 125 17 is_stmt 1 view .LVU911
	.loc 25 125 17 is_stmt 0 view .LVU912
.LBE4704:
.LBE4699:
.LBE4698:
.LBE4697:
.LBE4696:
.LBE4729:
.LBE4731:
.LBE4733:
	.loc 24 169 3 is_stmt 1 view .LVU913
.LBB4734:
.LBB4732:
.LBB4730:
.LBB4728:
.LBB4727:
.LBB4705:
.LBI4705:
	.loc 25 1652 7 view .LVU914
.LBB4706:
.LBI4706:
	.loc 25 1664 7 view .LVU915
.LBB4707:
.LBB4708:
.LBI4708:
	.loc 25 1314 5 view .LVU916
	.loc 25 1314 5 is_stmt 0 view .LVU917
.LBE4708:
.LBB4709:
.LBI4709:
	.loc 22 74 5 is_stmt 1 view .LVU918
	.loc 22 74 5 is_stmt 0 view .LVU919
.LBE4709:
	.loc 25 1668 70 view .LVU920
	movl	(%rax), %eax
	movl	%eax, 32(%rbx)
.LVL336:
.LBB4710:
.LBI4710:
	.loc 6 420 7 is_stmt 1 view .LVU921
.LBB4711:
.LBI4711:
	.loc 9 131 7 view .LVU922
.LBB4712:
.LBI4712:
	.loc 8 79 7 view .LVU923
	.loc 8 79 7 is_stmt 0 view .LVU924
.LBE4712:
.LBE4711:
.LBB4713:
.LBI4713:
	.loc 6 179 7 is_stmt 1 view .LVU925
.LBB4714:
	.loc 6 182 51 is_stmt 0 view .LVU926
	leaq	56(%rbx), %r13
.LVL337:
	.loc 6 182 51 view .LVU927
.LBE4714:
.LBE4713:
.LBB4715:
.LBI4715:
	.loc 6 148 2 is_stmt 1 view .LVU928
.LBB4716:
.LBB4717:
.LBI4717:
	.loc 22 99 5 view .LVU929
	.loc 22 99 5 is_stmt 0 view .LVU930
.LBE4717:
.LBB4718:
.LBI4718:
	.loc 9 133 7 is_stmt 1 view .LVU931
.LBB4719:
.LBI4719:
	.loc 8 81 7 view .LVU932
	.loc 8 81 7 is_stmt 0 view .LVU933
.LBE4719:
.LBE4718:
	.loc 6 149 46 view .LVU934
	movq	%r13, 40(%rbx)
.LVL338:
	.loc 6 149 46 view .LVU935
.LBE4716:
.LBE4715:
.LBB4720:
.LBI4720:
	.loc 9 139 7 is_stmt 1 view .LVU936
.LBB4721:
.LBI4721:
	.loc 8 86 7 view .LVU937
	.loc 8 86 7 is_stmt 0 view .LVU938
.LBE4721:
.LBE4720:
.LBB4722:
.LBI4722:
	.loc 6 203 7 is_stmt 1 view .LVU939
.LBB4723:
.LBI4723:
	.loc 6 171 7 view .LVU940
.LBB4724:
	.loc 6 172 9 is_stmt 0 view .LVU941
	movq	$0, 48(%rbx)
.LVL339:
	.loc 6 172 9 view .LVU942
.LBE4724:
.LBE4723:
.LBB4725:
.LBI4725:
	.loc 17 284 7 is_stmt 1 view .LVU943
.LBB4726:
	.loc 17 285 9 view .LVU944
	.loc 17 285 14 is_stmt 0 view .LVU945
	movb	$0, 56(%rbx)
.LVL340:
	.loc 17 285 14 view .LVU946
.LBE4726:
.LBE4725:
.LBE4722:
.LBE4710:
.LBE4707:
.LBE4706:
.LBE4705:
.LBE4727:
.LBE4728:
.LBE4730:
.LBE4732:
.LBE4734:
.LBB4735:
.LBB4736:
.LBI4736:
	.loc 11 775 7 is_stmt 1 view .LVU947
.LBB4737:
.LBI4737:
	.loc 14 1131 7 view .LVU948
.LBB4738:
	.loc 14 1132 20 is_stmt 0 view .LVU949
	leaq	32(%rbx), %rdx
.LVL341:
	.loc 14 1132 20 view .LVU950
.LBE4738:
.LBE4737:
.LBE4736:
	.loc 11 2418 11 view .LVU951
	movq	%rbp, %rsi
	movq	%r12, %rdi
	call	_ZNSt8_Rb_treeIN3mpp9ReqParser5StateESt4pairIKS2_NSt7__cxx1112basic_stringIcSt11char_traitsIcESaIcEEEESt10_Select1stISB_ESt4lessIS2_ESaISB_EE29_M_get_insert_hint_unique_posESt23_Rb_tree_const_iteratorISB_ERS4_
.LVL342:
	movq	%rax, %rbp
.LVL343:
	.loc 11 2420 6 view .LVU952
	testq	%rdx, %rdx
	je	.L144
	.loc 11 2421 60 view .LVU953
	movq	%rbx, %rcx
	.loc 11 2421 60 view .LVU954
	movq	%rax, %rsi
	movq	%r12, %rdi
	call	_ZNSt8_Rb_treeIN3mpp9ReqParser5StateESt4pairIKS2_NSt7__cxx1112basic_stringIcSt11char_traitsIcESaIcEEEESt10_Select1stISB_ESt4lessIS2_ESaISB_EE14_M_insert_nodeEPSt18_Rb_tree_node_baseSJ_PSt13_Rb_tree_nodeISB_E
.LVL344:
.L145:
	.loc 11 2421 60 view .LVU955
.LBE4735:
	.loc 11 2431 7 view .LVU956
	addq	$8, %rsp
	.cfi_remember_state
	.cfi_def_cfa_offset 40
	popq	%rbx
	.cfi_def_cfa_offset 32
.LVL345:
	.loc 11 2431 7 view .LVU957
	popq	%rbp
	.cfi_def_cfa_offset 24
	.loc 11 2431 7 view .LVU958
	popq	%r12
	.cfi_def_cfa_offset 16
.LVL346:
	.loc 11 2431 7 view .LVU959
	popq	%r13
	.cfi_def_cfa_offset 8
.LVL347:
	.loc 11 2431 7 view .LVU960
	ret
.LVL348:
.L144:
	.cfi_restore_state
.LBB4762:
.LBB4739:
.LBI4739:
	.loc 11 667 7 is_stmt 1 view .LVU961
.LBB4740:
.LBI4740:
	.loc 11 659 7 view .LVU962
.LBB4741:
.LBI4741:
	.loc 7 486 2 view .LVU963
.LBB4742:
.LBI4742:
	.loc 8 140 2 view .LVU964
.LBB4743:
.LBI4743:
	.loc 12 198 12 view .LVU965
.LBB4744:
.LBI4744:
	.loc 6 656 7 view .LVU966
.LBB4745:
.LBI4745:
	.loc 6 218 7 view .LVU967
.LBB4746:
.LBB4747:
.LBI4747:
	.loc 6 210 7 view .LVU968
.LBB4748:
.LBI4748:
	.loc 6 175 7 view .LVU969
.LBB4749:
	.loc 6 176 28 is_stmt 0 view .LVU970
	movq	40(%rbx), %rdi
.LVL349:
	.loc 6 176 28 view .LVU971
.LBE4749:
.LBE4748:
.LBE4747:
	.loc 6 220 2 view .LVU972
	cmpq	%rdi, %r13
	je	.L146
.LVL350:
.LBB4750:
.LBI4750:
	.loc 6 225 7 is_stmt 1 view .LVU973
.LBB4751:
.LBI4751:
	.loc 7 461 7 view .LVU974
.LBB4752:
.LBI4752:
	.loc 8 116 7 view .LVU975
.LBB4753:
	.loc 8 125 19 is_stmt 0 view .LVU976
	call	_ZdlPv
.LVL351:
.L146:
	.loc 8 125 19 view .LVU977
.LBE4753:
.LBE4752:
.LBE4751:
.LBE4750:
.LBE4746:
.LBE4745:
.LBB4754:
.LBI4754:
	.loc 6 139 14 is_stmt 1 view .LVU978
.LBB4755:
.LBI4755:
	.loc 9 139 7 view .LVU979
.LBB4756:
.LBI4756:
	.loc 8 86 7 view .LVU980
	.loc 8 86 7 is_stmt 0 view .LVU981
.LBE4756:
.LBE4755:
.LBE4754:
.LBE4744:
.LBE4743:
.LBE4742:
.LBE4741:
.LBE4740:
.LBB4757:
.LBI4757:
	.loc 11 602 7 is_stmt 1 view .LVU982
.LBB4758:
.LBI4758:
	.loc 7 461 7 view .LVU983
.LBB4759:
.LBI4759:
	.loc 8 116 7 view .LVU984
.LBB4760:
	.loc 8 125 19 is_stmt 0 view .LVU985
	movq	%rbx, %rdi
	call	_ZdlPv
.LVL352:
	.loc 8 125 19 view .LVU986
.LBE4760:
.LBE4759:
.LBE4758:
.LBE4757:
.LBE4739:
.LBB4761:
.LBI4761:
	.loc 11 273 7 is_stmt 1 view .LVU987
	.loc 11 273 7 is_stmt 0 view .LVU988
.LBE4761:
	.loc 11 2424 33 view .LVU989
	movq	%rbp, %rax
	jmp	.L145
.LBE4762:
	.cfi_endproc
.LFE6954:
	.size	_ZNSt8_Rb_treeIN3mpp9ReqParser5StateESt4pairIKS2_NSt7__cxx1112basic_stringIcSt11char_traitsIcESaIcEEEESt10_Select1stISB_ESt4lessIS2_ESaISB_EE22_M_emplace_hint_uniqueIJRKSt21piecewise_construct_tSt5tupleIJRS4_EESM_IJEEEEESt17_Rb_tree_iteratorISB_ESt23_Rb_tree_const_iteratorISB_EDpOT_, .-_ZNSt8_Rb_treeIN3mpp9ReqParser5StateESt4pairIKS2_NSt7__cxx1112basic_stringIcSt11char_traitsIcESaIcEEEESt10_Select1stISB_ESt4lessIS2_ESaISB_EE22_M_emplace_hint_uniqueIJRKSt21piecewise_construct_tSt5tupleIJRS4_EESM_IJEEEEESt17_Rb_tree_iteratorISB_ESt23_Rb_tree_const_iteratorISB_EDpOT_
	.section	.rodata.str1.8,"aMS",@progbits,1
	.align 8
.LC2:
	.string	"ReqParser::reset: reset to state "
	.text
	.align 2
	.globl	_ZN3mpp9ReqParser5resetEv
	.type	_ZN3mpp9ReqParser5resetEv, @function
_ZN3mpp9ReqParser5resetEv:
.LVL353:
.LFB6221:
	.loc 1 70 1 is_stmt 1 view -0
	.cfi_startproc
	.loc 1 70 1 is_stmt 0 view .LVU991
	pushq	%r12
	.cfi_def_cfa_offset 16
	.cfi_offset 12, -16
	pushq	%rbp
	.cfi_def_cfa_offset 24
	.cfi_offset 6, -24
	pushq	%rbx
	.cfi_def_cfa_offset 32
	.cfi_offset 3, -32
	subq	$16, %rsp
	.cfi_def_cfa_offset 48
	movq	%rdi, %rbx
	.loc 1 71 2 is_stmt 1 view .LVU992
	.loc 1 71 10 is_stmt 0 view .LVU993
	movl	$1, (%rdi)
	.loc 1 74 2 is_stmt 1 view .LVU994
.LVL354:
.LBB4811:
.LBI4811:
	.loc 19 556 5 view .LVU995
	.loc 19 556 5 is_stmt 0 view .LVU996
.LBE4811:
	.loc 17 320 2 is_stmt 1 view .LVU997
.LBB4813:
.LBB4812:
	.loc 19 561 18 is_stmt 0 view .LVU998
	movl	$33, %edx
	movl	$.LC2, %esi
	movl	$_ZSt4cout, %edi
.LVL355:
	.loc 19 561 18 view .LVU999
	call	_ZSt16__ostream_insertIcSt11char_traitsIcEERSt13basic_ostreamIT_T0_ES6_PKS3_l
.LVL356:
	.loc 19 561 18 view .LVU1000
.LBE4812:
.LBE4813:
	.loc 1 74 72 view .LVU1001
	leaq	1272(%rbx), %rbp
.LVL357:
.LBB4814:
.LBI4814:
	.file 26 "/usr/include/c++/8/bits/stl_map.h"
	.loc 26 490 7 is_stmt 1 view .LVU1002
.LBB4815:
.LBB4816:
.LBI4816:
	.loc 26 1239 7 view .LVU1003
.LBB4817:
.LBB4818:
.LBI4818:
	.loc 11 1202 7 view .LVU1004
.LBB4819:
.LBB4820:
.LBI4820:
	.loc 11 763 7 view .LVU1005
.LBB4821:
	.loc 11 764 31 is_stmt 0 view .LVU1006
	leaq	1280(%rbx), %r12
.LVL358:
	.loc 11 764 31 view .LVU1007
.LBE4821:
.LBE4820:
.LBB4822:
.LBI4822:
	.loc 11 752 7 is_stmt 1 view .LVU1008
.LBB4823:
	.loc 11 753 73 is_stmt 0 view .LVU1009
	movq	16(%rbp), %rsi
.LVL359:
	.loc 11 753 73 view .LVU1010
.LBE4823:
.LBE4822:
	.loc 11 1203 56 view .LVU1011
	movq	%rbx, %rcx
	movq	%r12, %rdx
	movq	%rbp, %rdi
	call	_ZNSt8_Rb_treeIN3mpp9ReqParser5StateESt4pairIKS2_NSt7__cxx1112basic_stringIcSt11char_traitsIcESaIcEEEESt10_Select1stISB_ESt4lessIS2_ESaISB_EE14_M_lower_boundEPSt13_Rb_tree_nodeISB_EPSt18_Rb_tree_node_baseRS4_
.LVL360:
	.loc 11 1203 56 view .LVU1012
.LBE4819:
.LBE4818:
.LBE4817:
.LBE4816:
.LBB4824:
.LBI4824:
	.loc 26 372 7 is_stmt 1 view .LVU1013
.LBB4825:
.LBI4825:
	.loc 11 984 7 view .LVU1014
.LBB4826:
.LBI4826:
	.loc 11 273 7 view .LVU1015
	.loc 11 273 7 is_stmt 0 view .LVU1016
.LBE4826:
.LBE4825:
.LBE4824:
.LBB4827:
.LBI4827:
	.loc 11 315 7 is_stmt 1 view .LVU1017
.LBB4828:
	.loc 11 316 16 is_stmt 0 view .LVU1018
	movq	%rax, %rsi
.LVL361:
	.loc 11 316 16 view .LVU1019
.LBE4828:
.LBE4827:
	.loc 26 497 19 view .LVU1020
	cmpq	%rax, %r12
	je	.L149
	movq	%rax, %rcx
.LVL362:
.LBB4829:
.LBI4829:
	.loc 14 385 7 is_stmt 1 view .LVU1021
	.loc 14 385 7 is_stmt 0 view .LVU1022
.LBE4829:
	.loc 26 497 19 view .LVU1023
	movl	32(%rax), %eax
	cmpl	%eax, (%rbx)
	jge	.L150
.L149:
.LVL363:
.LBB4830:
.LBI4830:
	.loc 25 608 19 is_stmt 1 view .LVU1024
.LBB4831:
.LBI4831:
	.loc 25 360 17 view .LVU1025
.LBB4832:
.LBI4832:
	.loc 25 125 17 view .LVU1026
.LBB4833:
.LBB4834:
	.loc 25 126 25 is_stmt 0 view .LVU1027
	movq	%rbx, (%rsp)
.LVL364:
	.loc 25 126 25 view .LVU1028
.LBE4834:
.LBE4833:
.LBE4832:
.LBE4831:
.LBE4830:
.LBB4835:
.LBI4835:
	.loc 11 348 7 is_stmt 1 view .LVU1029
	.loc 11 348 7 is_stmt 0 view .LVU1030
.LBE4835:
	.loc 26 499 8 view .LVU1031
	leaq	15(%rsp), %r8
	movq	%rsp, %rcx
	movl	$_ZStL19piecewise_construct, %edx
	movq	%rbp, %rdi
	call	_ZNSt8_Rb_treeIN3mpp9ReqParser5StateESt4pairIKS2_NSt7__cxx1112basic_stringIcSt11char_traitsIcESaIcEEEESt10_Select1stISB_ESt4lessIS2_ESaISB_EE22_M_emplace_hint_uniqueIJRKSt21piecewise_construct_tSt5tupleIJRS4_EESM_IJEEEEESt17_Rb_tree_iteratorISB_ESt23_Rb_tree_const_iteratorISB_EDpOT_
.LVL365:
	movq	%rax, %rcx
.L150:
.LVL366:
.LBB4836:
.LBI4836:
	.loc 11 277 7 is_stmt 1 view .LVU1032
	.loc 11 277 7 is_stmt 0 view .LVU1033
.LBE4836:
.LBE4815:
.LBE4814:
.LBB4837:
.LBI4837:
	.loc 6 6314 5 is_stmt 1 view .LVU1034
.LBB4838:
.LBB4839:
.LBI4839:
	.loc 6 921 7 view .LVU1035
.LBB4840:
	.loc 6 922 16 is_stmt 0 view .LVU1036
	movq	48(%rcx), %rdx
.LVL367:
	.loc 6 922 16 view .LVU1037
.LBE4840:
.LBE4839:
.LBB4841:
.LBI4841:
	.loc 6 2293 7 is_stmt 1 view .LVU1038
.LBB4842:
.LBI4842:
	.loc 6 175 7 view .LVU1039
.LBB4843:
	.loc 6 176 28 is_stmt 0 view .LVU1040
	movq	40(%rcx), %rsi
.LVL368:
	.loc 6 176 28 view .LVU1041
.LBE4843:
.LBE4842:
.LBE4841:
	.loc 6 6319 30 view .LVU1042
	movl	$_ZSt4cout, %edi
	call	_ZSt16__ostream_insertIcSt11char_traitsIcEERSt13basic_ostreamIT_T0_ES6_PKS3_l
.LVL369:
	.loc 6 6319 30 view .LVU1043
	movq	%rax, %rbp
.LVL370:
	.loc 6 6319 30 view .LVU1044
.LBE4838:
.LBE4837:
.LBB4844:
.LBI4844:
	.loc 19 108 7 is_stmt 1 view .LVU1045
.LBB4845:
.LBI4845:
	.loc 19 590 5 view .LVU1046
.LBB4846:
	.loc 19 591 19 is_stmt 0 view .LVU1047
	movq	(%rax), %rax
.LVL371:
	.loc 19 591 19 view .LVU1048
	movq	%rbp, %rcx
	addq	-24(%rax), %rcx
.LVL372:
.LBB4847:
.LBI4847:
	.loc 23 449 7 is_stmt 1 view .LVU1049
.LBB4848:
	.loc 23 450 30 is_stmt 0 view .LVU1050
	movq	240(%rcx), %rbx
.LVL373:
.LBB4849:
.LBI4849:
	.loc 23 47 5 is_stmt 1 view .LVU1051
.LBB4850:
	.loc 23 49 7 is_stmt 0 view .LVU1052
	testq	%rbx, %rbx
	je	.L155
.LVL374:
	.loc 23 49 7 view .LVU1053
.LBE4850:
.LBE4849:
.LBB4852:
.LBI4852:
	.file 27 "/usr/include/c++/8/bits/locale_facets.h"
	.loc 27 872 7 is_stmt 1 view .LVU1054
.LBB4853:
	.loc 27 874 2 view .LVU1055
	cmpb	$0, 56(%rbx)
	je	.L152
	.loc 27 875 4 view .LVU1056
	.loc 27 875 51 is_stmt 0 view .LVU1057
	movzbl	67(%rbx), %eax
.LVL375:
.L153:
	.loc 27 875 51 view .LVU1058
.LBE4853:
.LBE4852:
.LBE4848:
.LBE4847:
	.loc 19 591 19 view .LVU1059
	movsbl	%al, %esi
	movq	%rbp, %rdi
	call	_ZNSo3putEc
.LVL376:
.LBB4858:
.LBI4858:
	.loc 19 612 5 is_stmt 1 view .LVU1060
.LBB4859:
	.loc 19 613 25 is_stmt 0 view .LVU1061
	movq	%rax, %rdi
	call	_ZNSo5flushEv
.LVL377:
	.loc 19 613 25 view .LVU1062
.LBE4859:
.LBE4858:
.LBE4846:
.LBE4845:
.LBE4844:
	.loc 1 76 1 view .LVU1063
	addq	$16, %rsp
	.cfi_remember_state
	.cfi_def_cfa_offset 32
	popq	%rbx
	.cfi_def_cfa_offset 24
	popq	%rbp
	.cfi_def_cfa_offset 16
	popq	%r12
	.cfi_def_cfa_offset 8
.LVL378:
	.loc 1 76 1 view .LVU1064
	ret
.LVL379:
.L155:
	.cfi_restore_state
.LBB4863:
.LBB4862:
.LBB4861:
.LBB4860:
.LBB4857:
.LBB4855:
.LBB4851:
	.loc 23 50 18 view .LVU1065
	call	_ZSt16__throw_bad_castv
.LVL380:
.L152:
	.loc 23 50 18 view .LVU1066
.LBE4851:
.LBE4855:
.LBB4856:
.LBB4854:
	.loc 27 876 2 is_stmt 1 view .LVU1067
	.loc 27 876 21 is_stmt 0 view .LVU1068
	movq	%rbx, %rdi
	call	_ZNKSt5ctypeIcE13_M_widen_initEv
.LVL381:
	.loc 27 877 2 is_stmt 1 view .LVU1069
	.loc 27 877 27 is_stmt 0 view .LVU1070
	movq	(%rbx), %rax
	.loc 27 877 23 view .LVU1071
	movl	$10, %esi
	movq	%rbx, %rdi
	call	*48(%rax)
.LVL382:
	jmp	.L153
.LBE4854:
.LBE4856:
.LBE4857:
.LBE4860:
.LBE4861:
.LBE4862:
.LBE4863:
	.cfi_endproc
.LFE6221:
	.size	_ZN3mpp9ReqParser5resetEv, .-_ZN3mpp9ReqParser5resetEv
	.section	.text._ZNSt7__cxx1112basic_stringIwSt11char_traitsIwESaIwEE12_M_constructIPwEEvT_S7_St20forward_iterator_tag,"axG",@progbits,_ZNSt7__cxx1112basic_stringIwSt11char_traitsIwESaIwEE12_M_constructIPwEEvT_S7_St20forward_iterator_tag,comdat
	.align 2
	.weak	_ZNSt7__cxx1112basic_stringIwSt11char_traitsIwESaIwEE12_M_constructIPwEEvT_S7_St20forward_iterator_tag
	.type	_ZNSt7__cxx1112basic_stringIwSt11char_traitsIwESaIwEE12_M_constructIPwEEvT_S7_St20forward_iterator_tag, @function
_ZNSt7__cxx1112basic_stringIwSt11char_traitsIwESaIwEE12_M_constructIPwEEvT_S7_St20forward_iterator_tag:
.LVL383:
.LFB7280:
	.loc 15 206 7 is_stmt 1 view -0
	.cfi_startproc
	.loc 15 206 7 is_stmt 0 view .LVU1073
	pushq	%r12
	.cfi_def_cfa_offset 16
	.cfi_offset 12, -16
	pushq	%rbp
	.cfi_def_cfa_offset 24
	.cfi_offset 6, -24
	pushq	%rbx
	.cfi_def_cfa_offset 32
	.cfi_offset 3, -32
	subq	$16, %rsp
	.cfi_def_cfa_offset 48
	movq	%rdi, %rbp
	movq	%rsi, %r12
	.loc 15 211 42 view .LVU1074
	testq	%rsi, %rsi
	je	.L162
.L157:
.LVL384:
.LBB4864:
.LBI4864:
	.loc 16 138 5 is_stmt 1 view .LVU1075
.LBB4865:
.LBI4865:
	.loc 16 98 5 view .LVU1076
.LBB4866:
	.loc 16 104 21 is_stmt 0 view .LVU1077
	subq	%r12, %rdx
.LVL385:
	.loc 16 104 23 view .LVU1078
	movq	%rdx, %rbx
	sarq	$2, %rbx
.LVL386:
	.loc 16 104 23 view .LVU1079
.LBE4866:
.LBE4865:
.LBE4864:
	.loc 15 215 12 view .LVU1080
	movq	%rbx, 8(%rsp)
	.loc 15 217 2 view .LVU1081
	cmpq	$3, %rbx
	ja	.L163
.LVL387:
.L158:
.LBB4867:
.LBI4867:
	.loc 6 175 7 is_stmt 1 view .LVU1082
.LBB4868:
	.loc 6 176 28 is_stmt 0 view .LVU1083
	movq	0(%rbp), %rdi
.LVL388:
	.loc 6 176 28 view .LVU1084
.LBE4868:
.LBE4867:
.LBB4869:
.LBI4869:
	.loc 6 381 7 is_stmt 1 view .LVU1085
.LBB4870:
.LBI4870:
	.loc 6 335 7 view .LVU1086
.LBB4871:
	.loc 6 337 2 is_stmt 0 view .LVU1087
	cmpq	$1, %rbx
	je	.L164
.LVL389:
.LBB4872:
.LBI4872:
	.loc 17 458 7 is_stmt 1 view .LVU1088
.LBB4873:
	.loc 17 460 2 view .LVU1089
	testq	%rbx, %rbx
	je	.L160
	.loc 17 462 2 view .LVU1090
	.loc 17 462 16 is_stmt 0 view .LVU1091
	movq	%rbx, %rdx
	movq	%r12, %rsi
	call	wmemcpy
.LVL390:
	.loc 17 462 16 view .LVU1092
	jmp	.L160
.LVL391:
.L162:
	.loc 17 462 16 view .LVU1093
.LBE4873:
.LBE4872:
.LBE4871:
.LBE4870:
.LBE4869:
	.loc 15 211 42 discriminator 1 view .LVU1094
	cmpq	%rdx, %rsi
	je	.L157
	.loc 15 212 28 view .LVU1095
	movl	$.LC0, %edi
.LVL392:
	.loc 15 212 28 view .LVU1096
	call	_ZSt19__throw_logic_errorPKc
.LVL393:
.L163:
	.loc 15 219 6 view .LVU1097
	movl	$0, %edx
	leaq	8(%rsp), %rsi
.LVL394:
	.loc 15 219 6 view .LVU1098
	movq	%rbp, %rdi
.LVL395:
	.loc 15 219 6 view .LVU1099
	call	_ZNSt7__cxx1112basic_stringIwSt11char_traitsIwESaIwEE9_M_createERmm
.LVL396:
.LBB4878:
.LBI4878:
	.loc 6 167 7 is_stmt 1 view .LVU1100
.LBB4879:
	.loc 6 168 9 is_stmt 0 view .LVU1101
	movq	%rax, 0(%rbp)
.LVL397:
	.loc 6 168 9 view .LVU1102
.LBE4879:
.LBE4878:
	.loc 15 220 6 view .LVU1103
	movq	8(%rsp), %rax
.LVL398:
.LBB4880:
.LBI4880:
	.loc 6 199 7 is_stmt 1 view .LVU1104
.LBB4881:
	.loc 6 200 9 is_stmt 0 view .LVU1105
	movq	%rax, 16(%rbp)
	jmp	.L158
.LVL399:
.L164:
	.loc 6 200 9 view .LVU1106
.LBE4881:
.LBE4880:
.LBB4882:
.LBB4877:
.LBB4876:
.LBB4874:
.LBI4874:
	.loc 17 397 7 is_stmt 1 view .LVU1107
.LBB4875:
	.loc 17 398 9 view .LVU1108
	.loc 17 398 16 is_stmt 0 view .LVU1109
	movl	(%r12), %eax
	.loc 17 398 14 view .LVU1110
	movl	%eax, (%rdi)
.LVL400:
.L160:
	.loc 17 398 14 view .LVU1111
.LBE4875:
.LBE4874:
.LBE4876:
.LBE4877:
.LBE4882:
	.loc 15 232 2 view .LVU1112
	movq	8(%rsp), %rax
.LVL401:
.LBB4883:
.LBI4883:
	.loc 6 203 7 is_stmt 1 view .LVU1113
.LBB4884:
.LBB4885:
.LBI4885:
	.loc 6 171 7 view .LVU1114
.LBB4886:
	.loc 6 172 9 is_stmt 0 view .LVU1115
	movq	%rax, 8(%rbp)
.LVL402:
	.loc 6 172 9 view .LVU1116
.LBE4886:
.LBE4885:
.LBB4887:
.LBI4887:
	.loc 6 175 7 is_stmt 1 view .LVU1117
	.loc 6 175 7 is_stmt 0 view .LVU1118
.LBE4887:
	.loc 6 206 31 view .LVU1119
	salq	$2, %rax
.LVL403:
	.loc 6 206 31 view .LVU1120
	addq	0(%rbp), %rax
.LVL404:
.LBB4888:
.LBI4888:
	.loc 17 397 7 is_stmt 1 view .LVU1121
.LBB4889:
	.loc 17 398 9 view .LVU1122
	.loc 17 398 14 is_stmt 0 view .LVU1123
	movl	$0, (%rax)
.LVL405:
	.loc 17 398 14 view .LVU1124
.LBE4889:
.LBE4888:
.LBE4884:
.LBE4883:
	.loc 15 233 7 view .LVU1125
	addq	$16, %rsp
	.cfi_def_cfa_offset 32
	popq	%rbx
	.cfi_def_cfa_offset 24
	popq	%rbp
	.cfi_def_cfa_offset 16
.LVL406:
	.loc 15 233 7 view .LVU1126
	popq	%r12
	.cfi_def_cfa_offset 8
.LVL407:
	.loc 15 233 7 view .LVU1127
	ret
	.cfi_endproc
.LFE7280:
	.size	_ZNSt7__cxx1112basic_stringIwSt11char_traitsIwESaIwEE12_M_constructIPwEEvT_S7_St20forward_iterator_tag, .-_ZNSt7__cxx1112basic_stringIwSt11char_traitsIwESaIwEE12_M_constructIPwEEvT_S7_St20forward_iterator_tag
	.section	.rodata.str4.4,"aMS",@progbits,4
	.align 4
.LC3:
	.string	","
	.string	""
	.string	""
	.string	""
	.string	""
	.string	""
	.string	""
	.text
	.type	_ZSt8for_eachIPKNSt7__cxx1112basic_stringIwSt11char_traitsIwESaIwEEEZN3mpp9ReqParserC4EvEUlS5_E_ET0_T_SC_SB_, @function
_ZSt8for_eachIPKNSt7__cxx1112basic_stringIwSt11char_traitsIwESaIwEEEZN3mpp9ReqParserC4EvEUlS5_E_ET0_T_SC_SB_:
.LVL408:
.LFB6637:
	.file 28 "/usr/include/c++/8/bits/stl_algo.h"
	.loc 28 3876 5 is_stmt 1 view -0
	.cfi_startproc
	.cfi_personality 0x3,__gxx_personality_v0
	.cfi_lsda 0x3,.LLSDA6637
	.loc 28 3876 5 is_stmt 0 view .LVU1129
	pushq	%r12
	.cfi_def_cfa_offset 16
	.cfi_offset 12, -16
	pushq	%rbp
	.cfi_def_cfa_offset 24
	.cfi_offset 6, -24
	pushq	%rbx
	.cfi_def_cfa_offset 32
	.cfi_offset 3, -32
	subq	$32, %rsp
	.cfi_def_cfa_offset 64
	movq	%rdi, %rbx
	movq	%rsi, %r12
	jmp	.L168
.LVL409:
.L174:
.LBB4966:
.LBB4967:
.LBB4968:
.LBB4969:
	.loc 6 6319 30 view .LVU1130
	movq	%rax, %rbp
.LVL410:
	.loc 6 6319 30 view .LVU1131
.LBE4969:
.LBE4968:
.LBB4974:
.LBI4974:
	.loc 19 539 5 is_stmt 1 view .LVU1132
.LBB4975:
.LBB4976:
.LBI4976:
	.loc 17 424 7 view .LVU1133
.LBB4977:
	.loc 17 431 4 view .LVU1134
	.loc 17 431 17 is_stmt 0 view .LVU1135
	movl	$.LC3, %edi
	call	wcslen
.LVL411:
	.loc 17 431 17 view .LVU1136
.LBE4977:
.LBE4976:
	.loc 19 544 18 view .LVU1137
	movq	%rax, %rdx
	movl	$.LC3, %esi
	movq	%rbp, %rdi
.LEHB8:
	call	_ZSt16__ostream_insertIwSt11char_traitsIwEERSt13basic_ostreamIT_T0_ES6_PKS3_l
.LVL412:
.LEHE8:
	.loc 19 544 18 view .LVU1138
.LBE4975:
.LBE4974:
.LBE4967:
.LBE4966:
.LBB4980:
.LBI4980:
	.loc 6 656 7 is_stmt 1 view .LVU1139
.LBB4981:
.LBI4981:
	.loc 6 218 7 view .LVU1140
.LBB4982:
.LBB4983:
.LBI4983:
	.loc 6 210 7 view .LVU1141
.LBB4984:
.LBI4984:
	.loc 6 175 7 view .LVU1142
.LBB4985:
	.loc 6 176 28 is_stmt 0 view .LVU1143
	movq	(%rsp), %rdi
.LVL413:
	.loc 6 176 28 view .LVU1144
.LBE4985:
.LBE4984:
.LBB4986:
.LBI4986:
	.loc 6 189 7 is_stmt 1 view .LVU1145
	.loc 6 189 7 is_stmt 0 view .LVU1146
.LBE4986:
.LBE4983:
	.loc 6 220 2 view .LVU1147
	leaq	16(%rsp), %rax
	cmpq	%rax, %rdi
	je	.L167
.LVL414:
.LBB4987:
.LBI4987:
	.loc 6 225 7 is_stmt 1 view .LVU1148
.LBB4988:
.LBI4988:
	.loc 7 461 7 view .LVU1149
.LBB4989:
.LBI4989:
	.loc 8 116 7 view .LVU1150
.LBB4990:
	.loc 8 125 19 is_stmt 0 view .LVU1151
	call	_ZdlPv
.LVL415:
.L167:
	.loc 8 125 19 view .LVU1152
.LBE4990:
.LBE4989:
.LBE4988:
.LBE4987:
.LBE4982:
.LBE4981:
.LBB4991:
.LBI4991:
	.loc 6 139 14 is_stmt 1 view .LVU1153
.LBB4992:
.LBI4992:
	.loc 9 139 7 view .LVU1154
.LBB4993:
.LBI4993:
	.loc 8 86 7 view .LVU1155
	.loc 8 86 7 is_stmt 0 view .LVU1156
.LBE4993:
.LBE4992:
.LBE4991:
.LBE4980:
	.loc 28 3881 7 view .LVU1157
	addq	$32, %rbx
.LVL416:
.L168:
	.loc 28 3881 22 discriminator 1 view .LVU1158
	cmpq	%r12, %rbx
	je	.L172
.LVL417:
.LBB4994:
.LBI4994:
	.loc 6 437 7 is_stmt 1 view .LVU1159
.LBB4995:
.LBB4996:
.LBB4997:
.LBI4997:
	.loc 6 279 7 view .LVU1160
	.loc 6 279 7 is_stmt 0 view .LVU1161
.LBE4997:
.LBB4998:
.LBI4998:
	.loc 21 94 19 is_stmt 1 view .LVU1162
.LBB4999:
.LBI4999:
	.loc 7 504 7 view .LVU1163
.LBB5000:
.LBI5000:
	.loc 9 133 7 view .LVU1164
.LBB5001:
.LBI5001:
	.loc 8 81 7 view .LVU1165
	.loc 8 81 7 is_stmt 0 view .LVU1166
.LBE5001:
.LBE5000:
.LBE4999:
.LBE4998:
.LBB5002:
.LBI5002:
	.loc 6 179 7 is_stmt 1 view .LVU1167
	.loc 6 179 7 is_stmt 0 view .LVU1168
.LBE5002:
.LBB5003:
.LBI5003:
	.loc 6 148 2 is_stmt 1 view .LVU1169
.LBB5004:
.LBB5005:
.LBB5006:
.LBI5006:
	.loc 22 99 5 view .LVU1170
	.loc 22 99 5 is_stmt 0 view .LVU1171
.LBE5006:
.LBB5007:
.LBI5007:
	.loc 9 133 7 is_stmt 1 view .LVU1172
.LBB5008:
.LBI5008:
	.loc 8 81 7 view .LVU1173
	.loc 8 81 7 is_stmt 0 view .LVU1174
.LBE5008:
.LBE5007:
	.loc 6 149 46 view .LVU1175
	leaq	16(%rsp), %rax
.LVL418:
	.loc 6 149 46 view .LVU1176
	movq	%rax, (%rsp)
.LVL419:
	.loc 6 149 46 view .LVU1177
.LBE5005:
.LBE5004:
.LBE5003:
.LBB5009:
.LBI5009:
	.loc 9 139 7 is_stmt 1 view .LVU1178
.LBB5010:
.LBI5010:
	.loc 8 86 7 view .LVU1179
	.loc 8 86 7 is_stmt 0 view .LVU1180
.LBE5010:
.LBE5009:
.LBB5011:
.LBI5011:
	.loc 6 175 7 is_stmt 1 view .LVU1181
.LBB5012:
	.loc 6 176 28 is_stmt 0 view .LVU1182
	movq	(%rbx), %rsi
.LVL420:
	.loc 6 176 28 view .LVU1183
.LBE5012:
.LBE5011:
.LBB5013:
.LBI5013:
	.loc 6 927 7 is_stmt 1 view .LVU1184
.LBB5014:
	.loc 6 928 16 is_stmt 0 view .LVU1185
	movq	8(%rbx), %rax
.LVL421:
	.loc 6 928 16 view .LVU1186
.LBE5014:
.LBE5013:
	.loc 6 440 9 view .LVU1187
	leaq	(%rsi,%rax,4), %rdx
.LVL422:
.LBB5015:
.LBI5015:
	.loc 6 175 7 is_stmt 1 view .LVU1188
	.loc 6 175 7 is_stmt 0 view .LVU1189
.LBE5015:
.LBB5016:
.LBI5016:
	.loc 6 252 9 is_stmt 1 view .LVU1190
.LBB5017:
.LBB5018:
.LBI5018:
	.loc 6 232 9 view .LVU1191
.LBB5019:
	.loc 6 236 11 is_stmt 0 view .LVU1192
	movq	%rsp, %rdi
.LEHB9:
	call	_ZNSt7__cxx1112basic_stringIwSt11char_traitsIwESaIwEE12_M_constructIPwEEvT_S7_St20forward_iterator_tag
.LVL423:
.LEHE9:
	.loc 6 236 11 view .LVU1193
.LBE5019:
.LBE5018:
.LBE5017:
.LBE5016:
.LBE4996:
.LBE4995:
.LBE4994:
.LBB5020:
.LBI4966:
	.loc 1 52 65 is_stmt 1 view .LVU1194
.LBB4979:
	.loc 1 54 4 view .LVU1195
.LBB4978:
.LBI4968:
	.loc 6 6314 5 view .LVU1196
.LBB4973:
.LBB4970:
.LBI4970:
	.loc 6 921 7 view .LVU1197
	.loc 6 921 7 is_stmt 0 view .LVU1198
.LBE4970:
.LBB4971:
.LBI4971:
	.loc 6 2293 7 is_stmt 1 view .LVU1199
.LBB4972:
.LBI4972:
	.loc 6 175 7 view .LVU1200
	.loc 6 175 7 is_stmt 0 view .LVU1201
.LBE4972:
.LBE4971:
	.loc 6 6319 30 view .LVU1202
	movq	8(%rsp), %rdx
	movq	(%rsp), %rsi
	movl	$_ZSt5wcout, %edi
.LEHB10:
	call	_ZSt16__ostream_insertIwSt11char_traitsIwEERSt13basic_ostreamIT_T0_ES6_PKS3_l
.LVL424:
.LEHE10:
	jmp	.L174
.LVL425:
.L171:
	.loc 6 6319 30 view .LVU1203
	movq	%rax, %rbx
.LVL426:
	.loc 6 6319 30 view .LVU1204
.LBE4973:
.LBE4978:
.LBE4979:
.LBE5020:
.LBB5021:
.LBI5021:
	.loc 6 656 7 is_stmt 1 view .LVU1205
.LBB5022:
.LBI5022:
	.loc 6 218 7 view .LVU1206
.LBB5023:
.LBB5024:
.LBI5024:
	.loc 6 210 7 view .LVU1207
.LBB5025:
.LBI5025:
	.loc 6 175 7 view .LVU1208
.LBB5026:
	.loc 6 176 28 is_stmt 0 view .LVU1209
	movq	(%rsp), %rdi
.LVL427:
	.loc 6 176 28 view .LVU1210
.LBE5026:
.LBE5025:
.LBB5027:
.LBI5027:
	.loc 6 189 7 is_stmt 1 view .LVU1211
	.loc 6 189 7 is_stmt 0 view .LVU1212
.LBE5027:
.LBE5024:
	.loc 6 220 2 view .LVU1213
	leaq	16(%rsp), %rax
	cmpq	%rax, %rdi
	je	.L170
.LVL428:
.LBB5028:
.LBI5028:
	.loc 6 225 7 is_stmt 1 view .LVU1214
.LBB5029:
.LBI5029:
	.loc 7 461 7 view .LVU1215
.LBB5030:
.LBI5030:
	.loc 8 116 7 view .LVU1216
.LBB5031:
	.loc 8 125 19 is_stmt 0 view .LVU1217
	call	_ZdlPv
.LVL429:
.L170:
	.loc 8 125 19 view .LVU1218
.LBE5031:
.LBE5030:
.LBE5029:
.LBE5028:
.LBE5023:
.LBE5022:
.LBB5032:
.LBI5032:
	.loc 6 139 14 is_stmt 1 view .LVU1219
.LBB5033:
.LBI5033:
	.loc 9 139 7 view .LVU1220
.LBB5034:
.LBI5034:
	.loc 8 86 7 view .LVU1221
	.loc 8 86 7 is_stmt 0 view .LVU1222
	movq	%rbx, %rdi
.LEHB11:
	call	_Unwind_Resume
.LVL430:
.LEHE11:
.L172:
	.loc 8 86 7 view .LVU1223
.LBE5034:
.LBE5033:
.LBE5032:
.LBE5021:
	.loc 28 3884 5 view .LVU1224
	movl	$0, %eax
	addq	$32, %rsp
	.cfi_def_cfa_offset 32
	popq	%rbx
	.cfi_def_cfa_offset 24
.LVL431:
	.loc 28 3884 5 view .LVU1225
	popq	%rbp
	.cfi_def_cfa_offset 16
	popq	%r12
	.cfi_def_cfa_offset 8
.LVL432:
	.loc 28 3884 5 view .LVU1226
	ret
	.cfi_endproc
.LFE6637:
	.section	.gcc_except_table,"a",@progbits
.LLSDA6637:
	.byte	0xff
	.byte	0xff
	.byte	0x1
	.uleb128 .LLSDACSE6637-.LLSDACSB6637
.LLSDACSB6637:
	.uleb128 .LEHB8-.LFB6637
	.uleb128 .LEHE8-.LEHB8
	.uleb128 .L171-.LFB6637
	.uleb128 0
	.uleb128 .LEHB9-.LFB6637
	.uleb128 .LEHE9-.LEHB9
	.uleb128 0
	.uleb128 0
	.uleb128 .LEHB10-.LFB6637
	.uleb128 .LEHE10-.LEHB10
	.uleb128 .L171-.LFB6637
	.uleb128 0
	.uleb128 .LEHB11-.LFB6637
	.uleb128 .LEHE11-.LEHB11
	.uleb128 0
	.uleb128 0
.LLSDACSE6637:
	.text
	.size	_ZSt8for_eachIPKNSt7__cxx1112basic_stringIwSt11char_traitsIwESaIwEEEZN3mpp9ReqParserC4EvEUlS5_E_ET0_T_SC_SB_, .-_ZSt8for_eachIPKNSt7__cxx1112basic_stringIwSt11char_traitsIwESaIwEEEZN3mpp9ReqParserC4EvEUlS5_E_ET0_T_SC_SB_
	.section	.rodata.str4.4
	.align 4
.LC4:
	.string	"I"
	.string	""
	.string	""
	.string	"S"
	.string	""
	.string	""
	.string	"S"
	.string	""
	.string	""
	.string	"I"
	.string	""
	.string	""
	.string	"N"
	.string	""
	.string	""
	.string	"G"
	.string	""
	.string	""
	.string	""
	.string	""
	.string	""
	.string	""
	.align 4
.LC5:
	.string	"F"
	.string	""
	.string	""
	.string	"O"
	.string	""
	.string	""
	.string	"F"
	.string	""
	.string	""
	.string	""
	.string	""
	.string	""
	.string	""
	.section	.rodata.str1.1,"aMS",@progbits,1
.LC6:
	.string	"protocol_name_m"
.LC7:
	.string	"protocol_name_first_p"
.LC8:
	.string	"protocol_name_second_p"
.LC9:
	.string	"slash"
.LC10:
	.string	"major"
.LC11:
	.string	"minor"
.LC12:
	.string	"patch"
.LC13:
	.string	"verb_start"
.LC14:
	.string	"fof_o"
.LC15:
	.string	"fof_f"
.LC16:
	.string	"issing_first_s"
.LC17:
	.string	"issing_second_s"
.LC18:
	.string	"issing_second_i"
.LC19:
	.string	"issing_n"
.LC20:
	.string	"issing_g"
.LC21:
	.string	"space"
.LC22:
	.string	"header_start"
	.section	.rodata.str1.8
	.align 8
.LC23:
	.string	"ReqParser::ReqParser: starting state = "
	.section	.rodata.str1.1
.LC24:
	.string	"Version = "
.LC25:
	.string	"."
.LC26:
	.string	"Recognised verbs = "
.LC27:
	.string	"en_US.UTF-8"
.LC28:
	.string	"ml_IN.UTF-8"
	.text
	.align 2
	.globl	_ZN3mpp9ReqParserC2Ev
	.type	_ZN3mpp9ReqParserC2Ev, @function
_ZN3mpp9ReqParserC2Ev:
.LVL433:
.LFB6219:
	.loc 1 22 1 is_stmt 1 view -0
	.cfi_startproc
	.cfi_personality 0x3,__gxx_personality_v0
	.cfi_lsda 0x3,.LLSDA6219
	.loc 1 22 1 is_stmt 0 view .LVU1228
	pushq	%r15
	.cfi_def_cfa_offset 16
	.cfi_offset 15, -16
	pushq	%r14
	.cfi_def_cfa_offset 24
	.cfi_offset 14, -24
	pushq	%r13
	.cfi_def_cfa_offset 32
	.cfi_offset 13, -32
	pushq	%r12
	.cfi_def_cfa_offset 40
	.cfi_offset 12, -40
	pushq	%rbp
	.cfi_def_cfa_offset 48
	.cfi_offset 6, -48
	pushq	%rbx
	.cfi_def_cfa_offset 56
	.cfi_offset 3, -56
	subq	$440, %rsp
	.cfi_def_cfa_offset 496
	movq	%rdi, %rbp
.LBB6040:
	.loc 1 24 26 view .LVU1229
	movl	$1, (%rdi)
	movw	$1, 12(%rdi)
	movw	$0, 14(%rdi)
	movw	$1, 16(%rdi)
	leaq	24(%rdi), %r14
.LVL434:
.LBB6041:
.LBI6041:
	.file 29 "/usr/include/c++/8/array"
	.loc 29 94 12 is_stmt 1 view .LVU1230
.LBB6042:
	movq	%r14, (%rsp)
	movq	%r14, %rbx
	movl	$2, %r13d
	jmp	.L183
.LVL435:
.L253:
.LBB6043:
.LBB6044:
.LBB6045:
.LBB6046:
.LBB6047:
.LBI6047:
	.loc 19 384 7 view .LVU1231
.LBB6048:
	.loc 19 385 7 is_stmt 0 view .LVU1232
	movq	_ZTTNSt7__cxx1118basic_stringstreamIwSt11char_traitsIwESaIwEEE+32(%rip), %rax
	movq	%rax, 16(%rbx)
	movq	-24(%rax), %rax
	movq	_ZTTNSt7__cxx1118basic_stringstreamIwSt11char_traitsIwESaIwEEE+40(%rip), %rdx
	movq	%rdx, 16(%rbx,%rax)
	.loc 19 385 9 view .LVU1233
	movq	16(%rbx), %rax
	movq	-24(%rax), %rax
	leaq	16(%rbx,%rax), %rdi
	movl	$0, %esi
.LEHB12:
	call	_ZNSt9basic_iosIwSt11char_traitsIwEE4initEPSt15basic_streambufIwS1_E
.LVL436:
.LEHE12:
	.loc 19 385 9 view .LVU1234
.LBE6048:
.LBE6047:
	.file 30 "/usr/include/c++/8/istream"
	.loc 30 860 42 view .LVU1235
	movq	_ZTTNSt7__cxx1118basic_stringstreamIwSt11char_traitsIwESaIwEEE+8(%rip), %rax
	movq	%rax, (%rbx)
	movq	-24(%rax), %rax
	movq	_ZTTNSt7__cxx1118basic_stringstreamIwSt11char_traitsIwESaIwEEE+48(%rip), %rdx
	movq	%rdx, (%rbx,%rax)
	movq	_ZTTNSt7__cxx1118basic_stringstreamIwSt11char_traitsIwESaIwEEE+56(%rip), %rax
	movq	%rax, 16(%rbx)
.LVL437:
	.loc 30 860 42 view .LVU1236
.LBE6046:
.LBE6045:
	.loc 5 705 44 view .LVU1237
	movq	$_ZTVNSt7__cxx1118basic_stringstreamIwSt11char_traitsIwESaIwEEE+24, (%rbx)
	movq	$_ZTVNSt7__cxx1118basic_stringstreamIwSt11char_traitsIwESaIwEEE+104, 128(%rbx)
	movq	$_ZTVNSt7__cxx1118basic_stringstreamIwSt11char_traitsIwESaIwEEE+64, 16(%rbx)
	leaq	24(%rbx), %r15
.LVL438:
.LBB6055:
.LBI6055:
	.loc 5 100 7 is_stmt 1 view .LVU1238
.LBB6056:
.LBB6057:
.LBI6057:
	.loc 10 470 7 view .LVU1239
.LBB6058:
	.loc 10 473 29 is_stmt 0 view .LVU1240
	movq	$_ZTVSt15basic_streambufIwSt11char_traitsIwEE+16, 24(%rbx)
	movq	$0, 32(%rbx)
	movq	$0, 40(%rbx)
	movq	$0, 48(%rbx)
	movq	$0, 56(%rbx)
	movq	$0, 64(%rbx)
	movq	$0, 72(%rbx)
	leaq	80(%rbx), %rdi
	call	_ZNSt6localeC1Ev
.LVL439:
	.loc 10 473 29 view .LVU1241
.LBE6058:
.LBE6057:
	.loc 5 101 56 view .LVU1242
	movq	$_ZTVNSt7__cxx1115basic_stringbufIwSt11char_traitsIwESaIwEEE+16, 24(%rbx)
	movl	$24, 88(%rbx)
.LVL440:
.LBB6059:
.LBI6059:
	.loc 6 420 7 is_stmt 1 view .LVU1243
.LBB6060:
.LBI6060:
	.loc 9 131 7 view .LVU1244
.LBB6061:
.LBI6061:
	.loc 8 79 7 view .LVU1245
	.loc 8 79 7 is_stmt 0 view .LVU1246
.LBE6061:
.LBE6060:
.LBB6062:
.LBI6062:
	.loc 6 179 7 is_stmt 1 view .LVU1247
.LBB6063:
	.loc 6 182 51 is_stmt 0 view .LVU1248
	leaq	112(%rbx), %rax
.LVL441:
	.loc 6 182 51 view .LVU1249
.LBE6063:
.LBE6062:
.LBB6064:
.LBI6064:
	.loc 6 148 2 is_stmt 1 view .LVU1250
.LBB6065:
.LBB6066:
.LBI6066:
	.loc 22 99 5 view .LVU1251
	.loc 22 99 5 is_stmt 0 view .LVU1252
.LBE6066:
.LBB6067:
.LBI6067:
	.loc 9 133 7 is_stmt 1 view .LVU1253
.LBB6068:
.LBI6068:
	.loc 8 81 7 view .LVU1254
	.loc 8 81 7 is_stmt 0 view .LVU1255
.LBE6068:
.LBE6067:
	.loc 6 149 46 view .LVU1256
	movq	%rax, 96(%rbx)
.LVL442:
	.loc 6 149 46 view .LVU1257
.LBE6065:
.LBE6064:
.LBB6069:
.LBI6069:
	.loc 9 139 7 is_stmt 1 view .LVU1258
.LBB6070:
.LBI6070:
	.loc 8 86 7 view .LVU1259
	.loc 8 86 7 is_stmt 0 view .LVU1260
.LBE6070:
.LBE6069:
.LBB6071:
.LBI6071:
	.loc 6 203 7 is_stmt 1 view .LVU1261
.LBB6072:
.LBI6072:
	.loc 6 171 7 view .LVU1262
.LBB6073:
	.loc 6 172 9 is_stmt 0 view .LVU1263
	movq	$0, 104(%rbx)
.LVL443:
	.loc 6 172 9 view .LVU1264
.LBE6073:
.LBE6072:
.LBB6074:
.LBI6074:
	.loc 17 397 7 is_stmt 1 view .LVU1265
.LBB6075:
	.loc 17 398 9 view .LVU1266
	.loc 17 398 14 is_stmt 0 view .LVU1267
	movl	$0, 112(%rbx)
.LVL444:
	.loc 17 398 14 view .LVU1268
.LBE6075:
.LBE6074:
.LBE6071:
.LBE6059:
.LBE6056:
.LBE6055:
	.loc 5 706 9 view .LVU1269
	leaq	128(%rbx), %rdi
	movq	%r15, %rsi
.LEHB13:
	call	_ZNSt9basic_iosIwSt11char_traitsIwEE4initEPSt15basic_streambufIwS1_E
.LVL445:
.LEHE13:
	jmp	.L252
.LVL446:
.L249:
	.loc 5 706 9 view .LVU1270
	movq	%rax, %rbp
.LVL447:
.LBB6076:
.LBB6053:
.LBB6049:
.LBI6049:
	.loc 30 103 7 is_stmt 1 view .LVU1271
.LBB6050:
	.loc 30 104 36 is_stmt 0 view .LVU1272
	movq	_ZTTNSt7__cxx1118basic_stringstreamIwSt11char_traitsIwESaIwEEE+16(%rip), %rax
	movq	%rax, (%r12)
	movq	-24(%rax), %rax
	movq	_ZTTNSt7__cxx1118basic_stringstreamIwSt11char_traitsIwESaIwEEE+24(%rip), %rdx
	movq	%rdx, (%r15,%rax)
	.loc 30 104 9 view .LVU1273
	movq	$0, 8(%r12)
.LVL448:
.L179:
	.loc 30 104 9 view .LVU1274
.LBE6050:
.LBE6049:
.LBE6053:
.LBE6076:
.LBB6077:
.LBI6077:
	.loc 23 282 7 is_stmt 1 view .LVU1275
.LBB6078:
	.loc 23 282 22 is_stmt 0 view .LVU1276
	movq	$_ZTVSt9basic_iosIwSt11char_traitsIwEE+16, 128(%rbx)
	movq	8(%rsp), %rdi
	call	_ZNSt8ios_baseD2Ev
.LVL449:
	.loc 23 282 22 view .LVU1277
.LBE6078:
.LBE6077:
.LBE6044:
.LBE6043:
	testq	%r14, %r14
	je	.L182
	.loc 29 94 12 view .LVU1278
	movl	$2, %eax
	subq	%r13, %rax
	imulq	$392, %rax, %rax
	addq	%rax, %r14
.LVL450:
.L184:
	.loc 29 94 12 view .LVU1279
	cmpq	%r14, (%rsp)
	je	.L182
	subq	$392, %r14
	movq	(%r14), %rax
	movq	%r14, %rdi
	call	*(%rax)
.LVL451:
	jmp	.L184
.LVL452:
.L248:
	.loc 29 94 12 view .LVU1280
	movq	%rax, %rbp
.LVL453:
.LBB6090:
.LBB6088:
	.loc 5 705 44 view .LVU1281
	movq	%r15, %rdi
	call	_ZNSt7__cxx1115basic_stringbufIwSt11char_traitsIwESaIwEED1Ev
.LVL454:
.LBB6079:
.LBI6079:
	.loc 30 856 7 is_stmt 1 view .LVU1282
.LBB6080:
	.loc 30 856 27 is_stmt 0 view .LVU1283
	movq	_ZTTNSt7__cxx1118basic_stringstreamIwSt11char_traitsIwESaIwEEE+8(%rip), %rax
	movq	%rax, (%rbx)
	movq	-24(%rax), %rax
	movq	_ZTTNSt7__cxx1118basic_stringstreamIwSt11char_traitsIwESaIwEEE+48(%rip), %rdx
	movq	%rdx, (%r12,%rax)
.LVL455:
.LBB6081:
.LBI6081:
	.loc 19 93 7 is_stmt 1 view .LVU1284
.LBB6082:
	.loc 19 93 26 is_stmt 0 view .LVU1285
	movq	_ZTTNSt7__cxx1118basic_stringstreamIwSt11char_traitsIwESaIwEEE+32(%rip), %rax
	movq	%rax, 16(%rbx)
	movq	-24(%rax), %rax
	movq	_ZTTNSt7__cxx1118basic_stringstreamIwSt11char_traitsIwESaIwEEE+40(%rip), %rdx
	movq	%rdx, 16(%rbx,%rax)
.LVL456:
	.loc 19 93 26 view .LVU1286
.LBE6082:
.LBE6081:
.LBB6083:
.LBI6083:
	.loc 30 103 7 is_stmt 1 view .LVU1287
.LBB6084:
	.loc 30 104 36 is_stmt 0 view .LVU1288
	movq	_ZTTNSt7__cxx1118basic_stringstreamIwSt11char_traitsIwESaIwEEE+16(%rip), %rax
	movq	%rax, (%rbx)
	movq	-24(%rax), %rax
	movq	_ZTTNSt7__cxx1118basic_stringstreamIwSt11char_traitsIwESaIwEEE+24(%rip), %rdx
	movq	%rdx, (%rbx,%rax)
	.loc 30 104 9 view .LVU1289
	movq	$0, 8(%rbx)
.LVL457:
	.loc 30 104 9 view .LVU1290
	jmp	.L179
.LVL458:
.L247:
	.loc 30 104 9 view .LVU1291
	movq	%rax, %rbp
.LVL459:
	.loc 30 104 9 view .LVU1292
	jmp	.L179
.LVL460:
.L252:
	.loc 30 104 9 view .LVU1293
.LBE6084:
.LBE6083:
.LBE6080:
.LBE6079:
.LBE6088:
.LBE6090:
	.loc 29 94 12 view .LVU1294
	addq	$392, %rbx
	subq	$1, %r13
.L183:
	testq	%r13, %r13
	js	.L176
.LVL461:
.LBB6091:
.LBI6043:
	.loc 5 704 7 is_stmt 1 view .LVU1295
.LBB6089:
.LBB6085:
.LBI6085:
	.loc 23 460 7 view .LVU1296
.LBB6086:
	.loc 23 462 59 is_stmt 0 view .LVU1297
	leaq	128(%rbx), %rax
.LVL462:
	.loc 23 462 59 view .LVU1298
	movq	%rax, 8(%rsp)
	movq	%rax, %rdi
	call	_ZNSt8ios_baseC2Ev
.LVL463:
	.loc 23 462 59 view .LVU1299
	movq	$_ZTVSt9basic_iosIwSt11char_traitsIwEE+16, 128(%rbx)
	movq	$0, 344(%rbx)
	movl	$0, 352(%rbx)
	movb	$0, 356(%rbx)
	movq	$0, 360(%rbx)
	movq	$0, 368(%rbx)
	movq	$0, 376(%rbx)
	movq	$0, 384(%rbx)
.LVL464:
	.loc 23 462 59 view .LVU1300
.LBE6086:
.LBE6085:
	.loc 5 705 44 view .LVU1301
	movq	%rbx, %r12
.LVL465:
.LBB6087:
.LBI6045:
	.loc 30 859 7 is_stmt 1 view .LVU1302
.LBB6054:
	.loc 30 860 42 is_stmt 0 view .LVU1303
	movq	%rbx, %r15
.LVL466:
.LBB6051:
.LBI6051:
	.loc 30 606 7 is_stmt 1 view .LVU1304
.LBB6052:
	.loc 30 607 32 is_stmt 0 view .LVU1305
	movq	_ZTTNSt7__cxx1118basic_stringstreamIwSt11char_traitsIwESaIwEEE+16(%rip), %rax
	movq	%rax, (%rbx)
	movq	-24(%rax), %rax
	movq	_ZTTNSt7__cxx1118basic_stringstreamIwSt11char_traitsIwESaIwEEE+24(%rip), %rdx
	movq	%rdx, (%rbx,%rax)
	movq	$0, 8(%rbx)
	.loc 30 608 9 view .LVU1306
	movq	(%rbx), %rax
	movq	%rbx, %rdi
	addq	-24(%rax), %rdi
	movl	$0, %esi
.LEHB14:
	call	_ZNSt9basic_iosIwSt11char_traitsIwEE4initEPSt15basic_streambufIwS1_E
.LVL467:
.LEHE14:
	jmp	.L253
.LVL468:
.L182:
	.loc 30 608 9 view .LVU1307
	movq	%rbp, %rdi
.LEHB15:
	call	_Unwind_Resume
.LVL469:
.LEHE15:
.L176:
	.loc 30 608 9 view .LVU1308
.LBE6052:
.LBE6051:
.LBE6054:
.LBE6087:
.LBE6089:
.LBE6091:
.LBE6042:
.LBE6041:
	.loc 1 24 26 view .LVU1309
	leaq	1200(%rbp), %r13
.LVL470:
.LBB6092:
.LBI6092:
	.loc 9 131 7 is_stmt 1 view .LVU1310
.LBB6093:
.LBI6093:
	.loc 8 79 7 view .LVU1311
	.loc 8 79 7 is_stmt 0 view .LVU1312
.LBE6093:
.LBE6092:
.LBB6094:
.LBI6094:
	.loc 6 514 7 is_stmt 1 view .LVU1313
.LBB6095:
.LBB6096:
.LBI6096:
	.loc 6 179 7 view .LVU1314
.LBB6097:
	.loc 6 182 51 is_stmt 0 view .LVU1315
	leaq	1216(%rbp), %rax
.LVL471:
	.loc 6 182 51 view .LVU1316
.LBE6097:
.LBE6096:
.LBB6098:
.LBI6098:
	.loc 6 145 2 is_stmt 1 view .LVU1317
.LBB6099:
.LBB6100:
.LBI6100:
	.loc 9 133 7 view .LVU1318
.LBB6101:
.LBI6101:
	.loc 8 81 7 view .LVU1319
	.loc 8 81 7 is_stmt 0 view .LVU1320
.LBE6101:
.LBE6100:
	.loc 6 146 35 view .LVU1321
	movq	%rax, 1200(%rbp)
.LVL472:
	.loc 6 146 35 view .LVU1322
.LBE6099:
.LBE6098:
.LBB6102:
.LBI6102:
	.loc 17 424 7 is_stmt 1 view .LVU1323
.LBB6103:
	.loc 17 431 4 view .LVU1324
	.loc 17 431 17 is_stmt 0 view .LVU1325
	movl	$.LC4, %edi
	call	wcslen
.LVL473:
	.loc 17 431 17 view .LVU1326
.LBE6103:
.LBE6102:
	.loc 6 516 9 view .LVU1327
	leaq	.LC4(,%rax,4), %rdx
.LVL474:
.LBB6104:
.LBI6104:
	.loc 6 252 9 is_stmt 1 view .LVU1328
.LBB6105:
.LBB6106:
.LBI6106:
	.loc 6 232 9 view .LVU1329
.LBB6107:
	.loc 6 236 11 is_stmt 0 view .LVU1330
	movl	$.LC4, %esi
	movq	%r13, %rdi
.LEHB16:
	call	_ZNSt7__cxx1112basic_stringIwSt11char_traitsIwESaIwEE12_M_constructIPKwEEvT_S8_St20forward_iterator_tag
.LVL475:
	.loc 6 236 11 view .LVU1331
.LBE6107:
.LBE6106:
.LBE6105:
.LBE6104:
.LBE6095:
.LBE6094:
	.loc 1 24 26 discriminator 2 view .LVU1332
	leaq	1232(%rbp), %rbx
.LVL476:
.LBB6108:
.LBI6108:
	.loc 9 131 7 is_stmt 1 discriminator 2 view .LVU1333
.LBB6109:
.LBI6109:
	.loc 8 79 7 discriminator 2 view .LVU1334
	.loc 8 79 7 is_stmt 0 discriminator 2 view .LVU1335
.LBE6109:
.LBE6108:
.LBB6110:
.LBI6110:
	.loc 6 514 7 is_stmt 1 discriminator 2 view .LVU1336
.LBB6111:
.LBB6112:
.LBI6112:
	.loc 6 179 7 discriminator 2 view .LVU1337
.LBB6113:
	.loc 6 182 51 is_stmt 0 discriminator 2 view .LVU1338
	leaq	1248(%rbp), %rax
.LVL477:
	.loc 6 182 51 discriminator 2 view .LVU1339
.LBE6113:
.LBE6112:
.LBB6114:
.LBI6114:
	.loc 6 145 2 is_stmt 1 discriminator 2 view .LVU1340
.LBB6115:
.LBB6116:
.LBI6116:
	.loc 9 133 7 discriminator 2 view .LVU1341
.LBB6117:
.LBI6117:
	.loc 8 81 7 discriminator 2 view .LVU1342
	.loc 8 81 7 is_stmt 0 discriminator 2 view .LVU1343
.LBE6117:
.LBE6116:
	.loc 6 146 35 discriminator 2 view .LVU1344
	movq	%rax, 1232(%rbp)
.LVL478:
	.loc 6 146 35 discriminator 2 view .LVU1345
.LBE6115:
.LBE6114:
.LBB6118:
.LBI6118:
	.loc 17 424 7 is_stmt 1 discriminator 2 view .LVU1346
.LBB6119:
	.loc 17 431 4 discriminator 2 view .LVU1347
	.loc 17 431 17 is_stmt 0 discriminator 2 view .LVU1348
	movl	$.LC5, %edi
	call	wcslen
.LVL479:
	.loc 17 431 17 discriminator 2 view .LVU1349
.LBE6119:
.LBE6118:
	.loc 6 516 9 discriminator 2 view .LVU1350
	leaq	.LC5(,%rax,4), %rdx
.LVL480:
.LBB6120:
.LBI6120:
	.loc 6 252 9 is_stmt 1 discriminator 2 view .LVU1351
.LBB6121:
.LBB6122:
.LBI6122:
	.loc 6 232 9 discriminator 2 view .LVU1352
.LBB6123:
	.loc 6 236 11 is_stmt 0 discriminator 2 view .LVU1353
	movl	$.LC5, %esi
	movq	%rbx, %rdi
	call	_ZNSt7__cxx1112basic_stringIwSt11char_traitsIwESaIwEE12_M_constructIPKwEEvT_S8_St20forward_iterator_tag
.LVL481:
.LEHE16:
	.loc 6 236 11 discriminator 2 view .LVU1354
.LBE6123:
.LBE6122:
.LBE6121:
.LBE6120:
.LBE6111:
.LBE6110:
.LBB6124:
.LBI6124:
	.loc 9 139 7 is_stmt 1 discriminator 4 view .LVU1355
.LBB6125:
.LBI6125:
	.loc 8 86 7 discriminator 4 view .LVU1356
	.loc 8 86 7 is_stmt 0 discriminator 4 view .LVU1357
.LBE6125:
.LBE6124:
.LBB6126:
.LBI6126:
	.loc 9 139 7 is_stmt 1 discriminator 4 view .LVU1358
.LBB6127:
.LBI6127:
	.loc 8 86 7 discriminator 4 view .LVU1359
	.loc 8 86 7 is_stmt 0 discriminator 4 view .LVU1360
.LBE6127:
.LBE6126:
	.loc 1 24 26 discriminator 4 view .LVU1361
	leaq	1264(%rbp), %r12
	movq	%r12, %rdi
.LEHB17:
	call	_ZN5boost6locale9generatorC1Ev
.LVL482:
.LEHE17:
	.loc 1 24 26 discriminator 6 view .LVU1362
	leaq	1272(%rbp), %rbx
.LVL483:
.LBB6128:
.LBI6128:
	.loc 26 183 7 is_stmt 1 discriminator 6 view .LVU1363
.LBB6129:
.LBI6129:
	.loc 11 929 7 discriminator 6 view .LVU1364
.LBB6130:
.LBI6130:
	.loc 11 699 4 discriminator 6 view .LVU1365
.LBB6131:
.LBI6131:
	.loc 9 131 7 discriminator 6 view .LVU1366
.LBB6132:
.LBI6132:
	.loc 8 79 7 discriminator 6 view .LVU1367
	.loc 8 79 7 is_stmt 0 discriminator 6 view .LVU1368
.LBE6132:
.LBE6131:
.LBB6133:
.LBI6133:
	.loc 11 146 7 is_stmt 1 discriminator 6 view .LVU1369
	.loc 11 146 7 is_stmt 0 discriminator 6 view .LVU1370
.LBE6133:
.LBB6134:
.LBI6134:
	.loc 11 173 5 is_stmt 1 discriminator 6 view .LVU1371
.LBB6135:
	.loc 11 175 7 discriminator 6 view .LVU1372
	.loc 11 175 26 is_stmt 0 discriminator 6 view .LVU1373
	movl	$0, 1280(%rbp)
	.loc 11 176 7 is_stmt 1 discriminator 6 view .LVU1374
.LVL484:
.LBB6136:
.LBI6136:
	.loc 11 206 5 discriminator 6 view .LVU1375
.LBB6137:
	.loc 11 208 7 discriminator 6 view .LVU1376
	.loc 11 208 27 is_stmt 0 discriminator 6 view .LVU1377
	movq	$0, 1288(%rbp)
	.loc 11 209 7 is_stmt 1 discriminator 6 view .LVU1378
	.loc 11 209 27 is_stmt 0 discriminator 6 view .LVU1379
	leaq	1280(%rbp), %r14
	.loc 11 209 25 discriminator 6 view .LVU1380
	movq	%r14, 1296(%rbp)
	.loc 11 210 7 is_stmt 1 discriminator 6 view .LVU1381
	.loc 11 210 26 is_stmt 0 discriminator 6 view .LVU1382
	movq	%r14, 1304(%rbp)
	.loc 11 211 7 is_stmt 1 discriminator 6 view .LVU1383
	.loc 11 211 21 is_stmt 0 discriminator 6 view .LVU1384
	movq	$0, 1312(%rbp)
.LVL485:
	.loc 11 211 21 discriminator 6 view .LVU1385
.LBE6137:
.LBE6136:
.LBE6135:
.LBE6134:
.LBE6130:
.LBE6129:
.LBE6128:
.LBB6138:
	.loc 1 31 2 is_stmt 1 discriminator 6 view .LVU1386
	.loc 1 31 28 is_stmt 0 discriminator 6 view .LVU1387
	movl	$1, 60(%rsp)
.LVL486:
.LBB6139:
.LBI6139:
	.loc 26 510 7 is_stmt 1 discriminator 6 view .LVU1388
.LBB6140:
.LBB6141:
.LBI6141:
	.loc 26 1239 7 discriminator 6 view .LVU1389
.LBB6142:
.LBB6143:
.LBI6143:
	.loc 11 1202 7 discriminator 6 view .LVU1390
.LBB6144:
.LBB6145:
.LBI6145:
	.loc 11 763 7 discriminator 6 view .LVU1391
	.loc 11 763 7 is_stmt 0 discriminator 6 view .LVU1392
.LBE6145:
.LBB6146:
.LBI6146:
	.loc 11 752 7 is_stmt 1 discriminator 6 view .LVU1393
	.loc 11 752 7 is_stmt 0 discriminator 6 view .LVU1394
.LBE6146:
	.loc 11 1203 56 discriminator 6 view .LVU1395
	leaq	60(%rsp), %rcx
.LVL487:
	.loc 11 1203 56 discriminator 6 view .LVU1396
	movq	%r14, %rdx
	movl	$0, %esi
	movq	%rbx, %rdi
	call	_ZNSt8_Rb_treeIN3mpp9ReqParser5StateESt4pairIKS2_NSt7__cxx1112basic_stringIcSt11char_traitsIcESaIcEEEESt10_Select1stISB_ESt4lessIS2_ESaISB_EE14_M_lower_boundEPSt13_Rb_tree_nodeISB_EPSt18_Rb_tree_node_baseRS4_
.LVL488:
	.loc 11 1203 56 discriminator 6 view .LVU1397
.LBE6144:
.LBE6143:
.LBE6142:
.LBE6141:
	.loc 26 515 11 discriminator 6 view .LVU1398
	movq	%rax, %rdi
.LVL489:
.LBB6147:
.LBI6147:
	.loc 26 372 7 is_stmt 1 discriminator 6 view .LVU1399
.LBB6148:
.LBI6148:
	.loc 11 984 7 discriminator 6 view .LVU1400
.LBB6149:
.LBI6149:
	.loc 11 273 7 discriminator 6 view .LVU1401
	.loc 11 273 7 is_stmt 0 discriminator 6 view .LVU1402
.LBE6149:
.LBE6148:
.LBE6147:
.LBB6150:
.LBI6150:
	.loc 11 315 7 is_stmt 1 discriminator 6 view .LVU1403
.LBB6151:
	.loc 11 316 16 is_stmt 0 discriminator 6 view .LVU1404
	movq	%rax, %rsi
.LVL490:
	.loc 11 316 16 discriminator 6 view .LVU1405
.LBE6151:
.LBE6150:
	.loc 26 517 19 discriminator 6 view .LVU1406
	cmpq	%rax, %r14
	je	.L185
.LVL491:
.LBB6152:
.LBI6152:
	.loc 14 385 7 is_stmt 1 view .LVU1407
	.loc 14 385 7 is_stmt 0 view .LVU1408
.LBE6152:
	.loc 26 517 19 view .LVU1409
	movl	32(%rax), %eax
	cmpl	%eax, 60(%rsp)
	jge	.L186
.L185:
.LVL492:
.LBB6153:
.LBI6153:
	.loc 25 1475 5 is_stmt 1 view .LVU1410
.LBB6154:
.LBI6154:
	.loc 25 646 19 view .LVU1411
.LBB6155:
.LBI6155:
	.loc 22 74 5 view .LVU1412
	.loc 22 74 5 is_stmt 0 view .LVU1413
.LBE6155:
.LBB6156:
.LBI6156:
	.loc 25 365 19 is_stmt 1 view .LVU1414
.LBB6157:
.LBI6157:
	.loc 22 74 5 view .LVU1415
	.loc 22 74 5 is_stmt 0 view .LVU1416
.LBE6157:
.LBB6158:
.LBI6158:
	.loc 25 132 19 is_stmt 1 view .LVU1417
.LBB6159:
.LBB6160:
.LBI6160:
	.loc 22 74 5 view .LVU1418
	.loc 22 74 5 is_stmt 0 view .LVU1419
.LBE6160:
	.loc 25 133 42 view .LVU1420
	leaq	60(%rsp), %rax
.LVL493:
	.loc 25 133 42 view .LVU1421
	movq	%rax, 144(%rsp)
.LVL494:
	.loc 25 133 42 view .LVU1422
.LBE6159:
.LBE6158:
.LBE6156:
.LBE6154:
.LBE6153:
.LBB6161:
.LBI6161:
	.loc 11 348 7 is_stmt 1 view .LVU1423
	.loc 11 348 7 is_stmt 0 view .LVU1424
.LBE6161:
	.loc 26 518 8 view .LVU1425
	leaq	159(%rsp), %r8
	leaq	144(%rsp), %rcx
	movl	$_ZStL19piecewise_construct, %edx
	movq	%rbx, %rdi
.LEHB18:
	call	_ZNSt8_Rb_treeIN3mpp9ReqParser5StateESt4pairIKS2_NSt7__cxx1112basic_stringIcSt11char_traitsIcESaIcEEEESt10_Select1stISB_ESt4lessIS2_ESaISB_EE22_M_emplace_hint_uniqueIJRKSt21piecewise_construct_tSt5tupleIJOS2_EESM_IJEEEEESt17_Rb_tree_iteratorISB_ESt23_Rb_tree_const_iteratorISB_EDpOT_
.LVL495:
	.loc 26 518 8 view .LVU1426
	movq	%rax, %rdi
.L186:
.LVL496:
.LBB6162:
.LBI6162:
	.loc 11 277 7 is_stmt 1 view .LVU1427
	.loc 11 277 7 is_stmt 0 view .LVU1428
.LBE6162:
	.loc 26 521 16 view .LVU1429
	addq	$40, %rdi
.LVL497:
	.loc 26 521 16 view .LVU1430
.LBE6140:
.LBE6139:
.LBB6163:
.LBI6163:
	.loc 6 703 7 is_stmt 1 view .LVU1431
.LBB6164:
.LBI6164:
	.loc 6 1426 7 view .LVU1432
	.loc 6 1426 7 is_stmt 0 view .LVU1433
.LBE6164:
.LBE6163:
.LBE6138:
.LBE6040:
	.loc 17 320 2 is_stmt 1 view .LVU1434
.LBB6960:
.LBB6906:
.LBB6169:
.LBB6168:
.LBB6165:
.LBB6166:
.LBI6166:
	.loc 6 921 7 view .LVU1435
.LBB6167:
	.loc 6 922 16 is_stmt 0 view .LVU1436
	movq	8(%rdi), %rdx
.LVL498:
	.loc 6 922 16 view .LVU1437
.LBE6167:
.LBE6166:
	.loc 6 1430 30 view .LVU1438
	movl	$15, %r8d
	movl	$.LC6, %ecx
	movl	$0, %esi
	call	_ZNSt7__cxx1112basic_stringIcSt11char_traitsIcESaIcEE10_M_replaceEmmPKcm
.LVL499:
	.loc 6 1430 30 view .LVU1439
.LBE6165:
.LBE6168:
.LBE6169:
	.loc 1 32 2 is_stmt 1 view .LVU1440
	.loc 1 32 34 is_stmt 0 view .LVU1441
	movl	$2, 64(%rsp)
.LVL500:
.LBB6170:
.LBI6170:
	.loc 26 510 7 is_stmt 1 view .LVU1442
.LBB6171:
.LBB6172:
.LBI6172:
	.loc 26 1239 7 view .LVU1443
.LBB6173:
.LBB6174:
.LBI6174:
	.loc 11 1202 7 view .LVU1444
.LBB6175:
.LBB6176:
.LBI6176:
	.loc 11 763 7 view .LVU1445
.LBB6177:
	.loc 11 764 31 is_stmt 0 view .LVU1446
	leaq	8(%rbx), %r14
.LVL501:
	.loc 11 764 31 view .LVU1447
.LBE6177:
.LBE6176:
.LBB6178:
.LBI6178:
	.loc 11 752 7 is_stmt 1 view .LVU1448
.LBB6179:
	.loc 11 753 73 is_stmt 0 view .LVU1449
	movq	16(%rbx), %rsi
.LVL502:
	.loc 11 753 73 view .LVU1450
.LBE6179:
.LBE6178:
	.loc 11 1203 56 view .LVU1451
	leaq	64(%rsp), %rcx
.LVL503:
	.loc 11 1203 56 view .LVU1452
	movq	%r14, %rdx
	movq	%rbx, %rdi
	call	_ZNSt8_Rb_treeIN3mpp9ReqParser5StateESt4pairIKS2_NSt7__cxx1112basic_stringIcSt11char_traitsIcESaIcEEEESt10_Select1stISB_ESt4lessIS2_ESaISB_EE14_M_lower_boundEPSt13_Rb_tree_nodeISB_EPSt18_Rb_tree_node_baseRS4_
.LVL504:
	.loc 11 1203 56 view .LVU1453
.LBE6175:
.LBE6174:
.LBE6173:
.LBE6172:
	.loc 26 515 11 view .LVU1454
	movq	%rax, %rdi
.LVL505:
.LBB6180:
.LBI6180:
	.loc 26 372 7 is_stmt 1 view .LVU1455
.LBB6181:
.LBI6181:
	.loc 11 984 7 view .LVU1456
.LBB6182:
.LBI6182:
	.loc 11 273 7 view .LVU1457
	.loc 11 273 7 is_stmt 0 view .LVU1458
.LBE6182:
.LBE6181:
.LBE6180:
.LBB6183:
.LBI6183:
	.loc 11 315 7 is_stmt 1 view .LVU1459
.LBB6184:
	.loc 11 316 16 is_stmt 0 view .LVU1460
	movq	%rax, %rsi
.LVL506:
	.loc 11 316 16 view .LVU1461
.LBE6184:
.LBE6183:
	.loc 26 517 19 view .LVU1462
	cmpq	%rax, %r14
	je	.L187
.LVL507:
.LBB6185:
.LBI6185:
	.loc 14 385 7 is_stmt 1 view .LVU1463
	.loc 14 385 7 is_stmt 0 view .LVU1464
.LBE6185:
	.loc 26 517 19 view .LVU1465
	movl	32(%rax), %eax
	cmpl	%eax, 64(%rsp)
	jge	.L188
.L187:
.LVL508:
.LBB6186:
.LBI6186:
	.loc 25 1475 5 is_stmt 1 view .LVU1466
.LBB6187:
.LBI6187:
	.loc 25 646 19 view .LVU1467
.LBB6188:
.LBI6188:
	.loc 22 74 5 view .LVU1468
	.loc 22 74 5 is_stmt 0 view .LVU1469
.LBE6188:
.LBB6189:
.LBI6189:
	.loc 25 365 19 is_stmt 1 view .LVU1470
.LBB6190:
.LBI6190:
	.loc 22 74 5 view .LVU1471
	.loc 22 74 5 is_stmt 0 view .LVU1472
.LBE6190:
.LBB6191:
.LBI6191:
	.loc 25 132 19 is_stmt 1 view .LVU1473
.LBB6192:
.LBB6193:
.LBI6193:
	.loc 22 74 5 view .LVU1474
	.loc 22 74 5 is_stmt 0 view .LVU1475
.LBE6193:
	.loc 25 133 42 view .LVU1476
	leaq	64(%rsp), %rax
.LVL509:
	.loc 25 133 42 view .LVU1477
	movq	%rax, 160(%rsp)
.LVL510:
	.loc 25 133 42 view .LVU1478
.LBE6192:
.LBE6191:
.LBE6189:
.LBE6187:
.LBE6186:
.LBB6194:
.LBI6194:
	.loc 11 348 7 is_stmt 1 view .LVU1479
	.loc 11 348 7 is_stmt 0 view .LVU1480
.LBE6194:
	.loc 26 518 8 view .LVU1481
	leaq	175(%rsp), %r8
	leaq	160(%rsp), %rcx
	movl	$_ZStL19piecewise_construct, %edx
	movq	%rbx, %rdi
	call	_ZNSt8_Rb_treeIN3mpp9ReqParser5StateESt4pairIKS2_NSt7__cxx1112basic_stringIcSt11char_traitsIcESaIcEEEESt10_Select1stISB_ESt4lessIS2_ESaISB_EE22_M_emplace_hint_uniqueIJRKSt21piecewise_construct_tSt5tupleIJOS2_EESM_IJEEEEESt17_Rb_tree_iteratorISB_ESt23_Rb_tree_const_iteratorISB_EDpOT_
.LVL511:
	.loc 26 518 8 view .LVU1482
	movq	%rax, %rdi
.L188:
.LVL512:
.LBB6195:
.LBI6195:
	.loc 11 277 7 is_stmt 1 view .LVU1483
	.loc 11 277 7 is_stmt 0 view .LVU1484
.LBE6195:
	.loc 26 521 16 view .LVU1485
	addq	$40, %rdi
.LVL513:
	.loc 26 521 16 view .LVU1486
.LBE6171:
.LBE6170:
.LBB6196:
.LBI6196:
	.loc 6 703 7 is_stmt 1 view .LVU1487
.LBB6197:
.LBI6197:
	.loc 6 1426 7 view .LVU1488
	.loc 6 1426 7 is_stmt 0 view .LVU1489
.LBE6197:
.LBE6196:
.LBE6906:
.LBE6960:
	.loc 17 320 2 is_stmt 1 view .LVU1490
.LBB6961:
.LBB6907:
.LBB6202:
.LBB6201:
.LBB6198:
.LBB6199:
.LBI6199:
	.loc 6 921 7 view .LVU1491
.LBB6200:
	.loc 6 922 16 is_stmt 0 view .LVU1492
	movq	8(%rdi), %rdx
.LVL514:
	.loc 6 922 16 view .LVU1493
.LBE6200:
.LBE6199:
	.loc 6 1430 30 view .LVU1494
	movl	$21, %r8d
	movl	$.LC7, %ecx
	movl	$0, %esi
	call	_ZNSt7__cxx1112basic_stringIcSt11char_traitsIcESaIcEE10_M_replaceEmmPKcm
.LVL515:
	.loc 6 1430 30 view .LVU1495
.LBE6198:
.LBE6201:
.LBE6202:
	.loc 1 33 2 is_stmt 1 view .LVU1496
	.loc 1 33 35 is_stmt 0 view .LVU1497
	movl	$3, 68(%rsp)
.LVL516:
.LBB6203:
.LBI6203:
	.loc 26 510 7 is_stmt 1 view .LVU1498
.LBB6204:
.LBB6205:
.LBI6205:
	.loc 26 1239 7 view .LVU1499
.LBB6206:
.LBB6207:
.LBI6207:
	.loc 11 1202 7 view .LVU1500
.LBB6208:
.LBB6209:
.LBI6209:
	.loc 11 763 7 view .LVU1501
.LBB6210:
	.loc 11 764 31 is_stmt 0 view .LVU1502
	leaq	8(%rbx), %r14
.LVL517:
	.loc 11 764 31 view .LVU1503
.LBE6210:
.LBE6209:
.LBB6211:
.LBI6211:
	.loc 11 752 7 is_stmt 1 view .LVU1504
.LBB6212:
	.loc 11 753 73 is_stmt 0 view .LVU1505
	movq	16(%rbx), %rsi
.LVL518:
	.loc 11 753 73 view .LVU1506
.LBE6212:
.LBE6211:
	.loc 11 1203 56 view .LVU1507
	leaq	68(%rsp), %rcx
.LVL519:
	.loc 11 1203 56 view .LVU1508
	movq	%r14, %rdx
	movq	%rbx, %rdi
	call	_ZNSt8_Rb_treeIN3mpp9ReqParser5StateESt4pairIKS2_NSt7__cxx1112basic_stringIcSt11char_traitsIcESaIcEEEESt10_Select1stISB_ESt4lessIS2_ESaISB_EE14_M_lower_boundEPSt13_Rb_tree_nodeISB_EPSt18_Rb_tree_node_baseRS4_
.LVL520:
	.loc 11 1203 56 view .LVU1509
.LBE6208:
.LBE6207:
.LBE6206:
.LBE6205:
	.loc 26 515 11 view .LVU1510
	movq	%rax, %rdi
.LVL521:
.LBB6213:
.LBI6213:
	.loc 26 372 7 is_stmt 1 view .LVU1511
.LBB6214:
.LBI6214:
	.loc 11 984 7 view .LVU1512
.LBB6215:
.LBI6215:
	.loc 11 273 7 view .LVU1513
	.loc 11 273 7 is_stmt 0 view .LVU1514
.LBE6215:
.LBE6214:
.LBE6213:
.LBB6216:
.LBI6216:
	.loc 11 315 7 is_stmt 1 view .LVU1515
.LBB6217:
	.loc 11 316 16 is_stmt 0 view .LVU1516
	movq	%rax, %rsi
.LVL522:
	.loc 11 316 16 view .LVU1517
.LBE6217:
.LBE6216:
	.loc 26 517 19 view .LVU1518
	cmpq	%rax, %r14
	je	.L189
.LVL523:
.LBB6218:
.LBI6218:
	.loc 14 385 7 is_stmt 1 view .LVU1519
	.loc 14 385 7 is_stmt 0 view .LVU1520
.LBE6218:
	.loc 26 517 19 view .LVU1521
	movl	32(%rax), %eax
	cmpl	%eax, 68(%rsp)
	jge	.L190
.L189:
.LVL524:
.LBB6219:
.LBI6219:
	.loc 25 1475 5 is_stmt 1 view .LVU1522
.LBB6220:
.LBI6220:
	.loc 25 646 19 view .LVU1523
.LBB6221:
.LBI6221:
	.loc 22 74 5 view .LVU1524
	.loc 22 74 5 is_stmt 0 view .LVU1525
.LBE6221:
.LBB6222:
.LBI6222:
	.loc 25 365 19 is_stmt 1 view .LVU1526
.LBB6223:
.LBI6223:
	.loc 22 74 5 view .LVU1527
	.loc 22 74 5 is_stmt 0 view .LVU1528
.LBE6223:
.LBB6224:
.LBI6224:
	.loc 25 132 19 is_stmt 1 view .LVU1529
.LBB6225:
.LBB6226:
.LBI6226:
	.loc 22 74 5 view .LVU1530
	.loc 22 74 5 is_stmt 0 view .LVU1531
.LBE6226:
	.loc 25 133 42 view .LVU1532
	leaq	68(%rsp), %rax
.LVL525:
	.loc 25 133 42 view .LVU1533
	movq	%rax, 176(%rsp)
.LVL526:
	.loc 25 133 42 view .LVU1534
.LBE6225:
.LBE6224:
.LBE6222:
.LBE6220:
.LBE6219:
.LBB6227:
.LBI6227:
	.loc 11 348 7 is_stmt 1 view .LVU1535
	.loc 11 348 7 is_stmt 0 view .LVU1536
.LBE6227:
	.loc 26 518 8 view .LVU1537
	leaq	191(%rsp), %r8
	leaq	176(%rsp), %rcx
	movl	$_ZStL19piecewise_construct, %edx
	movq	%rbx, %rdi
	call	_ZNSt8_Rb_treeIN3mpp9ReqParser5StateESt4pairIKS2_NSt7__cxx1112basic_stringIcSt11char_traitsIcESaIcEEEESt10_Select1stISB_ESt4lessIS2_ESaISB_EE22_M_emplace_hint_uniqueIJRKSt21piecewise_construct_tSt5tupleIJOS2_EESM_IJEEEEESt17_Rb_tree_iteratorISB_ESt23_Rb_tree_const_iteratorISB_EDpOT_
.LVL527:
	.loc 26 518 8 view .LVU1538
	movq	%rax, %rdi
.L190:
.LVL528:
.LBB6228:
.LBI6228:
	.loc 11 277 7 is_stmt 1 view .LVU1539
	.loc 11 277 7 is_stmt 0 view .LVU1540
.LBE6228:
	.loc 26 521 16 view .LVU1541
	addq	$40, %rdi
.LVL529:
	.loc 26 521 16 view .LVU1542
.LBE6204:
.LBE6203:
.LBB6229:
.LBI6229:
	.loc 6 703 7 is_stmt 1 view .LVU1543
.LBB6230:
.LBI6230:
	.loc 6 1426 7 view .LVU1544
	.loc 6 1426 7 is_stmt 0 view .LVU1545
.LBE6230:
.LBE6229:
.LBE6907:
.LBE6961:
	.loc 17 320 2 is_stmt 1 view .LVU1546
.LBB6962:
.LBB6908:
.LBB6235:
.LBB6234:
.LBB6231:
.LBB6232:
.LBI6232:
	.loc 6 921 7 view .LVU1547
.LBB6233:
	.loc 6 922 16 is_stmt 0 view .LVU1548
	movq	8(%rdi), %rdx
.LVL530:
	.loc 6 922 16 view .LVU1549
.LBE6233:
.LBE6232:
	.loc 6 1430 30 view .LVU1550
	movl	$22, %r8d
	movl	$.LC8, %ecx
	movl	$0, %esi
	call	_ZNSt7__cxx1112basic_stringIcSt11char_traitsIcESaIcEE10_M_replaceEmmPKcm
.LVL531:
	.loc 6 1430 30 view .LVU1551
.LBE6231:
.LBE6234:
.LBE6235:
	.loc 1 34 2 is_stmt 1 view .LVU1552
	.loc 1 34 18 is_stmt 0 view .LVU1553
	movl	$4, 72(%rsp)
.LVL532:
.LBB6236:
.LBI6236:
	.loc 26 510 7 is_stmt 1 view .LVU1554
.LBB6237:
.LBB6238:
.LBI6238:
	.loc 26 1239 7 view .LVU1555
.LBB6239:
.LBB6240:
.LBI6240:
	.loc 11 1202 7 view .LVU1556
.LBB6241:
.LBB6242:
.LBI6242:
	.loc 11 763 7 view .LVU1557
.LBB6243:
	.loc 11 764 31 is_stmt 0 view .LVU1558
	leaq	8(%rbx), %r14
.LVL533:
	.loc 11 764 31 view .LVU1559
.LBE6243:
.LBE6242:
.LBB6244:
.LBI6244:
	.loc 11 752 7 is_stmt 1 view .LVU1560
.LBB6245:
	.loc 11 753 73 is_stmt 0 view .LVU1561
	movq	16(%rbx), %rsi
.LVL534:
	.loc 11 753 73 view .LVU1562
.LBE6245:
.LBE6244:
	.loc 11 1203 56 view .LVU1563
	leaq	72(%rsp), %rcx
.LVL535:
	.loc 11 1203 56 view .LVU1564
	movq	%r14, %rdx
	movq	%rbx, %rdi
	call	_ZNSt8_Rb_treeIN3mpp9ReqParser5StateESt4pairIKS2_NSt7__cxx1112basic_stringIcSt11char_traitsIcESaIcEEEESt10_Select1stISB_ESt4lessIS2_ESaISB_EE14_M_lower_boundEPSt13_Rb_tree_nodeISB_EPSt18_Rb_tree_node_baseRS4_
.LVL536:
	.loc 11 1203 56 view .LVU1565
.LBE6241:
.LBE6240:
.LBE6239:
.LBE6238:
	.loc 26 515 11 view .LVU1566
	movq	%rax, %rdi
.LVL537:
.LBB6246:
.LBI6246:
	.loc 26 372 7 is_stmt 1 view .LVU1567
.LBB6247:
.LBI6247:
	.loc 11 984 7 view .LVU1568
.LBB6248:
.LBI6248:
	.loc 11 273 7 view .LVU1569
	.loc 11 273 7 is_stmt 0 view .LVU1570
.LBE6248:
.LBE6247:
.LBE6246:
.LBB6249:
.LBI6249:
	.loc 11 315 7 is_stmt 1 view .LVU1571
.LBB6250:
	.loc 11 316 16 is_stmt 0 view .LVU1572
	movq	%rax, %rsi
.LVL538:
	.loc 11 316 16 view .LVU1573
.LBE6250:
.LBE6249:
	.loc 26 517 19 view .LVU1574
	cmpq	%rax, %r14
	je	.L191
.LVL539:
.LBB6251:
.LBI6251:
	.loc 14 385 7 is_stmt 1 view .LVU1575
	.loc 14 385 7 is_stmt 0 view .LVU1576
.LBE6251:
	.loc 26 517 19 view .LVU1577
	movl	32(%rax), %eax
	cmpl	%eax, 72(%rsp)
	jge	.L192
.L191:
.LVL540:
.LBB6252:
.LBI6252:
	.loc 25 1475 5 is_stmt 1 view .LVU1578
.LBB6253:
.LBI6253:
	.loc 25 646 19 view .LVU1579
.LBB6254:
.LBI6254:
	.loc 22 74 5 view .LVU1580
	.loc 22 74 5 is_stmt 0 view .LVU1581
.LBE6254:
.LBB6255:
.LBI6255:
	.loc 25 365 19 is_stmt 1 view .LVU1582
.LBB6256:
.LBI6256:
	.loc 22 74 5 view .LVU1583
	.loc 22 74 5 is_stmt 0 view .LVU1584
.LBE6256:
.LBB6257:
.LBI6257:
	.loc 25 132 19 is_stmt 1 view .LVU1585
.LBB6258:
.LBB6259:
.LBI6259:
	.loc 22 74 5 view .LVU1586
	.loc 22 74 5 is_stmt 0 view .LVU1587
.LBE6259:
	.loc 25 133 42 view .LVU1588
	leaq	72(%rsp), %rax
.LVL541:
	.loc 25 133 42 view .LVU1589
	movq	%rax, 192(%rsp)
.LVL542:
	.loc 25 133 42 view .LVU1590
.LBE6258:
.LBE6257:
.LBE6255:
.LBE6253:
.LBE6252:
.LBB6260:
.LBI6260:
	.loc 11 348 7 is_stmt 1 view .LVU1591
	.loc 11 348 7 is_stmt 0 view .LVU1592
.LBE6260:
	.loc 26 518 8 view .LVU1593
	leaq	207(%rsp), %r8
	leaq	192(%rsp), %rcx
	movl	$_ZStL19piecewise_construct, %edx
	movq	%rbx, %rdi
	call	_ZNSt8_Rb_treeIN3mpp9ReqParser5StateESt4pairIKS2_NSt7__cxx1112basic_stringIcSt11char_traitsIcESaIcEEEESt10_Select1stISB_ESt4lessIS2_ESaISB_EE22_M_emplace_hint_uniqueIJRKSt21piecewise_construct_tSt5tupleIJOS2_EESM_IJEEEEESt17_Rb_tree_iteratorISB_ESt23_Rb_tree_const_iteratorISB_EDpOT_
.LVL543:
	.loc 26 518 8 view .LVU1594
	movq	%rax, %rdi
.L192:
.LVL544:
.LBB6261:
.LBI6261:
	.loc 11 277 7 is_stmt 1 view .LVU1595
	.loc 11 277 7 is_stmt 0 view .LVU1596
.LBE6261:
	.loc 26 521 16 view .LVU1597
	addq	$40, %rdi
.LVL545:
	.loc 26 521 16 view .LVU1598
.LBE6237:
.LBE6236:
.LBB6262:
.LBI6262:
	.loc 6 703 7 is_stmt 1 view .LVU1599
.LBB6263:
.LBI6263:
	.loc 6 1426 7 view .LVU1600
	.loc 6 1426 7 is_stmt 0 view .LVU1601
.LBE6263:
.LBE6262:
.LBE6908:
.LBE6962:
	.loc 17 320 2 is_stmt 1 view .LVU1602
.LBB6963:
.LBB6909:
.LBB6268:
.LBB6267:
.LBB6264:
.LBB6265:
.LBI6265:
	.loc 6 921 7 view .LVU1603
.LBB6266:
	.loc 6 922 16 is_stmt 0 view .LVU1604
	movq	8(%rdi), %rdx
.LVL546:
	.loc 6 922 16 view .LVU1605
.LBE6266:
.LBE6265:
	.loc 6 1430 30 view .LVU1606
	movl	$5, %r8d
	movl	$.LC9, %ecx
	movl	$0, %esi
	call	_ZNSt7__cxx1112basic_stringIcSt11char_traitsIcESaIcEE10_M_replaceEmmPKcm
.LVL547:
	.loc 6 1430 30 view .LVU1607
.LBE6264:
.LBE6267:
.LBE6268:
	.loc 1 35 2 is_stmt 1 view .LVU1608
	.loc 1 35 18 is_stmt 0 view .LVU1609
	movl	$5, 76(%rsp)
.LVL548:
.LBB6269:
.LBI6269:
	.loc 26 510 7 is_stmt 1 view .LVU1610
.LBB6270:
.LBB6271:
.LBI6271:
	.loc 26 1239 7 view .LVU1611
.LBB6272:
.LBB6273:
.LBI6273:
	.loc 11 1202 7 view .LVU1612
.LBB6274:
.LBB6275:
.LBI6275:
	.loc 11 763 7 view .LVU1613
.LBB6276:
	.loc 11 764 31 is_stmt 0 view .LVU1614
	leaq	8(%rbx), %r14
.LVL549:
	.loc 11 764 31 view .LVU1615
.LBE6276:
.LBE6275:
.LBB6277:
.LBI6277:
	.loc 11 752 7 is_stmt 1 view .LVU1616
.LBB6278:
	.loc 11 753 73 is_stmt 0 view .LVU1617
	movq	16(%rbx), %rsi
.LVL550:
	.loc 11 753 73 view .LVU1618
.LBE6278:
.LBE6277:
	.loc 11 1203 56 view .LVU1619
	leaq	76(%rsp), %rcx
.LVL551:
	.loc 11 1203 56 view .LVU1620
	movq	%r14, %rdx
	movq	%rbx, %rdi
	call	_ZNSt8_Rb_treeIN3mpp9ReqParser5StateESt4pairIKS2_NSt7__cxx1112basic_stringIcSt11char_traitsIcESaIcEEEESt10_Select1stISB_ESt4lessIS2_ESaISB_EE14_M_lower_boundEPSt13_Rb_tree_nodeISB_EPSt18_Rb_tree_node_baseRS4_
.LVL552:
	.loc 11 1203 56 view .LVU1621
.LBE6274:
.LBE6273:
.LBE6272:
.LBE6271:
	.loc 26 515 11 view .LVU1622
	movq	%rax, %rdi
.LVL553:
.LBB6279:
.LBI6279:
	.loc 26 372 7 is_stmt 1 view .LVU1623
.LBB6280:
.LBI6280:
	.loc 11 984 7 view .LVU1624
.LBB6281:
.LBI6281:
	.loc 11 273 7 view .LVU1625
	.loc 11 273 7 is_stmt 0 view .LVU1626
.LBE6281:
.LBE6280:
.LBE6279:
.LBB6282:
.LBI6282:
	.loc 11 315 7 is_stmt 1 view .LVU1627
.LBB6283:
	.loc 11 316 16 is_stmt 0 view .LVU1628
	movq	%rax, %rsi
.LVL554:
	.loc 11 316 16 view .LVU1629
.LBE6283:
.LBE6282:
	.loc 26 517 19 view .LVU1630
	cmpq	%rax, %r14
	je	.L193
.LVL555:
.LBB6284:
.LBI6284:
	.loc 14 385 7 is_stmt 1 view .LVU1631
	.loc 14 385 7 is_stmt 0 view .LVU1632
.LBE6284:
	.loc 26 517 19 view .LVU1633
	movl	32(%rax), %eax
	cmpl	%eax, 76(%rsp)
	jge	.L194
.L193:
.LVL556:
.LBB6285:
.LBI6285:
	.loc 25 1475 5 is_stmt 1 view .LVU1634
.LBB6286:
.LBI6286:
	.loc 25 646 19 view .LVU1635
.LBB6287:
.LBI6287:
	.loc 22 74 5 view .LVU1636
	.loc 22 74 5 is_stmt 0 view .LVU1637
.LBE6287:
.LBB6288:
.LBI6288:
	.loc 25 365 19 is_stmt 1 view .LVU1638
.LBB6289:
.LBI6289:
	.loc 22 74 5 view .LVU1639
	.loc 22 74 5 is_stmt 0 view .LVU1640
.LBE6289:
.LBB6290:
.LBI6290:
	.loc 25 132 19 is_stmt 1 view .LVU1641
.LBB6291:
.LBB6292:
.LBI6292:
	.loc 22 74 5 view .LVU1642
	.loc 22 74 5 is_stmt 0 view .LVU1643
.LBE6292:
	.loc 25 133 42 view .LVU1644
	leaq	76(%rsp), %rax
.LVL557:
	.loc 25 133 42 view .LVU1645
	movq	%rax, 208(%rsp)
.LVL558:
	.loc 25 133 42 view .LVU1646
.LBE6291:
.LBE6290:
.LBE6288:
.LBE6286:
.LBE6285:
.LBB6293:
.LBI6293:
	.loc 11 348 7 is_stmt 1 view .LVU1647
	.loc 11 348 7 is_stmt 0 view .LVU1648
.LBE6293:
	.loc 26 518 8 view .LVU1649
	leaq	223(%rsp), %r8
	leaq	208(%rsp), %rcx
	movl	$_ZStL19piecewise_construct, %edx
	movq	%rbx, %rdi
	call	_ZNSt8_Rb_treeIN3mpp9ReqParser5StateESt4pairIKS2_NSt7__cxx1112basic_stringIcSt11char_traitsIcESaIcEEEESt10_Select1stISB_ESt4lessIS2_ESaISB_EE22_M_emplace_hint_uniqueIJRKSt21piecewise_construct_tSt5tupleIJOS2_EESM_IJEEEEESt17_Rb_tree_iteratorISB_ESt23_Rb_tree_const_iteratorISB_EDpOT_
.LVL559:
	.loc 26 518 8 view .LVU1650
	movq	%rax, %rdi
.L194:
.LVL560:
.LBB6294:
.LBI6294:
	.loc 11 277 7 is_stmt 1 view .LVU1651
	.loc 11 277 7 is_stmt 0 view .LVU1652
.LBE6294:
	.loc 26 521 16 view .LVU1653
	addq	$40, %rdi
.LVL561:
	.loc 26 521 16 view .LVU1654
.LBE6270:
.LBE6269:
.LBB6295:
.LBI6295:
	.loc 6 703 7 is_stmt 1 view .LVU1655
.LBB6296:
.LBI6296:
	.loc 6 1426 7 view .LVU1656
	.loc 6 1426 7 is_stmt 0 view .LVU1657
.LBE6296:
.LBE6295:
.LBE6909:
.LBE6963:
	.loc 17 320 2 is_stmt 1 view .LVU1658
.LBB6964:
.LBB6910:
.LBB6301:
.LBB6300:
.LBB6297:
.LBB6298:
.LBI6298:
	.loc 6 921 7 view .LVU1659
.LBB6299:
	.loc 6 922 16 is_stmt 0 view .LVU1660
	movq	8(%rdi), %rdx
.LVL562:
	.loc 6 922 16 view .LVU1661
.LBE6299:
.LBE6298:
	.loc 6 1430 30 view .LVU1662
	movl	$5, %r8d
	movl	$.LC10, %ecx
	movl	$0, %esi
	call	_ZNSt7__cxx1112basic_stringIcSt11char_traitsIcESaIcEE10_M_replaceEmmPKcm
.LVL563:
	.loc 6 1430 30 view .LVU1663
.LBE6297:
.LBE6300:
.LBE6301:
	.loc 1 36 2 is_stmt 1 view .LVU1664
	.loc 1 36 18 is_stmt 0 view .LVU1665
	movl	$6, 80(%rsp)
.LVL564:
.LBB6302:
.LBI6302:
	.loc 26 510 7 is_stmt 1 view .LVU1666
.LBB6303:
.LBB6304:
.LBI6304:
	.loc 26 1239 7 view .LVU1667
.LBB6305:
.LBB6306:
.LBI6306:
	.loc 11 1202 7 view .LVU1668
.LBB6307:
.LBB6308:
.LBI6308:
	.loc 11 763 7 view .LVU1669
.LBB6309:
	.loc 11 764 31 is_stmt 0 view .LVU1670
	leaq	8(%rbx), %r14
.LVL565:
	.loc 11 764 31 view .LVU1671
.LBE6309:
.LBE6308:
.LBB6310:
.LBI6310:
	.loc 11 752 7 is_stmt 1 view .LVU1672
.LBB6311:
	.loc 11 753 73 is_stmt 0 view .LVU1673
	movq	16(%rbx), %rsi
.LVL566:
	.loc 11 753 73 view .LVU1674
.LBE6311:
.LBE6310:
	.loc 11 1203 56 view .LVU1675
	leaq	80(%rsp), %rcx
.LVL567:
	.loc 11 1203 56 view .LVU1676
	movq	%r14, %rdx
	movq	%rbx, %rdi
	call	_ZNSt8_Rb_treeIN3mpp9ReqParser5StateESt4pairIKS2_NSt7__cxx1112basic_stringIcSt11char_traitsIcESaIcEEEESt10_Select1stISB_ESt4lessIS2_ESaISB_EE14_M_lower_boundEPSt13_Rb_tree_nodeISB_EPSt18_Rb_tree_node_baseRS4_
.LVL568:
	.loc 11 1203 56 view .LVU1677
.LBE6307:
.LBE6306:
.LBE6305:
.LBE6304:
	.loc 26 515 11 view .LVU1678
	movq	%rax, %rdi
.LVL569:
.LBB6312:
.LBI6312:
	.loc 26 372 7 is_stmt 1 view .LVU1679
.LBB6313:
.LBI6313:
	.loc 11 984 7 view .LVU1680
.LBB6314:
.LBI6314:
	.loc 11 273 7 view .LVU1681
	.loc 11 273 7 is_stmt 0 view .LVU1682
.LBE6314:
.LBE6313:
.LBE6312:
.LBB6315:
.LBI6315:
	.loc 11 315 7 is_stmt 1 view .LVU1683
.LBB6316:
	.loc 11 316 16 is_stmt 0 view .LVU1684
	movq	%rax, %rsi
.LVL570:
	.loc 11 316 16 view .LVU1685
.LBE6316:
.LBE6315:
	.loc 26 517 19 view .LVU1686
	cmpq	%rax, %r14
	je	.L195
.LVL571:
.LBB6317:
.LBI6317:
	.loc 14 385 7 is_stmt 1 view .LVU1687
	.loc 14 385 7 is_stmt 0 view .LVU1688
.LBE6317:
	.loc 26 517 19 view .LVU1689
	movl	32(%rax), %eax
	cmpl	%eax, 80(%rsp)
	jge	.L196
.L195:
.LVL572:
.LBB6318:
.LBI6318:
	.loc 25 1475 5 is_stmt 1 view .LVU1690
.LBB6319:
.LBI6319:
	.loc 25 646 19 view .LVU1691
.LBB6320:
.LBI6320:
	.loc 22 74 5 view .LVU1692
	.loc 22 74 5 is_stmt 0 view .LVU1693
.LBE6320:
.LBB6321:
.LBI6321:
	.loc 25 365 19 is_stmt 1 view .LVU1694
.LBB6322:
.LBI6322:
	.loc 22 74 5 view .LVU1695
	.loc 22 74 5 is_stmt 0 view .LVU1696
.LBE6322:
.LBB6323:
.LBI6323:
	.loc 25 132 19 is_stmt 1 view .LVU1697
.LBB6324:
.LBB6325:
.LBI6325:
	.loc 22 74 5 view .LVU1698
	.loc 22 74 5 is_stmt 0 view .LVU1699
.LBE6325:
	.loc 25 133 42 view .LVU1700
	leaq	80(%rsp), %rax
.LVL573:
	.loc 25 133 42 view .LVU1701
	movq	%rax, 224(%rsp)
.LVL574:
	.loc 25 133 42 view .LVU1702
.LBE6324:
.LBE6323:
.LBE6321:
.LBE6319:
.LBE6318:
.LBB6326:
.LBI6326:
	.loc 11 348 7 is_stmt 1 view .LVU1703
	.loc 11 348 7 is_stmt 0 view .LVU1704
.LBE6326:
	.loc 26 518 8 view .LVU1705
	leaq	239(%rsp), %r8
	leaq	224(%rsp), %rcx
	movl	$_ZStL19piecewise_construct, %edx
	movq	%rbx, %rdi
	call	_ZNSt8_Rb_treeIN3mpp9ReqParser5StateESt4pairIKS2_NSt7__cxx1112basic_stringIcSt11char_traitsIcESaIcEEEESt10_Select1stISB_ESt4lessIS2_ESaISB_EE22_M_emplace_hint_uniqueIJRKSt21piecewise_construct_tSt5tupleIJOS2_EESM_IJEEEEESt17_Rb_tree_iteratorISB_ESt23_Rb_tree_const_iteratorISB_EDpOT_
.LVL575:
	.loc 26 518 8 view .LVU1706
	movq	%rax, %rdi
.L196:
.LVL576:
.LBB6327:
.LBI6327:
	.loc 11 277 7 is_stmt 1 view .LVU1707
	.loc 11 277 7 is_stmt 0 view .LVU1708
.LBE6327:
	.loc 26 521 16 view .LVU1709
	addq	$40, %rdi
.LVL577:
	.loc 26 521 16 view .LVU1710
.LBE6303:
.LBE6302:
.LBB6328:
.LBI6328:
	.loc 6 703 7 is_stmt 1 view .LVU1711
.LBB6329:
.LBI6329:
	.loc 6 1426 7 view .LVU1712
	.loc 6 1426 7 is_stmt 0 view .LVU1713
.LBE6329:
.LBE6328:
.LBE6910:
.LBE6964:
	.loc 17 320 2 is_stmt 1 view .LVU1714
.LBB6965:
.LBB6911:
.LBB6334:
.LBB6333:
.LBB6330:
.LBB6331:
.LBI6331:
	.loc 6 921 7 view .LVU1715
.LBB6332:
	.loc 6 922 16 is_stmt 0 view .LVU1716
	movq	8(%rdi), %rdx
.LVL578:
	.loc 6 922 16 view .LVU1717
.LBE6332:
.LBE6331:
	.loc 6 1430 30 view .LVU1718
	movl	$5, %r8d
	movl	$.LC11, %ecx
	movl	$0, %esi
	call	_ZNSt7__cxx1112basic_stringIcSt11char_traitsIcESaIcEE10_M_replaceEmmPKcm
.LVL579:
	.loc 6 1430 30 view .LVU1719
.LBE6330:
.LBE6333:
.LBE6334:
	.loc 1 37 2 is_stmt 1 view .LVU1720
	.loc 1 37 18 is_stmt 0 view .LVU1721
	movl	$7, 84(%rsp)
.LVL580:
.LBB6335:
.LBI6335:
	.loc 26 510 7 is_stmt 1 view .LVU1722
.LBB6336:
.LBB6337:
.LBI6337:
	.loc 26 1239 7 view .LVU1723
.LBB6338:
.LBB6339:
.LBI6339:
	.loc 11 1202 7 view .LVU1724
.LBB6340:
.LBB6341:
.LBI6341:
	.loc 11 763 7 view .LVU1725
.LBB6342:
	.loc 11 764 31 is_stmt 0 view .LVU1726
	leaq	8(%rbx), %r14
.LVL581:
	.loc 11 764 31 view .LVU1727
.LBE6342:
.LBE6341:
.LBB6343:
.LBI6343:
	.loc 11 752 7 is_stmt 1 view .LVU1728
.LBB6344:
	.loc 11 753 73 is_stmt 0 view .LVU1729
	movq	16(%rbx), %rsi
.LVL582:
	.loc 11 753 73 view .LVU1730
.LBE6344:
.LBE6343:
	.loc 11 1203 56 view .LVU1731
	leaq	84(%rsp), %rcx
.LVL583:
	.loc 11 1203 56 view .LVU1732
	movq	%r14, %rdx
	movq	%rbx, %rdi
	call	_ZNSt8_Rb_treeIN3mpp9ReqParser5StateESt4pairIKS2_NSt7__cxx1112basic_stringIcSt11char_traitsIcESaIcEEEESt10_Select1stISB_ESt4lessIS2_ESaISB_EE14_M_lower_boundEPSt13_Rb_tree_nodeISB_EPSt18_Rb_tree_node_baseRS4_
.LVL584:
	.loc 11 1203 56 view .LVU1733
.LBE6340:
.LBE6339:
.LBE6338:
.LBE6337:
	.loc 26 515 11 view .LVU1734
	movq	%rax, %rdi
.LVL585:
.LBB6345:
.LBI6345:
	.loc 26 372 7 is_stmt 1 view .LVU1735
.LBB6346:
.LBI6346:
	.loc 11 984 7 view .LVU1736
.LBB6347:
.LBI6347:
	.loc 11 273 7 view .LVU1737
	.loc 11 273 7 is_stmt 0 view .LVU1738
.LBE6347:
.LBE6346:
.LBE6345:
.LBB6348:
.LBI6348:
	.loc 11 315 7 is_stmt 1 view .LVU1739
.LBB6349:
	.loc 11 316 16 is_stmt 0 view .LVU1740
	movq	%rax, %rsi
.LVL586:
	.loc 11 316 16 view .LVU1741
.LBE6349:
.LBE6348:
	.loc 26 517 19 view .LVU1742
	cmpq	%rax, %r14
	je	.L197
.LVL587:
.LBB6350:
.LBI6350:
	.loc 14 385 7 is_stmt 1 view .LVU1743
	.loc 14 385 7 is_stmt 0 view .LVU1744
.LBE6350:
	.loc 26 517 19 view .LVU1745
	movl	32(%rax), %eax
	cmpl	%eax, 84(%rsp)
	jge	.L198
.L197:
.LVL588:
.LBB6351:
.LBI6351:
	.loc 25 1475 5 is_stmt 1 view .LVU1746
.LBB6352:
.LBI6352:
	.loc 25 646 19 view .LVU1747
.LBB6353:
.LBI6353:
	.loc 22 74 5 view .LVU1748
	.loc 22 74 5 is_stmt 0 view .LVU1749
.LBE6353:
.LBB6354:
.LBI6354:
	.loc 25 365 19 is_stmt 1 view .LVU1750
.LBB6355:
.LBI6355:
	.loc 22 74 5 view .LVU1751
	.loc 22 74 5 is_stmt 0 view .LVU1752
.LBE6355:
.LBB6356:
.LBI6356:
	.loc 25 132 19 is_stmt 1 view .LVU1753
.LBB6357:
.LBB6358:
.LBI6358:
	.loc 22 74 5 view .LVU1754
	.loc 22 74 5 is_stmt 0 view .LVU1755
.LBE6358:
	.loc 25 133 42 view .LVU1756
	leaq	84(%rsp), %rax
.LVL589:
	.loc 25 133 42 view .LVU1757
	movq	%rax, 240(%rsp)
.LVL590:
	.loc 25 133 42 view .LVU1758
.LBE6357:
.LBE6356:
.LBE6354:
.LBE6352:
.LBE6351:
.LBB6359:
.LBI6359:
	.loc 11 348 7 is_stmt 1 view .LVU1759
	.loc 11 348 7 is_stmt 0 view .LVU1760
.LBE6359:
	.loc 26 518 8 view .LVU1761
	leaq	255(%rsp), %r8
	leaq	240(%rsp), %rcx
	movl	$_ZStL19piecewise_construct, %edx
	movq	%rbx, %rdi
	call	_ZNSt8_Rb_treeIN3mpp9ReqParser5StateESt4pairIKS2_NSt7__cxx1112basic_stringIcSt11char_traitsIcESaIcEEEESt10_Select1stISB_ESt4lessIS2_ESaISB_EE22_M_emplace_hint_uniqueIJRKSt21piecewise_construct_tSt5tupleIJOS2_EESM_IJEEEEESt17_Rb_tree_iteratorISB_ESt23_Rb_tree_const_iteratorISB_EDpOT_
.LVL591:
	.loc 26 518 8 view .LVU1762
	movq	%rax, %rdi
.L198:
.LVL592:
.LBB6360:
.LBI6360:
	.loc 11 277 7 is_stmt 1 view .LVU1763
	.loc 11 277 7 is_stmt 0 view .LVU1764
.LBE6360:
	.loc 26 521 16 view .LVU1765
	addq	$40, %rdi
.LVL593:
	.loc 26 521 16 view .LVU1766
.LBE6336:
.LBE6335:
.LBB6361:
.LBI6361:
	.loc 6 703 7 is_stmt 1 view .LVU1767
.LBB6362:
.LBI6362:
	.loc 6 1426 7 view .LVU1768
	.loc 6 1426 7 is_stmt 0 view .LVU1769
.LBE6362:
.LBE6361:
.LBE6911:
.LBE6965:
	.loc 17 320 2 is_stmt 1 view .LVU1770
.LBB6966:
.LBB6912:
.LBB6367:
.LBB6366:
.LBB6363:
.LBB6364:
.LBI6364:
	.loc 6 921 7 view .LVU1771
.LBB6365:
	.loc 6 922 16 is_stmt 0 view .LVU1772
	movq	8(%rdi), %rdx
.LVL594:
	.loc 6 922 16 view .LVU1773
.LBE6365:
.LBE6364:
	.loc 6 1430 30 view .LVU1774
	movl	$5, %r8d
	movl	$.LC12, %ecx
	movl	$0, %esi
	call	_ZNSt7__cxx1112basic_stringIcSt11char_traitsIcESaIcEE10_M_replaceEmmPKcm
.LVL595:
	.loc 6 1430 30 view .LVU1775
.LBE6363:
.LBE6366:
.LBE6367:
	.loc 1 38 2 is_stmt 1 view .LVU1776
	.loc 1 38 23 is_stmt 0 view .LVU1777
	movl	$8, 88(%rsp)
.LVL596:
.LBB6368:
.LBI6368:
	.loc 26 510 7 is_stmt 1 view .LVU1778
.LBB6369:
.LBB6370:
.LBI6370:
	.loc 26 1239 7 view .LVU1779
.LBB6371:
.LBB6372:
.LBI6372:
	.loc 11 1202 7 view .LVU1780
.LBB6373:
.LBB6374:
.LBI6374:
	.loc 11 763 7 view .LVU1781
.LBB6375:
	.loc 11 764 31 is_stmt 0 view .LVU1782
	leaq	8(%rbx), %r14
.LVL597:
	.loc 11 764 31 view .LVU1783
.LBE6375:
.LBE6374:
.LBB6376:
.LBI6376:
	.loc 11 752 7 is_stmt 1 view .LVU1784
.LBB6377:
	.loc 11 753 73 is_stmt 0 view .LVU1785
	movq	16(%rbx), %rsi
.LVL598:
	.loc 11 753 73 view .LVU1786
.LBE6377:
.LBE6376:
	.loc 11 1203 56 view .LVU1787
	leaq	88(%rsp), %rcx
.LVL599:
	.loc 11 1203 56 view .LVU1788
	movq	%r14, %rdx
	movq	%rbx, %rdi
	call	_ZNSt8_Rb_treeIN3mpp9ReqParser5StateESt4pairIKS2_NSt7__cxx1112basic_stringIcSt11char_traitsIcESaIcEEEESt10_Select1stISB_ESt4lessIS2_ESaISB_EE14_M_lower_boundEPSt13_Rb_tree_nodeISB_EPSt18_Rb_tree_node_baseRS4_
.LVL600:
	.loc 11 1203 56 view .LVU1789
.LBE6373:
.LBE6372:
.LBE6371:
.LBE6370:
	.loc 26 515 11 view .LVU1790
	movq	%rax, %rdi
.LVL601:
.LBB6378:
.LBI6378:
	.loc 26 372 7 is_stmt 1 view .LVU1791
.LBB6379:
.LBI6379:
	.loc 11 984 7 view .LVU1792
.LBB6380:
.LBI6380:
	.loc 11 273 7 view .LVU1793
	.loc 11 273 7 is_stmt 0 view .LVU1794
.LBE6380:
.LBE6379:
.LBE6378:
.LBB6381:
.LBI6381:
	.loc 11 315 7 is_stmt 1 view .LVU1795
.LBB6382:
	.loc 11 316 16 is_stmt 0 view .LVU1796
	movq	%rax, %rsi
.LVL602:
	.loc 11 316 16 view .LVU1797
.LBE6382:
.LBE6381:
	.loc 26 517 19 view .LVU1798
	cmpq	%rax, %r14
	je	.L199
.LVL603:
.LBB6383:
.LBI6383:
	.loc 14 385 7 is_stmt 1 view .LVU1799
	.loc 14 385 7 is_stmt 0 view .LVU1800
.LBE6383:
	.loc 26 517 19 view .LVU1801
	movl	32(%rax), %eax
	cmpl	%eax, 88(%rsp)
	jge	.L200
.L199:
.LVL604:
.LBB6384:
.LBI6384:
	.loc 25 1475 5 is_stmt 1 view .LVU1802
.LBB6385:
.LBI6385:
	.loc 25 646 19 view .LVU1803
.LBB6386:
.LBI6386:
	.loc 22 74 5 view .LVU1804
	.loc 22 74 5 is_stmt 0 view .LVU1805
.LBE6386:
.LBB6387:
.LBI6387:
	.loc 25 365 19 is_stmt 1 view .LVU1806
.LBB6388:
.LBI6388:
	.loc 22 74 5 view .LVU1807
	.loc 22 74 5 is_stmt 0 view .LVU1808
.LBE6388:
.LBB6389:
.LBI6389:
	.loc 25 132 19 is_stmt 1 view .LVU1809
.LBB6390:
.LBB6391:
.LBI6391:
	.loc 22 74 5 view .LVU1810
	.loc 22 74 5 is_stmt 0 view .LVU1811
.LBE6391:
	.loc 25 133 42 view .LVU1812
	leaq	88(%rsp), %rax
.LVL605:
	.loc 25 133 42 view .LVU1813
	movq	%rax, 256(%rsp)
.LVL606:
	.loc 25 133 42 view .LVU1814
.LBE6390:
.LBE6389:
.LBE6387:
.LBE6385:
.LBE6384:
.LBB6392:
.LBI6392:
	.loc 11 348 7 is_stmt 1 view .LVU1815
	.loc 11 348 7 is_stmt 0 view .LVU1816
.LBE6392:
	.loc 26 518 8 view .LVU1817
	leaq	271(%rsp), %r8
	leaq	256(%rsp), %rcx
	movl	$_ZStL19piecewise_construct, %edx
	movq	%rbx, %rdi
	call	_ZNSt8_Rb_treeIN3mpp9ReqParser5StateESt4pairIKS2_NSt7__cxx1112basic_stringIcSt11char_traitsIcESaIcEEEESt10_Select1stISB_ESt4lessIS2_ESaISB_EE22_M_emplace_hint_uniqueIJRKSt21piecewise_construct_tSt5tupleIJOS2_EESM_IJEEEEESt17_Rb_tree_iteratorISB_ESt23_Rb_tree_const_iteratorISB_EDpOT_
.LVL607:
	.loc 26 518 8 view .LVU1818
	movq	%rax, %rdi
.L200:
.LVL608:
.LBB6393:
.LBI6393:
	.loc 11 277 7 is_stmt 1 view .LVU1819
	.loc 11 277 7 is_stmt 0 view .LVU1820
.LBE6393:
	.loc 26 521 16 view .LVU1821
	addq	$40, %rdi
.LVL609:
	.loc 26 521 16 view .LVU1822
.LBE6369:
.LBE6368:
.LBB6394:
.LBI6394:
	.loc 6 703 7 is_stmt 1 view .LVU1823
.LBB6395:
.LBI6395:
	.loc 6 1426 7 view .LVU1824
	.loc 6 1426 7 is_stmt 0 view .LVU1825
.LBE6395:
.LBE6394:
.LBE6912:
.LBE6966:
	.loc 17 320 2 is_stmt 1 view .LVU1826
.LBB6967:
.LBB6913:
.LBB6400:
.LBB6399:
.LBB6396:
.LBB6397:
.LBI6397:
	.loc 6 921 7 view .LVU1827
.LBB6398:
	.loc 6 922 16 is_stmt 0 view .LVU1828
	movq	8(%rdi), %rdx
.LVL610:
	.loc 6 922 16 view .LVU1829
.LBE6398:
.LBE6397:
	.loc 6 1430 30 view .LVU1830
	movl	$10, %r8d
	movl	$.LC13, %ecx
	movl	$0, %esi
	call	_ZNSt7__cxx1112basic_stringIcSt11char_traitsIcESaIcEE10_M_replaceEmmPKcm
.LVL611:
	.loc 6 1430 30 view .LVU1831
.LBE6396:
.LBE6399:
.LBE6400:
	.loc 1 39 2 is_stmt 1 view .LVU1832
	.loc 1 39 18 is_stmt 0 view .LVU1833
	movl	$9, 92(%rsp)
.LVL612:
.LBB6401:
.LBI6401:
	.loc 26 510 7 is_stmt 1 view .LVU1834
.LBB6402:
.LBB6403:
.LBI6403:
	.loc 26 1239 7 view .LVU1835
.LBB6404:
.LBB6405:
.LBI6405:
	.loc 11 1202 7 view .LVU1836
.LBB6406:
.LBB6407:
.LBI6407:
	.loc 11 763 7 view .LVU1837
.LBB6408:
	.loc 11 764 31 is_stmt 0 view .LVU1838
	leaq	8(%rbx), %r14
.LVL613:
	.loc 11 764 31 view .LVU1839
.LBE6408:
.LBE6407:
.LBB6409:
.LBI6409:
	.loc 11 752 7 is_stmt 1 view .LVU1840
.LBB6410:
	.loc 11 753 73 is_stmt 0 view .LVU1841
	movq	16(%rbx), %rsi
.LVL614:
	.loc 11 753 73 view .LVU1842
.LBE6410:
.LBE6409:
	.loc 11 1203 56 view .LVU1843
	leaq	92(%rsp), %rcx
.LVL615:
	.loc 11 1203 56 view .LVU1844
	movq	%r14, %rdx
	movq	%rbx, %rdi
	call	_ZNSt8_Rb_treeIN3mpp9ReqParser5StateESt4pairIKS2_NSt7__cxx1112basic_stringIcSt11char_traitsIcESaIcEEEESt10_Select1stISB_ESt4lessIS2_ESaISB_EE14_M_lower_boundEPSt13_Rb_tree_nodeISB_EPSt18_Rb_tree_node_baseRS4_
.LVL616:
	.loc 11 1203 56 view .LVU1845
.LBE6406:
.LBE6405:
.LBE6404:
.LBE6403:
	.loc 26 515 11 view .LVU1846
	movq	%rax, %rdi
.LVL617:
.LBB6411:
.LBI6411:
	.loc 26 372 7 is_stmt 1 view .LVU1847
.LBB6412:
.LBI6412:
	.loc 11 984 7 view .LVU1848
.LBB6413:
.LBI6413:
	.loc 11 273 7 view .LVU1849
	.loc 11 273 7 is_stmt 0 view .LVU1850
.LBE6413:
.LBE6412:
.LBE6411:
.LBB6414:
.LBI6414:
	.loc 11 315 7 is_stmt 1 view .LVU1851
.LBB6415:
	.loc 11 316 16 is_stmt 0 view .LVU1852
	movq	%rax, %rsi
.LVL618:
	.loc 11 316 16 view .LVU1853
.LBE6415:
.LBE6414:
	.loc 26 517 19 view .LVU1854
	cmpq	%rax, %r14
	je	.L201
.LVL619:
.LBB6416:
.LBI6416:
	.loc 14 385 7 is_stmt 1 view .LVU1855
	.loc 14 385 7 is_stmt 0 view .LVU1856
.LBE6416:
	.loc 26 517 19 view .LVU1857
	movl	32(%rax), %eax
	cmpl	%eax, 92(%rsp)
	jge	.L202
.L201:
.LVL620:
.LBB6417:
.LBI6417:
	.loc 25 1475 5 is_stmt 1 view .LVU1858
.LBB6418:
.LBI6418:
	.loc 25 646 19 view .LVU1859
.LBB6419:
.LBI6419:
	.loc 22 74 5 view .LVU1860
	.loc 22 74 5 is_stmt 0 view .LVU1861
.LBE6419:
.LBB6420:
.LBI6420:
	.loc 25 365 19 is_stmt 1 view .LVU1862
.LBB6421:
.LBI6421:
	.loc 22 74 5 view .LVU1863
	.loc 22 74 5 is_stmt 0 view .LVU1864
.LBE6421:
.LBB6422:
.LBI6422:
	.loc 25 132 19 is_stmt 1 view .LVU1865
.LBB6423:
.LBB6424:
.LBI6424:
	.loc 22 74 5 view .LVU1866
	.loc 22 74 5 is_stmt 0 view .LVU1867
.LBE6424:
	.loc 25 133 42 view .LVU1868
	leaq	92(%rsp), %rax
.LVL621:
	.loc 25 133 42 view .LVU1869
	movq	%rax, 272(%rsp)
.LVL622:
	.loc 25 133 42 view .LVU1870
.LBE6423:
.LBE6422:
.LBE6420:
.LBE6418:
.LBE6417:
.LBB6425:
.LBI6425:
	.loc 11 348 7 is_stmt 1 view .LVU1871
	.loc 11 348 7 is_stmt 0 view .LVU1872
.LBE6425:
	.loc 26 518 8 view .LVU1873
	leaq	287(%rsp), %r8
	leaq	272(%rsp), %rcx
	movl	$_ZStL19piecewise_construct, %edx
	movq	%rbx, %rdi
	call	_ZNSt8_Rb_treeIN3mpp9ReqParser5StateESt4pairIKS2_NSt7__cxx1112basic_stringIcSt11char_traitsIcESaIcEEEESt10_Select1stISB_ESt4lessIS2_ESaISB_EE22_M_emplace_hint_uniqueIJRKSt21piecewise_construct_tSt5tupleIJOS2_EESM_IJEEEEESt17_Rb_tree_iteratorISB_ESt23_Rb_tree_const_iteratorISB_EDpOT_
.LVL623:
	.loc 26 518 8 view .LVU1874
	movq	%rax, %rdi
.L202:
.LVL624:
.LBB6426:
.LBI6426:
	.loc 11 277 7 is_stmt 1 view .LVU1875
	.loc 11 277 7 is_stmt 0 view .LVU1876
.LBE6426:
	.loc 26 521 16 view .LVU1877
	addq	$40, %rdi
.LVL625:
	.loc 26 521 16 view .LVU1878
.LBE6402:
.LBE6401:
.LBB6427:
.LBI6427:
	.loc 6 703 7 is_stmt 1 view .LVU1879
.LBB6428:
.LBI6428:
	.loc 6 1426 7 view .LVU1880
	.loc 6 1426 7 is_stmt 0 view .LVU1881
.LBE6428:
.LBE6427:
.LBE6913:
.LBE6967:
	.loc 17 320 2 is_stmt 1 view .LVU1882
.LBB6968:
.LBB6914:
.LBB6433:
.LBB6432:
.LBB6429:
.LBB6430:
.LBI6430:
	.loc 6 921 7 view .LVU1883
.LBB6431:
	.loc 6 922 16 is_stmt 0 view .LVU1884
	movq	8(%rdi), %rdx
.LVL626:
	.loc 6 922 16 view .LVU1885
.LBE6431:
.LBE6430:
	.loc 6 1430 30 view .LVU1886
	movl	$5, %r8d
	movl	$.LC14, %ecx
	movl	$0, %esi
	call	_ZNSt7__cxx1112basic_stringIcSt11char_traitsIcESaIcEE10_M_replaceEmmPKcm
.LVL627:
	.loc 6 1430 30 view .LVU1887
.LBE6429:
.LBE6432:
.LBE6433:
	.loc 1 40 2 is_stmt 1 view .LVU1888
	.loc 1 40 18 is_stmt 0 view .LVU1889
	movl	$10, 96(%rsp)
.LVL628:
.LBB6434:
.LBI6434:
	.loc 26 510 7 is_stmt 1 view .LVU1890
.LBB6435:
.LBB6436:
.LBI6436:
	.loc 26 1239 7 view .LVU1891
.LBB6437:
.LBB6438:
.LBI6438:
	.loc 11 1202 7 view .LVU1892
.LBB6439:
.LBB6440:
.LBI6440:
	.loc 11 763 7 view .LVU1893
.LBB6441:
	.loc 11 764 31 is_stmt 0 view .LVU1894
	leaq	8(%rbx), %r14
.LVL629:
	.loc 11 764 31 view .LVU1895
.LBE6441:
.LBE6440:
.LBB6442:
.LBI6442:
	.loc 11 752 7 is_stmt 1 view .LVU1896
.LBB6443:
	.loc 11 753 73 is_stmt 0 view .LVU1897
	movq	16(%rbx), %rsi
.LVL630:
	.loc 11 753 73 view .LVU1898
.LBE6443:
.LBE6442:
	.loc 11 1203 56 view .LVU1899
	leaq	96(%rsp), %rcx
.LVL631:
	.loc 11 1203 56 view .LVU1900
	movq	%r14, %rdx
	movq	%rbx, %rdi
	call	_ZNSt8_Rb_treeIN3mpp9ReqParser5StateESt4pairIKS2_NSt7__cxx1112basic_stringIcSt11char_traitsIcESaIcEEEESt10_Select1stISB_ESt4lessIS2_ESaISB_EE14_M_lower_boundEPSt13_Rb_tree_nodeISB_EPSt18_Rb_tree_node_baseRS4_
.LVL632:
	.loc 11 1203 56 view .LVU1901
.LBE6439:
.LBE6438:
.LBE6437:
.LBE6436:
	.loc 26 515 11 view .LVU1902
	movq	%rax, %rdi
.LVL633:
.LBB6444:
.LBI6444:
	.loc 26 372 7 is_stmt 1 view .LVU1903
.LBB6445:
.LBI6445:
	.loc 11 984 7 view .LVU1904
.LBB6446:
.LBI6446:
	.loc 11 273 7 view .LVU1905
	.loc 11 273 7 is_stmt 0 view .LVU1906
.LBE6446:
.LBE6445:
.LBE6444:
.LBB6447:
.LBI6447:
	.loc 11 315 7 is_stmt 1 view .LVU1907
.LBB6448:
	.loc 11 316 16 is_stmt 0 view .LVU1908
	movq	%rax, %rsi
.LVL634:
	.loc 11 316 16 view .LVU1909
.LBE6448:
.LBE6447:
	.loc 26 517 19 view .LVU1910
	cmpq	%rax, %r14
	je	.L203
.LVL635:
.LBB6449:
.LBI6449:
	.loc 14 385 7 is_stmt 1 view .LVU1911
	.loc 14 385 7 is_stmt 0 view .LVU1912
.LBE6449:
	.loc 26 517 19 view .LVU1913
	movl	32(%rax), %eax
	cmpl	%eax, 96(%rsp)
	jge	.L204
.L203:
.LVL636:
.LBB6450:
.LBI6450:
	.loc 25 1475 5 is_stmt 1 view .LVU1914
.LBB6451:
.LBI6451:
	.loc 25 646 19 view .LVU1915
.LBB6452:
.LBI6452:
	.loc 22 74 5 view .LVU1916
	.loc 22 74 5 is_stmt 0 view .LVU1917
.LBE6452:
.LBB6453:
.LBI6453:
	.loc 25 365 19 is_stmt 1 view .LVU1918
.LBB6454:
.LBI6454:
	.loc 22 74 5 view .LVU1919
	.loc 22 74 5 is_stmt 0 view .LVU1920
.LBE6454:
.LBB6455:
.LBI6455:
	.loc 25 132 19 is_stmt 1 view .LVU1921
.LBB6456:
.LBB6457:
.LBI6457:
	.loc 22 74 5 view .LVU1922
	.loc 22 74 5 is_stmt 0 view .LVU1923
.LBE6457:
	.loc 25 133 42 view .LVU1924
	leaq	96(%rsp), %rax
.LVL637:
	.loc 25 133 42 view .LVU1925
	movq	%rax, 288(%rsp)
.LVL638:
	.loc 25 133 42 view .LVU1926
.LBE6456:
.LBE6455:
.LBE6453:
.LBE6451:
.LBE6450:
.LBB6458:
.LBI6458:
	.loc 11 348 7 is_stmt 1 view .LVU1927
	.loc 11 348 7 is_stmt 0 view .LVU1928
.LBE6458:
	.loc 26 518 8 view .LVU1929
	leaq	303(%rsp), %r8
	leaq	288(%rsp), %rcx
	movl	$_ZStL19piecewise_construct, %edx
	movq	%rbx, %rdi
	call	_ZNSt8_Rb_treeIN3mpp9ReqParser5StateESt4pairIKS2_NSt7__cxx1112basic_stringIcSt11char_traitsIcESaIcEEEESt10_Select1stISB_ESt4lessIS2_ESaISB_EE22_M_emplace_hint_uniqueIJRKSt21piecewise_construct_tSt5tupleIJOS2_EESM_IJEEEEESt17_Rb_tree_iteratorISB_ESt23_Rb_tree_const_iteratorISB_EDpOT_
.LVL639:
	.loc 26 518 8 view .LVU1930
	movq	%rax, %rdi
.L204:
.LVL640:
.LBB6459:
.LBI6459:
	.loc 11 277 7 is_stmt 1 view .LVU1931
	.loc 11 277 7 is_stmt 0 view .LVU1932
.LBE6459:
	.loc 26 521 16 view .LVU1933
	addq	$40, %rdi
.LVL641:
	.loc 26 521 16 view .LVU1934
.LBE6435:
.LBE6434:
.LBB6460:
.LBI6460:
	.loc 6 703 7 is_stmt 1 view .LVU1935
.LBB6461:
.LBI6461:
	.loc 6 1426 7 view .LVU1936
	.loc 6 1426 7 is_stmt 0 view .LVU1937
.LBE6461:
.LBE6460:
.LBE6914:
.LBE6968:
	.loc 17 320 2 is_stmt 1 view .LVU1938
.LBB6969:
.LBB6915:
.LBB6466:
.LBB6465:
.LBB6462:
.LBB6463:
.LBI6463:
	.loc 6 921 7 view .LVU1939
.LBB6464:
	.loc 6 922 16 is_stmt 0 view .LVU1940
	movq	8(%rdi), %rdx
.LVL642:
	.loc 6 922 16 view .LVU1941
.LBE6464:
.LBE6463:
	.loc 6 1430 30 view .LVU1942
	movl	$5, %r8d
	movl	$.LC15, %ecx
	movl	$0, %esi
	call	_ZNSt7__cxx1112basic_stringIcSt11char_traitsIcESaIcEE10_M_replaceEmmPKcm
.LVL643:
	.loc 6 1430 30 view .LVU1943
.LBE6462:
.LBE6465:
.LBE6466:
	.loc 1 41 2 is_stmt 1 view .LVU1944
	.loc 1 41 27 is_stmt 0 view .LVU1945
	movl	$11, 100(%rsp)
.LVL644:
.LBB6467:
.LBI6467:
	.loc 26 510 7 is_stmt 1 view .LVU1946
.LBB6468:
.LBB6469:
.LBI6469:
	.loc 26 1239 7 view .LVU1947
.LBB6470:
.LBB6471:
.LBI6471:
	.loc 11 1202 7 view .LVU1948
.LBB6472:
.LBB6473:
.LBI6473:
	.loc 11 763 7 view .LVU1949
.LBB6474:
	.loc 11 764 31 is_stmt 0 view .LVU1950
	leaq	8(%rbx), %r14
.LVL645:
	.loc 11 764 31 view .LVU1951
.LBE6474:
.LBE6473:
.LBB6475:
.LBI6475:
	.loc 11 752 7 is_stmt 1 view .LVU1952
.LBB6476:
	.loc 11 753 73 is_stmt 0 view .LVU1953
	movq	16(%rbx), %rsi
.LVL646:
	.loc 11 753 73 view .LVU1954
.LBE6476:
.LBE6475:
	.loc 11 1203 56 view .LVU1955
	leaq	100(%rsp), %rcx
.LVL647:
	.loc 11 1203 56 view .LVU1956
	movq	%r14, %rdx
	movq	%rbx, %rdi
	call	_ZNSt8_Rb_treeIN3mpp9ReqParser5StateESt4pairIKS2_NSt7__cxx1112basic_stringIcSt11char_traitsIcESaIcEEEESt10_Select1stISB_ESt4lessIS2_ESaISB_EE14_M_lower_boundEPSt13_Rb_tree_nodeISB_EPSt18_Rb_tree_node_baseRS4_
.LVL648:
	.loc 11 1203 56 view .LVU1957
.LBE6472:
.LBE6471:
.LBE6470:
.LBE6469:
	.loc 26 515 11 view .LVU1958
	movq	%rax, %rdi
.LVL649:
.LBB6477:
.LBI6477:
	.loc 26 372 7 is_stmt 1 view .LVU1959
.LBB6478:
.LBI6478:
	.loc 11 984 7 view .LVU1960
.LBB6479:
.LBI6479:
	.loc 11 273 7 view .LVU1961
	.loc 11 273 7 is_stmt 0 view .LVU1962
.LBE6479:
.LBE6478:
.LBE6477:
.LBB6480:
.LBI6480:
	.loc 11 315 7 is_stmt 1 view .LVU1963
.LBB6481:
	.loc 11 316 16 is_stmt 0 view .LVU1964
	movq	%rax, %rsi
.LVL650:
	.loc 11 316 16 view .LVU1965
.LBE6481:
.LBE6480:
	.loc 26 517 19 view .LVU1966
	cmpq	%rax, %r14
	je	.L205
.LVL651:
.LBB6482:
.LBI6482:
	.loc 14 385 7 is_stmt 1 view .LVU1967
	.loc 14 385 7 is_stmt 0 view .LVU1968
.LBE6482:
	.loc 26 517 19 view .LVU1969
	movl	32(%rax), %eax
	cmpl	%eax, 100(%rsp)
	jge	.L206
.L205:
.LVL652:
.LBB6483:
.LBI6483:
	.loc 25 1475 5 is_stmt 1 view .LVU1970
.LBB6484:
.LBI6484:
	.loc 25 646 19 view .LVU1971
.LBB6485:
.LBI6485:
	.loc 22 74 5 view .LVU1972
	.loc 22 74 5 is_stmt 0 view .LVU1973
.LBE6485:
.LBB6486:
.LBI6486:
	.loc 25 365 19 is_stmt 1 view .LVU1974
.LBB6487:
.LBI6487:
	.loc 22 74 5 view .LVU1975
	.loc 22 74 5 is_stmt 0 view .LVU1976
.LBE6487:
.LBB6488:
.LBI6488:
	.loc 25 132 19 is_stmt 1 view .LVU1977
.LBB6489:
.LBB6490:
.LBI6490:
	.loc 22 74 5 view .LVU1978
	.loc 22 74 5 is_stmt 0 view .LVU1979
.LBE6490:
	.loc 25 133 42 view .LVU1980
	leaq	100(%rsp), %rax
.LVL653:
	.loc 25 133 42 view .LVU1981
	movq	%rax, 304(%rsp)
.LVL654:
	.loc 25 133 42 view .LVU1982
.LBE6489:
.LBE6488:
.LBE6486:
.LBE6484:
.LBE6483:
.LBB6491:
.LBI6491:
	.loc 11 348 7 is_stmt 1 view .LVU1983
	.loc 11 348 7 is_stmt 0 view .LVU1984
.LBE6491:
	.loc 26 518 8 view .LVU1985
	leaq	319(%rsp), %r8
	leaq	304(%rsp), %rcx
	movl	$_ZStL19piecewise_construct, %edx
	movq	%rbx, %rdi
	call	_ZNSt8_Rb_treeIN3mpp9ReqParser5StateESt4pairIKS2_NSt7__cxx1112basic_stringIcSt11char_traitsIcESaIcEEEESt10_Select1stISB_ESt4lessIS2_ESaISB_EE22_M_emplace_hint_uniqueIJRKSt21piecewise_construct_tSt5tupleIJOS2_EESM_IJEEEEESt17_Rb_tree_iteratorISB_ESt23_Rb_tree_const_iteratorISB_EDpOT_
.LVL655:
	.loc 26 518 8 view .LVU1986
	movq	%rax, %rdi
.L206:
.LVL656:
.LBB6492:
.LBI6492:
	.loc 11 277 7 is_stmt 1 view .LVU1987
	.loc 11 277 7 is_stmt 0 view .LVU1988
.LBE6492:
	.loc 26 521 16 view .LVU1989
	addq	$40, %rdi
.LVL657:
	.loc 26 521 16 view .LVU1990
.LBE6468:
.LBE6467:
.LBB6493:
.LBI6493:
	.loc 6 703 7 is_stmt 1 view .LVU1991
.LBB6494:
.LBI6494:
	.loc 6 1426 7 view .LVU1992
	.loc 6 1426 7 is_stmt 0 view .LVU1993
.LBE6494:
.LBE6493:
.LBE6915:
.LBE6969:
	.loc 17 320 2 is_stmt 1 view .LVU1994
.LBB6970:
.LBB6916:
.LBB6499:
.LBB6498:
.LBB6495:
.LBB6496:
.LBI6496:
	.loc 6 921 7 view .LVU1995
.LBB6497:
	.loc 6 922 16 is_stmt 0 view .LVU1996
	movq	8(%rdi), %rdx
.LVL658:
	.loc 6 922 16 view .LVU1997
.LBE6497:
.LBE6496:
	.loc 6 1430 30 view .LVU1998
	movl	$14, %r8d
	movl	$.LC16, %ecx
	movl	$0, %esi
	call	_ZNSt7__cxx1112basic_stringIcSt11char_traitsIcESaIcEE10_M_replaceEmmPKcm
.LVL659:
	.loc 6 1430 30 view .LVU1999
.LBE6495:
.LBE6498:
.LBE6499:
	.loc 1 42 2 is_stmt 1 view .LVU2000
	.loc 1 42 28 is_stmt 0 view .LVU2001
	movl	$12, 104(%rsp)
.LVL660:
.LBB6500:
.LBI6500:
	.loc 26 510 7 is_stmt 1 view .LVU2002
.LBB6501:
.LBB6502:
.LBI6502:
	.loc 26 1239 7 view .LVU2003
.LBB6503:
.LBB6504:
.LBI6504:
	.loc 11 1202 7 view .LVU2004
.LBB6505:
.LBB6506:
.LBI6506:
	.loc 11 763 7 view .LVU2005
.LBB6507:
	.loc 11 764 31 is_stmt 0 view .LVU2006
	leaq	8(%rbx), %r14
.LVL661:
	.loc 11 764 31 view .LVU2007
.LBE6507:
.LBE6506:
.LBB6508:
.LBI6508:
	.loc 11 752 7 is_stmt 1 view .LVU2008
.LBB6509:
	.loc 11 753 73 is_stmt 0 view .LVU2009
	movq	16(%rbx), %rsi
.LVL662:
	.loc 11 753 73 view .LVU2010
.LBE6509:
.LBE6508:
	.loc 11 1203 56 view .LVU2011
	leaq	104(%rsp), %rcx
.LVL663:
	.loc 11 1203 56 view .LVU2012
	movq	%r14, %rdx
	movq	%rbx, %rdi
	call	_ZNSt8_Rb_treeIN3mpp9ReqParser5StateESt4pairIKS2_NSt7__cxx1112basic_stringIcSt11char_traitsIcESaIcEEEESt10_Select1stISB_ESt4lessIS2_ESaISB_EE14_M_lower_boundEPSt13_Rb_tree_nodeISB_EPSt18_Rb_tree_node_baseRS4_
.LVL664:
	.loc 11 1203 56 view .LVU2013
.LBE6505:
.LBE6504:
.LBE6503:
.LBE6502:
	.loc 26 515 11 view .LVU2014
	movq	%rax, %rdi
.LVL665:
.LBB6510:
.LBI6510:
	.loc 26 372 7 is_stmt 1 view .LVU2015
.LBB6511:
.LBI6511:
	.loc 11 984 7 view .LVU2016
.LBB6512:
.LBI6512:
	.loc 11 273 7 view .LVU2017
	.loc 11 273 7 is_stmt 0 view .LVU2018
.LBE6512:
.LBE6511:
.LBE6510:
.LBB6513:
.LBI6513:
	.loc 11 315 7 is_stmt 1 view .LVU2019
.LBB6514:
	.loc 11 316 16 is_stmt 0 view .LVU2020
	movq	%rax, %rsi
.LVL666:
	.loc 11 316 16 view .LVU2021
.LBE6514:
.LBE6513:
	.loc 26 517 19 view .LVU2022
	cmpq	%rax, %r14
	je	.L207
.LVL667:
.LBB6515:
.LBI6515:
	.loc 14 385 7 is_stmt 1 view .LVU2023
	.loc 14 385 7 is_stmt 0 view .LVU2024
.LBE6515:
	.loc 26 517 19 view .LVU2025
	movl	32(%rax), %eax
	cmpl	%eax, 104(%rsp)
	jge	.L208
.L207:
.LVL668:
.LBB6516:
.LBI6516:
	.loc 25 1475 5 is_stmt 1 view .LVU2026
.LBB6517:
.LBI6517:
	.loc 25 646 19 view .LVU2027
.LBB6518:
.LBI6518:
	.loc 22 74 5 view .LVU2028
	.loc 22 74 5 is_stmt 0 view .LVU2029
.LBE6518:
.LBB6519:
.LBI6519:
	.loc 25 365 19 is_stmt 1 view .LVU2030
.LBB6520:
.LBI6520:
	.loc 22 74 5 view .LVU2031
	.loc 22 74 5 is_stmt 0 view .LVU2032
.LBE6520:
.LBB6521:
.LBI6521:
	.loc 25 132 19 is_stmt 1 view .LVU2033
.LBB6522:
.LBB6523:
.LBI6523:
	.loc 22 74 5 view .LVU2034
	.loc 22 74 5 is_stmt 0 view .LVU2035
.LBE6523:
	.loc 25 133 42 view .LVU2036
	leaq	104(%rsp), %rax
.LVL669:
	.loc 25 133 42 view .LVU2037
	movq	%rax, 320(%rsp)
.LVL670:
	.loc 25 133 42 view .LVU2038
.LBE6522:
.LBE6521:
.LBE6519:
.LBE6517:
.LBE6516:
.LBB6524:
.LBI6524:
	.loc 11 348 7 is_stmt 1 view .LVU2039
	.loc 11 348 7 is_stmt 0 view .LVU2040
.LBE6524:
	.loc 26 518 8 view .LVU2041
	leaq	335(%rsp), %r8
	leaq	320(%rsp), %rcx
	movl	$_ZStL19piecewise_construct, %edx
	movq	%rbx, %rdi
	call	_ZNSt8_Rb_treeIN3mpp9ReqParser5StateESt4pairIKS2_NSt7__cxx1112basic_stringIcSt11char_traitsIcESaIcEEEESt10_Select1stISB_ESt4lessIS2_ESaISB_EE22_M_emplace_hint_uniqueIJRKSt21piecewise_construct_tSt5tupleIJOS2_EESM_IJEEEEESt17_Rb_tree_iteratorISB_ESt23_Rb_tree_const_iteratorISB_EDpOT_
.LVL671:
	.loc 26 518 8 view .LVU2042
	movq	%rax, %rdi
.L208:
.LVL672:
.LBB6525:
.LBI6525:
	.loc 11 277 7 is_stmt 1 view .LVU2043
	.loc 11 277 7 is_stmt 0 view .LVU2044
.LBE6525:
	.loc 26 521 16 view .LVU2045
	addq	$40, %rdi
.LVL673:
	.loc 26 521 16 view .LVU2046
.LBE6501:
.LBE6500:
.LBB6526:
.LBI6526:
	.loc 6 703 7 is_stmt 1 view .LVU2047
.LBB6527:
.LBI6527:
	.loc 6 1426 7 view .LVU2048
	.loc 6 1426 7 is_stmt 0 view .LVU2049
.LBE6527:
.LBE6526:
.LBE6916:
.LBE6970:
	.loc 17 320 2 is_stmt 1 view .LVU2050
.LBB6971:
.LBB6917:
.LBB6532:
.LBB6531:
.LBB6528:
.LBB6529:
.LBI6529:
	.loc 6 921 7 view .LVU2051
.LBB6530:
	.loc 6 922 16 is_stmt 0 view .LVU2052
	movq	8(%rdi), %rdx
.LVL674:
	.loc 6 922 16 view .LVU2053
.LBE6530:
.LBE6529:
	.loc 6 1430 30 view .LVU2054
	movl	$15, %r8d
	movl	$.LC17, %ecx
	movl	$0, %esi
	call	_ZNSt7__cxx1112basic_stringIcSt11char_traitsIcESaIcEE10_M_replaceEmmPKcm
.LVL675:
	.loc 6 1430 30 view .LVU2055
.LBE6528:
.LBE6531:
.LBE6532:
	.loc 1 43 2 is_stmt 1 view .LVU2056
	.loc 1 43 28 is_stmt 0 view .LVU2057
	movl	$13, 108(%rsp)
.LVL676:
.LBB6533:
.LBI6533:
	.loc 26 510 7 is_stmt 1 view .LVU2058
.LBB6534:
.LBB6535:
.LBI6535:
	.loc 26 1239 7 view .LVU2059
.LBB6536:
.LBB6537:
.LBI6537:
	.loc 11 1202 7 view .LVU2060
.LBB6538:
.LBB6539:
.LBI6539:
	.loc 11 763 7 view .LVU2061
.LBB6540:
	.loc 11 764 31 is_stmt 0 view .LVU2062
	leaq	8(%rbx), %r14
.LVL677:
	.loc 11 764 31 view .LVU2063
.LBE6540:
.LBE6539:
.LBB6541:
.LBI6541:
	.loc 11 752 7 is_stmt 1 view .LVU2064
.LBB6542:
	.loc 11 753 73 is_stmt 0 view .LVU2065
	movq	16(%rbx), %rsi
.LVL678:
	.loc 11 753 73 view .LVU2066
.LBE6542:
.LBE6541:
	.loc 11 1203 56 view .LVU2067
	leaq	108(%rsp), %rcx
.LVL679:
	.loc 11 1203 56 view .LVU2068
	movq	%r14, %rdx
	movq	%rbx, %rdi
	call	_ZNSt8_Rb_treeIN3mpp9ReqParser5StateESt4pairIKS2_NSt7__cxx1112basic_stringIcSt11char_traitsIcESaIcEEEESt10_Select1stISB_ESt4lessIS2_ESaISB_EE14_M_lower_boundEPSt13_Rb_tree_nodeISB_EPSt18_Rb_tree_node_baseRS4_
.LVL680:
	.loc 11 1203 56 view .LVU2069
.LBE6538:
.LBE6537:
.LBE6536:
.LBE6535:
	.loc 26 515 11 view .LVU2070
	movq	%rax, %rdi
.LVL681:
.LBB6543:
.LBI6543:
	.loc 26 372 7 is_stmt 1 view .LVU2071
.LBB6544:
.LBI6544:
	.loc 11 984 7 view .LVU2072
.LBB6545:
.LBI6545:
	.loc 11 273 7 view .LVU2073
	.loc 11 273 7 is_stmt 0 view .LVU2074
.LBE6545:
.LBE6544:
.LBE6543:
.LBB6546:
.LBI6546:
	.loc 11 315 7 is_stmt 1 view .LVU2075
.LBB6547:
	.loc 11 316 16 is_stmt 0 view .LVU2076
	movq	%rax, %rsi
.LVL682:
	.loc 11 316 16 view .LVU2077
.LBE6547:
.LBE6546:
	.loc 26 517 19 view .LVU2078
	cmpq	%rax, %r14
	je	.L209
.LVL683:
.LBB6548:
.LBI6548:
	.loc 14 385 7 is_stmt 1 view .LVU2079
	.loc 14 385 7 is_stmt 0 view .LVU2080
.LBE6548:
	.loc 26 517 19 view .LVU2081
	movl	32(%rax), %eax
	cmpl	%eax, 108(%rsp)
	jge	.L210
.L209:
.LVL684:
.LBB6549:
.LBI6549:
	.loc 25 1475 5 is_stmt 1 view .LVU2082
.LBB6550:
.LBI6550:
	.loc 25 646 19 view .LVU2083
.LBB6551:
.LBI6551:
	.loc 22 74 5 view .LVU2084
	.loc 22 74 5 is_stmt 0 view .LVU2085
.LBE6551:
.LBB6552:
.LBI6552:
	.loc 25 365 19 is_stmt 1 view .LVU2086
.LBB6553:
.LBI6553:
	.loc 22 74 5 view .LVU2087
	.loc 22 74 5 is_stmt 0 view .LVU2088
.LBE6553:
.LBB6554:
.LBI6554:
	.loc 25 132 19 is_stmt 1 view .LVU2089
.LBB6555:
.LBB6556:
.LBI6556:
	.loc 22 74 5 view .LVU2090
	.loc 22 74 5 is_stmt 0 view .LVU2091
.LBE6556:
	.loc 25 133 42 view .LVU2092
	leaq	108(%rsp), %rax
.LVL685:
	.loc 25 133 42 view .LVU2093
	movq	%rax, 336(%rsp)
.LVL686:
	.loc 25 133 42 view .LVU2094
.LBE6555:
.LBE6554:
.LBE6552:
.LBE6550:
.LBE6549:
.LBB6557:
.LBI6557:
	.loc 11 348 7 is_stmt 1 view .LVU2095
	.loc 11 348 7 is_stmt 0 view .LVU2096
.LBE6557:
	.loc 26 518 8 view .LVU2097
	leaq	351(%rsp), %r8
	leaq	336(%rsp), %rcx
	movl	$_ZStL19piecewise_construct, %edx
	movq	%rbx, %rdi
	call	_ZNSt8_Rb_treeIN3mpp9ReqParser5StateESt4pairIKS2_NSt7__cxx1112basic_stringIcSt11char_traitsIcESaIcEEEESt10_Select1stISB_ESt4lessIS2_ESaISB_EE22_M_emplace_hint_uniqueIJRKSt21piecewise_construct_tSt5tupleIJOS2_EESM_IJEEEEESt17_Rb_tree_iteratorISB_ESt23_Rb_tree_const_iteratorISB_EDpOT_
.LVL687:
	.loc 26 518 8 view .LVU2098
	movq	%rax, %rdi
.L210:
.LVL688:
.LBB6558:
.LBI6558:
	.loc 11 277 7 is_stmt 1 view .LVU2099
	.loc 11 277 7 is_stmt 0 view .LVU2100
.LBE6558:
	.loc 26 521 16 view .LVU2101
	addq	$40, %rdi
.LVL689:
	.loc 26 521 16 view .LVU2102
.LBE6534:
.LBE6533:
.LBB6559:
.LBI6559:
	.loc 6 703 7 is_stmt 1 view .LVU2103
.LBB6560:
.LBI6560:
	.loc 6 1426 7 view .LVU2104
	.loc 6 1426 7 is_stmt 0 view .LVU2105
.LBE6560:
.LBE6559:
.LBE6917:
.LBE6971:
	.loc 17 320 2 is_stmt 1 view .LVU2106
.LBB6972:
.LBB6918:
.LBB6565:
.LBB6564:
.LBB6561:
.LBB6562:
.LBI6562:
	.loc 6 921 7 view .LVU2107
.LBB6563:
	.loc 6 922 16 is_stmt 0 view .LVU2108
	movq	8(%rdi), %rdx
.LVL690:
	.loc 6 922 16 view .LVU2109
.LBE6563:
.LBE6562:
	.loc 6 1430 30 view .LVU2110
	movl	$15, %r8d
	movl	$.LC18, %ecx
	movl	$0, %esi
	call	_ZNSt7__cxx1112basic_stringIcSt11char_traitsIcESaIcEE10_M_replaceEmmPKcm
.LVL691:
	.loc 6 1430 30 view .LVU2111
.LBE6561:
.LBE6564:
.LBE6565:
	.loc 1 44 2 is_stmt 1 view .LVU2112
	.loc 1 44 21 is_stmt 0 view .LVU2113
	movl	$14, 112(%rsp)
.LVL692:
.LBB6566:
.LBI6566:
	.loc 26 510 7 is_stmt 1 view .LVU2114
.LBB6567:
.LBB6568:
.LBI6568:
	.loc 26 1239 7 view .LVU2115
.LBB6569:
.LBB6570:
.LBI6570:
	.loc 11 1202 7 view .LVU2116
.LBB6571:
.LBB6572:
.LBI6572:
	.loc 11 763 7 view .LVU2117
.LBB6573:
	.loc 11 764 31 is_stmt 0 view .LVU2118
	leaq	8(%rbx), %r14
.LVL693:
	.loc 11 764 31 view .LVU2119
.LBE6573:
.LBE6572:
.LBB6574:
.LBI6574:
	.loc 11 752 7 is_stmt 1 view .LVU2120
.LBB6575:
	.loc 11 753 73 is_stmt 0 view .LVU2121
	movq	16(%rbx), %rsi
.LVL694:
	.loc 11 753 73 view .LVU2122
.LBE6575:
.LBE6574:
	.loc 11 1203 56 view .LVU2123
	leaq	112(%rsp), %rcx
.LVL695:
	.loc 11 1203 56 view .LVU2124
	movq	%r14, %rdx
	movq	%rbx, %rdi
	call	_ZNSt8_Rb_treeIN3mpp9ReqParser5StateESt4pairIKS2_NSt7__cxx1112basic_stringIcSt11char_traitsIcESaIcEEEESt10_Select1stISB_ESt4lessIS2_ESaISB_EE14_M_lower_boundEPSt13_Rb_tree_nodeISB_EPSt18_Rb_tree_node_baseRS4_
.LVL696:
	.loc 11 1203 56 view .LVU2125
.LBE6571:
.LBE6570:
.LBE6569:
.LBE6568:
	.loc 26 515 11 view .LVU2126
	movq	%rax, %rdi
.LVL697:
.LBB6576:
.LBI6576:
	.loc 26 372 7 is_stmt 1 view .LVU2127
.LBB6577:
.LBI6577:
	.loc 11 984 7 view .LVU2128
.LBB6578:
.LBI6578:
	.loc 11 273 7 view .LVU2129
	.loc 11 273 7 is_stmt 0 view .LVU2130
.LBE6578:
.LBE6577:
.LBE6576:
.LBB6579:
.LBI6579:
	.loc 11 315 7 is_stmt 1 view .LVU2131
.LBB6580:
	.loc 11 316 16 is_stmt 0 view .LVU2132
	movq	%rax, %rsi
.LVL698:
	.loc 11 316 16 view .LVU2133
.LBE6580:
.LBE6579:
	.loc 26 517 19 view .LVU2134
	cmpq	%rax, %r14
	je	.L211
.LVL699:
.LBB6581:
.LBI6581:
	.loc 14 385 7 is_stmt 1 view .LVU2135
	.loc 14 385 7 is_stmt 0 view .LVU2136
.LBE6581:
	.loc 26 517 19 view .LVU2137
	movl	32(%rax), %eax
	cmpl	%eax, 112(%rsp)
	jge	.L212
.L211:
.LVL700:
.LBB6582:
.LBI6582:
	.loc 25 1475 5 is_stmt 1 view .LVU2138
.LBB6583:
.LBI6583:
	.loc 25 646 19 view .LVU2139
.LBB6584:
.LBI6584:
	.loc 22 74 5 view .LVU2140
	.loc 22 74 5 is_stmt 0 view .LVU2141
.LBE6584:
.LBB6585:
.LBI6585:
	.loc 25 365 19 is_stmt 1 view .LVU2142
.LBB6586:
.LBI6586:
	.loc 22 74 5 view .LVU2143
	.loc 22 74 5 is_stmt 0 view .LVU2144
.LBE6586:
.LBB6587:
.LBI6587:
	.loc 25 132 19 is_stmt 1 view .LVU2145
.LBB6588:
.LBB6589:
.LBI6589:
	.loc 22 74 5 view .LVU2146
	.loc 22 74 5 is_stmt 0 view .LVU2147
.LBE6589:
	.loc 25 133 42 view .LVU2148
	leaq	112(%rsp), %rax
.LVL701:
	.loc 25 133 42 view .LVU2149
	movq	%rax, 352(%rsp)
.LVL702:
	.loc 25 133 42 view .LVU2150
.LBE6588:
.LBE6587:
.LBE6585:
.LBE6583:
.LBE6582:
.LBB6590:
.LBI6590:
	.loc 11 348 7 is_stmt 1 view .LVU2151
	.loc 11 348 7 is_stmt 0 view .LVU2152
.LBE6590:
	.loc 26 518 8 view .LVU2153
	leaq	367(%rsp), %r8
	leaq	352(%rsp), %rcx
	movl	$_ZStL19piecewise_construct, %edx
	movq	%rbx, %rdi
	call	_ZNSt8_Rb_treeIN3mpp9ReqParser5StateESt4pairIKS2_NSt7__cxx1112basic_stringIcSt11char_traitsIcESaIcEEEESt10_Select1stISB_ESt4lessIS2_ESaISB_EE22_M_emplace_hint_uniqueIJRKSt21piecewise_construct_tSt5tupleIJOS2_EESM_IJEEEEESt17_Rb_tree_iteratorISB_ESt23_Rb_tree_const_iteratorISB_EDpOT_
.LVL703:
	.loc 26 518 8 view .LVU2154
	movq	%rax, %rdi
.L212:
.LVL704:
.LBB6591:
.LBI6591:
	.loc 11 277 7 is_stmt 1 view .LVU2155
	.loc 11 277 7 is_stmt 0 view .LVU2156
.LBE6591:
	.loc 26 521 16 view .LVU2157
	addq	$40, %rdi
.LVL705:
	.loc 26 521 16 view .LVU2158
.LBE6567:
.LBE6566:
.LBB6592:
.LBI6592:
	.loc 6 703 7 is_stmt 1 view .LVU2159
.LBB6593:
.LBI6593:
	.loc 6 1426 7 view .LVU2160
	.loc 6 1426 7 is_stmt 0 view .LVU2161
.LBE6593:
.LBE6592:
.LBE6918:
.LBE6972:
	.loc 17 320 2 is_stmt 1 view .LVU2162
.LBB6973:
.LBB6919:
.LBB6598:
.LBB6597:
.LBB6594:
.LBB6595:
.LBI6595:
	.loc 6 921 7 view .LVU2163
.LBB6596:
	.loc 6 922 16 is_stmt 0 view .LVU2164
	movq	8(%rdi), %rdx
.LVL706:
	.loc 6 922 16 view .LVU2165
.LBE6596:
.LBE6595:
	.loc 6 1430 30 view .LVU2166
	movl	$8, %r8d
	movl	$.LC19, %ecx
	movl	$0, %esi
	call	_ZNSt7__cxx1112basic_stringIcSt11char_traitsIcESaIcEE10_M_replaceEmmPKcm
.LVL707:
	.loc 6 1430 30 view .LVU2167
.LBE6594:
.LBE6597:
.LBE6598:
	.loc 1 45 2 is_stmt 1 view .LVU2168
	.loc 1 45 21 is_stmt 0 view .LVU2169
	movl	$15, 116(%rsp)
.LVL708:
.LBB6599:
.LBI6599:
	.loc 26 510 7 is_stmt 1 view .LVU2170
.LBB6600:
.LBB6601:
.LBI6601:
	.loc 26 1239 7 view .LVU2171
.LBB6602:
.LBB6603:
.LBI6603:
	.loc 11 1202 7 view .LVU2172
.LBB6604:
.LBB6605:
.LBI6605:
	.loc 11 763 7 view .LVU2173
.LBB6606:
	.loc 11 764 31 is_stmt 0 view .LVU2174
	leaq	8(%rbx), %r14
.LVL709:
	.loc 11 764 31 view .LVU2175
.LBE6606:
.LBE6605:
.LBB6607:
.LBI6607:
	.loc 11 752 7 is_stmt 1 view .LVU2176
.LBB6608:
	.loc 11 753 73 is_stmt 0 view .LVU2177
	movq	16(%rbx), %rsi
.LVL710:
	.loc 11 753 73 view .LVU2178
.LBE6608:
.LBE6607:
	.loc 11 1203 56 view .LVU2179
	leaq	116(%rsp), %rcx
.LVL711:
	.loc 11 1203 56 view .LVU2180
	movq	%r14, %rdx
	movq	%rbx, %rdi
	call	_ZNSt8_Rb_treeIN3mpp9ReqParser5StateESt4pairIKS2_NSt7__cxx1112basic_stringIcSt11char_traitsIcESaIcEEEESt10_Select1stISB_ESt4lessIS2_ESaISB_EE14_M_lower_boundEPSt13_Rb_tree_nodeISB_EPSt18_Rb_tree_node_baseRS4_
.LVL712:
	.loc 11 1203 56 view .LVU2181
.LBE6604:
.LBE6603:
.LBE6602:
.LBE6601:
	.loc 26 515 11 view .LVU2182
	movq	%rax, %rdi
.LVL713:
.LBB6609:
.LBI6609:
	.loc 26 372 7 is_stmt 1 view .LVU2183
.LBB6610:
.LBI6610:
	.loc 11 984 7 view .LVU2184
.LBB6611:
.LBI6611:
	.loc 11 273 7 view .LVU2185
	.loc 11 273 7 is_stmt 0 view .LVU2186
.LBE6611:
.LBE6610:
.LBE6609:
.LBB6612:
.LBI6612:
	.loc 11 315 7 is_stmt 1 view .LVU2187
.LBB6613:
	.loc 11 316 16 is_stmt 0 view .LVU2188
	movq	%rax, %rsi
.LVL714:
	.loc 11 316 16 view .LVU2189
.LBE6613:
.LBE6612:
	.loc 26 517 19 view .LVU2190
	cmpq	%rax, %r14
	je	.L213
.LVL715:
.LBB6614:
.LBI6614:
	.loc 14 385 7 is_stmt 1 view .LVU2191
	.loc 14 385 7 is_stmt 0 view .LVU2192
.LBE6614:
	.loc 26 517 19 view .LVU2193
	movl	32(%rax), %eax
	cmpl	%eax, 116(%rsp)
	jge	.L214
.L213:
.LVL716:
.LBB6615:
.LBI6615:
	.loc 25 1475 5 is_stmt 1 view .LVU2194
.LBB6616:
.LBI6616:
	.loc 25 646 19 view .LVU2195
.LBB6617:
.LBI6617:
	.loc 22 74 5 view .LVU2196
	.loc 22 74 5 is_stmt 0 view .LVU2197
.LBE6617:
.LBB6618:
.LBI6618:
	.loc 25 365 19 is_stmt 1 view .LVU2198
.LBB6619:
.LBI6619:
	.loc 22 74 5 view .LVU2199
	.loc 22 74 5 is_stmt 0 view .LVU2200
.LBE6619:
.LBB6620:
.LBI6620:
	.loc 25 132 19 is_stmt 1 view .LVU2201
.LBB6621:
.LBB6622:
.LBI6622:
	.loc 22 74 5 view .LVU2202
	.loc 22 74 5 is_stmt 0 view .LVU2203
.LBE6622:
	.loc 25 133 42 view .LVU2204
	leaq	116(%rsp), %rax
.LVL717:
	.loc 25 133 42 view .LVU2205
	movq	%rax, 368(%rsp)
.LVL718:
	.loc 25 133 42 view .LVU2206
.LBE6621:
.LBE6620:
.LBE6618:
.LBE6616:
.LBE6615:
.LBB6623:
.LBI6623:
	.loc 11 348 7 is_stmt 1 view .LVU2207
	.loc 11 348 7 is_stmt 0 view .LVU2208
.LBE6623:
	.loc 26 518 8 view .LVU2209
	leaq	383(%rsp), %r8
	leaq	368(%rsp), %rcx
	movl	$_ZStL19piecewise_construct, %edx
	movq	%rbx, %rdi
	call	_ZNSt8_Rb_treeIN3mpp9ReqParser5StateESt4pairIKS2_NSt7__cxx1112basic_stringIcSt11char_traitsIcESaIcEEEESt10_Select1stISB_ESt4lessIS2_ESaISB_EE22_M_emplace_hint_uniqueIJRKSt21piecewise_construct_tSt5tupleIJOS2_EESM_IJEEEEESt17_Rb_tree_iteratorISB_ESt23_Rb_tree_const_iteratorISB_EDpOT_
.LVL719:
	.loc 26 518 8 view .LVU2210
	movq	%rax, %rdi
.L214:
.LVL720:
.LBB6624:
.LBI6624:
	.loc 11 277 7 is_stmt 1 view .LVU2211
	.loc 11 277 7 is_stmt 0 view .LVU2212
.LBE6624:
	.loc 26 521 16 view .LVU2213
	addq	$40, %rdi
.LVL721:
	.loc 26 521 16 view .LVU2214
.LBE6600:
.LBE6599:
.LBB6625:
.LBI6625:
	.loc 6 703 7 is_stmt 1 view .LVU2215
.LBB6626:
.LBI6626:
	.loc 6 1426 7 view .LVU2216
	.loc 6 1426 7 is_stmt 0 view .LVU2217
.LBE6626:
.LBE6625:
.LBE6919:
.LBE6973:
	.loc 17 320 2 is_stmt 1 view .LVU2218
.LBB6974:
.LBB6920:
.LBB6631:
.LBB6630:
.LBB6627:
.LBB6628:
.LBI6628:
	.loc 6 921 7 view .LVU2219
.LBB6629:
	.loc 6 922 16 is_stmt 0 view .LVU2220
	movq	8(%rdi), %rdx
.LVL722:
	.loc 6 922 16 view .LVU2221
.LBE6629:
.LBE6628:
	.loc 6 1430 30 view .LVU2222
	movl	$8, %r8d
	movl	$.LC20, %ecx
	movl	$0, %esi
	call	_ZNSt7__cxx1112basic_stringIcSt11char_traitsIcESaIcEE10_M_replaceEmmPKcm
.LVL723:
	.loc 6 1430 30 view .LVU2223
.LBE6627:
.LBE6630:
.LBE6631:
	.loc 1 46 2 is_stmt 1 view .LVU2224
	.loc 1 46 18 is_stmt 0 view .LVU2225
	movl	$16, 120(%rsp)
.LVL724:
.LBB6632:
.LBI6632:
	.loc 26 510 7 is_stmt 1 view .LVU2226
.LBB6633:
.LBB6634:
.LBI6634:
	.loc 26 1239 7 view .LVU2227
.LBB6635:
.LBB6636:
.LBI6636:
	.loc 11 1202 7 view .LVU2228
.LBB6637:
.LBB6638:
.LBI6638:
	.loc 11 763 7 view .LVU2229
.LBB6639:
	.loc 11 764 31 is_stmt 0 view .LVU2230
	leaq	8(%rbx), %r14
.LVL725:
	.loc 11 764 31 view .LVU2231
.LBE6639:
.LBE6638:
.LBB6640:
.LBI6640:
	.loc 11 752 7 is_stmt 1 view .LVU2232
.LBB6641:
	.loc 11 753 73 is_stmt 0 view .LVU2233
	movq	16(%rbx), %rsi
.LVL726:
	.loc 11 753 73 view .LVU2234
.LBE6641:
.LBE6640:
	.loc 11 1203 56 view .LVU2235
	leaq	120(%rsp), %rcx
.LVL727:
	.loc 11 1203 56 view .LVU2236
	movq	%r14, %rdx
	movq	%rbx, %rdi
	call	_ZNSt8_Rb_treeIN3mpp9ReqParser5StateESt4pairIKS2_NSt7__cxx1112basic_stringIcSt11char_traitsIcESaIcEEEESt10_Select1stISB_ESt4lessIS2_ESaISB_EE14_M_lower_boundEPSt13_Rb_tree_nodeISB_EPSt18_Rb_tree_node_baseRS4_
.LVL728:
	.loc 11 1203 56 view .LVU2237
.LBE6637:
.LBE6636:
.LBE6635:
.LBE6634:
	.loc 26 515 11 view .LVU2238
	movq	%rax, %rdi
.LVL729:
.LBB6642:
.LBI6642:
	.loc 26 372 7 is_stmt 1 view .LVU2239
.LBB6643:
.LBI6643:
	.loc 11 984 7 view .LVU2240
.LBB6644:
.LBI6644:
	.loc 11 273 7 view .LVU2241
	.loc 11 273 7 is_stmt 0 view .LVU2242
.LBE6644:
.LBE6643:
.LBE6642:
.LBB6645:
.LBI6645:
	.loc 11 315 7 is_stmt 1 view .LVU2243
.LBB6646:
	.loc 11 316 16 is_stmt 0 view .LVU2244
	movq	%rax, %rsi
.LVL730:
	.loc 11 316 16 view .LVU2245
.LBE6646:
.LBE6645:
	.loc 26 517 19 view .LVU2246
	cmpq	%rax, %r14
	je	.L215
.LVL731:
.LBB6647:
.LBI6647:
	.loc 14 385 7 is_stmt 1 view .LVU2247
	.loc 14 385 7 is_stmt 0 view .LVU2248
.LBE6647:
	.loc 26 517 19 view .LVU2249
	movl	32(%rax), %eax
	cmpl	%eax, 120(%rsp)
	jge	.L216
.L215:
.LVL732:
.LBB6648:
.LBI6648:
	.loc 25 1475 5 is_stmt 1 view .LVU2250
.LBB6649:
.LBI6649:
	.loc 25 646 19 view .LVU2251
.LBB6650:
.LBI6650:
	.loc 22 74 5 view .LVU2252
	.loc 22 74 5 is_stmt 0 view .LVU2253
.LBE6650:
.LBB6651:
.LBI6651:
	.loc 25 365 19 is_stmt 1 view .LVU2254
.LBB6652:
.LBI6652:
	.loc 22 74 5 view .LVU2255
	.loc 22 74 5 is_stmt 0 view .LVU2256
.LBE6652:
.LBB6653:
.LBI6653:
	.loc 25 132 19 is_stmt 1 view .LVU2257
.LBB6654:
.LBB6655:
.LBI6655:
	.loc 22 74 5 view .LVU2258
	.loc 22 74 5 is_stmt 0 view .LVU2259
.LBE6655:
	.loc 25 133 42 view .LVU2260
	leaq	120(%rsp), %rax
.LVL733:
	.loc 25 133 42 view .LVU2261
	movq	%rax, 384(%rsp)
.LVL734:
	.loc 25 133 42 view .LVU2262
.LBE6654:
.LBE6653:
.LBE6651:
.LBE6649:
.LBE6648:
.LBB6656:
.LBI6656:
	.loc 11 348 7 is_stmt 1 view .LVU2263
	.loc 11 348 7 is_stmt 0 view .LVU2264
.LBE6656:
	.loc 26 518 8 view .LVU2265
	leaq	399(%rsp), %r8
	leaq	384(%rsp), %rcx
	movl	$_ZStL19piecewise_construct, %edx
	movq	%rbx, %rdi
	call	_ZNSt8_Rb_treeIN3mpp9ReqParser5StateESt4pairIKS2_NSt7__cxx1112basic_stringIcSt11char_traitsIcESaIcEEEESt10_Select1stISB_ESt4lessIS2_ESaISB_EE22_M_emplace_hint_uniqueIJRKSt21piecewise_construct_tSt5tupleIJOS2_EESM_IJEEEEESt17_Rb_tree_iteratorISB_ESt23_Rb_tree_const_iteratorISB_EDpOT_
.LVL735:
	.loc 26 518 8 view .LVU2266
	movq	%rax, %rdi
.L216:
.LVL736:
.LBB6657:
.LBI6657:
	.loc 11 277 7 is_stmt 1 view .LVU2267
	.loc 11 277 7 is_stmt 0 view .LVU2268
.LBE6657:
	.loc 26 521 16 view .LVU2269
	addq	$40, %rdi
.LVL737:
	.loc 26 521 16 view .LVU2270
.LBE6633:
.LBE6632:
.LBB6658:
.LBI6658:
	.loc 6 703 7 is_stmt 1 view .LVU2271
.LBB6659:
.LBI6659:
	.loc 6 1426 7 view .LVU2272
	.loc 6 1426 7 is_stmt 0 view .LVU2273
.LBE6659:
.LBE6658:
.LBE6920:
.LBE6974:
	.loc 17 320 2 is_stmt 1 view .LVU2274
.LBB6975:
.LBB6921:
.LBB6664:
.LBB6663:
.LBB6660:
.LBB6661:
.LBI6661:
	.loc 6 921 7 view .LVU2275
.LBB6662:
	.loc 6 922 16 is_stmt 0 view .LVU2276
	movq	8(%rdi), %rdx
.LVL738:
	.loc 6 922 16 view .LVU2277
.LBE6662:
.LBE6661:
	.loc 6 1430 30 view .LVU2278
	movl	$5, %r8d
	movl	$.LC21, %ecx
	movl	$0, %esi
	call	_ZNSt7__cxx1112basic_stringIcSt11char_traitsIcESaIcEE10_M_replaceEmmPKcm
.LVL739:
	.loc 6 1430 30 view .LVU2279
.LBE6660:
.LBE6663:
.LBE6664:
	.loc 1 47 2 is_stmt 1 view .LVU2280
	.loc 1 47 25 is_stmt 0 view .LVU2281
	movl	$17, 124(%rsp)
.LVL740:
.LBB6665:
.LBI6665:
	.loc 26 510 7 is_stmt 1 view .LVU2282
.LBB6666:
.LBB6667:
.LBI6667:
	.loc 26 1239 7 view .LVU2283
.LBB6668:
.LBB6669:
.LBI6669:
	.loc 11 1202 7 view .LVU2284
.LBB6670:
.LBB6671:
.LBI6671:
	.loc 11 763 7 view .LVU2285
.LBB6672:
	.loc 11 764 31 is_stmt 0 view .LVU2286
	leaq	8(%rbx), %r14
.LVL741:
	.loc 11 764 31 view .LVU2287
.LBE6672:
.LBE6671:
.LBB6673:
.LBI6673:
	.loc 11 752 7 is_stmt 1 view .LVU2288
.LBB6674:
	.loc 11 753 73 is_stmt 0 view .LVU2289
	movq	16(%rbx), %rsi
.LVL742:
	.loc 11 753 73 view .LVU2290
.LBE6674:
.LBE6673:
	.loc 11 1203 56 view .LVU2291
	leaq	124(%rsp), %rcx
.LVL743:
	.loc 11 1203 56 view .LVU2292
	movq	%r14, %rdx
	movq	%rbx, %rdi
	call	_ZNSt8_Rb_treeIN3mpp9ReqParser5StateESt4pairIKS2_NSt7__cxx1112basic_stringIcSt11char_traitsIcESaIcEEEESt10_Select1stISB_ESt4lessIS2_ESaISB_EE14_M_lower_boundEPSt13_Rb_tree_nodeISB_EPSt18_Rb_tree_node_baseRS4_
.LVL744:
	.loc 11 1203 56 view .LVU2293
.LBE6670:
.LBE6669:
.LBE6668:
.LBE6667:
	.loc 26 515 11 view .LVU2294
	movq	%rax, %rdi
.LVL745:
.LBB6675:
.LBI6675:
	.loc 26 372 7 is_stmt 1 view .LVU2295
.LBB6676:
.LBI6676:
	.loc 11 984 7 view .LVU2296
.LBB6677:
.LBI6677:
	.loc 11 273 7 view .LVU2297
	.loc 11 273 7 is_stmt 0 view .LVU2298
.LBE6677:
.LBE6676:
.LBE6675:
.LBB6678:
.LBI6678:
	.loc 11 315 7 is_stmt 1 view .LVU2299
.LBB6679:
	.loc 11 316 16 is_stmt 0 view .LVU2300
	movq	%rax, %rsi
.LVL746:
	.loc 11 316 16 view .LVU2301
.LBE6679:
.LBE6678:
	.loc 26 517 19 view .LVU2302
	cmpq	%rax, %r14
	je	.L217
.LVL747:
.LBB6680:
.LBI6680:
	.loc 14 385 7 is_stmt 1 view .LVU2303
	.loc 14 385 7 is_stmt 0 view .LVU2304
.LBE6680:
	.loc 26 517 19 view .LVU2305
	movl	32(%rax), %eax
	cmpl	%eax, 124(%rsp)
	jge	.L218
.L217:
.LVL748:
.LBB6681:
.LBI6681:
	.loc 25 1475 5 is_stmt 1 view .LVU2306
.LBB6682:
.LBI6682:
	.loc 25 646 19 view .LVU2307
.LBB6683:
.LBI6683:
	.loc 22 74 5 view .LVU2308
	.loc 22 74 5 is_stmt 0 view .LVU2309
.LBE6683:
.LBB6684:
.LBI6684:
	.loc 25 365 19 is_stmt 1 view .LVU2310
.LBB6685:
.LBI6685:
	.loc 22 74 5 view .LVU2311
	.loc 22 74 5 is_stmt 0 view .LVU2312
.LBE6685:
.LBB6686:
.LBI6686:
	.loc 25 132 19 is_stmt 1 view .LVU2313
.LBB6687:
.LBB6688:
.LBI6688:
	.loc 22 74 5 view .LVU2314
	.loc 22 74 5 is_stmt 0 view .LVU2315
.LBE6688:
	.loc 25 133 42 view .LVU2316
	leaq	124(%rsp), %rax
.LVL749:
	.loc 25 133 42 view .LVU2317
	movq	%rax, 400(%rsp)
.LVL750:
	.loc 25 133 42 view .LVU2318
.LBE6687:
.LBE6686:
.LBE6684:
.LBE6682:
.LBE6681:
.LBB6689:
.LBI6689:
	.loc 11 348 7 is_stmt 1 view .LVU2319
	.loc 11 348 7 is_stmt 0 view .LVU2320
.LBE6689:
	.loc 26 518 8 view .LVU2321
	leaq	415(%rsp), %r8
	leaq	400(%rsp), %rcx
	movl	$_ZStL19piecewise_construct, %edx
	movq	%rbx, %rdi
	call	_ZNSt8_Rb_treeIN3mpp9ReqParser5StateESt4pairIKS2_NSt7__cxx1112basic_stringIcSt11char_traitsIcESaIcEEEESt10_Select1stISB_ESt4lessIS2_ESaISB_EE22_M_emplace_hint_uniqueIJRKSt21piecewise_construct_tSt5tupleIJOS2_EESM_IJEEEEESt17_Rb_tree_iteratorISB_ESt23_Rb_tree_const_iteratorISB_EDpOT_
.LVL751:
	.loc 26 518 8 view .LVU2322
	movq	%rax, %rdi
.L218:
.LVL752:
.LBB6690:
.LBI6690:
	.loc 11 277 7 is_stmt 1 view .LVU2323
	.loc 11 277 7 is_stmt 0 view .LVU2324
.LBE6690:
	.loc 26 521 16 view .LVU2325
	addq	$40, %rdi
.LVL753:
	.loc 26 521 16 view .LVU2326
.LBE6666:
.LBE6665:
.LBB6691:
.LBI6691:
	.loc 6 703 7 is_stmt 1 view .LVU2327
.LBB6692:
.LBI6692:
	.loc 6 1426 7 view .LVU2328
	.loc 6 1426 7 is_stmt 0 view .LVU2329
.LBE6692:
.LBE6691:
.LBE6921:
.LBE6975:
	.loc 17 320 2 is_stmt 1 view .LVU2330
.LBB6976:
.LBB6922:
.LBB6697:
.LBB6696:
.LBB6693:
.LBB6694:
.LBI6694:
	.loc 6 921 7 view .LVU2331
.LBB6695:
	.loc 6 922 16 is_stmt 0 view .LVU2332
	movq	8(%rdi), %rdx
.LVL754:
	.loc 6 922 16 view .LVU2333
.LBE6695:
.LBE6694:
	.loc 6 1430 30 view .LVU2334
	movl	$12, %r8d
	movl	$.LC22, %ecx
	movl	$0, %esi
	call	_ZNSt7__cxx1112basic_stringIcSt11char_traitsIcESaIcEE10_M_replaceEmmPKcm
.LVL755:
	.loc 6 1430 30 view .LVU2335
.LBE6693:
.LBE6696:
.LBE6697:
	.loc 1 49 2 is_stmt 1 view .LVU2336
.LBB6698:
.LBI6698:
	.loc 19 556 5 view .LVU2337
	.loc 19 556 5 is_stmt 0 view .LVU2338
.LBE6698:
.LBE6922:
.LBE6976:
	.loc 17 320 2 is_stmt 1 view .LVU2339
.LBB6977:
.LBB6923:
.LBB6700:
.LBB6699:
	.loc 19 561 18 is_stmt 0 view .LVU2340
	movl	$39, %edx
	movl	$.LC23, %esi
	movl	$_ZSt4cout, %edi
	call	_ZSt16__ostream_insertIcSt11char_traitsIcEERSt13basic_ostreamIT_T0_ES6_PKS3_l
.LVL756:
	.loc 19 561 18 view .LVU2341
.LBE6699:
.LBE6700:
.LBB6701:
.LBI6701:
	.loc 26 490 7 is_stmt 1 view .LVU2342
.LBB6702:
.LBB6703:
.LBI6703:
	.loc 26 1239 7 view .LVU2343
.LBB6704:
.LBB6705:
.LBI6705:
	.loc 11 1202 7 view .LVU2344
.LBB6706:
.LBB6707:
.LBI6707:
	.loc 11 763 7 view .LVU2345
.LBB6708:
	.loc 11 764 31 is_stmt 0 view .LVU2346
	leaq	8(%rbx), %r14
.LVL757:
	.loc 11 764 31 view .LVU2347
.LBE6708:
.LBE6707:
.LBB6709:
.LBI6709:
	.loc 11 752 7 is_stmt 1 view .LVU2348
.LBB6710:
	.loc 11 753 73 is_stmt 0 view .LVU2349
	movq	16(%rbx), %rsi
.LVL758:
	.loc 11 753 73 view .LVU2350
.LBE6710:
.LBE6709:
	.loc 11 1203 56 view .LVU2351
	movq	%rbp, %rcx
	movq	%r14, %rdx
	movq	%rbx, %rdi
	call	_ZNSt8_Rb_treeIN3mpp9ReqParser5StateESt4pairIKS2_NSt7__cxx1112basic_stringIcSt11char_traitsIcESaIcEEEESt10_Select1stISB_ESt4lessIS2_ESaISB_EE14_M_lower_boundEPSt13_Rb_tree_nodeISB_EPSt18_Rb_tree_node_baseRS4_
.LVL759:
	.loc 11 1203 56 view .LVU2352
.LBE6706:
.LBE6705:
.LBE6704:
.LBE6703:
	.loc 26 495 11 view .LVU2353
	movq	%rax, %rcx
.LVL760:
.LBB6711:
.LBI6711:
	.loc 26 372 7 is_stmt 1 view .LVU2354
.LBB6712:
.LBI6712:
	.loc 11 984 7 view .LVU2355
.LBB6713:
.LBI6713:
	.loc 11 273 7 view .LVU2356
	.loc 11 273 7 is_stmt 0 view .LVU2357
.LBE6713:
.LBE6712:
.LBE6711:
.LBB6714:
.LBI6714:
	.loc 11 315 7 is_stmt 1 view .LVU2358
.LBB6715:
	.loc 11 316 16 is_stmt 0 view .LVU2359
	movq	%rax, %rsi
.LVL761:
	.loc 11 316 16 view .LVU2360
.LBE6715:
.LBE6714:
	.loc 26 497 19 view .LVU2361
	cmpq	%rax, %r14
	je	.L219
.LVL762:
.LBB6716:
.LBI6716:
	.loc 14 385 7 is_stmt 1 view .LVU2362
	.loc 14 385 7 is_stmt 0 view .LVU2363
.LBE6716:
	.loc 26 497 19 view .LVU2364
	movl	32(%rax), %eax
	cmpl	%eax, 0(%rbp)
	jge	.L220
.L219:
.LVL763:
.LBB6717:
.LBI6717:
	.loc 25 608 19 is_stmt 1 view .LVU2365
.LBB6718:
.LBI6718:
	.loc 25 360 17 view .LVU2366
.LBB6719:
.LBI6719:
	.loc 25 125 17 view .LVU2367
.LBB6720:
.LBB6721:
	.loc 25 126 25 is_stmt 0 view .LVU2368
	movq	%rbp, 416(%rsp)
.LVL764:
	.loc 25 126 25 view .LVU2369
.LBE6721:
.LBE6720:
.LBE6719:
.LBE6718:
.LBE6717:
.LBB6722:
.LBI6722:
	.loc 11 348 7 is_stmt 1 view .LVU2370
	.loc 11 348 7 is_stmt 0 view .LVU2371
.LBE6722:
	.loc 26 499 8 view .LVU2372
	leaq	431(%rsp), %r8
	leaq	416(%rsp), %rcx
	movl	$_ZStL19piecewise_construct, %edx
	movq	%rbx, %rdi
	call	_ZNSt8_Rb_treeIN3mpp9ReqParser5StateESt4pairIKS2_NSt7__cxx1112basic_stringIcSt11char_traitsIcESaIcEEEESt10_Select1stISB_ESt4lessIS2_ESaISB_EE22_M_emplace_hint_uniqueIJRKSt21piecewise_construct_tSt5tupleIJRS4_EESM_IJEEEEESt17_Rb_tree_iteratorISB_ESt23_Rb_tree_const_iteratorISB_EDpOT_
.LVL765:
	movq	%rax, %rcx
.L220:
.LVL766:
.LBB6723:
.LBI6723:
	.loc 11 277 7 is_stmt 1 view .LVU2373
	.loc 11 277 7 is_stmt 0 view .LVU2374
.LBE6723:
.LBE6702:
.LBE6701:
.LBB6724:
.LBI6724:
	.loc 6 6314 5 is_stmt 1 view .LVU2375
.LBB6725:
.LBB6726:
.LBI6726:
	.loc 6 921 7 view .LVU2376
.LBB6727:
	.loc 6 922 16 is_stmt 0 view .LVU2377
	movq	48(%rcx), %rdx
.LVL767:
	.loc 6 922 16 view .LVU2378
.LBE6727:
.LBE6726:
.LBB6728:
.LBI6728:
	.loc 6 2293 7 is_stmt 1 view .LVU2379
.LBB6729:
.LBI6729:
	.loc 6 175 7 view .LVU2380
.LBB6730:
	.loc 6 176 28 is_stmt 0 view .LVU2381
	movq	40(%rcx), %rsi
.LVL768:
	.loc 6 176 28 view .LVU2382
.LBE6730:
.LBE6729:
.LBE6728:
	.loc 6 6319 30 view .LVU2383
	movl	$_ZSt4cout, %edi
	call	_ZSt16__ostream_insertIcSt11char_traitsIcEERSt13basic_ostreamIT_T0_ES6_PKS3_l
.LVL769:
	.loc 6 6319 30 view .LVU2384
	movq	%rax, %r14
.LVL770:
	.loc 6 6319 30 view .LVU2385
.LBE6725:
.LBE6724:
.LBB6731:
.LBI6731:
	.loc 19 108 7 is_stmt 1 view .LVU2386
.LBB6732:
.LBI6732:
	.loc 19 590 5 view .LVU2387
.LBB6733:
	.loc 19 591 19 is_stmt 0 view .LVU2388
	movq	(%rax), %rax
.LVL771:
	.loc 19 591 19 view .LVU2389
	movq	%r14, %rcx
	addq	-24(%rax), %rcx
.LVL772:
.LBB6734:
.LBI6734:
	.loc 23 449 7 is_stmt 1 view .LVU2390
.LBB6735:
	.loc 23 450 30 is_stmt 0 view .LVU2391
	movq	240(%rcx), %rbx
.LVL773:
.LBB6736:
.LBI6736:
	.loc 23 47 5 is_stmt 1 view .LVU2392
.LBB6737:
	.loc 23 49 7 is_stmt 0 view .LVU2393
	testq	%rbx, %rbx
	je	.L254
.LVL774:
	.loc 23 49 7 view .LVU2394
.LBE6737:
.LBE6736:
.LBB6739:
.LBI6739:
	.loc 27 872 7 is_stmt 1 view .LVU2395
.LBB6740:
	.loc 27 874 2 view .LVU2396
	cmpb	$0, 56(%rbx)
	je	.L222
	.loc 27 875 4 view .LVU2397
	.loc 27 875 51 is_stmt 0 view .LVU2398
	movzbl	67(%rbx), %eax
.LVL775:
.L223:
	.loc 27 875 51 view .LVU2399
.LBE6740:
.LBE6739:
.LBE6735:
.LBE6734:
	.loc 19 591 19 view .LVU2400
	movsbl	%al, %esi
	movq	%r14, %rdi
	call	_ZNSo3putEc
.LVL776:
	jmp	.L255
.LVL777:
.L254:
.LBB6745:
.LBB6744:
.LBB6742:
.LBB6738:
	.loc 23 50 18 view .LVU2401
	call	_ZSt16__throw_bad_castv
.LVL778:
.L244:
	.loc 23 50 18 view .LVU2402
	movq	%rax, %rbx
	jmp	.L232
.LVL779:
.L222:
	.loc 23 50 18 view .LVU2403
.LBE6738:
.LBE6742:
.LBB6743:
.LBB6741:
	.loc 27 876 2 is_stmt 1 view .LVU2404
	.loc 27 876 21 is_stmt 0 view .LVU2405
	movq	%rbx, %rdi
	call	_ZNKSt5ctypeIcE13_M_widen_initEv
.LVL780:
	.loc 27 877 2 is_stmt 1 view .LVU2406
	.loc 27 877 27 is_stmt 0 view .LVU2407
	movq	(%rbx), %rax
	.loc 27 877 23 view .LVU2408
	movl	$10, %esi
	movq	%rbx, %rdi
	call	*48(%rax)
.LVL781:
	jmp	.L223
.LVL782:
.L255:
	.loc 27 877 23 view .LVU2409
.LBE6741:
.LBE6743:
.LBE6744:
.LBE6745:
.LBB6746:
.LBI6746:
	.loc 19 612 5 is_stmt 1 view .LVU2410
.LBB6747:
	.loc 19 613 25 is_stmt 0 view .LVU2411
	movq	%rax, %rdi
	call	_ZNSo5flushEv
.LVL783:
	.loc 19 613 25 view .LVU2412
	movq	%rax, %rbx
.LVL784:
	.loc 19 613 25 view .LVU2413
.LBE6747:
.LBE6746:
.LBE6733:
.LBE6732:
.LBE6731:
.LBB6748:
.LBI6748:
	.loc 19 556 5 is_stmt 1 view .LVU2414
	.loc 19 556 5 is_stmt 0 view .LVU2415
.LBE6748:
.LBE6923:
.LBE6977:
	.loc 17 320 2 is_stmt 1 view .LVU2416
.LBB6978:
.LBB6924:
.LBB6750:
.LBB6749:
	.loc 19 561 18 is_stmt 0 view .LVU2417
	movl	$10, %edx
	movl	$.LC24, %esi
	movq	%rax, %rdi
	call	_ZSt16__ostream_insertIcSt11char_traitsIcEERSt13basic_ostreamIT_T0_ES6_PKS3_l
.LVL785:
	.loc 19 561 18 view .LVU2418
.LBE6749:
.LBE6750:
.LBB6751:
.LBI6751:
	.loc 29 203 7 is_stmt 1 view .LVU2419
	.loc 29 203 7 is_stmt 0 view .LVU2420
.LBE6751:
	.loc 1 50 38 view .LVU2421
	movswl	12(%rbp), %esi
	movq	%rbx, %rdi
	call	_ZNSolsEs
.LVL786:
	movq	%rax, %rbx
.LVL787:
.LBB6752:
.LBI6752:
	.loc 19 556 5 is_stmt 1 view .LVU2422
	.loc 19 556 5 is_stmt 0 view .LVU2423
.LBE6752:
.LBE6924:
.LBE6978:
	.loc 17 320 2 is_stmt 1 view .LVU2424
.LBB6979:
.LBB6925:
.LBB6754:
.LBB6753:
	.loc 19 561 18 is_stmt 0 view .LVU2425
	movl	$1, %edx
	movl	$.LC25, %esi
	movq	%rax, %rdi
	call	_ZSt16__ostream_insertIcSt11char_traitsIcEERSt13basic_ostreamIT_T0_ES6_PKS3_l
.LVL788:
	.loc 19 561 18 view .LVU2426
.LBE6753:
.LBE6754:
.LBB6755:
.LBI6755:
	.loc 29 203 7 is_stmt 1 view .LVU2427
	.loc 29 203 7 is_stmt 0 view .LVU2428
.LBE6755:
	.loc 1 50 62 view .LVU2429
	movswl	14(%rbp), %esi
	movq	%rbx, %rdi
	call	_ZNSolsEs
.LVL789:
	movq	%rax, %rbx
.LVL790:
.LBB6756:
.LBI6756:
	.loc 19 556 5 is_stmt 1 view .LVU2430
	.loc 19 556 5 is_stmt 0 view .LVU2431
.LBE6756:
.LBE6925:
.LBE6979:
	.loc 17 320 2 is_stmt 1 view .LVU2432
.LBB6980:
.LBB6926:
.LBB6758:
.LBB6757:
	.loc 19 561 18 is_stmt 0 view .LVU2433
	movl	$1, %edx
	movl	$.LC25, %esi
	movq	%rax, %rdi
	call	_ZSt16__ostream_insertIcSt11char_traitsIcEERSt13basic_ostreamIT_T0_ES6_PKS3_l
.LVL791:
	.loc 19 561 18 view .LVU2434
.LBE6757:
.LBE6758:
.LBB6759:
.LBI6759:
	.loc 29 203 7 is_stmt 1 view .LVU2435
	.loc 29 203 7 is_stmt 0 view .LVU2436
.LBE6759:
	.loc 1 50 81 view .LVU2437
	movswl	16(%rbp), %esi
	movq	%rbx, %rdi
	call	_ZNSolsEs
.LVL792:
	movq	%rax, %r14
.LVL793:
.LBB6760:
.LBI6760:
	.loc 19 108 7 is_stmt 1 view .LVU2438
.LBB6761:
.LBI6761:
	.loc 19 590 5 view .LVU2439
.LBB6762:
	.loc 19 591 19 is_stmt 0 view .LVU2440
	movq	(%rax), %rax
.LVL794:
	.loc 19 591 19 view .LVU2441
	movq	%r14, %rcx
	addq	-24(%rax), %rcx
.LVL795:
.LBB6763:
.LBI6763:
	.loc 23 449 7 is_stmt 1 view .LVU2442
.LBB6764:
	.loc 23 450 30 is_stmt 0 view .LVU2443
	movq	240(%rcx), %rbx
.LVL796:
.LBB6765:
.LBI6765:
	.loc 23 47 5 is_stmt 1 view .LVU2444
.LBB6766:
	.loc 23 49 7 is_stmt 0 view .LVU2445
	testq	%rbx, %rbx
	je	.L256
.LVL797:
	.loc 23 49 7 view .LVU2446
.LBE6766:
.LBE6765:
.LBB6768:
.LBI6768:
	.loc 27 872 7 is_stmt 1 view .LVU2447
.LBB6769:
	.loc 27 874 2 view .LVU2448
	cmpb	$0, 56(%rbx)
	je	.L225
	.loc 27 875 4 view .LVU2449
	.loc 27 875 51 is_stmt 0 view .LVU2450
	movzbl	67(%rbx), %eax
.LVL798:
.L226:
	.loc 27 875 51 view .LVU2451
.LBE6769:
.LBE6768:
.LBE6764:
.LBE6763:
	.loc 19 591 19 view .LVU2452
	movsbl	%al, %esi
	movq	%r14, %rdi
	call	_ZNSo3putEc
.LVL799:
	jmp	.L257
.LVL800:
.L256:
.LBB6774:
.LBB6773:
.LBB6771:
.LBB6767:
	.loc 23 50 18 view .LVU2453
	call	_ZSt16__throw_bad_castv
.LVL801:
.L225:
	.loc 23 50 18 view .LVU2454
.LBE6767:
.LBE6771:
.LBB6772:
.LBB6770:
	.loc 27 876 2 is_stmt 1 view .LVU2455
	.loc 27 876 21 is_stmt 0 view .LVU2456
	movq	%rbx, %rdi
	call	_ZNKSt5ctypeIcE13_M_widen_initEv
.LVL802:
	.loc 27 877 2 is_stmt 1 view .LVU2457
	.loc 27 877 27 is_stmt 0 view .LVU2458
	movq	(%rbx), %rax
	.loc 27 877 23 view .LVU2459
	movl	$10, %esi
	movq	%rbx, %rdi
	call	*48(%rax)
.LVL803:
	jmp	.L226
.LVL804:
.L257:
	.loc 27 877 23 view .LVU2460
.LBE6770:
.LBE6772:
.LBE6773:
.LBE6774:
.LBB6775:
.LBI6775:
	.loc 19 612 5 is_stmt 1 view .LVU2461
.LBB6776:
	.loc 19 613 25 is_stmt 0 view .LVU2462
	movq	%rax, %rdi
	call	_ZNSo5flushEv
.LVL805:
	.loc 19 613 25 view .LVU2463
.LBE6776:
.LBE6775:
.LBE6762:
.LBE6761:
.LBE6760:
.LBB6777:
.LBI6777:
	.loc 19 556 5 is_stmt 1 view .LVU2464
	.loc 19 556 5 is_stmt 0 view .LVU2465
.LBE6777:
.LBE6926:
.LBE6980:
	.loc 17 320 2 is_stmt 1 view .LVU2466
.LBB6981:
.LBB6927:
.LBB6779:
.LBB6778:
	.loc 19 561 18 is_stmt 0 view .LVU2467
	movl	$19, %edx
	movl	$.LC26, %esi
	movq	%rax, %rdi
	call	_ZSt16__ostream_insertIcSt11char_traitsIcEERSt13basic_ostreamIT_T0_ES6_PKS3_l
.LVL806:
	.loc 19 561 18 view .LVU2468
.LBE6778:
.LBE6779:
	.loc 1 52 2 is_stmt 1 view .LVU2469
.LBB6780:
.LBI6780:
	.loc 29 162 7 view .LVU2470
	.loc 29 162 7 is_stmt 0 view .LVU2471
.LBE6780:
.LBB6781:
.LBI6781:
	.loc 29 158 7 is_stmt 1 view .LVU2472
	.loc 29 158 7 is_stmt 0 view .LVU2473
.LBE6781:
	.loc 1 56 2 view .LVU2474
	leaq	1232(%rbp), %rsi
	movq	%r13, %rdi
	call	_ZSt8for_eachIPKNSt7__cxx1112basic_stringIwSt11char_traitsIwESaIwEEEZN3mpp9ReqParserC4EvEUlS5_E_ET0_T_SC_SB_
.LVL807:
	.loc 1 57 2 is_stmt 1 discriminator 2 view .LVU2475
.LBB6782:
.LBI6782:
	.loc 29 175 7 discriminator 2 view .LVU2476
	.loc 29 175 7 is_stmt 0 discriminator 2 view .LVU2477
.LBE6782:
.LBB6783:
.LBI6783:
	.loc 29 203 7 is_stmt 1 discriminator 2 view .LVU2478
	.loc 29 203 7 is_stmt 0 discriminator 2 view .LVU2479
.LBE6783:
.LBB6784:
.LBI6784:
	.loc 6 6314 5 is_stmt 1 discriminator 2 view .LVU2480
.LBB6785:
.LBB6786:
.LBI6786:
	.loc 6 921 7 discriminator 2 view .LVU2481
.LBB6787:
	.loc 6 922 16 is_stmt 0 discriminator 2 view .LVU2482
	movq	1240(%rbp), %rdx
.LVL808:
	.loc 6 922 16 discriminator 2 view .LVU2483
.LBE6787:
.LBE6786:
.LBB6788:
.LBI6788:
	.loc 6 2293 7 is_stmt 1 discriminator 2 view .LVU2484
.LBB6789:
.LBI6789:
	.loc 6 175 7 discriminator 2 view .LVU2485
.LBB6790:
	.loc 6 176 28 is_stmt 0 discriminator 2 view .LVU2486
	movq	1232(%rbp), %rsi
.LVL809:
	.loc 6 176 28 discriminator 2 view .LVU2487
.LBE6790:
.LBE6789:
.LBE6788:
	.loc 6 6319 30 discriminator 2 view .LVU2488
	movl	$_ZSt5wcout, %edi
	call	_ZSt16__ostream_insertIwSt11char_traitsIwEERSt13basic_ostreamIT_T0_ES6_PKS3_l
.LVL810:
	movq	%rax, %rbx
.LVL811:
	.loc 6 6319 30 discriminator 2 view .LVU2489
.LBE6785:
.LBE6784:
.LBB6791:
.LBI6791:
	.loc 19 108 7 is_stmt 1 discriminator 2 view .LVU2490
.LBB6792:
.LBI6792:
	.loc 19 590 5 discriminator 2 view .LVU2491
.LBB6793:
	.loc 19 591 19 is_stmt 0 discriminator 2 view .LVU2492
	movq	(%rax), %rax
.LVL812:
	.loc 19 591 19 discriminator 2 view .LVU2493
	movq	%rbx, %rcx
	addq	-24(%rax), %rcx
.LVL813:
.LBB6794:
.LBI6794:
	.loc 23 449 7 is_stmt 1 discriminator 2 view .LVU2494
.LBB6795:
	.loc 23 450 30 is_stmt 0 discriminator 2 view .LVU2495
	movq	240(%rcx), %rdi
.LVL814:
.LBB6796:
.LBI6796:
	.loc 23 47 5 is_stmt 1 discriminator 2 view .LVU2496
.LBB6797:
	.loc 23 49 7 is_stmt 0 discriminator 2 view .LVU2497
	testq	%rdi, %rdi
	je	.L258
.LVL815:
	.loc 23 49 7 discriminator 2 view .LVU2498
.LBE6797:
.LBE6796:
.LBB6799:
.LBI6799:
	.loc 27 293 7 is_stmt 1 view .LVU2499
.LBB6800:
	.loc 27 294 34 is_stmt 0 view .LVU2500
	movq	(%rdi), %rax
	movl	$10, %esi
	call	*80(%rax)
.LVL816:
	.loc 27 294 34 view .LVU2501
	jmp	.L259
.LVL817:
.L258:
	.loc 27 294 34 view .LVU2502
.LBE6800:
.LBE6799:
.LBB6801:
.LBB6798:
	.loc 23 50 18 view .LVU2503
	call	_ZSt16__throw_bad_castv
.LVL818:
.L259:
	.loc 23 50 18 view .LVU2504
.LBE6798:
.LBE6801:
.LBE6795:
.LBE6794:
	.loc 19 591 19 view .LVU2505
	movl	%eax, %esi
	movq	%rbx, %rdi
	call	_ZNSt13basic_ostreamIwSt11char_traitsIwEE3putEw
.LVL819:
.LBB6802:
.LBI6802:
	.loc 19 612 5 is_stmt 1 view .LVU2506
.LBB6803:
	.loc 19 613 25 is_stmt 0 view .LVU2507
	movq	%rax, %rdi
	call	_ZNSt13basic_ostreamIwSt11char_traitsIwEE5flushEv
.LVL820:
	.loc 19 613 25 view .LVU2508
.LBE6803:
.LBE6802:
.LBE6793:
.LBE6792:
.LBE6791:
	.loc 1 61 2 is_stmt 1 view .LVU2509
	.loc 1 61 26 is_stmt 0 view .LVU2510
	movl	$1, %esi
	movq	%r12, %rdi
	call	_ZN5boost6locale9generator20locale_cache_enabledEb
.LVL821:
	.loc 1 62 2 is_stmt 1 view .LVU2511
.LBB6804:
.LBI6804:
	.loc 9 131 7 view .LVU2512
.LBB6805:
.LBI6805:
	.loc 8 79 7 view .LVU2513
	.loc 8 79 7 is_stmt 0 view .LVU2514
.LBE6805:
.LBE6804:
.LBB6806:
.LBI6806:
	.loc 6 514 7 is_stmt 1 view .LVU2515
.LBB6807:
.LBB6808:
.LBB6809:
.LBI6809:
	.loc 6 179 7 view .LVU2516
	.loc 6 179 7 is_stmt 0 view .LVU2517
.LBE6809:
.LBB6810:
.LBI6810:
	.loc 6 145 2 is_stmt 1 view .LVU2518
.LBB6811:
.LBB6812:
.LBB6813:
.LBI6813:
	.loc 9 133 7 view .LVU2519
.LBB6814:
.LBI6814:
	.loc 8 81 7 view .LVU2520
	.loc 8 81 7 is_stmt 0 view .LVU2521
.LBE6814:
.LBE6813:
	.loc 6 146 35 view .LVU2522
	leaq	32(%rsp), %rax
.LVL822:
	.loc 6 146 35 view .LVU2523
	movq	%rax, 16(%rsp)
.LVL823:
	.loc 6 146 35 view .LVU2524
.LBE6812:
.LBE6811:
.LBE6810:
.LBB6815:
.LBI6815:
	.loc 17 314 7 is_stmt 1 view .LVU2525
.LBE6815:
.LBE6808:
.LBE6807:
.LBE6806:
.LBE6927:
.LBE6981:
	.loc 17 320 2 view .LVU2526
.LBB6982:
.LBB6928:
.LBB6822:
.LBB6821:
.LBB6820:
.LBB6816:
.LBI6816:
	.loc 6 252 9 view .LVU2527
.LBB6817:
.LBB6818:
.LBI6818:
	.loc 6 232 9 view .LVU2528
.LBB6819:
	.loc 6 236 11 is_stmt 0 view .LVU2529
	movl	$.LC27+11, %edx
.LVL824:
	.loc 6 236 11 view .LVU2530
	movl	$.LC27, %esi
	leaq	16(%rsp), %rdi
.LVL825:
	.loc 6 236 11 view .LVU2531
	call	_ZNSt7__cxx1112basic_stringIcSt11char_traitsIcESaIcEE12_M_constructIPKcEEvT_S8_St20forward_iterator_tag
.LVL826:
.LEHE18:
	.loc 6 236 11 view .LVU2532
.LBE6819:
.LBE6818:
.LBE6817:
.LBE6816:
.LBE6820:
.LBE6821:
.LBE6822:
.LBB6823:
.LBI6823:
	.file 31 "/usr/local/include/boost/locale/generator.hpp"
	.loc 31 201 25 is_stmt 1 view .LVU2533
.LBB6824:
	.loc 31 203 17 view .LVU2534
	.loc 31 203 35 is_stmt 0 view .LVU2535
	leaq	16(%rsp), %rdx
.LVL827:
	.loc 31 203 35 view .LVU2536
	movq	%r12, %rsi
	leaq	128(%rsp), %rdi
.LEHB19:
	call	_ZNK5boost6locale9generator8generateERKNSt7__cxx1112basic_stringIcSt11char_traitsIcESaIcEEE
.LVL828:
.LEHE19:
	.loc 31 203 35 view .LVU2537
.LBE6824:
.LBE6823:
	.loc 1 62 5 discriminator 4 view .LVU2538
	leaq	128(%rsp), %rdi
	call	_ZNSt6localeD1Ev
.LVL829:
.LBB6825:
.LBI6825:
	.loc 6 656 7 is_stmt 1 discriminator 4 view .LVU2539
.LBB6826:
.LBI6826:
	.loc 6 218 7 discriminator 4 view .LVU2540
.LBB6827:
.LBB6828:
.LBI6828:
	.loc 6 210 7 discriminator 4 view .LVU2541
.LBB6829:
.LBI6829:
	.loc 6 175 7 discriminator 4 view .LVU2542
.LBB6830:
	.loc 6 176 28 is_stmt 0 discriminator 4 view .LVU2543
	movq	16(%rsp), %rdi
.LVL830:
	.loc 6 176 28 discriminator 4 view .LVU2544
.LBE6830:
.LBE6829:
.LBB6831:
.LBI6831:
	.loc 6 189 7 is_stmt 1 discriminator 4 view .LVU2545
	.loc 6 189 7 is_stmt 0 discriminator 4 view .LVU2546
.LBE6831:
.LBE6828:
	.loc 6 220 2 discriminator 4 view .LVU2547
	leaq	32(%rsp), %rax
	cmpq	%rax, %rdi
	je	.L228
.LVL831:
.LBB6832:
.LBI6832:
	.loc 6 225 7 is_stmt 1 view .LVU2548
.LBB6833:
.LBI6833:
	.loc 7 461 7 view .LVU2549
.LBB6834:
.LBI6834:
	.loc 8 116 7 view .LVU2550
.LBB6835:
	.loc 8 125 19 is_stmt 0 view .LVU2551
	call	_ZdlPv
.LVL832:
.L228:
	.loc 8 125 19 view .LVU2552
.LBE6835:
.LBE6834:
.LBE6833:
.LBE6832:
.LBE6827:
.LBE6826:
.LBB6836:
.LBI6836:
	.loc 6 139 14 is_stmt 1 view .LVU2553
.LBB6837:
.LBI6837:
	.loc 9 139 7 view .LVU2554
.LBB6838:
.LBI6838:
	.loc 8 86 7 view .LVU2555
	.loc 8 86 7 is_stmt 0 view .LVU2556
.LBE6838:
.LBE6837:
.LBE6836:
.LBE6825:
.LBB6839:
.LBI6839:
	.loc 9 139 7 is_stmt 1 view .LVU2557
.LBB6840:
.LBI6840:
	.loc 8 86 7 view .LVU2558
	.loc 8 86 7 is_stmt 0 view .LVU2559
.LBE6840:
.LBE6839:
	.loc 1 63 2 is_stmt 1 view .LVU2560
.LBB6841:
.LBI6841:
	.loc 9 131 7 view .LVU2561
.LBB6842:
.LBI6842:
	.loc 8 79 7 view .LVU2562
	.loc 8 79 7 is_stmt 0 view .LVU2563
.LBE6842:
.LBE6841:
.LBB6843:
.LBI6843:
	.loc 6 514 7 is_stmt 1 view .LVU2564
.LBB6844:
.LBB6845:
.LBB6846:
.LBI6846:
	.loc 6 179 7 view .LVU2565
	.loc 6 179 7 is_stmt 0 view .LVU2566
.LBE6846:
.LBB6847:
.LBI6847:
	.loc 6 145 2 is_stmt 1 view .LVU2567
.LBB6848:
.LBB6849:
.LBB6850:
.LBI6850:
	.loc 9 133 7 view .LVU2568
.LBB6851:
.LBI6851:
	.loc 8 81 7 view .LVU2569
	.loc 8 81 7 is_stmt 0 view .LVU2570
.LBE6851:
.LBE6850:
	.loc 6 146 35 view .LVU2571
	leaq	32(%rsp), %rax
.LVL833:
	.loc 6 146 35 view .LVU2572
	movq	%rax, 16(%rsp)
.LVL834:
	.loc 6 146 35 view .LVU2573
.LBE6849:
.LBE6848:
.LBE6847:
.LBB6852:
.LBI6852:
	.loc 17 314 7 is_stmt 1 view .LVU2574
.LBE6852:
.LBE6845:
.LBE6844:
.LBE6843:
.LBE6928:
.LBE6982:
	.loc 17 320 2 view .LVU2575
.LBB6983:
.LBB6929:
.LBB6859:
.LBB6858:
.LBB6857:
.LBB6853:
.LBI6853:
	.loc 6 252 9 view .LVU2576
.LBB6854:
.LBB6855:
.LBI6855:
	.loc 6 232 9 view .LVU2577
.LBB6856:
	.loc 6 236 11 is_stmt 0 view .LVU2578
	movl	$.LC28+11, %edx
.LVL835:
	.loc 6 236 11 view .LVU2579
	movl	$.LC28, %esi
	leaq	16(%rsp), %rdi
.LVL836:
.LEHB20:
	.loc 6 236 11 view .LVU2580
	call	_ZNSt7__cxx1112basic_stringIcSt11char_traitsIcESaIcEE12_M_constructIPKcEEvT_S8_St20forward_iterator_tag
.LVL837:
.LEHE20:
	.loc 6 236 11 view .LVU2581
.LBE6856:
.LBE6855:
.LBE6854:
.LBE6853:
.LBE6857:
.LBE6858:
.LBE6859:
.LBB6860:
.LBI6860:
	.loc 31 201 25 is_stmt 1 view .LVU2582
.LBB6861:
	.loc 31 203 17 view .LVU2583
	.loc 31 203 35 is_stmt 0 view .LVU2584
	leaq	16(%rsp), %rdx
.LVL838:
	.loc 31 203 35 view .LVU2585
	movq	%r12, %rsi
	leaq	136(%rsp), %rdi
.LEHB21:
	call	_ZNK5boost6locale9generator8generateERKNSt7__cxx1112basic_stringIcSt11char_traitsIcESaIcEEE
.LVL839:
.LEHE21:
	.loc 31 203 35 view .LVU2586
.LBE6861:
.LBE6860:
	.loc 1 63 5 discriminator 4 view .LVU2587
	leaq	136(%rsp), %rdi
	call	_ZNSt6localeD1Ev
.LVL840:
.LBB6862:
.LBI6862:
	.loc 6 656 7 is_stmt 1 discriminator 4 view .LVU2588
.LBB6863:
.LBI6863:
	.loc 6 218 7 discriminator 4 view .LVU2589
.LBB6864:
.LBB6865:
.LBI6865:
	.loc 6 210 7 discriminator 4 view .LVU2590
.LBB6866:
.LBI6866:
	.loc 6 175 7 discriminator 4 view .LVU2591
.LBB6867:
	.loc 6 176 28 is_stmt 0 discriminator 4 view .LVU2592
	movq	16(%rsp), %rdi
.LVL841:
	.loc 6 176 28 discriminator 4 view .LVU2593
.LBE6867:
.LBE6866:
.LBB6868:
.LBI6868:
	.loc 6 189 7 is_stmt 1 discriminator 4 view .LVU2594
	.loc 6 189 7 is_stmt 0 discriminator 4 view .LVU2595
.LBE6868:
.LBE6865:
	.loc 6 220 2 discriminator 4 view .LVU2596
	leaq	32(%rsp), %rax
	cmpq	%rax, %rdi
	je	.L175
.LVL842:
.LBB6869:
.LBI6869:
	.loc 6 225 7 is_stmt 1 view .LVU2597
.LBB6870:
.LBI6870:
	.loc 7 461 7 view .LVU2598
.LBB6871:
.LBI6871:
	.loc 8 116 7 view .LVU2599
.LBB6872:
	.loc 8 125 19 is_stmt 0 view .LVU2600
	call	_ZdlPv
.LVL843:
	.loc 8 125 19 view .LVU2601
.LBE6872:
.LBE6871:
.LBE6870:
.LBE6869:
.LBE6864:
.LBE6863:
.LBB6873:
.LBI6873:
	.loc 6 139 14 is_stmt 1 view .LVU2602
.LBB6874:
.LBI6874:
	.loc 9 139 7 view .LVU2603
.LBB6875:
.LBI6875:
	.loc 8 86 7 view .LVU2604
	.loc 8 86 7 is_stmt 0 view .LVU2605
.LBE6875:
.LBE6874:
.LBE6873:
.LBE6862:
.LBB6876:
.LBI6876:
	.loc 9 139 7 is_stmt 1 view .LVU2606
.LBB6877:
.LBI6877:
	.loc 8 86 7 view .LVU2607
.L175:
	.loc 8 86 7 is_stmt 0 view .LVU2608
.LBE6877:
.LBE6876:
.LBE6929:
.LBE6983:
	.loc 1 64 1 view .LVU2609
	addq	$440, %rsp
	.cfi_remember_state
	.cfi_def_cfa_offset 56
	popq	%rbx
	.cfi_def_cfa_offset 48
	popq	%rbp
	.cfi_def_cfa_offset 40
.LVL844:
	.loc 1 64 1 view .LVU2610
	popq	%r12
	.cfi_def_cfa_offset 32
.LVL845:
	.loc 1 64 1 view .LVU2611
	popq	%r13
	.cfi_def_cfa_offset 24
.LVL846:
	.loc 1 64 1 view .LVU2612
	popq	%r14
	.cfi_def_cfa_offset 16
	popq	%r15
	.cfi_def_cfa_offset 8
	ret
.LVL847:
.L245:
	.cfi_restore_state
	.loc 1 64 1 view .LVU2613
	movq	%rax, %rbx
.LVL848:
.LBB6984:
.LBB6930:
.LBB6878:
.LBI6878:
	.loc 6 656 7 is_stmt 1 view .LVU2614
.LBB6879:
.LBI6879:
	.loc 6 218 7 view .LVU2615
.LBB6880:
.LBB6881:
.LBI6881:
	.loc 6 210 7 view .LVU2616
.LBB6882:
.LBI6882:
	.loc 6 175 7 view .LVU2617
.LBB6883:
	.loc 6 176 28 is_stmt 0 view .LVU2618
	movq	16(%rsp), %rdi
.LVL849:
	.loc 6 176 28 view .LVU2619
.LBE6883:
.LBE6882:
.LBB6884:
.LBI6884:
	.loc 6 189 7 is_stmt 1 view .LVU2620
	.loc 6 189 7 is_stmt 0 view .LVU2621
.LBE6884:
.LBE6881:
	.loc 6 220 2 view .LVU2622
	leaq	32(%rsp), %rax
	cmpq	%rax, %rdi
	je	.L232
.LVL850:
.LBB6885:
.LBI6885:
	.loc 6 225 7 is_stmt 1 view .LVU2623
.LBB6886:
.LBI6886:
	.loc 7 461 7 view .LVU2624
.LBB6887:
.LBI6887:
	.loc 8 116 7 view .LVU2625
.LBB6888:
	.loc 8 125 19 is_stmt 0 view .LVU2626
	call	_ZdlPv
.LVL851:
	.loc 8 125 19 view .LVU2627
.LBE6888:
.LBE6887:
.LBE6886:
.LBE6885:
.LBE6880:
.LBE6879:
.LBB6889:
.LBI6889:
	.loc 6 139 14 is_stmt 1 view .LVU2628
.LBB6890:
.LBI6890:
	.loc 9 139 7 view .LVU2629
.LBB6891:
.LBI6891:
	.loc 8 86 7 view .LVU2630
.L232:
	.loc 8 86 7 is_stmt 0 view .LVU2631
.LBE6891:
.LBE6890:
.LBE6889:
.LBE6878:
.LBE6930:
.LBB6931:
.LBI6931:
	.loc 26 300 7 is_stmt 1 view .LVU2632
.LBB6932:
	leaq	1272(%rbp), %rdi
.LVL852:
.LBB6933:
.LBI6933:
	.loc 11 964 7 view .LVU2633
.LBB6934:
.LBB6935:
.LBI6935:
	.loc 11 752 7 view .LVU2634
.LBB6936:
	.loc 11 753 73 is_stmt 0 view .LVU2635
	movq	1288(%rbp), %rsi
.LVL853:
	.loc 11 753 73 view .LVU2636
.LBE6936:
.LBE6935:
	.loc 11 965 9 view .LVU2637
	call	_ZNSt8_Rb_treeIN3mpp9ReqParser5StateESt4pairIKS2_NSt7__cxx1112basic_stringIcSt11char_traitsIcESaIcEEEESt10_Select1stISB_ESt4lessIS2_ESaISB_EE8_M_eraseEPSt13_Rb_tree_nodeISB_E
.LVL854:
.LBB6937:
.LBI6937:
	.loc 11 692 9 is_stmt 1 view .LVU2638
.LBB6938:
.LBI6938:
	.loc 9 139 7 view .LVU2639
.LBB6939:
.LBI6939:
	.loc 8 86 7 view .LVU2640
	.loc 8 86 7 is_stmt 0 view .LVU2641
.LBE6939:
.LBE6938:
.LBE6937:
.LBE6934:
.LBE6933:
.LBE6932:
.LBE6931:
	.loc 1 24 26 view .LVU2642
	movq	%r12, %rdi
	call	_ZN5boost6locale9generatorD1Ev
.LVL855:
	movq	%rbx, %r12
.L235:
	.loc 1 24 26 discriminator 5 view .LVU2643
	leaq	1200(%rbp), %rbx
.LVL856:
.LBB6940:
.LBI6940:
	.loc 29 94 12 is_stmt 1 discriminator 5 view .LVU2644
.LBB6941:
	movq	%rbx, %r13
	testq	%rbx, %rbx
	je	.L236
	.loc 29 94 12 is_stmt 0 view .LVU2645
	leaq	1264(%rbp), %rbx
.LVL857:
.L238:
	.loc 29 94 12 view .LVU2646
	cmpq	%rbx, %r13
	je	.L236
	subq	$32, %rbx
.LVL858:
.LBB6942:
.LBI6942:
	.loc 6 656 7 is_stmt 1 view .LVU2647
.LBB6943:
.LBI6943:
	.loc 6 218 7 view .LVU2648
.LBB6944:
.LBB6945:
.LBI6945:
	.loc 6 210 7 view .LVU2649
.LBB6946:
.LBI6946:
	.loc 6 175 7 view .LVU2650
.LBB6947:
	.loc 6 176 28 is_stmt 0 view .LVU2651
	movq	(%rbx), %rdi
.LVL859:
	.loc 6 176 28 view .LVU2652
.LBE6947:
.LBE6946:
.LBB6948:
.LBI6948:
	.loc 6 189 7 is_stmt 1 view .LVU2653
.LBB6949:
	.loc 6 192 57 is_stmt 0 view .LVU2654
	leaq	16(%rbx), %rax
.LVL860:
	.loc 6 192 57 view .LVU2655
.LBE6949:
.LBE6948:
.LBE6945:
	.loc 6 220 2 view .LVU2656
	cmpq	%rax, %rdi
	je	.L238
.LVL861:
.LBB6950:
.LBI6950:
	.loc 6 225 7 is_stmt 1 view .LVU2657
.LBB6951:
.LBI6951:
	.loc 7 461 7 view .LVU2658
.LBB6952:
.LBI6952:
	.loc 8 116 7 view .LVU2659
.LBB6953:
	.loc 8 125 19 is_stmt 0 view .LVU2660
	call	_ZdlPv
.LVL862:
	.loc 8 125 19 view .LVU2661
.LBE6953:
.LBE6952:
.LBE6951:
.LBE6950:
.LBE6944:
.LBE6943:
.LBB6954:
.LBI6954:
	.loc 6 139 14 is_stmt 1 view .LVU2662
.LBB6955:
.LBI6955:
	.loc 9 139 7 view .LVU2663
.LBB6956:
.LBI6956:
	.loc 8 86 7 view .LVU2664
	.loc 8 86 7 is_stmt 0 view .LVU2665
	jmp	.L238
.LVL863:
.L246:
	.loc 8 86 7 view .LVU2666
	movq	%rax, %rbx
.LVL864:
	.loc 8 86 7 view .LVU2667
.LBE6956:
.LBE6955:
.LBE6954:
.LBE6942:
.LBE6941:
.LBE6940:
.LBB6957:
.LBB6892:
.LBI6892:
	.loc 6 656 7 is_stmt 1 view .LVU2668
.LBB6893:
.LBI6893:
	.loc 6 218 7 view .LVU2669
.LBB6894:
.LBB6895:
.LBI6895:
	.loc 6 210 7 view .LVU2670
.LBB6896:
.LBI6896:
	.loc 6 175 7 view .LVU2671
.LBB6897:
	.loc 6 176 28 is_stmt 0 view .LVU2672
	movq	16(%rsp), %rdi
.LVL865:
	.loc 6 176 28 view .LVU2673
.LBE6897:
.LBE6896:
.LBB6898:
.LBI6898:
	.loc 6 189 7 is_stmt 1 view .LVU2674
	.loc 6 189 7 is_stmt 0 view .LVU2675
.LBE6898:
.LBE6895:
	.loc 6 220 2 view .LVU2676
	leaq	32(%rsp), %rax
	cmpq	%rax, %rdi
	je	.L232
.LVL866:
.LBB6899:
.LBI6899:
	.loc 6 225 7 is_stmt 1 view .LVU2677
.LBB6900:
.LBI6900:
	.loc 7 461 7 view .LVU2678
.LBB6901:
.LBI6901:
	.loc 8 116 7 view .LVU2679
.LBB6902:
	.loc 8 125 19 is_stmt 0 view .LVU2680
	call	_ZdlPv
.LVL867:
	.loc 8 125 19 view .LVU2681
.LBE6902:
.LBE6901:
.LBE6900:
.LBE6899:
.LBE6894:
.LBE6893:
.LBB6903:
.LBI6903:
	.loc 6 139 14 is_stmt 1 view .LVU2682
.LBB6904:
.LBI6904:
	.loc 9 139 7 view .LVU2683
.LBB6905:
.LBI6905:
	.loc 8 86 7 view .LVU2684
	.loc 8 86 7 is_stmt 0 view .LVU2685
	jmp	.L232
.LVL868:
.L243:
	.loc 8 86 7 view .LVU2686
	movq	%rax, %r12
	jmp	.L235
.LVL869:
.L236:
	.loc 8 86 7 view .LVU2687
	movq	%r12, %rbx
.L239:
.LVL870:
	.loc 8 86 7 view .LVU2688
.LBE6905:
.LBE6904:
.LBE6903:
.LBE6892:
.LBE6957:
.LBB6958:
.LBI6958:
	.loc 29 94 12 is_stmt 1 view .LVU2689
.LBB6959:
	movq	%rbp, %r12
	addq	$24, %r12
	je	.L240
	addq	$1200, %rbp
.LVL871:
.L241:
	.loc 29 94 12 is_stmt 0 view .LVU2690
	cmpq	%rbp, %r12
	je	.L240
	subq	$392, %rbp
	movq	0(%rbp), %rax
	movq	%rbp, %rdi
	call	*(%rax)
.LVL872:
	jmp	.L241
.LVL873:
.L242:
	.loc 29 94 12 view .LVU2691
	movq	%rax, %rbx
	jmp	.L239
.LVL874:
.L240:
	.loc 29 94 12 view .LVU2692
	movq	%rbx, %rdi
.LEHB22:
	call	_Unwind_Resume
.LVL875:
.LEHE22:
.LBE6959:
.LBE6958:
.LBE6984:
	.cfi_endproc
.LFE6219:
	.section	.gcc_except_table
.LLSDA6219:
	.byte	0xff
	.byte	0xff
	.byte	0x1
	.uleb128 .LLSDACSE6219-.LLSDACSB6219
.LLSDACSB6219:
	.uleb128 .LEHB12-.LFB6219
	.uleb128 .LEHE12-.LEHB12
	.uleb128 .L249-.LFB6219
	.uleb128 0
	.uleb128 .LEHB13-.LFB6219
	.uleb128 .LEHE13-.LEHB13
	.uleb128 .L248-.LFB6219
	.uleb128 0
	.uleb128 .LEHB14-.LFB6219
	.uleb128 .LEHE14-.LEHB14
	.uleb128 .L247-.LFB6219
	.uleb128 0
	.uleb128 .LEHB15-.LFB6219
	.uleb128 .LEHE15-.LEHB15
	.uleb128 0
	.uleb128 0
	.uleb128 .LEHB16-.LFB6219
	.uleb128 .LEHE16-.LEHB16
	.uleb128 .L242-.LFB6219
	.uleb128 0
	.uleb128 .LEHB17-.LFB6219
	.uleb128 .LEHE17-.LEHB17
	.uleb128 .L243-.LFB6219
	.uleb128 0
	.uleb128 .LEHB18-.LFB6219
	.uleb128 .LEHE18-.LEHB18
	.uleb128 .L244-.LFB6219
	.uleb128 0
	.uleb128 .LEHB19-.LFB6219
	.uleb128 .LEHE19-.LEHB19
	.uleb128 .L245-.LFB6219
	.uleb128 0
	.uleb128 .LEHB20-.LFB6219
	.uleb128 .LEHE20-.LEHB20
	.uleb128 .L244-.LFB6219
	.uleb128 0
	.uleb128 .LEHB21-.LFB6219
	.uleb128 .LEHE21-.LEHB21
	.uleb128 .L246-.LFB6219
	.uleb128 0
	.uleb128 .LEHB22-.LFB6219
	.uleb128 .LEHE22-.LEHB22
	.uleb128 0
	.uleb128 0
.LLSDACSE6219:
	.text
	.size	_ZN3mpp9ReqParserC2Ev, .-_ZN3mpp9ReqParserC2Ev
	.globl	_ZN3mpp9ReqParserC1Ev
	.set	_ZN3mpp9ReqParserC1Ev,_ZN3mpp9ReqParserC2Ev
	.section	.rodata.str4.8,"aMS",@progbits,4
	.align 8
.LC29:
	.string	"R"
	.string	""
	.string	""
	.string	"e"
	.string	""
	.string	""
	.string	"q"
	.string	""
	.string	""
	.string	"P"
	.string	""
	.string	""
	.string	"a"
	.string	""
	.string	""
	.string	"r"
	.string	""
	.string	""
	.string	"s"
	.string	""
	.string	""
	.string	"e"
	.string	""
	.string	""
	.string	"r"
	.string	""
	.string	""
	.string	":"
	.string	""
	.string	""
	.string	":"
	.string	""
	.string	""
	.string	"c"
	.string	""
	.string	""
	.string	"o"
	.string	""
	.string	""
	.string	"n"
	.string	""
	.string	""
	.string	"s"
	.string	""
	.string	""
	.string	"u"
	.string	""
	.string	""
	.string	"m"
	.string	""
	.string	""
	.string	"e"
	.string	""
	.string	""
	.string	":"
	.string	""
	.string	""
	.string	" "
	.string	""
	.string	""
	.string	"c"
	.string	""
	.string	""
	.string	"o"
	.string	""
	.string	""
	.string	"m"
	.string	""
	.string	""
	.string	"p"
	.string	""
	.string	""
	.string	"a"
	.string	""
	.string	""
	.string	"r"
	.string	""
	.string	""
	.string	"i"
	.string	""
	.string	""
	.string	"n"
	.string	""
	.string	""
	.string	"g"
	.string	""
	.string	""
	.string	" "
	.string	""
	.string	""
	.string	"f"
	.string	""
	.string	""
	.string	"i"
	.string	""
	.string	""
	.string	"r"
	.string	""
	.string	""
	.string	"s"
	.string	""
	.string	""
	.string	"t"
	.string	""
	.string	""
	.string	" "
	.string	""
	.string	""
	.string	"c"
	.string	""
	.string	""
	.string	"h"
	.string	""
	.string	""
	.string	"a"
	.string	""
	.string	""
	.string	"r"
	.string	""
	.string	""
	.string	"a"
	.string	""
	.string	""
	.string	"c"
	.string	""
	.string	""
	.string	"t"
	.string	""
	.string	""
	.string	"e"
	.string	""
	.string	""
	.string	"r"
	.string	""
	.string	""
	.string	" "
	.string	""
	.string	""
	.string	"o"
	.string	""
	.string	""
	.string	"f"
	.string	""
	.string	""
	.string	" "
	.string	""
	.string	""
	.string	"v"
	.string	""
	.string	""
	.string	"e"
	.string	""
	.string	""
	.string	"r"
	.string	""
	.string	""
	.string	"b"
	.string	""
	.string	""
	.string	" "
	.string	""
	.string	""
	.string	"\""
	.string	""
	.string	""
	.string	""
	.string	""
	.string	""
	.string	""
	.align 8
.LC30:
	.string	"\""
	.string	""
	.string	""
	.string	" "
	.string	""
	.string	""
	.string	"t"
	.string	""
	.string	""
	.string	"o"
	.string	""
	.string	""
	.string	" "
	.string	""
	.string	""
	.string	"u"
	.string	""
	.string	""
	.string	"p"
	.string	""
	.string	""
	.string	"p"
	.string	""
	.string	""
	.string	"e"
	.string	""
	.string	""
	.string	"r"
	.string	""
	.string	""
	.string	"c"
	.string	""
	.string	""
	.string	"a"
	.string	""
	.string	""
	.string	"s"
	.string	""
	.string	""
	.string	"e"
	.string	""
	.string	""
	.string	" "
	.string	""
	.string	""
	.string	"c"
	.string	""
	.string	""
	.string	"h"
	.string	""
	.string	""
	.string	"a"
	.string	""
	.string	""
	.string	"r"
	.string	""
	.string	""
	.string	" "
	.string	""
	.string	""
	.string	"'"
	.string	""
	.string	""
	.string	""
	.string	""
	.string	""
	.string	""
	.section	.rodata.str4.4
	.align 4
.LC31:
	.string	"'"
	.string	""
	.string	""
	.string	""
	.string	""
	.string	""
	.string	""
	.section	.rodata.str4.8
	.align 8
.LC32:
	.string	"R"
	.string	""
	.string	""
	.string	"e"
	.string	""
	.string	""
	.string	"q"
	.string	""
	.string	""
	.string	"P"
	.string	""
	.string	""
	.string	"a"
	.string	""
	.string	""
	.string	"r"
	.string	""
	.string	""
	.string	"s"
	.string	""
	.string	""
	.string	"e"
	.string	""
	.string	""
	.string	"r"
	.string	""
	.string	""
	.string	":"
	.string	""
	.string	""
	.string	":"
	.string	""
	.string	""
	.string	"c"
	.string	""
	.string	""
	.string	"o"
	.string	""
	.string	""
	.string	"n"
	.string	""
	.string	""
	.string	"s"
	.string	""
	.string	""
	.string	"u"
	.string	""
	.string	""
	.string	"m"
	.string	""
	.string	""
	.string	"e"
	.string	""
	.string	""
	.string	":"
	.string	""
	.string	""
	.string	" "
	.string	""
	.string	""
	.string	"m"
	.string	""
	.string	""
	.string	"a"
	.string	""
	.string	""
	.string	"t"
	.string	""
	.string	""
	.string	"c"
	.string	""
	.string	""
	.string	"h"
	.string	""
	.string	""
	.string	"e"
	.string	""
	.string	""
	.string	"d"
	.string	""
	.string	""
	.string	" "
	.string	""
	.string	""
	.string	"v"
	.string	""
	.string	""
	.string	"e"
	.string	""
	.string	""
	.string	"r"
	.string	""
	.string	""
	.string	"b"
	.string	""
	.string	""
	.string	" "
	.string	""
	.string	""
	.string	"\""
	.string	""
	.string	""
	.string	""
	.string	""
	.string	""
	.string	""
	.section	.rodata.str1.1
.LC33:
	.string	"\""
	.section	.rodata.str4.8
	.align 8
.LC34:
	.string	"R"
	.string	""
	.string	""
	.string	"e"
	.string	""
	.string	""
	.string	"q"
	.string	""
	.string	""
	.string	"P"
	.string	""
	.string	""
	.string	"a"
	.string	""
	.string	""
	.string	"r"
	.string	""
	.string	""
	.string	"s"
	.string	""
	.string	""
	.string	"e"
	.string	""
	.string	""
	.string	"r"
	.string	""
	.string	""
	.string	":"
	.string	""
	.string	""
	.string	":"
	.string	""
	.string	""
	.string	"c"
	.string	""
	.string	""
	.string	"o"
	.string	""
	.string	""
	.string	"n"
	.string	""
	.string	""
	.string	"s"
	.string	""
	.string	""
	.string	"u"
	.string	""
	.string	""
	.string	"m"
	.string	""
	.string	""
	.string	"e"
	.string	""
	.string	""
	.string	":"
	.string	""
	.string	""
	.string	" "
	.string	""
	.string	""
	.string	"d"
	.string	""
	.string	""
	.string	"i"
	.string	""
	.string	""
	.string	"d"
	.string	""
	.string	""
	.string	"n"
	.string	""
	.string	""
	.string	"'"
	.string	""
	.string	""
	.string	"t"
	.string	""
	.string	""
	.string	" "
	.string	""
	.string	""
	.string	"m"
	.string	""
	.string	""
	.string	"a"
	.string	""
	.string	""
	.string	"t"
	.string	""
	.string	""
	.string	"c"
	.string	""
	.string	""
	.string	"h"
	.string	""
	.string	""
	.string	" "
	.string	""
	.string	""
	.string	"v"
	.string	""
	.string	""
	.string	"e"
	.string	""
	.string	""
	.string	"r"
	.string	""
	.string	""
	.string	"b"
	.string	""
	.string	""
	.string	" "
	.string	""
	.string	""
	.string	"\""
	.string	""
	.string	""
	.string	""
	.string	""
	.string	""
	.string	""
	.text
	.type	_ZSt9__find_ifIPKNSt7__cxx1112basic_stringIwSt11char_traitsIwESaIwEEEN9__gnu_cxx5__ops10_Iter_predIZN3mpp9ReqParser7consumeERNSB_7RequestEwEUlS5_E_EEET_SH_SH_T0_St26random_access_iterator_tag, @function
_ZSt9__find_ifIPKNSt7__cxx1112basic_stringIwSt11char_traitsIwESaIwEEEN9__gnu_cxx5__ops10_Iter_predIZN3mpp9ReqParser7consumeERNSB_7RequestEwEUlS5_E_EEET_SH_SH_T0_St26random_access_iterator_tag:
.LVL876:
.LFB7162:
	.loc 28 112 5 is_stmt 1 view -0
	.cfi_startproc
	.cfi_personality 0x3,__gxx_personality_v0
	.cfi_lsda 0x3,.LLSDA7162
	.loc 28 112 5 is_stmt 0 view .LVU2694
	pushq	%r15
	.cfi_def_cfa_offset 16
	.cfi_offset 15, -16
	pushq	%r14
	.cfi_def_cfa_offset 24
	.cfi_offset 14, -24
	pushq	%r13
	.cfi_def_cfa_offset 32
	.cfi_offset 13, -32
	pushq	%r12
	.cfi_def_cfa_offset 40
	.cfi_offset 12, -40
	pushq	%rbp
	.cfi_def_cfa_offset 48
	.cfi_offset 6, -48
	pushq	%rbx
	.cfi_def_cfa_offset 56
	.cfi_offset 3, -56
	subq	$72, %rsp
	.cfi_def_cfa_offset 128
	movq	%rdi, %rbx
	movq	%rsi, 8(%rsp)
	movl	%edx, %ebp
	.loc 28 116 25 view .LVU2695
	movq	%rsi, %r15
	subq	%rdi, %r15
	.loc 28 116 2 view .LVU2696
	sarq	$7, %r15
.LVL877:
	.loc 28 116 2 view .LVU2697
	jmp	.L299
.LVL878:
.L399:
.LBB7986:
.LBB7987:
.LBB7988:
.LBB7989:
.LBB7990:
.LBI7990:
	.loc 6 6314 5 is_stmt 1 view .LVU2698
.LBB7991:
.LBB7992:
.LBI7992:
	.loc 6 921 7 view .LVU2699
	.loc 6 921 7 is_stmt 0 view .LVU2700
.LBE7992:
.LBB7993:
.LBI7993:
	.loc 6 2293 7 is_stmt 1 view .LVU2701
.LBB7994:
.LBI7994:
	.loc 6 175 7 view .LVU2702
	.loc 6 175 7 is_stmt 0 view .LVU2703
.LBE7994:
.LBE7993:
	.loc 6 6319 30 view .LVU2704
	movq	40(%rsp), %rdx
	movq	32(%rsp), %rsi
	movl	$_ZSt5wcout, %edi
.LEHB23:
	call	_ZSt16__ostream_insertIwSt11char_traitsIwEERSt13basic_ostreamIT_T0_ES6_PKS3_l
.LVL879:
	movq	%rax, %r12
.LVL880:
	.loc 6 6319 30 view .LVU2705
.LBE7991:
.LBE7990:
.LBB7995:
.LBI7995:
	.loc 19 539 5 is_stmt 1 view .LVU2706
.LBB7996:
.LBB7997:
.LBI7997:
	.loc 17 424 7 view .LVU2707
.LBB7998:
	.loc 17 431 4 view .LVU2708
	.loc 17 431 17 is_stmt 0 view .LVU2709
	movl	$.LC30, %edi
	call	wcslen
.LVL881:
	.loc 17 431 17 view .LVU2710
.LBE7998:
.LBE7997:
	.loc 19 544 18 view .LVU2711
	movq	%rax, %rdx
	movl	$.LC30, %esi
	movq	%r12, %rdi
	call	_ZSt16__ostream_insertIwSt11char_traitsIwEERSt13basic_ostreamIT_T0_ES6_PKS3_l
.LVL882:
	.loc 19 544 18 view .LVU2712
	movl	%ebp, 28(%rsp)
.LVL883:
	.loc 19 544 18 view .LVU2713
.LBE7996:
.LBE7995:
.LBB7999:
.LBI7999:
	.loc 19 497 5 is_stmt 1 view .LVU2714
.LBB8000:
	.loc 19 498 30 is_stmt 0 view .LVU2715
	movl	$1, %edx
	leaq	28(%rsp), %rsi
	movq	%r12, %rdi
	call	_ZSt16__ostream_insertIwSt11char_traitsIwEERSt13basic_ostreamIT_T0_ES6_PKS3_l
.LVL884:
	.loc 19 498 30 view .LVU2716
	movq	%rax, %r12
.LVL885:
	.loc 19 498 30 view .LVU2717
.LBE8000:
.LBE7999:
.LBB8001:
.LBI8001:
	.loc 19 539 5 is_stmt 1 view .LVU2718
.LBB8002:
.LBB8003:
.LBI8003:
	.loc 17 424 7 view .LVU2719
.LBB8004:
	.loc 17 431 4 view .LVU2720
	.loc 17 431 17 is_stmt 0 view .LVU2721
	movl	$.LC31, %edi
	call	wcslen
.LVL886:
	.loc 17 431 17 view .LVU2722
.LBE8004:
.LBE8003:
	.loc 19 544 18 view .LVU2723
	movq	%rax, %rdx
	movl	$.LC31, %esi
	movq	%r12, %rdi
	call	_ZSt16__ostream_insertIwSt11char_traitsIwEERSt13basic_ostreamIT_T0_ES6_PKS3_l
.LVL887:
	.loc 19 544 18 view .LVU2724
.LBE8002:
.LBE8001:
.LBB8005:
.LBI8005:
	.loc 19 108 7 is_stmt 1 view .LVU2725
.LBB8006:
.LBI8006:
	.loc 19 590 5 view .LVU2726
.LBB8007:
	.loc 19 591 19 is_stmt 0 view .LVU2727
	movq	(%r12), %rax
	movq	%r12, %rcx
	addq	-24(%rax), %rcx
.LVL888:
.LBB8008:
.LBI8008:
	.loc 23 449 7 is_stmt 1 view .LVU2728
.LBB8009:
	.loc 23 450 30 is_stmt 0 view .LVU2729
	movq	240(%rcx), %rdi
.LVL889:
.LBB8010:
.LBI8010:
	.loc 23 47 5 is_stmt 1 view .LVU2730
.LBB8011:
	.loc 23 49 7 is_stmt 0 view .LVU2731
	testq	%rdi, %rdi
	je	.L361
.LVL890:
	.loc 23 49 7 view .LVU2732
.LBE8011:
.LBE8010:
.LBB8013:
.LBI8013:
	.loc 27 293 7 is_stmt 1 view .LVU2733
.LBB8014:
	.loc 27 294 34 is_stmt 0 view .LVU2734
	movq	(%rdi), %rax
	movl	$10, %esi
	call	*80(%rax)
.LVL891:
	.loc 27 294 34 view .LVU2735
	jmp	.L362
.LVL892:
.L361:
	.loc 27 294 34 view .LVU2736
.LBE8014:
.LBE8013:
.LBB8015:
.LBB8012:
	.loc 23 50 18 view .LVU2737
	call	_ZSt16__throw_bad_castv
.LVL893:
.LEHE23:
.L340:
	.loc 23 50 18 view .LVU2738
	movq	%rax, %rbx
.LVL894:
	.loc 23 50 18 view .LVU2739
.LBE8012:
.LBE8015:
.LBE8009:
.LBE8008:
.LBE8007:
.LBE8006:
.LBE8005:
	.loc 1 355 8 is_stmt 1 view .LVU2740
	.loc 1 346 8 view .LVU2741
	.loc 1 346 8 is_stmt 0 view .LVU2742
.LBE7989:
.LBE7988:
.LBB8074:
.LBI8074:
	.loc 6 656 7 is_stmt 1 view .LVU2743
.LBB8075:
.LBI8075:
	.loc 6 218 7 view .LVU2744
.LBB8076:
.LBB8077:
.LBI8077:
	.loc 6 210 7 view .LVU2745
.LBB8078:
.LBI8078:
	.loc 6 175 7 view .LVU2746
.LBB8079:
	.loc 6 176 28 is_stmt 0 view .LVU2747
	movq	32(%rsp), %rdi
.LVL895:
	.loc 6 176 28 view .LVU2748
.LBE8079:
.LBE8078:
.LBB8080:
.LBI8080:
	.loc 6 189 7 is_stmt 1 view .LVU2749
	.loc 6 189 7 is_stmt 0 view .LVU2750
.LBE8080:
.LBE8077:
	.loc 6 220 2 view .LVU2751
	leaq	48(%rsp), %rax
	cmpq	%rax, %rdi
	je	.L271
.LVL896:
.LBB8081:
.LBI8081:
	.loc 6 225 7 is_stmt 1 view .LVU2752
.LBB8082:
.LBI8082:
	.loc 7 461 7 view .LVU2753
.LBB8083:
.LBI8083:
	.loc 8 116 7 view .LVU2754
.LBB8084:
	.loc 8 125 19 is_stmt 0 view .LVU2755
	call	_ZdlPv
.LVL897:
.L271:
	.loc 8 125 19 view .LVU2756
.LBE8084:
.LBE8083:
.LBE8082:
.LBE8081:
.LBE8076:
.LBE8075:
.LBB8085:
.LBI8085:
	.loc 6 139 14 is_stmt 1 view .LVU2757
.LBB8086:
.LBI8086:
	.loc 9 139 7 view .LVU2758
.LBB8087:
.LBI8087:
	.loc 8 86 7 view .LVU2759
	.loc 8 86 7 is_stmt 0 view .LVU2760
	movq	%rbx, %rdi
.LEHB24:
	call	_Unwind_Resume
.LVL898:
.LEHE24:
.L362:
	.loc 8 86 7 view .LVU2761
.LBE8087:
.LBE8086:
.LBE8085:
.LBE8074:
.LBB8088:
.LBB8071:
.LBB8020:
.LBB8019:
.LBB8018:
	.loc 19 591 19 view .LVU2762
	movl	%eax, %esi
	movq	%r12, %rdi
.LEHB25:
	call	_ZNSt13basic_ostreamIwSt11char_traitsIwEE3putEw
.LVL899:
.LBB8016:
.LBI8016:
	.loc 19 612 5 is_stmt 1 view .LVU2763
.LBB8017:
	.loc 19 613 25 is_stmt 0 view .LVU2764
	movq	%rax, %rdi
	call	_ZNSt13basic_ostreamIwSt11char_traitsIwEE5flushEv
.LVL900:
	.loc 19 613 25 view .LVU2765
.LBE8017:
.LBE8016:
.LBE8018:
.LBE8019:
.LBE8020:
	.loc 1 340 7 is_stmt 1 view .LVU2766
.LBB8021:
.LBI8021:
	.loc 6 1054 7 view .LVU2767
.LBB8022:
.LBI8022:
	.loc 6 175 7 view .LVU2768
	.loc 6 175 7 is_stmt 0 view .LVU2769
.LBE8022:
.LBE8021:
	.loc 1 340 7 view .LVU2770
	movq	32(%rsp), %rax
	cmpl	%ebp, (%rax)
	je	.L363
	.loc 1 352 8 is_stmt 1 view .LVU2771
.LVL901:
.LBB8023:
.LBI8023:
	.loc 19 539 5 view .LVU2772
.LBB8024:
.LBB8025:
.LBI8025:
	.loc 17 424 7 view .LVU2773
.LBB8026:
	.loc 17 431 4 view .LVU2774
	.loc 17 431 17 is_stmt 0 view .LVU2775
	movl	$.LC34, %edi
	call	wcslen
.LVL902:
	.loc 17 431 17 view .LVU2776
.LBE8026:
.LBE8025:
	.loc 19 544 18 view .LVU2777
	movq	%rax, %rdx
	movl	$.LC34, %esi
	movl	$_ZSt5wcout, %edi
	call	_ZSt16__ostream_insertIwSt11char_traitsIwEERSt13basic_ostreamIT_T0_ES6_PKS3_l
.LVL903:
	jmp	.L364
.LVL904:
.L363:
	.loc 19 544 18 view .LVU2778
.LBE8024:
.LBE8023:
	.loc 1 343 8 is_stmt 1 view .LVU2779
.LBB8027:
.LBI8027:
	.loc 19 539 5 view .LVU2780
.LBB8028:
.LBB8029:
.LBI8029:
	.loc 17 424 7 view .LVU2781
.LBB8030:
	.loc 17 431 4 view .LVU2782
	.loc 17 431 17 is_stmt 0 view .LVU2783
	movl	$.LC32, %edi
	call	wcslen
.LVL905:
	.loc 17 431 17 view .LVU2784
.LBE8030:
.LBE8029:
	.loc 19 544 18 view .LVU2785
	movq	%rax, %rdx
	movl	$.LC32, %esi
	movl	$_ZSt5wcout, %edi
	call	_ZSt16__ostream_insertIwSt11char_traitsIwEERSt13basic_ostreamIT_T0_ES6_PKS3_l
.LVL906:
	.loc 19 544 18 view .LVU2786
.LBE8028:
.LBE8027:
.LBB8031:
.LBI8031:
	.loc 6 6314 5 is_stmt 1 view .LVU2787
.LBB8032:
.LBB8033:
.LBI8033:
	.loc 6 921 7 view .LVU2788
	.loc 6 921 7 is_stmt 0 view .LVU2789
.LBE8033:
.LBB8034:
.LBI8034:
	.loc 6 2293 7 is_stmt 1 view .LVU2790
.LBB8035:
.LBI8035:
	.loc 6 175 7 view .LVU2791
	.loc 6 175 7 is_stmt 0 view .LVU2792
.LBE8035:
.LBE8034:
	.loc 6 6319 30 view .LVU2793
	movq	40(%rsp), %rdx
	movq	32(%rsp), %rsi
	movl	$_ZSt5wcout, %edi
	call	_ZSt16__ostream_insertIwSt11char_traitsIwEERSt13basic_ostreamIT_T0_ES6_PKS3_l
.LVL907:
	.loc 6 6319 30 view .LVU2794
.LBE8032:
.LBE8031:
	.loc 1 343 72 view .LVU2795
	movl	$.LC33, %esi
	movq	%rax, %rdi
	call	_ZStlsIwSt11char_traitsIwEERSt13basic_ostreamIT_T0_ES6_PKc
.LVL908:
	movq	%rax, %r12
.LVL909:
.LBB8036:
.LBI8036:
	.loc 19 108 7 is_stmt 1 view .LVU2796
.LBB8037:
.LBI8037:
	.loc 19 590 5 view .LVU2797
.LBB8038:
	.loc 19 591 19 is_stmt 0 view .LVU2798
	movq	(%rax), %rax
.LVL910:
	.loc 19 591 19 view .LVU2799
	movq	%r12, %rcx
	addq	-24(%rax), %rcx
.LVL911:
.LBB8039:
.LBI8039:
	.loc 23 449 7 is_stmt 1 view .LVU2800
.LBB8040:
	.loc 23 450 30 is_stmt 0 view .LVU2801
	movq	240(%rcx), %rdi
.LVL912:
.LBB8041:
.LBI8041:
	.loc 23 47 5 is_stmt 1 view .LVU2802
.LBB8042:
	.loc 23 49 7 is_stmt 0 view .LVU2803
	testq	%rdi, %rdi
	je	.L365
.LVL913:
	.loc 23 49 7 view .LVU2804
.LBE8042:
.LBE8041:
.LBB8044:
.LBI8044:
	.loc 27 293 7 is_stmt 1 view .LVU2805
.LBB8045:
	.loc 27 294 34 is_stmt 0 view .LVU2806
	movq	(%rdi), %rax
	movl	$10, %esi
	call	*80(%rax)
.LVL914:
	.loc 27 294 34 view .LVU2807
	jmp	.L366
.LVL915:
.L365:
	.loc 27 294 34 view .LVU2808
.LBE8045:
.LBE8044:
.LBB8046:
.LBB8043:
	.loc 23 50 18 view .LVU2809
	call	_ZSt16__throw_bad_castv
.LVL916:
.L366:
	.loc 23 50 18 view .LVU2810
.LBE8043:
.LBE8046:
.LBE8040:
.LBE8039:
	.loc 19 591 19 view .LVU2811
	movl	%eax, %esi
	movq	%r12, %rdi
	call	_ZNSt13basic_ostreamIwSt11char_traitsIwEE3putEw
.LVL917:
.LBB8047:
.LBI8047:
	.loc 19 612 5 is_stmt 1 view .LVU2812
.LBB8048:
	.loc 19 613 25 is_stmt 0 view .LVU2813
	movq	%rax, %rdi
	call	_ZNSt13basic_ostreamIwSt11char_traitsIwEE5flushEv
.LVL918:
	.loc 19 613 25 view .LVU2814
	jmp	.L367
.LVL919:
.L364:
	.loc 19 613 25 view .LVU2815
.LBE8048:
.LBE8047:
.LBE8038:
.LBE8037:
.LBE8036:
.LBB8049:
.LBI8049:
	.loc 6 6314 5 is_stmt 1 view .LVU2816
.LBB8050:
.LBB8051:
.LBI8051:
	.loc 6 921 7 view .LVU2817
	.loc 6 921 7 is_stmt 0 view .LVU2818
.LBE8051:
.LBB8052:
.LBI8052:
	.loc 6 2293 7 is_stmt 1 view .LVU2819
.LBB8053:
.LBI8053:
	.loc 6 175 7 view .LVU2820
	.loc 6 175 7 is_stmt 0 view .LVU2821
.LBE8053:
.LBE8052:
	.loc 6 6319 30 view .LVU2822
	movq	40(%rsp), %rdx
	movq	32(%rsp), %rsi
	movl	$_ZSt5wcout, %edi
	call	_ZSt16__ostream_insertIwSt11char_traitsIwEERSt13basic_ostreamIT_T0_ES6_PKS3_l
.LVL920:
	.loc 6 6319 30 view .LVU2823
.LBE8050:
.LBE8049:
	.loc 1 352 77 view .LVU2824
	movl	$.LC33, %esi
	movq	%rax, %rdi
	call	_ZStlsIwSt11char_traitsIwEERSt13basic_ostreamIT_T0_ES6_PKc
.LVL921:
	movq	%rax, %r12
.LVL922:
.LBB8054:
.LBI8054:
	.loc 19 108 7 is_stmt 1 view .LVU2825
.LBB8055:
.LBI8055:
	.loc 19 590 5 view .LVU2826
.LBB8056:
	.loc 19 591 19 is_stmt 0 view .LVU2827
	movq	(%rax), %rax
.LVL923:
	.loc 19 591 19 view .LVU2828
	movq	%r12, %rcx
	addq	-24(%rax), %rcx
.LVL924:
.LBB8057:
.LBI8057:
	.loc 23 449 7 is_stmt 1 view .LVU2829
.LBB8058:
	.loc 23 450 30 is_stmt 0 view .LVU2830
	movq	240(%rcx), %rdi
.LVL925:
.LBB8059:
.LBI8059:
	.loc 23 47 5 is_stmt 1 view .LVU2831
.LBB8060:
	.loc 23 49 7 is_stmt 0 view .LVU2832
	testq	%rdi, %rdi
	je	.L368
.LVL926:
	.loc 23 49 7 view .LVU2833
.LBE8060:
.LBE8059:
.LBB8062:
.LBI8062:
	.loc 27 293 7 is_stmt 1 view .LVU2834
.LBB8063:
	.loc 27 294 34 is_stmt 0 view .LVU2835
	movq	(%rdi), %rax
	movl	$10, %esi
	call	*80(%rax)
.LVL927:
	.loc 27 294 34 view .LVU2836
	jmp	.L369
.LVL928:
.L368:
	.loc 27 294 34 view .LVU2837
.LBE8063:
.LBE8062:
.LBB8064:
.LBB8061:
	.loc 23 50 18 view .LVU2838
	call	_ZSt16__throw_bad_castv
.LVL929:
.L369:
	.loc 23 50 18 view .LVU2839
.LBE8061:
.LBE8064:
.LBE8058:
.LBE8057:
	.loc 19 591 19 view .LVU2840
	movl	%eax, %esi
	movq	%r12, %rdi
	call	_ZNSt13basic_ostreamIwSt11char_traitsIwEE3putEw
.LVL930:
.LBB8065:
.LBI8065:
	.loc 19 612 5 is_stmt 1 view .LVU2841
.LBB8066:
	.loc 19 613 25 is_stmt 0 view .LVU2842
	movq	%rax, %rdi
	call	_ZNSt13basic_ostreamIwSt11char_traitsIwEE5flushEv
.LVL931:
.LEHE25:
	.loc 19 613 25 view .LVU2843
.LBE8066:
.LBE8065:
.LBE8056:
.LBE8055:
.LBE8054:
	.loc 1 355 15 view .LVU2844
	movl	$0, %r13d
.LVL932:
.L265:
	.loc 1 355 8 is_stmt 1 view .LVU2845
	.loc 1 346 8 view .LVU2846
	.loc 1 346 8 is_stmt 0 view .LVU2847
.LBE8071:
.LBE8088:
.LBB8089:
.LBI8089:
	.loc 6 656 7 is_stmt 1 view .LVU2848
.LBB8090:
.LBI8090:
	.loc 6 218 7 view .LVU2849
.LBB8091:
.LBB8092:
.LBI8092:
	.loc 6 210 7 view .LVU2850
.LBB8093:
.LBI8093:
	.loc 6 175 7 view .LVU2851
.LBB8094:
	.loc 6 176 28 is_stmt 0 view .LVU2852
	movq	32(%rsp), %rdi
.LVL933:
	.loc 6 176 28 view .LVU2853
.LBE8094:
.LBE8093:
.LBB8095:
.LBI8095:
	.loc 6 189 7 is_stmt 1 view .LVU2854
	.loc 6 189 7 is_stmt 0 view .LVU2855
.LBE8095:
.LBE8092:
	.loc 6 220 2 view .LVU2856
	leaq	48(%rsp), %rax
	cmpq	%rax, %rdi
	je	.L267
.LVL934:
.LBB8096:
.LBI8096:
	.loc 6 225 7 is_stmt 1 view .LVU2857
.LBB8097:
.LBI8097:
	.loc 7 461 7 view .LVU2858
.LBB8098:
.LBI8098:
	.loc 8 116 7 view .LVU2859
.LBB8099:
	.loc 8 125 19 is_stmt 0 view .LVU2860
	call	_ZdlPv
.LVL935:
.L267:
	.loc 8 125 19 view .LVU2861
.LBE8099:
.LBE8098:
.LBE8097:
.LBE8096:
.LBE8091:
.LBE8090:
.LBB8100:
.LBI8100:
	.loc 6 139 14 is_stmt 1 view .LVU2862
.LBB8101:
.LBI8101:
	.loc 9 139 7 view .LVU2863
.LBB8102:
.LBI8102:
	.loc 8 86 7 view .LVU2864
	.loc 8 86 7 is_stmt 0 view .LVU2865
.LBE8102:
.LBE8101:
.LBE8100:
.LBE8089:
.LBE7987:
.LBE7986:
	.loc 28 120 4 view .LVU2866
	testb	%r13b, %r13b
	jne	.L370
	.loc 28 122 4 view .LVU2867
	leaq	32(%rbx), %r12
.LVL936:
.LBB8133:
.LBI8133:
	.file 32 "/usr/include/c++/8/bits/predefined_ops.h"
	.loc 32 282 2 is_stmt 1 view .LVU2868
.LBB8134:
.LBB8135:
.LBI8135:
	.loc 6 437 7 view .LVU2869
.LBB8136:
.LBB8137:
.LBB8138:
.LBI8138:
	.loc 6 279 7 view .LVU2870
	.loc 6 279 7 is_stmt 0 view .LVU2871
.LBE8138:
.LBB8139:
.LBI8139:
	.loc 21 94 19 is_stmt 1 view .LVU2872
.LBB8140:
.LBI8140:
	.loc 7 504 7 view .LVU2873
.LBB8141:
.LBI8141:
	.loc 9 133 7 view .LVU2874
.LBB8142:
.LBI8142:
	.loc 8 81 7 view .LVU2875
	.loc 8 81 7 is_stmt 0 view .LVU2876
.LBE8142:
.LBE8141:
.LBE8140:
.LBE8139:
.LBB8143:
.LBI8143:
	.loc 6 179 7 is_stmt 1 view .LVU2877
	.loc 6 179 7 is_stmt 0 view .LVU2878
.LBE8143:
.LBB8144:
.LBI8144:
	.loc 6 148 2 is_stmt 1 view .LVU2879
.LBB8145:
.LBB8146:
.LBB8147:
.LBI8147:
	.loc 22 99 5 view .LVU2880
	.loc 22 99 5 is_stmt 0 view .LVU2881
.LBE8147:
.LBB8148:
.LBI8148:
	.loc 9 133 7 is_stmt 1 view .LVU2882
.LBB8149:
.LBI8149:
	.loc 8 81 7 view .LVU2883
	.loc 8 81 7 is_stmt 0 view .LVU2884
.LBE8149:
.LBE8148:
	.loc 6 149 46 view .LVU2885
	leaq	48(%rsp), %rax
.LVL937:
	.loc 6 149 46 view .LVU2886
	movq	%rax, 32(%rsp)
.LVL938:
	.loc 6 149 46 view .LVU2887
.LBE8146:
.LBE8145:
.LBE8144:
.LBB8150:
.LBI8150:
	.loc 9 139 7 is_stmt 1 view .LVU2888
.LBB8151:
.LBI8151:
	.loc 8 86 7 view .LVU2889
	.loc 8 86 7 is_stmt 0 view .LVU2890
.LBE8151:
.LBE8150:
.LBB8152:
.LBI8152:
	.loc 6 175 7 is_stmt 1 view .LVU2891
.LBB8153:
	.loc 6 176 28 is_stmt 0 view .LVU2892
	movq	32(%rbx), %rsi
.LVL939:
	.loc 6 176 28 view .LVU2893
.LBE8153:
.LBE8152:
.LBB8154:
.LBI8154:
	.loc 6 927 7 is_stmt 1 view .LVU2894
.LBB8155:
	.loc 6 928 16 is_stmt 0 view .LVU2895
	movq	8(%r12), %rax
.LVL940:
	.loc 6 928 16 view .LVU2896
.LBE8155:
.LBE8154:
	.loc 6 440 9 view .LVU2897
	leaq	(%rsi,%rax,4), %rdx
.LVL941:
.LBB8156:
.LBI8156:
	.loc 6 175 7 is_stmt 1 view .LVU2898
	.loc 6 175 7 is_stmt 0 view .LVU2899
.LBE8156:
.LBB8157:
.LBI8157:
	.loc 6 252 9 is_stmt 1 view .LVU2900
.LBB8158:
.LBB8159:
.LBI8159:
	.loc 6 232 9 view .LVU2901
.LBB8160:
	.loc 6 236 11 is_stmt 0 view .LVU2902
	leaq	32(%rsp), %rdi
.LVL942:
.LEHB26:
	.loc 6 236 11 view .LVU2903
	call	_ZNSt7__cxx1112basic_stringIwSt11char_traitsIwESaIwEE12_M_constructIPwEEvT_S7_St20forward_iterator_tag
.LVL943:
.LEHE26:
	.loc 6 236 11 view .LVU2904
.LBE8160:
.LBE8159:
.LBE8158:
.LBE8157:
.LBE8137:
.LBE8136:
.LBE8135:
.LBB8161:
.LBI8161:
	.loc 1 334 122 is_stmt 1 view .LVU2905
.LBB8162:
	.loc 1 337 7 view .LVU2906
.LBB8163:
.LBI8163:
	.loc 19 539 5 view .LVU2907
.LBB8164:
.LBB8165:
.LBI8165:
	.loc 17 424 7 view .LVU2908
.LBB8166:
	.loc 17 431 4 view .LVU2909
	.loc 17 431 17 is_stmt 0 view .LVU2910
	movl	$.LC29, %edi
	call	wcslen
.LVL944:
	.loc 17 431 17 view .LVU2911
.LBE8166:
.LBE8165:
	.loc 19 544 18 view .LVU2912
	movq	%rax, %rdx
	movl	$.LC29, %esi
	movl	$_ZSt5wcout, %edi
.LEHB27:
	call	_ZSt16__ostream_insertIwSt11char_traitsIwEERSt13basic_ostreamIT_T0_ES6_PKS3_l
.LVL945:
	jmp	.L371
.LVL946:
.L367:
	.loc 19 544 18 view .LVU2913
.LBE8164:
.LBE8163:
.LBE8162:
.LBE8161:
.LBE8134:
.LBE8133:
.LBB8277:
.LBB8131:
.LBB8103:
.LBB8072:
	.loc 1 346 15 view .LVU2914
	movl	$1, %r13d
	jmp	.L265
.LVL947:
.L371:
	.loc 1 346 15 view .LVU2915
.LBE8072:
.LBE8103:
.LBE8131:
.LBE8277:
.LBB8278:
.LBB8276:
.LBB8246:
.LBB8244:
.LBB8167:
.LBI8167:
	.loc 6 6314 5 is_stmt 1 view .LVU2916
.LBB8168:
.LBB8169:
.LBI8169:
	.loc 6 921 7 view .LVU2917
	.loc 6 921 7 is_stmt 0 view .LVU2918
.LBE8169:
.LBB8170:
.LBI8170:
	.loc 6 2293 7 is_stmt 1 view .LVU2919
.LBB8171:
.LBI8171:
	.loc 6 175 7 view .LVU2920
	.loc 6 175 7 is_stmt 0 view .LVU2921
.LBE8171:
.LBE8170:
	.loc 6 6319 30 view .LVU2922
	movq	40(%rsp), %rdx
	movq	32(%rsp), %rsi
	movl	$_ZSt5wcout, %edi
	call	_ZSt16__ostream_insertIwSt11char_traitsIwEERSt13basic_ostreamIT_T0_ES6_PKS3_l
.LVL948:
	movq	%rax, %r14
.LVL949:
	.loc 6 6319 30 view .LVU2923
.LBE8168:
.LBE8167:
.LBB8172:
.LBI8172:
	.loc 19 539 5 is_stmt 1 view .LVU2924
.LBB8173:
.LBB8174:
.LBI8174:
	.loc 17 424 7 view .LVU2925
.LBB8175:
	.loc 17 431 4 view .LVU2926
	.loc 17 431 17 is_stmt 0 view .LVU2927
	movl	$.LC30, %edi
	call	wcslen
.LVL950:
	.loc 17 431 17 view .LVU2928
.LBE8175:
.LBE8174:
	.loc 19 544 18 view .LVU2929
	movq	%rax, %rdx
	movl	$.LC30, %esi
	movq	%r14, %rdi
	call	_ZSt16__ostream_insertIwSt11char_traitsIwEERSt13basic_ostreamIT_T0_ES6_PKS3_l
.LVL951:
	.loc 19 544 18 view .LVU2930
	movl	%ebp, 28(%rsp)
.LVL952:
	.loc 19 544 18 view .LVU2931
.LBE8173:
.LBE8172:
.LBB8176:
.LBI8176:
	.loc 19 497 5 is_stmt 1 view .LVU2932
.LBB8177:
	.loc 19 498 30 is_stmt 0 view .LVU2933
	movl	$1, %edx
	leaq	28(%rsp), %rsi
.LVL953:
	.loc 19 498 30 view .LVU2934
	movq	%r14, %rdi
	call	_ZSt16__ostream_insertIwSt11char_traitsIwEERSt13basic_ostreamIT_T0_ES6_PKS3_l
.LVL954:
	.loc 19 498 30 view .LVU2935
	movq	%rax, %r14
.LVL955:
	.loc 19 498 30 view .LVU2936
.LBE8177:
.LBE8176:
.LBB8178:
.LBI8178:
	.loc 19 539 5 is_stmt 1 view .LVU2937
.LBB8179:
.LBB8180:
.LBI8180:
	.loc 17 424 7 view .LVU2938
.LBB8181:
	.loc 17 431 4 view .LVU2939
	.loc 17 431 17 is_stmt 0 view .LVU2940
	movl	$.LC31, %edi
	call	wcslen
.LVL956:
	.loc 17 431 17 view .LVU2941
.LBE8181:
.LBE8180:
	.loc 19 544 18 view .LVU2942
	movq	%rax, %rdx
	movl	$.LC31, %esi
	movq	%r14, %rdi
	call	_ZSt16__ostream_insertIwSt11char_traitsIwEERSt13basic_ostreamIT_T0_ES6_PKS3_l
.LVL957:
	.loc 19 544 18 view .LVU2943
.LBE8179:
.LBE8178:
.LBB8182:
.LBI8182:
	.loc 19 108 7 is_stmt 1 view .LVU2944
.LBB8183:
.LBI8183:
	.loc 19 590 5 view .LVU2945
.LBB8184:
	.loc 19 591 19 is_stmt 0 view .LVU2946
	movq	(%r14), %rax
	movq	%r14, %rcx
	addq	-24(%rax), %rcx
.LVL958:
.LBB8185:
.LBI8185:
	.loc 23 449 7 is_stmt 1 view .LVU2947
.LBB8186:
	.loc 23 450 30 is_stmt 0 view .LVU2948
	movq	240(%rcx), %rdi
.LVL959:
.LBB8187:
.LBI8187:
	.loc 23 47 5 is_stmt 1 view .LVU2949
.LBB8188:
	.loc 23 49 7 is_stmt 0 view .LVU2950
	testq	%rdi, %rdi
	je	.L372
.LVL960:
	.loc 23 49 7 view .LVU2951
.LBE8188:
.LBE8187:
.LBB8190:
.LBI8190:
	.loc 27 293 7 is_stmt 1 view .LVU2952
.LBB8191:
	.loc 27 294 34 is_stmt 0 view .LVU2953
	movq	(%rdi), %rax
	movl	$10, %esi
	call	*80(%rax)
.LVL961:
	.loc 27 294 34 view .LVU2954
	jmp	.L373
.LVL962:
.L372:
	.loc 27 294 34 view .LVU2955
.LBE8191:
.LBE8190:
.LBB8192:
.LBB8189:
	.loc 23 50 18 view .LVU2956
	call	_ZSt16__throw_bad_castv
.LVL963:
.LEHE27:
.L341:
	.loc 23 50 18 view .LVU2957
	movq	%rax, %rbx
.LBE8189:
.LBE8192:
.LBE8186:
.LBE8185:
.LBE8184:
.LBE8183:
.LBE8182:
	.loc 1 355 8 is_stmt 1 view .LVU2958
	.loc 1 346 8 view .LVU2959
.LVL964:
	.loc 1 346 8 is_stmt 0 view .LVU2960
.LBE8244:
.LBE8246:
.LBB8247:
.LBI8247:
	.loc 6 656 7 is_stmt 1 view .LVU2961
.LBB8248:
.LBI8248:
	.loc 6 218 7 view .LVU2962
.LBB8249:
.LBB8250:
.LBI8250:
	.loc 6 210 7 view .LVU2963
.LBB8251:
.LBI8251:
	.loc 6 175 7 view .LVU2964
.LBB8252:
	.loc 6 176 28 is_stmt 0 view .LVU2965
	movq	32(%rsp), %rdi
.LVL965:
	.loc 6 176 28 view .LVU2966
.LBE8252:
.LBE8251:
.LBB8253:
.LBI8253:
	.loc 6 189 7 is_stmt 1 view .LVU2967
	.loc 6 189 7 is_stmt 0 view .LVU2968
.LBE8253:
.LBE8250:
	.loc 6 220 2 view .LVU2969
	leaq	48(%rsp), %rax
	cmpq	%rax, %rdi
	je	.L280
.LVL966:
.LBB8254:
.LBI8254:
	.loc 6 225 7 is_stmt 1 view .LVU2970
.LBB8255:
.LBI8255:
	.loc 7 461 7 view .LVU2971
.LBB8256:
.LBI8256:
	.loc 8 116 7 view .LVU2972
.LBB8257:
	.loc 8 125 19 is_stmt 0 view .LVU2973
	call	_ZdlPv
.LVL967:
.L280:
	.loc 8 125 19 view .LVU2974
.LBE8257:
.LBE8256:
.LBE8255:
.LBE8254:
.LBE8249:
.LBE8248:
.LBB8258:
.LBI8258:
	.loc 6 139 14 is_stmt 1 view .LVU2975
.LBB8259:
.LBI8259:
	.loc 9 139 7 view .LVU2976
.LBB8260:
.LBI8260:
	.loc 8 86 7 view .LVU2977
	.loc 8 86 7 is_stmt 0 view .LVU2978
	movq	%rbx, %rdi
.LEHB28:
	call	_Unwind_Resume
.LVL968:
.LEHE28:
.L373:
	.loc 8 86 7 view .LVU2979
.LBE8260:
.LBE8259:
.LBE8258:
.LBE8247:
.LBB8261:
.LBB8245:
.LBB8197:
.LBB8196:
.LBB8195:
	.loc 19 591 19 view .LVU2980
	movl	%eax, %esi
	movq	%r14, %rdi
.LEHB29:
	call	_ZNSt13basic_ostreamIwSt11char_traitsIwEE3putEw
.LVL969:
.LBB8193:
.LBI8193:
	.loc 19 612 5 is_stmt 1 view .LVU2981
.LBB8194:
	.loc 19 613 25 is_stmt 0 view .LVU2982
	movq	%rax, %rdi
	call	_ZNSt13basic_ostreamIwSt11char_traitsIwEE5flushEv
.LVL970:
