	.file	"<artificial>"
	.text
.Ltext0:
	.align 2
	.type	_ZNK5boost4asio8executor4implINS0_10io_context13executor_typeESaIvEE6targetEv, @function
_ZNK5boost4asio8executor4implINS0_10io_context13executor_typeESaIvEE6targetEv:
.LVL0:
.LFB0:
	.file 1 "/usr/local/include/boost/asio/impl/executor.hpp"
	.loc 1 207 15 view -0
	.cfi_startproc
	.loc 1 209 13 view .LVU1
	leaq	24(%rdi), %rax
	.loc 1 210 3 view .LVU2
	ret
	.cfi_endproc
.LFE0:
	.size	_ZNK5boost4asio8executor4implINS0_10io_context13executor_typeESaIvEE6targetEv, .-_ZNK5boost4asio8executor4implINS0_10io_context13executor_typeESaIvEE6targetEv
	.align 2
	.type	_ZN5boost4asio8executor4implINS0_10io_context13executor_typeESaIvEE6targetEv, @function
_ZN5boost4asio8executor4implINS0_10io_context13executor_typeESaIvEE6targetEv:
.LVL1:
.LFB1:
	.loc 1 202 9 view -0
	.cfi_startproc
	.loc 1 204 13 view .LVU4
	leaq	24(%rdi), %rax
	.loc 1 205 3 view .LVU5
	ret
	.cfi_endproc
.LFE1:
	.size	_ZN5boost4asio8executor4implINS0_10io_context13executor_typeESaIvEE6targetEv, .-_ZN5boost4asio8executor4implINS0_10io_context13executor_typeESaIvEE6targetEv
	.align 2
	.type	_ZNK5boost4asio8executor4implINS0_10io_context13executor_typeESaIvEE11target_typeEv, @function
_ZNK5boost4asio8executor4implINS0_10io_context13executor_typeESaIvEE11target_typeEv:
.LVL2:
.LFB2:
	.loc 1 197 23 view -0
	.cfi_startproc
.LBB2:
.LBI2:
	.file 2 "/usr/local/include/boost/asio/executor.hpp"
	.loc 2 267 30 view .LVU7
.LBE2:
	.loc 1 200 3 is_stmt 0 view .LVU8
	movl	$_ZTIN5boost4asio10io_context13executor_typeE, %eax
	ret
	.cfi_endproc
.LFE2:
	.size	_ZNK5boost4asio8executor4implINS0_10io_context13executor_typeESaIvEE11target_typeEv, .-_ZNK5boost4asio8executor4implINS0_10io_context13executor_typeESaIvEE11target_typeEv
	.align 2
	.type	_ZN5boost4asio8executor4implINS0_10io_context13executor_typeESaIvEE7contextEv, @function
_ZN5boost4asio8executor4implINS0_10io_context13executor_typeESaIvEE7contextEv:
.LVL3:
.LFB3:
	.loc 1 177 22 is_stmt 1 view -0
	.cfi_startproc
.LBB3:
.LBI3:
	.file 3 "/usr/local/include/boost/asio/impl/io_context.hpp"
	.loc 3 235 1 view .LVU10
.LBB4:
	.loc 3 237 3 view .LVU11
	.loc 3 237 10 is_stmt 0 view .LVU12
	movq	24(%rdi), %rax
.LVL4:
	.loc 3 237 10 view .LVU13
.LBE4:
.LBE3:
	.loc 1 180 3 view .LVU14
	ret
	.cfi_endproc
.LFE3:
	.size	_ZN5boost4asio8executor4implINS0_10io_context13executor_typeESaIvEE7contextEv, .-_ZN5boost4asio8executor4implINS0_10io_context13executor_typeESaIvEE7contextEv
	.align 2
	.type	_ZN5boost4asio6detail10service_idINS1_18signal_set_serviceEED2Ev, @function
_ZN5boost4asio6detail10service_idINS1_18signal_set_serviceEED2Ev:
.LVL5:
.LFB4:
	.file 4 "/usr/local/include/boost/asio/execution_context.hpp"
	.loc 4 380 7 is_stmt 1 view -0
	.cfi_startproc
	.loc 4 380 7 is_stmt 0 view .LVU16
	ret
	.cfi_endproc
.LFE4:
	.size	_ZN5boost4asio6detail10service_idINS1_18signal_set_serviceEED2Ev, .-_ZN5boost4asio6detail10service_idINS1_18signal_set_serviceEED2Ev
	.set	_ZN5boost4asio6detail10service_idINS1_18signal_set_serviceEED1Ev,_ZN5boost4asio6detail10service_idINS1_18signal_set_serviceEED2Ev
	.align 2
	.type	_ZN5boost4asio6detail10service_idINS1_13epoll_reactorEED2Ev, @function
_ZN5boost4asio6detail10service_idINS1_13epoll_reactorEED2Ev:
.LVL6:
.LFB5:
	.loc 4 380 7 is_stmt 1 view -0
	.cfi_startproc
	.loc 4 380 7 is_stmt 0 view .LVU18
	ret
	.cfi_endproc
.LFE5:
	.size	_ZN5boost4asio6detail10service_idINS1_13epoll_reactorEED2Ev, .-_ZN5boost4asio6detail10service_idINS1_13epoll_reactorEED2Ev
	.set	_ZN5boost4asio6detail10service_idINS1_13epoll_reactorEED1Ev,_ZN5boost4asio6detail10service_idINS1_13epoll_reactorEED2Ev
	.align 2
	.type	_ZN5boost4asio6detail10service_idINS1_9schedulerEED2Ev, @function
_ZN5boost4asio6detail10service_idINS1_9schedulerEED2Ev:
.LVL7:
.LFB6:
	.loc 4 380 7 is_stmt 1 view -0
	.cfi_startproc
	.loc 4 380 7 is_stmt 0 view .LVU20
	ret
	.cfi_endproc
.LFE6:
	.size	_ZN5boost4asio6detail10service_idINS1_9schedulerEED2Ev, .-_ZN5boost4asio6detail10service_idINS1_9schedulerEED2Ev
	.set	_ZN5boost4asio6detail10service_idINS1_9schedulerEED1Ev,_ZN5boost4asio6detail10service_idINS1_9schedulerEED2Ev
	.align 2
	.type	_ZN5boost4asio6detail7tss_ptrINS1_10call_stackINS1_23strand_executor_service11strand_implEhE7contextEED2Ev, @function
_ZN5boost4asio6detail7tss_ptrINS1_10call_stackINS1_23strand_executor_service11strand_implEhE7contextEED2Ev:
.LVL8:
.LFB7:
	.file 5 "/usr/local/include/boost/asio/detail/tss_ptr.hpp"
	.loc 5 39 7 is_stmt 1 view -0
	.cfi_startproc
	.loc 5 39 7 is_stmt 0 view .LVU22
	ret
	.cfi_endproc
.LFE7:
	.size	_ZN5boost4asio6detail7tss_ptrINS1_10call_stackINS1_23strand_executor_service11strand_implEhE7contextEED2Ev, .-_ZN5boost4asio6detail7tss_ptrINS1_10call_stackINS1_23strand_executor_service11strand_implEhE7contextEED2Ev
	.set	_ZN5boost4asio6detail7tss_ptrINS1_10call_stackINS1_23strand_executor_service11strand_implEhE7contextEED1Ev,_ZN5boost4asio6detail7tss_ptrINS1_10call_stackINS1_23strand_executor_service11strand_implEhE7contextEED2Ev
	.align 2
	.type	_ZN5boost4asio6detail10service_idINS1_14strand_serviceEED2Ev, @function
_ZN5boost4asio6detail10service_idINS1_14strand_serviceEED2Ev:
.LVL9:
.LFB8:
	.loc 4 380 7 is_stmt 1 view -0
	.cfi_startproc
	.loc 4 380 7 is_stmt 0 view .LVU24
	ret
	.cfi_endproc
.LFE8:
	.size	_ZN5boost4asio6detail10service_idINS1_14strand_serviceEED2Ev, .-_ZN5boost4asio6detail10service_idINS1_14strand_serviceEED2Ev
	.set	_ZN5boost4asio6detail10service_idINS1_14strand_serviceEED1Ev,_ZN5boost4asio6detail10service_idINS1_14strand_serviceEED2Ev
	.align 2
	.type	_ZN5boost4asio6detail7tss_ptrINS1_10call_stackINS1_14strand_service11strand_implEhE7contextEED2Ev, @function
_ZN5boost4asio6detail7tss_ptrINS1_10call_stackINS1_14strand_service11strand_implEhE7contextEED2Ev:
.LVL10:
.LFB9:
	.loc 5 39 7 is_stmt 1 view -0
	.cfi_startproc
	.loc 5 39 7 is_stmt 0 view .LVU26
	ret
	.cfi_endproc
.LFE9:
	.size	_ZN5boost4asio6detail7tss_ptrINS1_10call_stackINS1_14strand_service11strand_implEhE7contextEED2Ev, .-_ZN5boost4asio6detail7tss_ptrINS1_10call_stackINS1_14strand_service11strand_implEhE7contextEED2Ev
	.set	_ZN5boost4asio6detail7tss_ptrINS1_10call_stackINS1_14strand_service11strand_implEhE7contextEED1Ev,_ZN5boost4asio6detail7tss_ptrINS1_10call_stackINS1_14strand_service11strand_implEhE7contextEED2Ev
	.align 2
	.type	_ZN5boost4asio6detail7tss_ptrINS1_10call_stackINS1_14thread_contextENS1_16thread_info_baseEE7contextEED2Ev, @function
_ZN5boost4asio6detail7tss_ptrINS1_10call_stackINS1_14thread_contextENS1_16thread_info_baseEE7contextEED2Ev:
.LVL11:
.LFB10:
	.loc 5 39 7 is_stmt 1 view -0
	.cfi_startproc
	.loc 5 39 7 is_stmt 0 view .LVU28
	ret
	.cfi_endproc
.LFE10:
	.size	_ZN5boost4asio6detail7tss_ptrINS1_10call_stackINS1_14thread_contextENS1_16thread_info_baseEE7contextEED2Ev, .-_ZN5boost4asio6detail7tss_ptrINS1_10call_stackINS1_14thread_contextENS1_16thread_info_baseEE7contextEED2Ev
	.set	_ZN5boost4asio6detail7tss_ptrINS1_10call_stackINS1_14thread_contextENS1_16thread_info_baseEE7contextEED1Ev,_ZN5boost4asio6detail7tss_ptrINS1_10call_stackINS1_14thread_contextENS1_16thread_info_baseEE7contextEED2Ev
	.align 2
	.type	_ZN5boost4asio6detail12posix_thread4funcINS1_9scheduler15thread_functionEED2Ev, @function
_ZN5boost4asio6detail12posix_thread4funcINS1_9scheduler15thread_functionEED2Ev:
.LVL12:
.LFB11:
	.file 6 "/usr/local/include/boost/asio/detail/posix_thread.hpp"
	.loc 6 75 9 is_stmt 1 view -0
	.cfi_startproc
.LBB5:
.LBI5:
	.loc 6 64 13 view .LVU30
	.loc 6 64 13 is_stmt 0 view .LVU31
.LBE5:
	.loc 6 75 9 view .LVU32
	ret
	.cfi_endproc
.LFE11:
	.size	_ZN5boost4asio6detail12posix_thread4funcINS1_9scheduler15thread_functionEED2Ev, .-_ZN5boost4asio6detail12posix_thread4funcINS1_9scheduler15thread_functionEED2Ev
	.set	_ZN5boost4asio6detail12posix_thread4funcINS1_9scheduler15thread_functionEED1Ev,_ZN5boost4asio6detail12posix_thread4funcINS1_9scheduler15thread_functionEED2Ev
	.align 2
	.type	_ZN5boost4asio8executor4implINS0_10io_context13executor_typeESaIvEED2Ev, @function
_ZN5boost4asio8executor4implINS0_10io_context13executor_typeESaIvEED2Ev:
.LVL13:
.LFB12:
	.loc 1 128 17 is_stmt 1 view -0
	.cfi_startproc
.LBB6:
.LBI6:
	.loc 2 296 13 view .LVU34
	.loc 2 296 13 is_stmt 0 view .LVU35
.LBE6:
	.loc 1 128 17 view .LVU36
	ret
	.cfi_endproc
.LFE12:
	.size	_ZN5boost4asio8executor4implINS0_10io_context13executor_typeESaIvEED2Ev, .-_ZN5boost4asio8executor4implINS0_10io_context13executor_typeESaIvEED2Ev
	.set	_ZN5boost4asio8executor4implINS0_10io_context13executor_typeESaIvEED1Ev,_ZN5boost4asio8executor4implINS0_10io_context13executor_typeESaIvEED2Ev
	.align 2
	.type	_ZNK5boost4asio15system_executor8dispatchINS0_6detail7binder2ISt5_BindIFM6ClientFvRKNS_6system10error_codeEiEPS6_St12_PlaceholderILi1EESE_ILi2EEEES8_iEESaIvEEEvOT_RKT0_, @function
_ZNK5boost4asio15system_executor8dispatchINS0_6detail7binder2ISt5_BindIFM6ClientFvRKNS_6system10error_codeEiEPS6_St12_PlaceholderILi1EESE_ILi2EEEES8_iEESaIvEEEvOT_RKT0_:
.LVL14:
.LFB13:
	.file 7 "/usr/local/include/boost/asio/impl/system_executor.hpp"
	.loc 7 35 6 is_stmt 1 view -0
	.cfi_startproc
	.loc 7 35 6 is_stmt 0 view .LVU38
	subq	$72, %rsp
	.cfi_def_cfa_offset 80
.LVL15:
.LBB59:
.LBI59:
	.file 8 "/usr/local/include/boost/asio/detail/bind_handler.hpp"
	.loc 8 154 3 is_stmt 1 view .LVU39
.LBB60:
.LBB61:
.LBB62:
.LBI62:
	.file 9 "/usr/include/c++/9/functional"
	.loc 9 472 7 view .LVU40
.LBB63:
.LBB64:
.LBI64:
	.file 10 "/usr/include/c++/9/bits/move.h"
	.loc 10 99 5 view .LVU41
	.loc 10 99 5 is_stmt 0 view .LVU42
.LBE64:
	.loc 9 473 78 view .LVU43
	movq	(%rsi), %rdx
	movq	8(%rsi), %rcx
	movq	%rdx, %rax
	movq	%rdx, (%rsp)
	movq	%rcx, 8(%rsp)
.LVL16:
.LBB65:
.LBI65:
	.loc 10 99 5 is_stmt 1 view .LVU44
	.loc 10 99 5 is_stmt 0 view .LVU45
.LBE65:
.LBB66:
.LBI66:
	.file 11 "/usr/include/c++/9/tuple"
	.loc 11 642 17 is_stmt 1 view .LVU46
.LBB67:
.LBI67:
	.loc 11 227 7 view .LVU47
.LBB68:
.LBI68:
	.loc 11 201 7 view .LVU48
	.loc 11 201 7 is_stmt 0 view .LVU49
.LBE68:
.LBB69:
.LBI69:
	.loc 10 99 5 is_stmt 1 view .LVU50
	.loc 10 99 5 is_stmt 0 view .LVU51
.LBE69:
.LBB70:
.LBI70:
	.loc 11 227 7 is_stmt 1 view .LVU52
	.loc 11 227 7 is_stmt 0 view .LVU53
.LBE70:
.LBB71:
.LBI71:
	.loc 11 195 7 is_stmt 1 view .LVU54
	.loc 11 195 7 is_stmt 0 view .LVU55
.LBE71:
.LBB72:
.LBI72:
	.loc 10 74 5 is_stmt 1 view .LVU56
	.loc 10 74 5 is_stmt 0 view .LVU57
.LBE72:
.LBB73:
.LBI73:
	.loc 11 132 19 is_stmt 1 view .LVU58
.LBB74:
.LBB75:
.LBB76:
.LBI76:
	.loc 10 74 5 view .LVU59
	.loc 10 74 5 is_stmt 0 view .LVU60
.LBE76:
	.loc 11 133 42 view .LVU61
	movq	16(%rsi), %rdi
.LVL17:
	.loc 11 133 42 view .LVU62
	movq	%rdi, 16(%rsp)
.LVL18:
	.loc 11 133 42 view .LVU63
.LBE75:
.LBE74:
.LBE73:
.LBE67:
.LBE66:
.LBE63:
.LBE62:
	.loc 8 157 45 view .LVU64
	movdqu	24(%rsi), %xmm0
	movups	%xmm0, 24(%rsp)
	.loc 8 157 39 view .LVU65
	movl	40(%rsi), %esi
.LVL19:
	.loc 8 157 45 view .LVU66
	movl	%esi, 40(%rsp)
.LVL20:
	.loc 8 157 45 view .LVU67
.LBE61:
.LBE60:
.LBE59:
.LBB77:
.LBI77:
	.file 12 "/usr/local/include/boost/asio/detail/handler_invoke_helpers.hpp"
	.loc 12 30 13 is_stmt 1 view .LVU68
.LBB78:
.LBI78:
	.loc 8 204 13 view .LVU69
.LBB79:
.LBI79:
	.loc 12 30 13 view .LVU70
.LBB80:
.LBI80:
	.file 13 "/usr/local/include/boost/asio/handler_invoke_hook.hpp"
	.loc 13 67 13 view .LVU71
.LBB81:
.LBI81:
	.loc 8 162 8 view .LVU72
.LBB82:
.LBI82:
	.loc 9 480 2 view .LVU73
.LBB83:
.LBB84:
.LBI84:
	.loc 11 1482 5 view .LVU74
.LBB85:
.LBI85:
	.loc 11 945 19 view .LVU75
.LBB86:
.LBI86:
	.loc 11 210 17 view .LVU76
.LBB87:
.LBI87:
	.loc 11 343 17 view .LVU77
.LBB88:
.LBI88:
	.loc 11 125 17 view .LVU78
.LBB89:
	.loc 11 126 25 is_stmt 0 view .LVU79
	leaq	40(%rsp), %r8
.LVL21:
	.loc 11 126 25 view .LVU80
	movq	%r8, 48(%rsp)
.LVL22:
	.loc 11 126 25 view .LVU81
.LBE89:
.LBE88:
.LBE87:
.LBB90:
.LBI90:
	.loc 11 125 17 is_stmt 1 view .LVU82
.LBB91:
	.loc 11 126 25 is_stmt 0 view .LVU83
	leaq	24(%rsp), %rsi
.LVL23:
	.loc 11 126 25 view .LVU84
	movq	%rsi, 56(%rsp)
.LVL24:
	.loc 11 126 25 view .LVU85
.LBE91:
.LBE90:
.LBE86:
.LBE85:
.LBE84:
.LBB92:
.LBI92:
	.loc 9 398 2 is_stmt 1 view .LVU86
.LBB93:
.LBI93:
	.loc 9 345 2 view .LVU87
.LBB94:
.LBI94:
	.loc 11 1332 5 view .LVU88
.LBB95:
.LBI95:
	.loc 11 1320 5 view .LVU89
.LBB96:
.LBI96:
	.loc 11 1309 5 view .LVU90
.LBB97:
.LBI97:
	.loc 11 334 7 view .LVU91
.LBB98:
.LBI98:
	.loc 11 160 7 view .LVU92
	.loc 11 160 7 is_stmt 0 view .LVU93
.LBE98:
.LBE97:
.LBE96:
.LBE95:
.LBE94:
.LBE93:
.LBB99:
.LBI99:
	.loc 9 345 2 is_stmt 1 view .LVU94
.LBB100:
.LBI100:
	.loc 11 1332 5 view .LVU95
.LBB101:
.LBI101:
	.loc 11 1320 5 view .LVU96
.LBB102:
.LBI102:
	.loc 11 1309 5 view .LVU97
.LBB103:
.LBI103:
	.loc 11 195 7 view .LVU98
.LBB104:
.LBI104:
	.loc 11 160 7 view .LVU99
	.loc 11 160 7 is_stmt 0 view .LVU100
.LBE104:
.LBE103:
.LBE102:
.LBE101:
.LBE100:
.LBE99:
.LBB105:
.LBI105:
	.file 14 "/usr/include/c++/9/bits/invoke.h"
	.loc 14 89 5 is_stmt 1 view .LVU101
.LBB106:
.LBI106:
	.loc 14 70 5 view .LVU102
.LBB107:
	.loc 14 73 46 is_stmt 0 view .LVU103
	testb	$1, %al
	je	.L15
	movq	(%rdi,%rcx), %r9
	movq	-1(%rdx,%r9), %rax
.L15:
	addq	8(%rsp), %rdi
	movl	(%r8), %edx
	call	*%rax
.LVL25:
	.loc 14 73 46 view .LVU104
.LBE107:
.LBE106:
.LBE105:
.LBE92:
.LBE83:
.LBE82:
.LBE81:
.LBE80:
.LBE79:
.LBE78:
.LBE77:
	.loc 7 40 1 view .LVU105
	addq	$72, %rsp
	.cfi_def_cfa_offset 8
	ret
	.cfi_endproc
.LFE13:
	.size	_ZNK5boost4asio15system_executor8dispatchINS0_6detail7binder2ISt5_BindIFM6ClientFvRKNS_6system10error_codeEiEPS6_St12_PlaceholderILi1EESE_ILi2EEEES8_iEESaIvEEEvOT_RKT0_, .-_ZNK5boost4asio15system_executor8dispatchINS0_6detail7binder2ISt5_BindIFM6ClientFvRKNS_6system10error_codeEiEPS6_St12_PlaceholderILi1EESE_ILi2EEEES8_iEESaIvEEEvOT_RKT0_
	.align 2
	.type	_ZN5boost4asio6detail16service_registry16init_key_from_idINS1_18signal_set_serviceEEEvRNS0_17execution_context7service3keyERKNS1_10service_idIT_EE, @function
_ZN5boost4asio6detail16service_registry16init_key_from_idINS1_18signal_set_serviceEEEvRNS0_17execution_context7service3keyERKNS1_10service_idIT_EE:
.LVL26:
.LFB15:
	.file 15 "/usr/local/include/boost/asio/detail/impl/service_registry.hpp"
	.loc 15 76 6 is_stmt 1 view -0
	.cfi_startproc
	.loc 15 79 3 view .LVU107
	movq	$_ZTIN5boost4asio6detail14typeid_wrapperINS1_18signal_set_serviceEEE, (%rdi)
	.loc 15 80 3 view .LVU108
	movq	$0, 8(%rdi)
	.loc 15 81 1 view .LVU109
	ret
	.cfi_endproc
.LFE15:
	.size	_ZN5boost4asio6detail16service_registry16init_key_from_idINS1_18signal_set_serviceEEEvRNS0_17execution_context7service3keyERKNS1_10service_idIT_EE, .-_ZN5boost4asio6detail16service_registry16init_key_from_idINS1_18signal_set_serviceEEEvRNS0_17execution_context7service3keyERKNS1_10service_idIT_EE
	.align 2
	.type	_ZN5boost4asio6detail16service_registry16init_key_from_idINS1_13epoll_reactorEEEvRNS0_17execution_context7service3keyERKNS1_10service_idIT_EE, @function
_ZN5boost4asio6detail16service_registry16init_key_from_idINS1_13epoll_reactorEEEvRNS0_17execution_context7service3keyERKNS1_10service_idIT_EE:
.LVL27:
.LFB16:
	.loc 15 76 6 view -0
	.cfi_startproc
	.loc 15 79 3 view .LVU111
	movq	$_ZTIN5boost4asio6detail14typeid_wrapperINS1_13epoll_reactorEEE, (%rdi)
	.loc 15 80 3 view .LVU112
	movq	$0, 8(%rdi)
	.loc 15 81 1 view .LVU113
	ret
	.cfi_endproc
.LFE16:
	.size	_ZN5boost4asio6detail16service_registry16init_key_from_idINS1_13epoll_reactorEEEvRNS0_17execution_context7service3keyERKNS1_10service_idIT_EE, .-_ZN5boost4asio6detail16service_registry16init_key_from_idINS1_13epoll_reactorEEEvRNS0_17execution_context7service3keyERKNS1_10service_idIT_EE
	.align 2
	.type	_ZN5boost4asio6detail16service_registry16init_key_from_idINS1_9schedulerEEEvRNS0_17execution_context7service3keyERKNS1_10service_idIT_EE, @function
_ZN5boost4asio6detail16service_registry16init_key_from_idINS1_9schedulerEEEvRNS0_17execution_context7service3keyERKNS1_10service_idIT_EE:
.LVL28:
.LFB17:
	.loc 15 76 6 view -0
	.cfi_startproc
	.loc 15 79 3 view .LVU115
	movq	$_ZTIN5boost4asio6detail14typeid_wrapperINS1_9schedulerEEE, (%rdi)
	.loc 15 80 3 view .LVU116
	movq	$0, 8(%rdi)
	.loc 15 81 1 view .LVU117
	ret
	.cfi_endproc
.LFE17:
	.size	_ZN5boost4asio6detail16service_registry16init_key_from_idINS1_9schedulerEEEvRNS0_17execution_context7service3keyERKNS1_10service_idIT_EE, .-_ZN5boost4asio6detail16service_registry16init_key_from_idINS1_9schedulerEEEvRNS0_17execution_context7service3keyERKNS1_10service_idIT_EE
	.align 2
	.type	_ZN5boost4asio6detail8op_queueINS1_9signal_opEED2Ev, @function
_ZN5boost4asio6detail8op_queueINS1_9signal_opEED2Ev:
.LVL29:
.LFB18:
	.file 16 "/usr/local/include/boost/asio/detail/op_queue.hpp"
	.loc 16 76 3 view -0
	.cfi_startproc
	.cfi_personality 0x3,__gxx_personality_v0
	.cfi_lsda 0x3,.LLSDA18
	.loc 16 76 3 is_stmt 0 view .LVU119
	pushq	%rbx
	.cfi_def_cfa_offset 16
	.cfi_offset 3, -16
	subq	$16, %rsp
	.cfi_def_cfa_offset 32
	movq	%rdi, %rbx
	jmp	.L23
.LVL30:
.L25:
.LBB108:
.LBB109:
.LBB110:
	.loc 16 99 9 view .LVU120
	movq	$0, 8(%rbx)
.L22:
.LVL31:
.LBB111:
.LBI111:
	.loc 16 39 15 is_stmt 1 view .LVU121
.LBB112:
	.loc 16 41 5 is_stmt 0 view .LVU122
	movq	$0, (%rsi)
.LVL32:
	.loc 16 41 5 view .LVU123
.LBE112:
.LBE111:
.LBE110:
.LBE109:
.LBB116:
.LBI116:
	.loc 16 45 15 is_stmt 1 view .LVU124
.LBB117:
.LBB118:
.LBI118:
	.file 17 "/usr/local/include/boost/asio/detail/scheduler_operation.hpp"
	.loc 17 43 8 view .LVU125
.LBB119:
	.loc 17 45 5 view .LVU126
	movq	8(%rsi), %r8
.LVL33:
.LBB120:
.LBI120:
	.file 18 "/usr/local/include/boost/system/error_code.hpp"
	.loc 18 583 15 view .LVU127
.LBB121:
.LBB122:
	.loc 18 584 63 is_stmt 0 view .LVU128
	movl	$0, (%rsp)
	movb	$0, 4(%rsp)
	movq	$_ZN5boost6system6detail10cat_holderIvE24system_category_instanceE, 8(%rsp)
.LVL34:
	.loc 18 584 63 view .LVU129
.LBE122:
.LBE121:
.LBE120:
	.loc 17 45 10 view .LVU130
	movl	$0, %ecx
	movq	%rsp, %rdx
	movl	$0, %edi
	call	*%r8
.LVL35:
.L23:
	.loc 17 45 10 view .LVU131
.LBE119:
.LBE118:
.LBE117:
.LBE116:
	.loc 16 78 23 view .LVU132
	movq	(%rbx), %rsi
.LVL36:
	.loc 16 78 5 view .LVU133
	testq	%rsi, %rsi
	je	.L20
.LVL37:
.LBB123:
.LBI109:
	.loc 16 92 8 is_stmt 1 view .LVU134
.LBB115:
.LBB113:
.LBI113:
	.loc 16 33 21 view .LVU135
.LBB114:
	.loc 16 35 44 is_stmt 0 view .LVU136
	movq	(%rsi), %rax
.LVL38:
	.loc 16 35 44 view .LVU137
.LBE114:
.LBE113:
	.loc 16 97 7 view .LVU138
	movq	%rax, (%rbx)
	.loc 16 98 7 view .LVU139
	testq	%rax, %rax
	jne	.L22
	jmp	.L25
.LVL39:
.L20:
	.loc 16 98 7 view .LVU140
.LBE115:
.LBE123:
.LBE108:
	.loc 16 83 3 view .LVU141
	addq	$16, %rsp
	.cfi_def_cfa_offset 16
	popq	%rbx
	.cfi_def_cfa_offset 8
.LVL40:
	.loc 16 83 3 view .LVU142
	ret
	.cfi_endproc
.LFE18:
	.globl	__gxx_personality_v0
	.section	.gcc_except_table,"a",@progbits
.LLSDA18:
	.byte	0xff
	.byte	0xff
	.byte	0x1
	.uleb128 .LLSDACSE18-.LLSDACSB18
.LLSDACSB18:
.LLSDACSE18:
	.text
	.size	_ZN5boost4asio6detail8op_queueINS1_9signal_opEED2Ev, .-_ZN5boost4asio6detail8op_queueINS1_9signal_opEED2Ev
	.set	_ZN5boost4asio6detail8op_queueINS1_9signal_opEED1Ev,_ZN5boost4asio6detail8op_queueINS1_9signal_opEED2Ev
	.align 2
	.type	_ZN5boost4asio6detail8op_queueINS1_19scheduler_operationEED2Ev, @function
_ZN5boost4asio6detail8op_queueINS1_19scheduler_operationEED2Ev:
.LVL41:
.LFB19:
	.loc 16 76 3 is_stmt 1 view -0
	.cfi_startproc
	.cfi_personality 0x3,__gxx_personality_v0
	.cfi_lsda 0x3,.LLSDA19
	.loc 16 76 3 is_stmt 0 view .LVU144
	pushq	%rbx
	.cfi_def_cfa_offset 16
	.cfi_offset 3, -16
	subq	$16, %rsp
	.cfi_def_cfa_offset 32
	movq	%rdi, %rbx
	jmp	.L29
.LVL42:
.L31:
.LBB141:
.LBB142:
.LBB143:
	.loc 16 99 9 view .LVU145
	movq	$0, 8(%rbx)
.L28:
.LVL43:
.LBB144:
.LBI144:
	.loc 16 39 15 is_stmt 1 view .LVU146
.LBB145:
	.loc 16 41 5 is_stmt 0 view .LVU147
	movq	$0, (%rsi)
.LVL44:
	.loc 16 41 5 view .LVU148
.LBE145:
.LBE144:
.LBE143:
.LBE142:
.LBB149:
.LBI149:
	.loc 16 45 15 is_stmt 1 view .LVU149
.LBB150:
.LBI150:
	.loc 17 43 8 view .LVU150
.LBB151:
	.loc 17 45 5 view .LVU151
	movq	8(%rsi), %r8
.LVL45:
.LBB152:
.LBI152:
	.loc 18 583 15 view .LVU152
.LBB153:
.LBB154:
	.loc 18 584 63 is_stmt 0 view .LVU153
	movl	$0, (%rsp)
	movb	$0, 4(%rsp)
	movq	$_ZN5boost6system6detail10cat_holderIvE24system_category_instanceE, 8(%rsp)
.LVL46:
	.loc 18 584 63 view .LVU154
.LBE154:
.LBE153:
.LBE152:
	.loc 17 45 10 view .LVU155
	movl	$0, %ecx
	movq	%rsp, %rdx
	movl	$0, %edi
	call	*%r8
.LVL47:
.L29:
	.loc 17 45 10 view .LVU156
.LBE151:
.LBE150:
.LBE149:
	.loc 16 78 23 view .LVU157
	movq	(%rbx), %rsi
.LVL48:
	.loc 16 78 5 view .LVU158
	testq	%rsi, %rsi
	je	.L26
.LVL49:
.LBB155:
.LBI142:
	.loc 16 92 8 is_stmt 1 view .LVU159
.LBB148:
.LBB146:
.LBI146:
	.loc 16 33 21 view .LVU160
.LBB147:
	.loc 16 35 44 is_stmt 0 view .LVU161
	movq	(%rsi), %rax
.LVL50:
	.loc 16 35 44 view .LVU162
.LBE147:
.LBE146:
	.loc 16 97 7 view .LVU163
	movq	%rax, (%rbx)
	.loc 16 98 7 view .LVU164
	testq	%rax, %rax
	jne	.L28
	jmp	.L31
.LVL51:
.L26:
	.loc 16 98 7 view .LVU165
.LBE148:
.LBE155:
.LBE141:
	.loc 16 83 3 view .LVU166
	addq	$16, %rsp
	.cfi_def_cfa_offset 16
	popq	%rbx
	.cfi_def_cfa_offset 8
.LVL52:
	.loc 16 83 3 view .LVU167
	ret
	.cfi_endproc
.LFE19:
	.section	.gcc_except_table
.LLSDA19:
	.byte	0xff
	.byte	0xff
	.byte	0x1
	.uleb128 .LLSDACSE19-.LLSDACSB19
.LLSDACSB19:
.LLSDACSE19:
	.text
	.size	_ZN5boost4asio6detail8op_queueINS1_19scheduler_operationEED2Ev, .-_ZN5boost4asio6detail8op_queueINS1_19scheduler_operationEED2Ev
	.set	_ZN5boost4asio6detail8op_queueINS1_19scheduler_operationEED1Ev,_ZN5boost4asio6detail8op_queueINS1_19scheduler_operationEED2Ev
	.section	.rodata.str1.1,"aMS",@progbits,1
.LC0:
	.string	"bad executor"
	.text
	.align 2
	.type	_ZNK5boost4asio12bad_executor4whatEv, @function
_ZNK5boost4asio12bad_executor4whatEv:
.LVL53:
.LFB21:
	.file 19 "/usr/local/include/boost/asio/impl/executor.ipp"
	.loc 19 31 1 is_stmt 1 view -0
	.cfi_startproc
	.loc 19 32 3 view .LVU169
	.loc 19 33 1 is_stmt 0 view .LVU170
	movl	$.LC0, %eax
	ret
	.cfi_endproc
.LFE21:
	.size	_ZNK5boost4asio12bad_executor4whatEv, .-_ZNK5boost4asio12bad_executor4whatEv
	.type	boost_asio_detail_posix_thread_function, @function
boost_asio_detail_posix_thread_function:
.LVL54:
.LFB22:
	.file 20 "/usr/local/include/boost/asio/detail/impl/posix_thread.ipp"
	.loc 20 71 1 is_stmt 1 view -0
	.cfi_startproc
	.cfi_personality 0x3,__gcc_personality_v0
	.cfi_lsda 0x3,.LLSDA22
	.loc 20 71 1 is_stmt 0 view .LVU172
	pushq	%rbp
	.cfi_def_cfa_offset 16
	.cfi_offset 6, -16
	pushq	%rbx
	.cfi_def_cfa_offset 24
	.cfi_offset 3, -24
	subq	$8, %rsp
	.cfi_def_cfa_offset 32
	movq	%rdi, %rbx
	.loc 20 72 3 is_stmt 1 view .LVU173
	.loc 20 74 3 view .LVU174
	.loc 20 74 17 is_stmt 0 view .LVU175
	movq	(%rdi), %rax
.LEHB0:
	.loc 20 74 16 view .LVU176
	call	*16(%rax)
.LVL55:
.LEHE0:
	.loc 20 75 3 is_stmt 1 view .LVU177
.LBB156:
.LBI156:
	.loc 6 71 5 view .LVU178
.LBB157:
	.loc 6 71 29 view .LVU179
	.loc 6 71 39 is_stmt 0 view .LVU180
	testq	%rbx, %rbx
	je	.L38
	.loc 6 71 36 view .LVU181
	movq	(%rbx), %rdx
	movq	%rbx, %rdi
	call	*8(%rdx)
.LVL56:
.L38:
	.loc 6 71 36 view .LVU182
.LBE157:
.LBE156:
	.loc 20 76 1 view .LVU183
	movl	$0, %eax
	addq	$8, %rsp
	.cfi_remember_state
	.cfi_def_cfa_offset 24
	popq	%rbx
	.cfi_def_cfa_offset 16
.LVL57:
	.loc 20 76 1 view .LVU184
	popq	%rbp
	.cfi_def_cfa_offset 8
	ret
.LVL58:
.L37:
	.cfi_restore_state
	.loc 20 76 1 view .LVU185
	movq	%rax, %rbp
.LVL59:
.LBB158:
.LBI158:
	.loc 6 71 5 is_stmt 1 view .LVU186
.LBB159:
	.loc 6 71 29 view .LVU187
	.loc 6 71 39 is_stmt 0 view .LVU188
	testq	%rbx, %rbx
	je	.L36
	.loc 6 71 36 view .LVU189
	movq	(%rbx), %rcx
	movq	%rbx, %rdi
	call	*8(%rcx)
.LVL60:
.L36:
	.loc 6 71 36 view .LVU190
	movq	%rbp, %rdi
.LEHB1:
	call	_Unwind_Resume
.LVL61:
.LEHE1:
.LBE159:
.LBE158:
	.cfi_endproc
.LFE22:
	.globl	__gcc_personality_v0
	.section	.gcc_except_table
.LLSDA22:
	.byte	0xff
	.byte	0xff
	.byte	0x1
	.uleb128 .LLSDACSE22-.LLSDACSB22
.LLSDACSB22:
	.uleb128 .LEHB0-.LFB22
	.uleb128 .LEHE0-.LEHB0
	.uleb128 .L37-.LFB22
	.uleb128 0
	.uleb128 .LEHB1-.LFB22
	.uleb128 .LEHE1-.LEHB1
	.uleb128 0
	.uleb128 0
.LLSDACSE22:
	.text
	.size	boost_asio_detail_posix_thread_function, .-boost_asio_detail_posix_thread_function
	.align 2
	.type	_ZN5boost4asio17execution_context7service11notify_forkENS1_10fork_eventE, @function
_ZN5boost4asio17execution_context7service11notify_forkENS1_10fork_eventE:
.LVL62:
.LFB23:
	.file 21 "/usr/local/include/boost/asio/impl/execution_context.ipp"
	.loc 21 66 1 is_stmt 1 view -0
	.cfi_startproc
	.loc 21 67 1 view .LVU192
	ret
	.cfi_endproc
.LFE23:
	.size	_ZN5boost4asio17execution_context7service11notify_forkENS1_10fork_eventE, .-_ZN5boost4asio17execution_context7service11notify_forkENS1_10fork_eventE
	.section	.rodata.str1.1
.LC1:
	.string	"asio.misc"
	.text
	.align 2
	.type	_ZNK5boost4asio5error6detail13misc_category4nameEv, @function
_ZNK5boost4asio5error6detail13misc_category4nameEv:
.LVL63:
.LFB24:
	.file 22 "/usr/local/include/boost/asio/impl/error.ipp"
	.loc 22 97 15 view -0
	.cfi_startproc
	.loc 22 99 5 view .LVU194
	.loc 22 100 3 is_stmt 0 view .LVU195
	movl	$.LC1, %eax
	ret
	.cfi_endproc
.LFE24:
	.size	_ZNK5boost4asio5error6detail13misc_category4nameEv, .-_ZNK5boost4asio5error6detail13misc_category4nameEv
	.section	.rodata.str1.1
.LC2:
	.string	"asio.addrinfo"
	.text
	.align 2
	.type	_ZNK5boost4asio5error6detail17addrinfo_category4nameEv, @function
_ZNK5boost4asio5error6detail17addrinfo_category4nameEv:
.LVL64:
.LFB25:
	.loc 22 67 15 is_stmt 1 view -0
	.cfi_startproc
	.loc 22 69 5 view .LVU197
	.loc 22 70 3 is_stmt 0 view .LVU198
	movl	$.LC2, %eax
	ret
	.cfi_endproc
.LFE25:
	.size	_ZNK5boost4asio5error6detail17addrinfo_category4nameEv, .-_ZNK5boost4asio5error6detail17addrinfo_category4nameEv
	.section	.rodata.str1.1
.LC3:
	.string	"asio.netdb"
	.text
	.align 2
	.type	_ZNK5boost4asio5error6detail14netdb_category4nameEv, @function
_ZNK5boost4asio5error6detail14netdb_category4nameEv:
.LVL65:
.LFB26:
	.loc 22 35 15 is_stmt 1 view -0
	.cfi_startproc
	.loc 22 37 5 view .LVU200
	.loc 22 38 3 is_stmt 0 view .LVU201
	movl	$.LC3, %eax
	ret
	.cfi_endproc
.LFE26:
	.size	_ZNK5boost4asio5error6detail14netdb_category4nameEv, .-_ZNK5boost4asio5error6detail14netdb_category4nameEv
	.align 2
	.type	_ZNK5boost6system6detail21system_error_category23default_error_conditionEi, @function
_ZNK5boost6system6detail21system_error_category23default_error_conditionEi:
.LVL66:
.LFB27:
	.loc 18 943 1 is_stmt 1 view -0
	.cfi_startproc
	.loc 18 944 5 view .LVU203
.LBB175:
.LBI175:
	.file 23 "/usr/local/include/boost/system/detail/system_category_posix.hpp"
	.loc 23 116 24 view .LVU204
.LBB176:
	.loc 23 118 5 view .LVU205
.LBB177:
.LBI177:
	.loc 23 19 13 view .LVU206
.LBB178:
	.loc 23 21 5 view .LVU207
	.loc 23 23 5 view .LVU208
	.loc 23 106 5 view .LVU209
	.loc 23 108 5 view .LVU210
.LBB179:
	.loc 23 108 23 view .LVU211
	.loc 23 110 9 view .LVU212
	cmpl	_ZZN5boost6system6detail16is_generic_valueEiE3gen(%rip), %esi
	je	.L50
	.loc 23 108 5 view .LVU213
	movl	$1, %eax
	.loc 23 108 23 view .LVU214
	.loc 23 110 9 view .LVU215
	cmpl	_ZZN5boost6system6detail16is_generic_valueEiE3gen+4(%rip), %esi
	je	.L50
	.loc 23 108 5 view .LVU216
	addl	$1, %eax
.LVL67:
.L46:
	.loc 23 108 23 view .LVU217
	cmpl	$78, %eax
	jg	.L49
	.loc 23 110 9 view .LVU218
	.loc 23 110 26 is_stmt 0 view .LVU219
	movslq	%eax, %rdx
	.loc 23 110 9 view .LVU220
	cmpl	_ZZN5boost6system6detail16is_generic_valueEiE3gen(,%rdx,4), %esi
	je	.L50
	.loc 23 108 5 is_stmt 1 view .LVU221
	addl	$1, %eax
	.loc 23 108 23 view .LVU222
	.loc 23 110 9 view .LVU223
	.loc 23 110 26 is_stmt 0 view .LVU224
	movslq	%eax, %rcx
	.loc 23 110 9 view .LVU225
	cmpl	_ZZN5boost6system6detail16is_generic_valueEiE3gen(,%rcx,4), %esi
	je	.L50
	.loc 23 108 5 is_stmt 1 view .LVU226
	leal	1(%rax), %edi
	.loc 23 108 23 view .LVU227
	.loc 23 110 9 view .LVU228
	.loc 23 110 26 is_stmt 0 view .LVU229
	movslq	%edi, %r8
	.loc 23 110 9 view .LVU230
	cmpl	_ZZN5boost6system6detail16is_generic_valueEiE3gen(,%r8,4), %esi
	je	.L50
	.loc 23 108 5 is_stmt 1 view .LVU231
	leal	2(%rax), %r9d
	.loc 23 108 23 view .LVU232
	.loc 23 110 9 view .LVU233
	.loc 23 110 26 is_stmt 0 view .LVU234
	movslq	%r9d, %r10
	.loc 23 110 9 view .LVU235
	cmpl	_ZZN5boost6system6detail16is_generic_valueEiE3gen(,%r10,4), %esi
	je	.L50
	.loc 23 108 5 is_stmt 1 view .LVU236
	leal	3(%rax), %r11d
	.loc 23 108 23 view .LVU237
	.loc 23 110 9 view .LVU238
	.loc 23 110 26 is_stmt 0 view .LVU239
	movslq	%r11d, %rdx
	.loc 23 110 9 view .LVU240
	cmpl	_ZZN5boost6system6detail16is_generic_valueEiE3gen(,%rdx,4), %esi
	je	.L50
	.loc 23 108 5 is_stmt 1 view .LVU241
	leal	4(%rax), %ecx
	.loc 23 108 23 view .LVU242
	.loc 23 110 9 view .LVU243
	.loc 23 110 26 is_stmt 0 view .LVU244
	movslq	%ecx, %rdi
	.loc 23 110 9 view .LVU245
	cmpl	_ZZN5boost6system6detail16is_generic_valueEiE3gen(,%rdi,4), %esi
	je	.L50
	.loc 23 108 5 is_stmt 1 view .LVU246
	leal	5(%rax), %r8d
	.loc 23 108 23 view .LVU247
	.loc 23 110 9 view .LVU248
	.loc 23 110 26 is_stmt 0 view .LVU249
	movslq	%r8d, %r9
	.loc 23 110 9 view .LVU250
	cmpl	_ZZN5boost6system6detail16is_generic_valueEiE3gen(,%r9,4), %esi
	je	.L50
	.loc 23 108 5 is_stmt 1 view .LVU251
	leal	6(%rax), %r10d
	.loc 23 108 23 view .LVU252
	.loc 23 110 9 view .LVU253
	.loc 23 110 26 is_stmt 0 view .LVU254
	movslq	%r10d, %r11
	.loc 23 110 9 view .LVU255
	cmpl	_ZZN5boost6system6detail16is_generic_valueEiE3gen(,%r11,4), %esi
	je	.L50
	.loc 23 108 5 is_stmt 1 view .LVU256
	leal	7(%rax), %edx
	.loc 23 108 23 view .LVU257
	.loc 23 110 9 view .LVU258
	.loc 23 110 26 is_stmt 0 view .LVU259
	movslq	%edx, %rcx
	.loc 23 110 9 view .LVU260
	cmpl	_ZZN5boost6system6detail16is_generic_valueEiE3gen(,%rcx,4), %esi
	je	.L50
	.loc 23 108 5 is_stmt 1 view .LVU261
	leal	8(%rax), %edi
	.loc 23 108 23 view .LVU262
	.loc 23 110 9 view .LVU263
	.loc 23 110 26 is_stmt 0 view .LVU264
	movslq	%edi, %r8
	.loc 23 110 9 view .LVU265
	cmpl	_ZZN5boost6system6detail16is_generic_valueEiE3gen(,%r8,4), %esi
	je	.L50
	.loc 23 108 5 is_stmt 1 view .LVU266
	leal	9(%rax), %r9d
	.loc 23 108 23 view .LVU267
	.loc 23 110 9 view .LVU268
	.loc 23 110 26 is_stmt 0 view .LVU269
	movslq	%r9d, %r10
	.loc 23 110 9 view .LVU270
	cmpl	_ZZN5boost6system6detail16is_generic_valueEiE3gen(,%r10,4), %esi
	je	.L50
	.loc 23 108 5 is_stmt 1 view .LVU271
	addl	$10, %eax
	jmp	.L46
.L49:
	.loc 23 108 5 is_stmt 0 view .LVU272
.LBE179:
.LBE178:
.LBE177:
.LBE176:
	.loc 23 113 12 view .LVU273
	movl	$0, %eax
	jmp	.L45
.L50:
	.loc 23 110 37 view .LVU274
	movl	$1, %eax
.L45:
.LVL68:
.LBB200:
	.loc 23 118 5 view .LVU275
	testb	%al, %al
	je	.L47
	.loc 23 120 9 is_stmt 1 view .LVU276
.LVL69:
.LBB180:
.LBI180:
	.loc 18 452 15 view .LVU277
.LBB181:
.LBB182:
.LBB183:
.LBI183:
	.loc 18 415 23 view .LVU278
.LBB184:
	.loc 18 417 5 view .LVU279
	.loc 18 417 5 is_stmt 0 view .LVU280
.LBE184:
.LBE183:
.LBE182:
.LBE181:
.LBE180:
.LBE200:
.LBE175:
	.loc 18 235 9 is_stmt 1 view .LVU281
	.loc 18 235 9 view .LVU282
.LBB203:
.LBB201:
.LBB189:
.LBB188:
.LBB187:
.LBB186:
.LBB185:
	.loc 18 419 9 view .LVU283
	.loc 18 419 22 is_stmt 0 view .LVU284
	testl	%esi, %esi
.LVL70:
	.loc 18 419 22 view .LVU285
.LBE185:
.LBE186:
	.loc 18 453 77 view .LVU286
	setne	%dil
	movzbl	%dil, %edx
	salq	$32, %rdx
	movl	%esi, %eax
.LVL71:
	.loc 18 453 77 view .LVU287
.LBE187:
.LBE188:
.LBE189:
	.loc 23 120 56 view .LVU288
	orq	%rdx, %rax
	movl	$_ZN5boost6system6detail10cat_holderIvE25generic_category_instanceE, %edx
	ret
.L47:
	.loc 23 124 9 is_stmt 1 view .LVU289
.LVL72:
.LBB190:
.LBI190:
	.loc 18 452 15 view .LVU290
.LBB191:
.LBB192:
.LBB193:
.LBI193:
	.loc 18 415 23 view .LVU291
.LBB194:
	.loc 18 417 5 view .LVU292
	.loc 18 417 5 is_stmt 0 view .LVU293
.LBE194:
.LBE193:
.LBE192:
.LBE191:
.LBE190:
.LBE201:
.LBE203:
	.loc 18 235 9 is_stmt 1 view .LVU294
.LBB204:
.LBB202:
.LBB199:
.LBB198:
.LBB197:
.LBB196:
.LBB195:
	.loc 18 419 9 view .LVU295
	.loc 18 419 22 is_stmt 0 view .LVU296
	testl	%esi, %esi
.LVL73:
	.loc 18 419 22 view .LVU297
.LBE195:
.LBE196:
	.loc 18 453 77 view .LVU298
	setne	%r11b
	movzbl	%r11b, %edx
	salq	$32, %rdx
	movl	%esi, %eax
.LVL74:
	.loc 18 453 77 view .LVU299
.LBE197:
.LBE198:
.LBE199:
	.loc 23 124 55 view .LVU300
	orq	%rdx, %rax
	movl	$_ZN5boost6system6detail10cat_holderIvE24system_category_instanceE, %edx
.LVL75:
	.loc 23 124 55 view .LVU301
.LBE202:
.LBE204:
	.loc 18 945 1 view .LVU302
	ret
	.cfi_endproc
.LFE27:
	.size	_ZNK5boost6system6detail21system_error_category23default_error_conditionEi, .-_ZNK5boost6system6detail21system_error_category23default_error_conditionEi
	.align 2
	.type	_ZNK5boost6system14error_category6failedEi, @function
_ZNK5boost6system14error_category6failedEi:
.LVL76:
.LFB29:
	.loc 18 895 1 is_stmt 1 view -0
	.cfi_startproc
	.loc 18 896 5 view .LVU304
	.loc 18 896 18 is_stmt 0 view .LVU305
	testl	%esi, %esi
	setne	%al
	.loc 18 897 1 view .LVU306
	ret
	.cfi_endproc
.LFE29:
	.size	_ZNK5boost6system14error_category6failedEi, .-_ZNK5boost6system14error_category6failedEi
	.align 2
	.type	_ZNK5boost6system14error_category10equivalentERKNS0_10error_codeEi, @function
_ZNK5boost6system14error_category10equivalentERKNS0_10error_codeEi:
.LVL77:
.LFB30:
	.loc 18 842 1 is_stmt 1 view -0
	.cfi_startproc
	.loc 18 843 5 view .LVU308
.LBB205:
.LBI205:
	.loc 18 630 38 view .LVU309
.LBB206:
	.loc 18 632 9 view .LVU310
	.loc 18 632 17 is_stmt 0 view .LVU311
	movq	8(%rsi), %rcx
.LVL78:
	.loc 18 632 17 view .LVU312
.LBE206:
.LBE205:
.LBB207:
.LBI207:
	.loc 18 233 20 is_stmt 1 view .LVU313
.LBB208:
	.loc 18 235 9 view .LVU314
	.loc 18 235 20 is_stmt 0 view .LVU315
	movq	8(%rcx), %rax
	.loc 18 235 28 view .LVU316
	testq	%rax, %rax
	jne	.L67
	cmpq	%rcx, %rdi
	sete	%al
.L68:
.LVL79:
	.loc 18 235 28 view .LVU317
.LBE208:
.LBE207:
	.loc 18 843 37 view .LVU318
	testb	%al, %al
	je	.L66
.LVL80:
.LBB210:
.LBI210:
	.loc 18 625 19 is_stmt 1 view .LVU319
.LBB211:
	.loc 18 627 9 view .LVU320
	.loc 18 627 9 is_stmt 0 view .LVU321
.LBE211:
.LBE210:
	.loc 18 843 37 view .LVU322
	cmpl	(%rsi), %edx
	je	.L66
	movl	$0, %eax
.L66:
	.loc 18 844 1 view .LVU323
	ret
.LVL81:
.L67:
.LBB212:
.LBB209:
	.loc 18 235 28 view .LVU324
	cmpq	%rax, 8(%rdi)
	sete	%al
	jmp	.L68
.LBE209:
.LBE212:
	.cfi_endproc
.LFE30:
	.size	_ZNK5boost6system14error_category10equivalentERKNS0_10error_codeEi, .-_ZNK5boost6system14error_category10equivalentERKNS0_10error_codeEi
	.align 2
	.type	_ZNK5boost6system14error_category10equivalentEiRKNS0_15error_conditionE, @function
_ZNK5boost6system14error_category10equivalentEiRKNS0_15error_conditionE:
.LVL82:
.LFB31:
	.loc 18 837 1 is_stmt 1 view -0
	.cfi_startproc
	.loc 18 837 1 is_stmt 0 view .LVU326
	pushq	%rbx
	.cfi_def_cfa_offset 16
	.cfi_offset 3, -16
	movq	%rdx, %rbx
	.loc 18 838 5 is_stmt 1 view .LVU327
	.loc 18 838 42 is_stmt 0 view .LVU328
	movq	(%rdi), %rax
	call	*8(%rax)
.LVL83:
.LBB213:
.LBI213:
	.loc 18 542 34 is_stmt 1 view .LVU329
.LBB214:
	.loc 18 544 9 view .LVU330
	.loc 18 544 37 is_stmt 0 view .LVU331
	cmpl	%eax, (%rbx)
	je	.L77
.LBE214:
.LBE213:
	movl	$0, %eax
.L72:
.LVL84:
	.loc 18 839 1 view .LVU332
	popq	%rbx
	.cfi_remember_state
	.cfi_def_cfa_offset 8
.LVL85:
	.loc 18 839 1 view .LVU333
	ret
.LVL86:
.L77:
	.cfi_restore_state
.LBB218:
.LBB217:
	.loc 18 544 58 view .LVU334
	movq	8(%rbx), %rcx
.LVL87:
.LBB215:
.LBI215:
	.loc 18 233 20 is_stmt 1 view .LVU335
.LBB216:
	.loc 18 235 9 view .LVU336
	.loc 18 235 20 is_stmt 0 view .LVU337
	movq	8(%rcx), %rsi
	.loc 18 235 28 view .LVU338
	testq	%rsi, %rsi
	jne	.L73
	cmpq	%rdx, %rcx
	sete	%al
	jmp	.L72
.L73:
	cmpq	8(%rdx), %rsi
	sete	%al
.LVL88:
	.loc 18 235 28 view .LVU339
	jmp	.L72
.LBE216:
.LBE215:
.LBE217:
.LBE218:
	.cfi_endproc
.LFE31:
	.size	_ZNK5boost6system14error_category10equivalentEiRKNS0_15error_conditionE, .-_ZNK5boost6system14error_category10equivalentEiRKNS0_15error_conditionE
	.align 2
	.type	_ZNK5boost6system14error_category23default_error_conditionEi, @function
_ZNK5boost6system14error_category23default_error_conditionEi:
.LVL89:
.LFB32:
	.loc 18 832 1 is_stmt 1 view -0
	.cfi_startproc
	.loc 18 832 1 is_stmt 0 view .LVU341
	pushq	%rbp
	.cfi_def_cfa_offset 16
	.cfi_offset 6, -16
	pushq	%rbx
	.cfi_def_cfa_offset 24
	.cfi_offset 3, -24
	subq	$8, %rsp
	.cfi_def_cfa_offset 32
	movq	%rdi, %rbx
	.loc 18 833 5 is_stmt 1 view .LVU342
.LVL90:
.LBB219:
.LBI219:
	.loc 18 452 15 view .LVU343
.LBB220:
.LBB221:
	.loc 18 453 77 is_stmt 0 view .LVU344
	movl	%esi, %ebp
.LVL91:
.LBB222:
.LBI222:
	.loc 18 415 23 is_stmt 1 view .LVU345
.LBB223:
	.loc 18 417 5 view .LVU346
.LBB224:
.LBI224:
	.loc 18 233 20 view .LVU347
.LBB225:
	.loc 18 235 9 view .LVU348
	.loc 18 235 44 is_stmt 0 view .LVU349
	movq	8(%rdi), %rax
.LVL92:
	.loc 18 235 44 view .LVU350
.LBE225:
.LBE224:
	.loc 18 417 34 view .LVU351
	movabsq	$-8093018978436915045, %rdx
	cmpq	%rdx, %rax
	je	.L79
.LVL93:
	.loc 18 417 34 view .LVU352
.LBE223:
.LBE222:
.LBE221:
.LBE220:
.LBE219:
	.loc 18 235 9 is_stmt 1 view .LVU353
.LBB234:
.LBB232:
.LBB230:
.LBB228:
.LBB226:
	.loc 18 417 34 is_stmt 0 view .LVU354
	movabsq	$-5572340897628102899, %rcx
	cmpq	%rcx, %rax
	je	.L79
	.loc 18 423 9 is_stmt 1 view .LVU355
	.loc 18 423 31 is_stmt 0 view .LVU356
	movq	(%rdi), %rax
	.loc 18 423 26 view .LVU357
	call	*48(%rax)
.LVL94:
.L81:
	.loc 18 423 26 view .LVU358
.LBE226:
.LBE228:
	.loc 18 453 77 view .LVU359
	movzbl	%al, %eax
	salq	$32, %rax
	orq	%rbp, %rax
.LVL95:
	.loc 18 453 77 view .LVU360
.LBE230:
.LBE232:
.LBE234:
	.loc 18 834 1 view .LVU361
	movq	%rbx, %rdx
	addq	$8, %rsp
	.cfi_remember_state
	.cfi_def_cfa_offset 24
	popq	%rbx
	.cfi_def_cfa_offset 16
.LVL96:
	.loc 18 834 1 view .LVU362
	popq	%rbp
	.cfi_def_cfa_offset 8
.LVL97:
	.loc 18 834 1 view .LVU363
	ret
.LVL98:
.L79:
	.cfi_restore_state
.LBB235:
.LBB233:
.LBB231:
.LBB229:
.LBB227:
	.loc 18 419 9 is_stmt 1 view .LVU364
	.loc 18 419 22 is_stmt 0 view .LVU365
	testl	%esi, %esi
	setne	%al
	jmp	.L81
.LBE227:
.LBE229:
.LBE231:
.LBE233:
.LBE235:
	.cfi_endproc
.LFE32:
	.size	_ZNK5boost6system14error_category23default_error_conditionEi, .-_ZNK5boost6system14error_category23default_error_conditionEi
	.section	.rodata.str1.1
.LC4:
	.string	"system"
	.text
	.align 2
	.type	_ZNK5boost6system6detail21system_error_category4nameEv, @function
_ZNK5boost6system6detail21system_error_category4nameEv:
.LVL99:
.LFB33:
	.loc 18 308 18 is_stmt 1 view -0
	.cfi_startproc
	.loc 18 310 9 view .LVU367
	.loc 18 311 5 is_stmt 0 view .LVU368
	movl	$.LC4, %eax
	ret
	.cfi_endproc
.LFE33:
	.size	_ZNK5boost6system6detail21system_error_category4nameEv, .-_ZNK5boost6system6detail21system_error_category4nameEv
	.section	.rodata.str1.1
.LC5:
	.string	"generic"
	.text
	.align 2
	.type	_ZNK5boost6system6detail22generic_error_category4nameEv, @function
_ZNK5boost6system6detail22generic_error_category4nameEv:
.LVL100:
.LFB34:
	.loc 18 290 18 is_stmt 1 view -0
	.cfi_startproc
	.loc 18 292 9 view .LVU370
	.loc 18 293 5 is_stmt 0 view .LVU371
	movl	$.LC5, %eax
	ret
	.cfi_endproc
.LFE34:
	.size	_ZNK5boost6system6detail22generic_error_category4nameEv, .-_ZNK5boost6system6detail22generic_error_category4nameEv
	.type	_Z41__static_initialization_and_destruction_0ii.lto_priv.1, @function
_Z41__static_initialization_and_destruction_0ii.lto_priv.1:
.LVL101:
.LFB35:
	.file 24 "cpp/main.cpp"
	.loc 24 91 1 is_stmt 1 view -0
	.cfi_startproc
	.loc 24 91 1 is_stmt 0 view .LVU373
	cmpl	$1, %edi
	je	.L97
.L94:
	ret
.L97:
	.loc 24 91 1 discriminator 1 view .LVU374
	cmpl	$65535, %esi
	jne	.L94
	.loc 24 91 1 view .LVU375
	subq	$8, %rsp
	.cfi_def_cfa_offset 16
	.file 25 "/usr/include/c++/9/iostream"
	.loc 25 74 25 view .LVU376
	movl	$_ZStL8__ioinit.lto_priv.1, %edi
.LVL102:
	.loc 25 74 25 view .LVU377
	call	_ZNSt8ios_base4InitC1Ev
.LVL103:
	.loc 25 74 25 view .LVU378
	movl	$__dso_handle, %edx
	movl	$_ZStL8__ioinit.lto_priv.1, %esi
	movl	$_ZNSt8ios_base4InitD1Ev, %edi
	call	__cxa_atexit
.LVL104:
	.file 26 "/usr/local/include/boost/asio/error.hpp"
	.loc 26 230 3 is_stmt 1 view .LVU379
	.loc 22 58 3 view .LVU380
	.loc 22 59 3 view .LVU381
	.loc 22 86 3 view .LVU382
	.loc 22 87 3 view .LVU383
	.loc 22 120 3 view .LVU384
	.loc 22 121 3 view .LVU385
	.file 27 "/usr/local/include/boost/asio/detail/call_stack.hpp"
	.loc 27 119 1 is_stmt 0 view .LVU386
	cmpb	$0, _ZGVN5boost4asio6detail10call_stackINS1_14thread_contextENS1_16thread_info_baseEE4top_E(%rip)
	je	.L98
.L87:
	.loc 27 119 1 discriminator 3 view .LVU387
	cmpb	$0, _ZGVN5boost4asio6detail10call_stackINS1_14strand_service11strand_implEhE4top_E(%rip)
	je	.L99
.L88:
	.file 28 "/usr/local/include/boost/asio/io_context.hpp"
	.loc 28 853 39 view .LVU388
	cmpb	$0, _ZGVN5boost4asio6detail12service_baseINS1_14strand_serviceEE2idE(%rip)
	je	.L100
.L89:
	.loc 27 119 1 view .LVU389
	cmpb	$0, _ZGVN5boost4asio6detail10call_stackINS1_23strand_executor_service11strand_implEhE4top_E(%rip)
	je	.L101
.L90:
	.file 29 "/usr/local/include/boost/asio/detail/posix_global.hpp"
	.loc 29 59 22 view .LVU390
	cmpb	$0, _ZGVN5boost4asio6detail17posix_global_implINS0_14system_contextEE9instance_E(%rip)
	je	.L102
.L91:
	.loc 4 401 18 view .LVU391
	cmpb	$0, _ZGVN5boost4asio6detail30execution_context_service_baseINS1_9schedulerEE2idE(%rip)
	je	.L103
.L92:
	.loc 4 401 18 discriminator 3 view .LVU392
	cmpb	$0, _ZGVN5boost4asio6detail30execution_context_service_baseINS1_13epoll_reactorEE2idE(%rip)
	je	.L104
.L85:
	.loc 24 91 1 view .LVU393
	addq	$8, %rsp
	.cfi_remember_state
	.cfi_def_cfa_offset 8
	ret
.L98:
	.cfi_restore_state
	.loc 27 119 1 discriminator 1 view .LVU394
	movb	$1, _ZGVN5boost4asio6detail10call_stackINS1_14thread_contextENS1_16thread_info_baseEE4top_E(%rip)
.LVL105:
.LBB236:
.LBI236:
	.loc 5 39 7 is_stmt 1 discriminator 1 view .LVU395
.LBB237:
.LBI237:
	.file 30 "/usr/local/include/boost/asio/detail/keyword_tss_ptr.hpp"
	.loc 30 36 3 discriminator 1 view .LVU396
	.loc 30 36 3 is_stmt 0 discriminator 1 view .LVU397
.LBE237:
.LBE236:
	.loc 27 119 1 discriminator 1 view .LVU398
	movl	$__dso_handle, %edx
	movl	$_ZN5boost4asio6detail10call_stackINS1_14thread_contextENS1_16thread_info_baseEE4top_E, %esi
	movl	$_ZN5boost4asio6detail7tss_ptrINS1_10call_stackINS1_14thread_contextENS1_16thread_info_baseEE7contextEED1Ev, %edi
	call	__cxa_atexit
.LVL106:
	jmp	.L87
.L99:
	.loc 27 119 1 discriminator 4 view .LVU399
	movb	$1, _ZGVN5boost4asio6detail10call_stackINS1_14strand_service11strand_implEhE4top_E(%rip)
.LVL107:
.LBB238:
.LBI238:
	.loc 5 39 7 is_stmt 1 discriminator 4 view .LVU400
.LBB239:
.LBI239:
	.loc 30 36 3 discriminator 4 view .LVU401
	.loc 30 36 3 is_stmt 0 discriminator 4 view .LVU402
.LBE239:
.LBE238:
	.loc 27 119 1 discriminator 4 view .LVU403
	movl	$__dso_handle, %edx
	movl	$_ZN5boost4asio6detail10call_stackINS1_14strand_service11strand_implEhE4top_E, %esi
	movl	$_ZN5boost4asio6detail7tss_ptrINS1_10call_stackINS1_14strand_service11strand_implEhE7contextEED1Ev, %edi
	call	__cxa_atexit
.LVL108:
	jmp	.L88
.L100:
	.loc 28 853 39 discriminator 1 view .LVU404
	movb	$1, _ZGVN5boost4asio6detail12service_baseINS1_14strand_serviceEE2idE(%rip)
.LVL109:
.LBB240:
.LBI240:
	.loc 4 380 7 is_stmt 1 discriminator 1 view .LVU405
	.loc 4 380 7 is_stmt 0 discriminator 1 view .LVU406
.LBE240:
	.loc 28 853 39 discriminator 1 view .LVU407
	movl	$__dso_handle, %edx
	movl	$_ZN5boost4asio6detail12service_baseINS1_14strand_serviceEE2idE, %esi
	movl	$_ZN5boost4asio6detail10service_idINS1_14strand_serviceEED1Ev, %edi
	call	__cxa_atexit
.LVL110:
	jmp	.L89
.L101:
	.loc 27 119 1 discriminator 5 view .LVU408
	movb	$1, _ZGVN5boost4asio6detail10call_stackINS1_23strand_executor_service11strand_implEhE4top_E(%rip)
.LVL111:
.LBB241:
.LBI241:
	.loc 5 39 7 is_stmt 1 discriminator 5 view .LVU409
.LBB242:
.LBI242:
	.loc 30 36 3 discriminator 5 view .LVU410
	.loc 30 36 3 is_stmt 0 discriminator 5 view .LVU411
.LBE242:
.LBE241:
	.loc 27 119 1 discriminator 5 view .LVU412
	movl	$__dso_handle, %edx
	movl	$_ZN5boost4asio6detail10call_stackINS1_23strand_executor_service11strand_implEhE4top_E, %esi
	movl	$_ZN5boost4asio6detail7tss_ptrINS1_10call_stackINS1_23strand_executor_service11strand_implEhE7contextEED1Ev, %edi
	call	__cxa_atexit
.LVL112:
	jmp	.L90
.L102:
	.loc 29 59 22 discriminator 1 view .LVU413
	movb	$1, _ZGVN5boost4asio6detail17posix_global_implINS0_14system_contextEE9instance_E(%rip)
	movl	$__dso_handle, %edx
	movl	$_ZN5boost4asio6detail17posix_global_implINS0_14system_contextEE9instance_E, %esi
	movl	$_ZN5boost4asio6detail17posix_global_implINS0_14system_contextEED1Ev, %edi
	call	__cxa_atexit
.LVL113:
	jmp	.L91
.L103:
	.loc 4 401 18 discriminator 1 view .LVU414
	movb	$1, _ZGVN5boost4asio6detail30execution_context_service_baseINS1_9schedulerEE2idE(%rip)
.LVL114:
.LBB243:
.LBI243:
	.loc 4 380 7 is_stmt 1 discriminator 1 view .LVU415
	.loc 4 380 7 is_stmt 0 discriminator 1 view .LVU416
.LBE243:
	.loc 4 401 18 discriminator 1 view .LVU417
	movl	$__dso_handle, %edx
	movl	$_ZN5boost4asio6detail30execution_context_service_baseINS1_9schedulerEE2idE, %esi
	movl	$_ZN5boost4asio6detail10service_idINS1_9schedulerEED1Ev, %edi
	call	__cxa_atexit
.LVL115:
	jmp	.L92
.L104:
	.loc 4 401 18 discriminator 4 view .LVU418
	movb	$1, _ZGVN5boost4asio6detail30execution_context_service_baseINS1_13epoll_reactorEE2idE(%rip)
.LVL116:
.LBB244:
.LBI244:
	.loc 4 380 7 is_stmt 1 discriminator 4 view .LVU419
	.loc 4 380 7 is_stmt 0 discriminator 4 view .LVU420
.LBE244:
	.loc 4 401 18 discriminator 4 view .LVU421
	movl	$__dso_handle, %edx
	movl	$_ZN5boost4asio6detail30execution_context_service_baseINS1_13epoll_reactorEE2idE, %esi
	movl	$_ZN5boost4asio6detail10service_idINS1_13epoll_reactorEED1Ev, %edi
	call	__cxa_atexit
.LVL117:
	jmp	.L85
	.cfi_endproc
.LFE35:
	.size	_Z41__static_initialization_and_destruction_0ii.lto_priv.1, .-_Z41__static_initialization_and_destruction_0ii.lto_priv.1
	.type	_Z41__static_initialization_and_destruction_0ii.lto_priv.0, @function
_Z41__static_initialization_and_destruction_0ii.lto_priv.0:
.LVL118:
.LFB36:
	.file 31 "cpp/Client.cpp"
	.loc 31 235 1 is_stmt 1 view -0
	.cfi_startproc
	.loc 31 235 1 is_stmt 0 view .LVU423
	cmpl	$1, %edi
	je	.L118
.L115:
	ret
.L118:
	.loc 31 235 1 discriminator 1 view .LVU424
	cmpl	$65535, %esi
	jne	.L115
	.loc 31 235 1 view .LVU425
	subq	$8, %rsp
	.cfi_def_cfa_offset 16
	.loc 25 74 25 view .LVU426
	movl	$_ZStL8__ioinit.lto_priv.0, %edi
.LVL119:
	.loc 25 74 25 view .LVU427
	call	_ZNSt8ios_base4InitC1Ev
.LVL120:
	.loc 25 74 25 view .LVU428
	movl	$__dso_handle, %edx
	movl	$_ZStL8__ioinit.lto_priv.0, %esi
	movl	$_ZNSt8ios_base4InitD1Ev, %edi
	call	__cxa_atexit
.LVL121:
	.loc 26 230 3 is_stmt 1 view .LVU429
	.loc 22 58 3 view .LVU430
	.loc 22 59 3 view .LVU431
	.loc 22 86 3 view .LVU432
	.loc 22 87 3 view .LVU433
	.loc 22 120 3 view .LVU434
	.loc 22 121 3 view .LVU435
	.loc 27 119 1 is_stmt 0 view .LVU436
	cmpb	$0, _ZGVN5boost4asio6detail10call_stackINS1_14thread_contextENS1_16thread_info_baseEE4top_E(%rip)
	je	.L119
.L107:
	.loc 27 119 1 discriminator 3 view .LVU437
	cmpb	$0, _ZGVN5boost4asio6detail10call_stackINS1_14strand_service11strand_implEhE4top_E(%rip)
	je	.L120
.L108:
	.loc 28 853 39 view .LVU438
	cmpb	$0, _ZGVN5boost4asio6detail12service_baseINS1_14strand_serviceEE2idE(%rip)
	je	.L121
.L109:
	.loc 27 119 1 view .LVU439
	cmpb	$0, _ZGVN5boost4asio6detail10call_stackINS1_23strand_executor_service11strand_implEhE4top_E(%rip)
	je	.L122
.L110:
	.loc 29 59 22 view .LVU440
	cmpb	$0, _ZGVN5boost4asio6detail17posix_global_implINS0_14system_contextEE9instance_E(%rip)
	je	.L123
.L111:
	.loc 4 401 18 view .LVU441
	cmpb	$0, _ZGVN5boost4asio6detail30execution_context_service_baseINS1_9schedulerEE2idE(%rip)
	je	.L124
.L112:
	.loc 4 401 18 discriminator 3 view .LVU442
	cmpb	$0, _ZGVN5boost4asio6detail30execution_context_service_baseINS1_13epoll_reactorEE2idE(%rip)
	je	.L125
.L113:
	.loc 4 401 18 discriminator 6 view .LVU443
	cmpb	$0, _ZGVN5boost4asio6detail30execution_context_service_baseINS1_18signal_set_serviceEE2idE(%rip)
	je	.L126
.L105:
	.loc 31 235 1 view .LVU444
	addq	$8, %rsp
	.cfi_remember_state
	.cfi_def_cfa_offset 8
	ret
.L119:
	.cfi_restore_state
	.loc 27 119 1 discriminator 1 view .LVU445
	movb	$1, _ZGVN5boost4asio6detail10call_stackINS1_14thread_contextENS1_16thread_info_baseEE4top_E(%rip)
.LVL122:
.LBB245:
.LBI245:
	.loc 5 39 7 is_stmt 1 discriminator 1 view .LVU446
.LBB246:
.LBI246:
	.loc 30 36 3 discriminator 1 view .LVU447
	.loc 30 36 3 is_stmt 0 discriminator 1 view .LVU448
.LBE246:
.LBE245:
	.loc 27 119 1 discriminator 1 view .LVU449
	movl	$__dso_handle, %edx
	movl	$_ZN5boost4asio6detail10call_stackINS1_14thread_contextENS1_16thread_info_baseEE4top_E, %esi
	movl	$_ZN5boost4asio6detail7tss_ptrINS1_10call_stackINS1_14thread_contextENS1_16thread_info_baseEE7contextEED1Ev, %edi
	call	__cxa_atexit
.LVL123:
	jmp	.L107
.L120:
	.loc 27 119 1 discriminator 4 view .LVU450
	movb	$1, _ZGVN5boost4asio6detail10call_stackINS1_14strand_service11strand_implEhE4top_E(%rip)
.LVL124:
.LBB247:
.LBI247:
	.loc 5 39 7 is_stmt 1 discriminator 4 view .LVU451
.LBB248:
.LBI248:
	.loc 30 36 3 discriminator 4 view .LVU452
	.loc 30 36 3 is_stmt 0 discriminator 4 view .LVU453
.LBE248:
.LBE247:
	.loc 27 119 1 discriminator 4 view .LVU454
	movl	$__dso_handle, %edx
	movl	$_ZN5boost4asio6detail10call_stackINS1_14strand_service11strand_implEhE4top_E, %esi
	movl	$_ZN5boost4asio6detail7tss_ptrINS1_10call_stackINS1_14strand_service11strand_implEhE7contextEED1Ev, %edi
	call	__cxa_atexit
.LVL125:
	jmp	.L108
.L121:
	.loc 28 853 39 discriminator 1 view .LVU455
	movb	$1, _ZGVN5boost4asio6detail12service_baseINS1_14strand_serviceEE2idE(%rip)
.LVL126:
.LBB249:
.LBI249:
	.loc 4 380 7 is_stmt 1 discriminator 1 view .LVU456
	.loc 4 380 7 is_stmt 0 discriminator 1 view .LVU457
.LBE249:
	.loc 28 853 39 discriminator 1 view .LVU458
	movl	$__dso_handle, %edx
	movl	$_ZN5boost4asio6detail12service_baseINS1_14strand_serviceEE2idE, %esi
	movl	$_ZN5boost4asio6detail10service_idINS1_14strand_serviceEED1Ev, %edi
	call	__cxa_atexit
.LVL127:
	jmp	.L109
.L122:
	.loc 27 119 1 discriminator 5 view .LVU459
	movb	$1, _ZGVN5boost4asio6detail10call_stackINS1_23strand_executor_service11strand_implEhE4top_E(%rip)
.LVL128:
.LBB250:
.LBI250:
	.loc 5 39 7 is_stmt 1 discriminator 5 view .LVU460
.LBB251:
.LBI251:
	.loc 30 36 3 discriminator 5 view .LVU461
	.loc 30 36 3 is_stmt 0 discriminator 5 view .LVU462
.LBE251:
.LBE250:
	.loc 27 119 1 discriminator 5 view .LVU463
	movl	$__dso_handle, %edx
	movl	$_ZN5boost4asio6detail10call_stackINS1_23strand_executor_service11strand_implEhE4top_E, %esi
	movl	$_ZN5boost4asio6detail7tss_ptrINS1_10call_stackINS1_23strand_executor_service11strand_implEhE7contextEED1Ev, %edi
	call	__cxa_atexit
.LVL129:
	jmp	.L110
.L123:
	.loc 29 59 22 discriminator 1 view .LVU464
	movb	$1, _ZGVN5boost4asio6detail17posix_global_implINS0_14system_contextEE9instance_E(%rip)
	movl	$__dso_handle, %edx
	movl	$_ZN5boost4asio6detail17posix_global_implINS0_14system_contextEE9instance_E, %esi
	movl	$_ZN5boost4asio6detail17posix_global_implINS0_14system_contextEED1Ev, %edi
	call	__cxa_atexit
.LVL130:
	jmp	.L111
.L124:
	.loc 4 401 18 discriminator 1 view .LVU465
	movb	$1, _ZGVN5boost4asio6detail30execution_context_service_baseINS1_9schedulerEE2idE(%rip)
.LVL131:
.LBB252:
.LBI252:
	.loc 4 380 7 is_stmt 1 discriminator 1 view .LVU466
	.loc 4 380 7 is_stmt 0 discriminator 1 view .LVU467
.LBE252:
	.loc 4 401 18 discriminator 1 view .LVU468
	movl	$__dso_handle, %edx
	movl	$_ZN5boost4asio6detail30execution_context_service_baseINS1_9schedulerEE2idE, %esi
	movl	$_ZN5boost4asio6detail10service_idINS1_9schedulerEED1Ev, %edi
	call	__cxa_atexit
.LVL132:
	jmp	.L112
.L125:
	.loc 4 401 18 discriminator 4 view .LVU469
	movb	$1, _ZGVN5boost4asio6detail30execution_context_service_baseINS1_13epoll_reactorEE2idE(%rip)
.LVL133:
.LBB253:
.LBI253:
	.loc 4 380 7 is_stmt 1 discriminator 4 view .LVU470
	.loc 4 380 7 is_stmt 0 discriminator 4 view .LVU471
.LBE253:
	.loc 4 401 18 discriminator 4 view .LVU472
	movl	$__dso_handle, %edx
	movl	$_ZN5boost4asio6detail30execution_context_service_baseINS1_13epoll_reactorEE2idE, %esi
	movl	$_ZN5boost4asio6detail10service_idINS1_13epoll_reactorEED1Ev, %edi
	call	__cxa_atexit
.LVL134:
	jmp	.L113
.L126:
	.loc 4 401 18 discriminator 7 view .LVU473
	movb	$1, _ZGVN5boost4asio6detail30execution_context_service_baseINS1_18signal_set_serviceEE2idE(%rip)
.LVL135:
.LBB254:
.LBI254:
	.loc 4 380 7 is_stmt 1 discriminator 7 view .LVU474
	.loc 4 380 7 is_stmt 0 discriminator 7 view .LVU475
.LBE254:
	.loc 4 401 18 discriminator 7 view .LVU476
	movl	$__dso_handle, %edx
	movl	$_ZN5boost4asio6detail30execution_context_service_baseINS1_18signal_set_serviceEE2idE, %esi
	movl	$_ZN5boost4asio6detail10service_idINS1_18signal_set_serviceEED1Ev, %edi
	call	__cxa_atexit
.LVL136:
	jmp	.L105
	.cfi_endproc
.LFE36:
	.size	_Z41__static_initialization_and_destruction_0ii.lto_priv.0, .-_Z41__static_initialization_and_destruction_0ii.lto_priv.0
	.type	_ZSt9__find_ifIN9__gnu_cxx17__normal_iteratorIPKcNSt7__cxx1112basic_stringIcSt11char_traitsIcESaIcEEEEENS0_5__ops12_Iter_negateIN3vuu13UTF8ValidatorEEEET_SG_SG_T0_St26random_access_iterator_tag, @function
_ZSt9__find_ifIN9__gnu_cxx17__normal_iteratorIPKcNSt7__cxx1112basic_stringIcSt11char_traitsIcESaIcEEEEENS0_5__ops12_Iter_negateIN3vuu13UTF8ValidatorEEEET_SG_SG_T0_St26random_access_iterator_tag:
.LVL137:
.LFB37:
	.file 32 "/usr/include/c++/9/bits/stl_algo.h"
	.loc 32 112 5 is_stmt 1 view -0
	.cfi_startproc
	.loc 32 112 5 is_stmt 0 view .LVU478
	pushq	%r15
	.cfi_def_cfa_offset 16
	.cfi_offset 15, -16
	pushq	%r14
	.cfi_def_cfa_offset 24
	.cfi_offset 14, -24
	pushq	%r13
	.cfi_def_cfa_offset 32
	.cfi_offset 13, -32
	pushq	%r12
	.cfi_def_cfa_offset 40
	.cfi_offset 12, -40
	pushq	%rbp
	.cfi_def_cfa_offset 48
	.cfi_offset 6, -48
	pushq	%rbx
	.cfi_def_cfa_offset 56
	.cfi_offset 3, -56
	subq	$24, %rsp
	.cfi_def_cfa_offset 80
	movq	%rdi, %rbx
.LVL138:
	.loc 32 112 5 view .LVU479
	movq	%rsi, %rax
.LVL139:
	.loc 32 112 5 view .LVU480
	movq	%rsi, (%rsp)
	movl	%edx, 12(%rsp)
.LVL140:
.LBB255:
.LBI255:
	.file 33 "/usr/include/c++/9/bits/stl_iterator.h"
	.loc 33 989 5 is_stmt 1 view .LVU481
.LBB256:
	.loc 33 992 40 is_stmt 0 view .LVU482
	subq	%rdi, %rax
.LVL141:
	.loc 33 992 40 view .LVU483
.LBE256:
.LBE255:
	.loc 32 116 2 view .LVU484
	movq	%rax, %r12
	sarq	$2, %r12
.LVL142:
	.loc 32 116 2 view .LVU485
	testb	$4, %al
	je	.L134
	.loc 32 118 27 is_stmt 1 view .LVU486
	testq	%r12, %r12
	jle	.L128
.LVL143:
.LBB257:
.LBI257:
	.file 34 "/usr/include/c++/9/bits/predefined_ops.h"
	.loc 34 350 2 view .LVU487
.LBB258:
.LBB259:
.LBI259:
	.loc 33 819 7 view .LVU488
	.loc 33 819 7 is_stmt 0 view .LVU489
.LBE259:
	.loc 34 351 12 view .LVU490
	movsbl	(%rdi), %esi
.LVL144:
	.loc 34 351 12 view .LVU491
	leaq	12(%rsp), %rdi
.LVL145:
	.loc 34 351 12 view .LVU492
	call	_ZN3vuu13UTF8ValidatorclEc
.LVL146:
	.loc 34 351 12 view .LVU493
.LBE258:
.LBE257:
	.loc 32 120 4 view .LVU494
	testb	%al, %al
	je	.L152
.LVL147:
.LBB264:
.LBI264:
	.loc 33 827 7 is_stmt 1 view .LVU495
.LBB265:
	.loc 33 829 2 is_stmt 0 view .LVU496
	addq	$1, %rbx
.LVL148:
	.loc 33 829 2 view .LVU497
	movq	%rbx, %rbp
.LVL149:
	.loc 33 829 2 view .LVU498
.LBE265:
.LBE264:
.LBB268:
.LBI268:
	.loc 34 350 2 is_stmt 1 view .LVU499
.LBB269:
	.loc 34 351 12 is_stmt 0 view .LVU500
	movsbl	(%rbx), %esi
	leaq	12(%rsp), %rdi
.LVL150:
	.loc 34 351 12 view .LVU501
	call	_ZN3vuu13UTF8ValidatorclEc
.LVL151:
	.loc 34 351 12 view .LVU502
.LBE269:
.LBE268:
	.loc 32 124 4 view .LVU503
	testb	%al, %al
	je	.L153
.LVL152:
.LBB272:
.LBI272:
	.loc 33 827 7 is_stmt 1 view .LVU504
.LBB273:
	.loc 33 829 2 is_stmt 0 view .LVU505
	addq	$1, %rbx
.LVL153:
	.loc 33 829 2 view .LVU506
	movq	%rbx, %r15
.LVL154:
	.loc 33 829 2 view .LVU507
.LBE273:
.LBE272:
.LBB276:
.LBI276:
	.loc 34 350 2 is_stmt 1 view .LVU508
.LBB277:
	.loc 34 351 12 is_stmt 0 view .LVU509
	movsbl	(%rbx), %esi
	leaq	12(%rsp), %rdi
.LVL155:
	.loc 34 351 12 view .LVU510
	call	_ZN3vuu13UTF8ValidatorclEc
.LVL156:
	.loc 34 351 12 view .LVU511
.LBE277:
.LBE276:
	.loc 32 128 4 view .LVU512
	testb	%al, %al
	je	.L154
.LVL157:
.LBB280:
.LBI280:
	.loc 33 827 7 is_stmt 1 view .LVU513
.LBB281:
	.loc 33 829 2 is_stmt 0 view .LVU514
	addq	$1, %rbx
	movq	%rbx, %r13
.LVL158:
	.loc 33 829 2 view .LVU515
.LBE281:
.LBE280:
.LBB284:
.LBI284:
	.loc 34 350 2 is_stmt 1 view .LVU516
.LBB285:
	.loc 34 351 12 is_stmt 0 view .LVU517
	movsbl	(%rbx), %esi
	leaq	12(%rsp), %rdi
.LVL159:
	.loc 34 351 12 view .LVU518
	call	_ZN3vuu13UTF8ValidatorclEc
.LVL160:
	.loc 34 351 12 view .LVU519
.LBE285:
.LBE284:
	.loc 32 132 4 view .LVU520
	testb	%al, %al
	je	.L155
.LVL161:
.LBB288:
.LBI288:
	.loc 33 827 7 is_stmt 1 view .LVU521
.LBB289:
	.loc 33 829 2 is_stmt 0 view .LVU522
	addq	$1, %rbx
.LVL162:
	.loc 33 829 2 view .LVU523
.LBE289:
.LBE288:
	.loc 32 118 7 is_stmt 1 view .LVU524
	subq	$1, %r12
.LVL163:
.L134:
	.loc 32 118 27 discriminator 1 view .LVU525
	testq	%r12, %r12
	jle	.L128
.LVL164:
.LBB292:
	.loc 34 350 2 view .LVU526
.LBB262:
.LBB260:
	.loc 33 819 7 view .LVU527
	.loc 33 819 7 is_stmt 0 view .LVU528
.LBE260:
	.loc 34 351 12 view .LVU529
	movsbl	(%rbx), %esi
.LVL165:
	.loc 34 351 12 view .LVU530
	leaq	12(%rsp), %rdi
.LVL166:
	.loc 34 351 12 view .LVU531
	call	_ZN3vuu13UTF8ValidatorclEc
.LVL167:
	.loc 34 351 12 view .LVU532
.LBE262:
.LBE292:
	.loc 32 120 4 view .LVU533
	testb	%al, %al
	je	.L152
.LVL168:
.LBB293:
	.loc 33 827 7 is_stmt 1 view .LVU534
.LBB266:
	.loc 33 829 2 is_stmt 0 view .LVU535
	leaq	1(%rbx), %r13
	movq	%r13, %rbp
.LVL169:
	.loc 33 829 2 view .LVU536
.LBE266:
.LBE293:
.LBB294:
	.loc 34 350 2 is_stmt 1 view .LVU537
.LBB270:
	.loc 34 351 12 is_stmt 0 view .LVU538
	movsbl	1(%rbx), %esi
	leaq	12(%rsp), %rdi
.LVL170:
	.loc 34 351 12 view .LVU539
	call	_ZN3vuu13UTF8ValidatorclEc
.LVL171:
	.loc 34 351 12 view .LVU540
.LBE270:
.LBE294:
	.loc 32 124 4 view .LVU541
	testb	%al, %al
	je	.L153
.LVL172:
.LBB295:
	.loc 33 827 7 is_stmt 1 view .LVU542
.LBB274:
	.loc 33 829 2 is_stmt 0 view .LVU543
	leaq	1(%r13), %r14
	movq	%r14, %r15
.LVL173:
	.loc 33 829 2 view .LVU544
.LBE274:
.LBE295:
.LBB296:
	.loc 34 350 2 is_stmt 1 view .LVU545
.LBB278:
	.loc 34 351 12 is_stmt 0 view .LVU546
	movsbl	1(%r13), %esi
	leaq	12(%rsp), %rdi
.LVL174:
	.loc 34 351 12 view .LVU547
	call	_ZN3vuu13UTF8ValidatorclEc
.LVL175:
	.loc 34 351 12 view .LVU548
.LBE278:
.LBE296:
	.loc 32 128 4 view .LVU549
	testb	%al, %al
	je	.L154
.LVL176:
.LBB297:
	.loc 33 827 7 is_stmt 1 view .LVU550
.LBB282:
	.loc 33 829 2 is_stmt 0 view .LVU551
	leaq	1(%r14), %r15
	movq	%r15, %r13
.LVL177:
	.loc 33 829 2 view .LVU552
.LBE282:
.LBE297:
.LBB298:
	.loc 34 350 2 is_stmt 1 view .LVU553
.LBB286:
	.loc 34 351 12 is_stmt 0 view .LVU554
	movsbl	1(%r14), %esi
	leaq	12(%rsp), %rdi
.LVL178:
	.loc 34 351 12 view .LVU555
	call	_ZN3vuu13UTF8ValidatorclEc
.LVL179:
	.loc 34 351 12 view .LVU556
.LBE286:
.LBE298:
	.loc 32 132 4 view .LVU557
	testb	%al, %al
	je	.L155
.LVL180:
.LBB299:
	.loc 33 827 7 is_stmt 1 view .LVU558
.LBB290:
	.loc 33 829 2 is_stmt 0 view .LVU559
	leaq	1(%r15), %r13
	movq	%r13, %r14
	movq	%r13, %rbx
.LVL181:
	.loc 33 829 2 view .LVU560
.LBE290:
.LBE299:
	.loc 32 118 7 is_stmt 1 view .LVU561
	subq	$1, %r12
.LVL182:
	.loc 32 118 27 view .LVU562
.LBB300:
	.loc 34 350 2 view .LVU563
.LBB263:
.LBB261:
	.loc 33 819 7 view .LVU564
	.loc 33 819 7 is_stmt 0 view .LVU565
.LBE261:
	.loc 34 351 12 view .LVU566
	movsbl	1(%r15), %esi
	leaq	12(%rsp), %rdi
.LVL183:
	.loc 34 351 12 view .LVU567
	call	_ZN3vuu13UTF8ValidatorclEc
.LVL184:
	.loc 34 351 12 view .LVU568
.LBE263:
.LBE300:
	.loc 32 120 4 view .LVU569
	testb	%al, %al
	je	.L152
.LVL185:
.LBB301:
	.loc 33 827 7 is_stmt 1 view .LVU570
.LBB267:
	.loc 33 829 2 is_stmt 0 view .LVU571
	addq	$1, %rbx
.LVL186:
	.loc 33 829 2 view .LVU572
	movq	%rbx, %rbp
.LVL187:
	.loc 33 829 2 view .LVU573
.LBE267:
.LBE301:
.LBB302:
	.loc 34 350 2 is_stmt 1 view .LVU574
.LBB271:
	.loc 34 351 12 is_stmt 0 view .LVU575
	movsbl	1(%r13), %esi
	leaq	12(%rsp), %rdi
.LVL188:
	.loc 34 351 12 view .LVU576
	call	_ZN3vuu13UTF8ValidatorclEc
.LVL189:
	.loc 34 351 12 view .LVU577
.LBE271:
.LBE302:
	.loc 32 124 4 view .LVU578
	testb	%al, %al
	je	.L153
.LVL190:
.LBB303:
	.loc 33 827 7 is_stmt 1 view .LVU579
.LBB275:
	.loc 33 829 2 is_stmt 0 view .LVU580
	leaq	1(%rbx), %rbp
	movq	%rbp, %r15
.LVL191:
	.loc 33 829 2 view .LVU581
.LBE275:
.LBE303:
.LBB304:
	.loc 34 350 2 is_stmt 1 view .LVU582
.LBB279:
	.loc 34 351 12 is_stmt 0 view .LVU583
	movsbl	1(%rbx), %esi
	leaq	12(%rsp), %rdi
.LVL192:
	.loc 34 351 12 view .LVU584
	call	_ZN3vuu13UTF8ValidatorclEc
.LVL193:
	.loc 34 351 12 view .LVU585
.LBE279:
.LBE304:
	.loc 32 128 4 view .LVU586
	testb	%al, %al
	je	.L154
.LVL194:
.LBB305:
	.loc 33 827 7 is_stmt 1 view .LVU587
.LBB283:
	.loc 33 829 2 is_stmt 0 view .LVU588
	leaq	2(%rbx), %r13
.LVL195:
	.loc 33 829 2 view .LVU589
.LBE283:
.LBE305:
.LBB306:
	.loc 34 350 2 is_stmt 1 view .LVU590
.LBB287:
	.loc 34 351 12 is_stmt 0 view .LVU591
	movsbl	2(%rbx), %esi
	leaq	12(%rsp), %rdi
.LVL196:
	.loc 34 351 12 view .LVU592
	call	_ZN3vuu13UTF8ValidatorclEc
.LVL197:
	.loc 34 351 12 view .LVU593
.LBE287:
.LBE306:
	.loc 32 132 4 view .LVU594
	testb	%al, %al
	je	.L155
.LVL198:
.LBB307:
	.loc 33 827 7 is_stmt 1 view .LVU595
.LBB291:
	.loc 33 829 2 is_stmt 0 view .LVU596
	leaq	4(%r14), %rbx
.LVL199:
	.loc 33 829 2 view .LVU597
.LBE291:
.LBE307:
	.loc 32 118 7 is_stmt 1 view .LVU598
	subq	$1, %r12
.LVL200:
	.loc 32 118 7 is_stmt 0 view .LVU599
	jmp	.L134
.LVL201:
.L152:
	.loc 32 121 13 view .LVU600
	movq	%rbx, %rax
.LVL202:
.L130:
	.loc 32 155 5 view .LVU601
	addq	$24, %rsp
	.cfi_remember_state
	.cfi_def_cfa_offset 56
	popq	%rbx
	.cfi_def_cfa_offset 48
.LVL203:
	.loc 32 155 5 view .LVU602
	popq	%rbp
	.cfi_def_cfa_offset 40
	popq	%r12
	.cfi_def_cfa_offset 32
	popq	%r13
	.cfi_def_cfa_offset 24
	popq	%r14
	.cfi_def_cfa_offset 16
	popq	%r15
	.cfi_def_cfa_offset 8
.LVL204:
	.loc 32 155 5 view .LVU603
	ret
.LVL205:
.L153:
	.cfi_restore_state
	.loc 32 125 13 view .LVU604
	movq	%rbp, %rax
	jmp	.L130
.LVL206:
.L154:
	.loc 32 129 13 view .LVU605
	movq	%r15, %rax
	jmp	.L130
.LVL207:
.L155:
	.loc 32 133 13 view .LVU606
	movq	%r13, %rax
	jmp	.L130
.LVL208:
.L128:
.LBB308:
.LBI308:
	.loc 33 989 5 is_stmt 1 view .LVU607
.LBB309:
	.loc 33 992 40 is_stmt 0 view .LVU608
	movq	(%rsp), %rdx
	subq	%rbx, %rdx
.LVL209:
	.loc 33 992 40 view .LVU609
.LBE309:
.LBE308:
	.loc 32 137 7 view .LVU610
	cmpq	$2, %rdx
	je	.L135
	cmpq	$3, %rdx
	je	.L136
	cmpq	$1, %rdx
	je	.L137
.L138:
	.loc 32 153 11 view .LVU611
	movq	(%rsp), %rax
	jmp	.L130
.L136:
.LVL210:
.LBB310:
.LBI310:
	.loc 34 350 2 is_stmt 1 view .LVU612
.LBB311:
	.loc 34 351 12 is_stmt 0 view .LVU613
	movsbl	(%rbx), %esi
.LVL211:
	.loc 34 351 12 view .LVU614
	leaq	12(%rsp), %rdi
.LVL212:
	.loc 34 351 12 view .LVU615
	call	_ZN3vuu13UTF8ValidatorclEc
.LVL213:
	.loc 34 351 12 view .LVU616
.LBE311:
.LBE310:
	.loc 32 140 4 view .LVU617
	testb	%al, %al
	jne	.L139
	.loc 32 141 13 view .LVU618
	movq	%rbx, %rax
	jmp	.L130
.L139:
.LVL214:
.LBB312:
.LBI312:
	.loc 33 827 7 is_stmt 1 view .LVU619
.LBB313:
	.loc 33 829 2 is_stmt 0 view .LVU620
	leaq	1(%rbx), %rbx
.LVL215:
.L135:
	.loc 33 829 2 view .LVU621
.LBE313:
.LBE312:
.LBB314:
.LBI314:
	.loc 34 350 2 is_stmt 1 view .LVU622
.LBB315:
.LBB316:
.LBI316:
	.loc 33 819 7 view .LVU623
	.loc 33 819 7 is_stmt 0 view .LVU624
.LBE316:
	.loc 34 351 12 view .LVU625
	movsbl	(%rbx), %esi
.LVL216:
	.loc 34 351 12 view .LVU626
	leaq	12(%rsp), %rdi
.LVL217:
	.loc 34 351 12 view .LVU627
	call	_ZN3vuu13UTF8ValidatorclEc
.LVL218:
	.loc 34 351 12 view .LVU628
.LBE315:
.LBE314:
	.loc 32 144 4 view .LVU629
	testb	%al, %al
	jne	.L140
	.loc 32 145 13 view .LVU630
	movq	%rbx, %rax
	jmp	.L130
.L140:
.LVL219:
.LBB317:
.LBI317:
	.loc 33 827 7 is_stmt 1 view .LVU631
.LBB318:
	.loc 33 829 2 is_stmt 0 view .LVU632
	addq	$1, %rbx
.LVL220:
.L137:
	.loc 33 829 2 view .LVU633
.LBE318:
.LBE317:
.LBB319:
.LBI319:
	.loc 34 350 2 is_stmt 1 view .LVU634
.LBB320:
.LBB321:
.LBI321:
	.loc 33 819 7 view .LVU635
	.loc 33 819 7 is_stmt 0 view .LVU636
.LBE321:
	.loc 34 351 12 view .LVU637
	movsbl	(%rbx), %esi
.LVL221:
	.loc 34 351 12 view .LVU638
	leaq	12(%rsp), %rdi
.LVL222:
	.loc 34 351 12 view .LVU639
	call	_ZN3vuu13UTF8ValidatorclEc
.LVL223:
	.loc 34 351 12 view .LVU640
.LBE320:
.LBE319:
	.loc 32 148 4 view .LVU641
	testb	%al, %al
	jne	.L138
	.loc 32 149 13 view .LVU642
	movq	%rbx, %rax
	jmp	.L130
	.cfi_endproc
.LFE37:
	.size	_ZSt9__find_ifIN9__gnu_cxx17__normal_iteratorIPKcNSt7__cxx1112basic_stringIcSt11char_traitsIcESaIcEEEEENS0_5__ops12_Iter_negateIN3vuu13UTF8ValidatorEEEET_SG_SG_T0_St26random_access_iterator_tag, .-_ZSt9__find_ifIN9__gnu_cxx17__normal_iteratorIPKcNSt7__cxx1112basic_stringIcSt11char_traitsIcESaIcEEEEENS0_5__ops12_Iter_negateIN3vuu13UTF8ValidatorEEEET_SG_SG_T0_St26random_access_iterator_tag
	.align 2
	.type	_ZN5boost4asio6detail11executor_opINS0_8executor8functionESaIvENS1_19scheduler_operationEE3ptr5resetEv, @function
_ZN5boost4asio6detail11executor_opINS0_8executor8functionESaIvENS1_19scheduler_operationEE3ptr5resetEv:
.LVL224:
.LFB38:
	.file 35 "/usr/local/include/boost/asio/detail/executor_op.hpp"
	.loc 35 35 528 is_stmt 1 view -0
	.cfi_startproc
	.cfi_personality 0x3,__gxx_personality_v0
	.cfi_lsda 0x3,.LLSDA38
	.loc 35 35 528 is_stmt 0 view .LVU644
	pushq	%rbx
	.cfi_def_cfa_offset 16
	.cfi_offset 3, -16
	movq	%rdi, %rbx
	.loc 35 35 542 view .LVU645
	movq	16(%rdi), %rax
	.loc 35 35 538 view .LVU646
	testq	%rax, %rax
	je	.L158
.LVL225:
.LBB357:
.LBI357:
	.loc 35 32 7 is_stmt 1 discriminator 1 view .LVU647
.LBB358:
.LBI358:
	.loc 1 57 3 discriminator 1 view .LVU648
.LBB359:
	.loc 1 59 5 discriminator 1 view .LVU649
	.loc 1 59 9 is_stmt 0 discriminator 1 view .LVU650
	movq	24(%rax), %rdx
	.loc 1 59 5 discriminator 1 view .LVU651
	testq	%rdx, %rdx
	je	.L159
	.loc 1 60 7 is_stmt 1 view .LVU652
.LVL226:
.LBB360:
.LBI360:
	.file 36 "/usr/local/include/boost/asio/detail/executor_function.hpp"
	.loc 36 35 8 view .LVU653
.LBB361:
	.loc 36 37 5 view .LVU654
	.loc 36 37 10 is_stmt 0 view .LVU655
	movl	$0, %esi
	movq	%rdx, %rdi
.LVL227:
	.loc 36 37 10 view .LVU656
	call	*(%rdx)
.LVL228:
.L159:
	.loc 36 37 10 view .LVU657
.LBE361:
.LBE360:
.LBE359:
.LBE358:
.LBB362:
.LBI362:
	.loc 17 61 3 is_stmt 1 view .LVU658
	.loc 17 61 3 is_stmt 0 view .LVU659
.LBE362:
.LBE357:
	.loc 35 35 566 view .LVU660
	movq	$0, 16(%rbx)
.L158:
.LBB363:
	.loc 35 35 579 discriminator 3 view .LVU661
	movq	8(%rbx), %rdi
	.loc 35 35 575 discriminator 3 view .LVU662
	testq	%rdi, %rdi
	je	.L157
.LVL229:
.LBB364:
.LBB365:
.LBI365:
	.file 37 "/usr/local/include/boost/asio/detail/recycling_allocator.hpp"
	.loc 37 99 15 is_stmt 1 view .LVU663
.LBB366:
.LBI366:
	.loc 37 78 3 view .LVU664
	.loc 37 78 3 is_stmt 0 view .LVU665
.LBE366:
.LBE365:
.LBB367:
.LBI367:
	.loc 37 46 3 is_stmt 1 view .LVU666
	.loc 37 46 3 is_stmt 0 view .LVU667
.LBE367:
.LBB368:
.LBI368:
	.loc 37 58 8 is_stmt 1 view .LVU668
.LBB369:
.LBI369:
	.loc 27 106 17 view .LVU669
.LBB370:
.LBB371:
.LBI371:
	.loc 30 46 3 view .LVU670
.LBB372:
	.loc 30 48 12 is_stmt 0 view .LVU671
	movq	%fs:_ZN5boost4asio6detail15keyword_tss_ptrINS1_10call_stackINS1_14thread_contextENS1_16thread_info_baseEE7contextEE6value_E@tpoff, %rcx
.LVL230:
	.loc 30 48 12 view .LVU672
.LBE372:
.LBE371:
	.loc 27 109 17 view .LVU673
	testq	%rcx, %rcx
	je	.L161
	movq	8(%rcx), %rcx
.LVL231:
.L161:
	.loc 27 109 17 view .LVU674
.LBE370:
.LBE369:
.LBB373:
.LBI373:
	.file 38 "/usr/local/include/boost/asio/detail/thread_info_base.hpp"
	.loc 38 98 15 is_stmt 1 view .LVU675
.LBB374:
.LBB375:
	.loc 38 103 7 is_stmt 0 view .LVU676
	testq	%rcx, %rcx
	je	.L162
	.loc 38 103 23 view .LVU677
	cmpq	$0, (%rcx)
	jne	.L162
.LVL232:
.LBB376:
	.loc 38 106 16 view .LVU678
	movb	40(%rdi), %sil
	.loc 38 106 9 view .LVU679
	movb	%sil, (%rdi)
.LVL233:
	.loc 38 107 9 view .LVU680
	movq	%rdi, (%rcx)
.LVL234:
.L163:
	.loc 38 107 9 view .LVU681
.LBE376:
.LBE375:
.LBE374:
.LBE373:
.LBE368:
	.loc 35 35 1007 view .LVU682
	movq	$0, 8(%rbx)
.LVL235:
.L157:
	.loc 35 35 1007 view .LVU683
.LBE364:
.LBE363:
	.loc 35 35 1016 view .LVU684
	popq	%rbx
	.cfi_remember_state
	.cfi_def_cfa_offset 8
.LVL236:
	.loc 35 35 1016 view .LVU685
	ret
.LVL237:
.L162:
	.cfi_restore_state
.LBB381:
.LBB380:
.LBB379:
.LBB378:
.LBB377:
	.loc 38 112 22 view .LVU686
	call	_ZdlPv
.LVL238:
	.loc 38 112 22 view .LVU687
	jmp	.L163
.LBE377:
.LBE378:
.LBE379:
.LBE380:
.LBE381:
	.cfi_endproc
.LFE38:
	.section	.gcc_except_table
.LLSDA38:
	.byte	0xff
	.byte	0xff
	.byte	0x1
	.uleb128 .LLSDACSE38-.LLSDACSB38
.LLSDACSB38:
.LLSDACSE38:
	.text
	.size	_ZN5boost4asio6detail11executor_opINS0_8executor8functionESaIvENS1_19scheduler_operationEE3ptr5resetEv, .-_ZN5boost4asio6detail11executor_opINS0_8executor8functionESaIvENS1_19scheduler_operationEE3ptr5resetEv
	.align 2
	.type	_ZN5boost4asio6detail17executor_functionINS1_7binder2ISt5_BindIFM6ClientFvRKNS_6system10error_codeEiEPS5_St12_PlaceholderILi1EESD_ILi2EEEES7_iEESaIvEE3ptr5resetEv, @function
_ZN5boost4asio6detail17executor_functionINS1_7binder2ISt5_BindIFM6ClientFvRKNS_6system10error_codeEiEPS5_St12_PlaceholderILi1EESD_ILi2EEEES7_iEESaIvEE3ptr5resetEv:
.LVL239:
.LFB41:
	.loc 36 61 520 is_stmt 1 view -0
	.cfi_startproc
	.loc 36 61 520 is_stmt 0 view .LVU689
	pushq	%rbx
	.cfi_def_cfa_offset 16
	.cfi_offset 3, -16
	movq	%rdi, %rbx
	.loc 36 61 530 view .LVU690
	cmpq	$0, 16(%rdi)
	je	.L166
.LVL240:
.LBB409:
.LBI409:
	.loc 36 58 7 is_stmt 1 discriminator 1 view .LVU691
.LBB410:
.LBI410:
	.loc 36 49 3 discriminator 1 view .LVU692
	.loc 36 49 3 is_stmt 0 discriminator 1 view .LVU693
.LBE410:
.LBE409:
	.loc 36 61 564 discriminator 1 view .LVU694
	movq	$0, 16(%rdi)
.L166:
.LBB411:
	.loc 36 61 577 discriminator 3 view .LVU695
	movq	8(%rbx), %rdi
.LVL241:
	.loc 36 61 573 discriminator 3 view .LVU696
	testq	%rdi, %rdi
	je	.L165
.LVL242:
.LBB412:
.LBB413:
.LBI413:
	.loc 37 99 15 is_stmt 1 view .LVU697
.LBB414:
.LBI414:
	.loc 37 78 3 view .LVU698
	.loc 37 78 3 is_stmt 0 view .LVU699
.LBE414:
.LBE413:
.LBB415:
.LBI415:
	.loc 37 46 3 is_stmt 1 view .LVU700
	.loc 37 46 3 is_stmt 0 view .LVU701
.LBE415:
.LBB416:
.LBI416:
	.loc 37 58 8 is_stmt 1 view .LVU702
.LBB417:
.LBI417:
	.loc 27 106 17 view .LVU703
.LBB418:
.LBB419:
.LBI419:
	.loc 30 46 3 view .LVU704
.LBB420:
	.loc 30 48 12 is_stmt 0 view .LVU705
	movq	%fs:_ZN5boost4asio6detail15keyword_tss_ptrINS1_10call_stackINS1_14thread_contextENS1_16thread_info_baseEE7contextEE6value_E@tpoff, %rax
.LVL243:
	.loc 30 48 12 view .LVU706
.LBE420:
.LBE419:
	.loc 27 109 17 view .LVU707
	testq	%rax, %rax
	je	.L168
	movq	8(%rax), %rax
.LVL244:
.L168:
	.loc 27 109 17 view .LVU708
.LBE418:
.LBE417:
.LBB421:
.LBI421:
	.loc 38 98 15 is_stmt 1 view .LVU709
.LBB422:
.LBB423:
	.loc 38 103 7 is_stmt 0 view .LVU710
	testq	%rax, %rax
	je	.L169
	.loc 38 103 23 view .LVU711
	cmpq	$0, 16(%rax)
	jne	.L169
.LVL245:
.LBB424:
	.loc 38 106 16 view .LVU712
	movb	64(%rdi), %dl
	.loc 38 106 9 view .LVU713
	movb	%dl, (%rdi)
.LVL246:
	.loc 38 107 9 view .LVU714
	movq	%rdi, 16(%rax)
.LVL247:
.L170:
	.loc 38 107 9 view .LVU715
.LBE424:
.LBE423:
.LBE422:
.LBE421:
.LBE416:
	.loc 36 61 991 view .LVU716
	movq	$0, 8(%rbx)
.LVL248:
.L165:
	.loc 36 61 991 view .LVU717
.LBE412:
.LBE411:
	.loc 36 61 1000 view .LVU718
	popq	%rbx
	.cfi_remember_state
	.cfi_def_cfa_offset 8
.LVL249:
	.loc 36 61 1000 view .LVU719
	ret
.LVL250:
.L169:
	.cfi_restore_state
.LBB429:
.LBB428:
.LBB427:
.LBB426:
.LBB425:
	.loc 38 112 22 view .LVU720
	call	_ZdlPv
.LVL251:
	.loc 38 112 22 view .LVU721
	jmp	.L170
.LBE425:
.LBE426:
.LBE427:
.LBE428:
.LBE429:
	.cfi_endproc
.LFE41:
	.size	_ZN5boost4asio6detail17executor_functionINS1_7binder2ISt5_BindIFM6ClientFvRKNS_6system10error_codeEiEPS5_St12_PlaceholderILi1EESD_ILi2EEEES7_iEESaIvEE3ptr5resetEv, .-_ZN5boost4asio6detail17executor_functionINS1_7binder2ISt5_BindIFM6ClientFvRKNS_6system10error_codeEiEPS5_St12_PlaceholderILi1EESD_ILi2EEEES7_iEESaIvEE3ptr5resetEv
	.type	_ZN5boost4asio6detail17executor_functionINS1_7binder2ISt5_BindIFM6ClientFvRKNS_6system10error_codeEiEPS5_St12_PlaceholderILi1EESD_ILi2EEEES7_iEESaIvEE11do_completeEPNS1_22executor_function_baseEb, @function
_ZN5boost4asio6detail17executor_functionINS1_7binder2ISt5_BindIFM6ClientFvRKNS_6system10error_codeEiEPS5_St12_PlaceholderILi1EESD_ILi2EEEES7_iEESaIvEE11do_completeEPNS1_22executor_function_baseEb:
.LVL252:
.LFB44:
	.loc 36 72 15 is_stmt 1 view -0
	.cfi_startproc
	.cfi_personality 0x3,__gcc_personality_v0
	.cfi_lsda 0x3,.LLSDA44
	.loc 36 72 15 is_stmt 0 view .LVU723
	pushq	%rbx
	.cfi_def_cfa_offset 16
	.cfi_offset 3, -16
	subq	$96, %rsp
	.cfi_def_cfa_offset 112
	movl	%esi, %ebx
.LVL253:
	.loc 36 77 9 view .LVU724
	leaq	79(%rsp), %rax
	movq	%rax, 48(%rsp)
	movq	%rdi, 56(%rsp)
	movq	%rdi, 64(%rsp)
.LVL254:
.LBB525:
.LBI525:
	.loc 8 154 3 is_stmt 1 view .LVU725
.LBB526:
.LBB527:
.LBB528:
.LBI528:
	.loc 9 472 7 view .LVU726
.LBB529:
.LBB530:
.LBI530:
	.loc 10 99 5 view .LVU727
	.loc 10 99 5 is_stmt 0 view .LVU728
.LBE530:
	.loc 9 473 78 view .LVU729
	movdqu	8(%rdi), %xmm0
	movups	%xmm0, (%rsp)
.LVL255:
.LBB531:
.LBI531:
	.loc 10 99 5 is_stmt 1 view .LVU730
	.loc 10 99 5 is_stmt 0 view .LVU731
.LBE531:
.LBB532:
.LBI532:
	.loc 11 642 17 is_stmt 1 view .LVU732
.LBB533:
.LBI533:
	.loc 11 227 7 view .LVU733
.LBB534:
.LBI534:
	.loc 11 201 7 view .LVU734
	.loc 11 201 7 is_stmt 0 view .LVU735
.LBE534:
.LBB535:
.LBI535:
	.loc 10 99 5 is_stmt 1 view .LVU736
	.loc 10 99 5 is_stmt 0 view .LVU737
.LBE535:
.LBB536:
.LBI536:
	.loc 11 227 7 is_stmt 1 view .LVU738
	.loc 11 227 7 is_stmt 0 view .LVU739
.LBE536:
.LBB537:
.LBI537:
	.loc 11 195 7 is_stmt 1 view .LVU740
	.loc 11 195 7 is_stmt 0 view .LVU741
.LBE537:
.LBB538:
.LBI538:
	.loc 10 74 5 is_stmt 1 view .LVU742
	.loc 10 74 5 is_stmt 0 view .LVU743
.LBE538:
.LBB539:
.LBI539:
	.loc 11 132 19 is_stmt 1 view .LVU744
.LBB540:
.LBB541:
.LBB542:
.LBI542:
	.loc 10 74 5 view .LVU745
	.loc 10 74 5 is_stmt 0 view .LVU746
.LBE542:
	.loc 11 133 42 view .LVU747
	movq	24(%rdi), %rdx
	movq	%rdx, 16(%rsp)
.LVL256:
	.loc 11 133 42 view .LVU748
.LBE541:
.LBE540:
.LBE539:
.LBE533:
.LBE532:
.LBE529:
.LBE528:
	.loc 8 157 45 view .LVU749
	movdqu	32(%rdi), %xmm1
	movups	%xmm1, 24(%rsp)
	.loc 8 157 39 view .LVU750
	movl	48(%rdi), %ecx
	.loc 8 157 45 view .LVU751
	movl	%ecx, 40(%rsp)
.LVL257:
	.loc 8 157 45 view .LVU752
.LBE527:
.LBE526:
.LBE525:
.LBB543:
.LBI543:
	.loc 36 61 520 is_stmt 1 view .LVU753
.LBB544:
	.loc 36 61 530 is_stmt 0 view .LVU754
	testq	%rdi, %rdi
	je	.L173
	.loc 36 61 564 view .LVU755
	movq	$0, 64(%rsp)
.L173:
.LBB545:
	.loc 36 61 577 view .LVU756
	movq	56(%rsp), %rdi
.LVL258:
	.loc 36 61 573 view .LVU757
	testq	%rdi, %rdi
	je	.L174
.LVL259:
.LBB546:
.LBB547:
.LBI547:
	.loc 37 58 8 is_stmt 1 view .LVU758
.LBB548:
.LBI548:
	.loc 27 106 17 view .LVU759
.LBB549:
.LBB550:
.LBI550:
	.loc 30 46 3 view .LVU760
.LBB551:
	.loc 30 48 12 is_stmt 0 view .LVU761
	movq	%fs:_ZN5boost4asio6detail15keyword_tss_ptrINS1_10call_stackINS1_14thread_contextENS1_16thread_info_baseEE7contextEE6value_E@tpoff, %rsi
.LVL260:
	.loc 30 48 12 view .LVU762
.LBE551:
.LBE550:
	.loc 27 109 17 view .LVU763
	testq	%rsi, %rsi
	je	.L175
	movq	8(%rsi), %rsi
.LVL261:
.L175:
	.loc 27 109 17 view .LVU764
.LBE549:
.LBE548:
.LBB552:
.LBI552:
	.loc 38 98 15 is_stmt 1 view .LVU765
.LBB553:
.LBB554:
	.loc 38 103 7 is_stmt 0 view .LVU766
	testq	%rsi, %rsi
	je	.L176
	.loc 38 103 23 view .LVU767
	cmpq	$0, 16(%rsi)
	je	.L188
.L176:
	.loc 38 103 23 view .LVU768
.LBE554:
	.loc 38 112 22 view .LVU769
	call	_ZdlPv
.LVL262:
.L177:
	.loc 38 112 22 view .LVU770
.LBE553:
.LBE552:
.LBE547:
	.loc 36 61 991 view .LVU771
	movq	$0, 56(%rsp)
.LVL263:
.L174:
	.loc 36 61 991 view .LVU772
.LBE546:
.LBE545:
.LBE544:
.LBE543:
	.loc 36 89 5 view .LVU773
	testb	%bl, %bl
	je	.L178
.LVL264:
.LBB563:
.LBI563:
	.loc 8 162 8 is_stmt 1 view .LVU774
.LBB564:
.LBI564:
	.loc 9 480 2 view .LVU775
.LBB565:
.LBB566:
.LBI566:
	.loc 11 1482 5 view .LVU776
.LBB567:
.LBI567:
	.loc 11 945 19 view .LVU777
.LBB568:
.LBI568:
	.loc 11 210 17 view .LVU778
.LBB569:
.LBI569:
	.loc 11 343 17 view .LVU779
.LBB570:
.LBI570:
	.loc 11 125 17 view .LVU780
.LBB571:
	.loc 11 126 25 is_stmt 0 view .LVU781
	leaq	40(%rsp), %r9
.LVL265:
	.loc 11 126 25 view .LVU782
	movq	%r9, 80(%rsp)
.LVL266:
	.loc 11 126 25 view .LVU783
.LBE571:
.LBE570:
.LBE569:
.LBB572:
.LBI572:
	.loc 11 125 17 is_stmt 1 view .LVU784
.LBB573:
	.loc 11 126 25 is_stmt 0 view .LVU785
	leaq	24(%rsp), %rsi
.LVL267:
	.loc 11 126 25 view .LVU786
	movq	%rsi, 88(%rsp)
.LVL268:
	.loc 11 126 25 view .LVU787
.LBE573:
.LBE572:
.LBE568:
.LBE567:
.LBE566:
.LBB574:
.LBI574:
	.loc 9 398 2 is_stmt 1 view .LVU788
.LBB575:
.LBI575:
	.loc 9 345 2 view .LVU789
.LBB576:
.LBI576:
	.loc 11 1332 5 view .LVU790
.LBB577:
.LBI577:
	.loc 11 1320 5 view .LVU791
.LBB578:
.LBI578:
	.loc 11 1309 5 view .LVU792
.LBB579:
.LBI579:
	.loc 11 334 7 view .LVU793
.LBB580:
.LBI580:
	.loc 11 160 7 view .LVU794
	.loc 11 160 7 is_stmt 0 view .LVU795
.LBE580:
.LBE579:
.LBE578:
.LBE577:
.LBE576:
.LBE575:
.LBB581:
.LBI581:
	.loc 9 345 2 is_stmt 1 view .LVU796
.LBB582:
.LBI582:
	.loc 11 1332 5 view .LVU797
.LBB583:
.LBI583:
	.loc 11 1320 5 view .LVU798
.LBB584:
.LBI584:
	.loc 11 1309 5 view .LVU799
.LBB585:
.LBI585:
	.loc 11 195 7 view .LVU800
.LBB586:
.LBI586:
	.loc 11 160 7 view .LVU801
	.loc 11 160 7 is_stmt 0 view .LVU802
.LBE586:
.LBE585:
.LBE584:
.LBE583:
.LBE582:
.LBE581:
.LBB587:
.LBI587:
	.loc 14 89 5 is_stmt 1 view .LVU803
.LBB588:
.LBI588:
	.loc 14 70 5 view .LVU804
.LBB589:
	.loc 14 73 46 is_stmt 0 view .LVU805
	movq	16(%rsp), %rdi
	movq	(%rsp), %rbx
	testb	$1, %bl
	je	.L179
	movq	8(%rsp), %r10
	movq	(%rdi,%r10), %r11
	movq	-1(%rbx,%r11), %rbx
.L179:
	addq	8(%rsp), %rdi
	movl	(%r9), %edx
.LEHB2:
	call	*%rbx
.LVL269:
.LEHE2:
	.loc 14 73 46 view .LVU806
	jmp	.L178
.LVL270:
.L188:
	.loc 14 73 46 view .LVU807
.LBE589:
.LBE588:
.LBE587:
.LBE574:
.LBE565:
.LBE564:
.LBE563:
.LBB590:
.LBB562:
.LBB561:
.LBB560:
.LBB559:
.LBB558:
.LBB557:
.LBB556:
.LBB555:
	.loc 38 106 16 view .LVU808
	movzbl	64(%rdi), %r8d
	.loc 38 106 9 view .LVU809
	movb	%r8b, (%rdi)
.LVL271:
	.loc 38 107 9 view .LVU810
	movq	%rdi, 16(%rsi)
	jmp	.L177
.LVL272:
.L178:
	.loc 38 107 9 view .LVU811
.LBE555:
.LBE556:
.LBE557:
.LBE558:
.LBE559:
.LBE560:
.LBE561:
.LBE562:
.LBE590:
.LBB591:
.LBI591:
	.loc 36 61 63 is_stmt 1 view .LVU812
.LBB592:
.LBI592:
	.loc 36 61 520 view .LVU813
.LBB593:
	.loc 36 61 530 is_stmt 0 view .LVU814
	cmpq	$0, 64(%rsp)
	je	.L180
	.loc 36 61 564 view .LVU815
	movq	$0, 64(%rsp)
.L180:
.LBB594:
	.loc 36 61 577 view .LVU816
	movq	56(%rsp), %rdi
	.loc 36 61 573 view .LVU817
	testq	%rdi, %rdi
	je	.L172
.LVL273:
.LBB595:
.LBB596:
.LBI596:
	.loc 37 58 8 is_stmt 1 view .LVU818
.LBB597:
.LBI597:
	.loc 27 106 17 view .LVU819
.LBB598:
.LBB599:
.LBI599:
	.loc 30 46 3 view .LVU820
.LBB600:
	.loc 30 48 12 is_stmt 0 view .LVU821
	movq	%fs:_ZN5boost4asio6detail15keyword_tss_ptrINS1_10call_stackINS1_14thread_contextENS1_16thread_info_baseEE7contextEE6value_E@tpoff, %rax
.LVL274:
	.loc 30 48 12 view .LVU822
.LBE600:
.LBE599:
	.loc 27 109 17 view .LVU823
	testq	%rax, %rax
	je	.L182
	movq	8(%rax), %rax
.LVL275:
.L182:
	.loc 27 109 17 view .LVU824
.LBE598:
.LBE597:
.LBB601:
.LBI601:
	.loc 38 98 15 is_stmt 1 view .LVU825
.LBB602:
.LBB603:
	.loc 38 103 7 is_stmt 0 view .LVU826
	testq	%rax, %rax
	je	.L183
	.loc 38 103 23 view .LVU827
	cmpq	$0, 16(%rax)
	je	.L189
.L183:
	.loc 38 103 23 view .LVU828
.LBE603:
	.loc 38 112 22 view .LVU829
	call	_ZdlPv
.LVL276:
.L172:
	.loc 38 112 22 view .LVU830
.LBE602:
.LBE601:
.LBE596:
.LBE595:
.LBE594:
.LBE593:
.LBE592:
.LBE591:
	.loc 36 93 3 view .LVU831
	addq	$96, %rsp
	.cfi_remember_state
	.cfi_def_cfa_offset 16
	popq	%rbx
	.cfi_def_cfa_offset 8
	ret
.LVL277:
.L189:
	.cfi_restore_state
.LBB613:
.LBB612:
.LBB611:
.LBB610:
.LBB609:
.LBB608:
.LBB607:
.LBB606:
.LBB605:
.LBB604:
	.loc 38 106 16 view .LVU832
	movzbl	64(%rdi), %edx
	.loc 38 106 9 view .LVU833
	movb	%dl, (%rdi)
.LVL278:
	.loc 38 107 9 view .LVU834
	movq	%rdi, 16(%rax)
	jmp	.L172
.LVL279:
.L186:
	.loc 38 107 9 view .LVU835
	movq	%rax, %rbx
.LVL280:
	.loc 38 107 9 view .LVU836
.LBE604:
.LBE605:
.LBE606:
.LBE607:
.LBE608:
.LBE609:
.LBE610:
.LBE611:
.LBE612:
.LBE613:
.LBB614:
.LBI614:
	.loc 36 61 63 is_stmt 1 view .LVU837
.LBB615:
	.loc 36 61 72 is_stmt 0 view .LVU838
	leaq	48(%rsp), %rdi
.LVL281:
	.loc 36 61 72 view .LVU839
	call	_ZN5boost4asio6detail17executor_functionINS1_7binder2ISt5_BindIFM6ClientFvRKNS_6system10error_codeEiEPS5_St12_PlaceholderILi1EESD_ILi2EEEES7_iEESaIvEE3ptr5resetEv
.LVL282:
	.loc 36 61 72 view .LVU840
	movq	%rbx, %rdi
.LEHB3:
	call	_Unwind_Resume
.LVL283:
.LEHE3:
.LBE615:
.LBE614:
	.cfi_endproc
.LFE44:
	.section	.gcc_except_table
.LLSDA44:
	.byte	0xff
	.byte	0xff
	.byte	0x1
	.uleb128 .LLSDACSE44-.LLSDACSB44
.LLSDACSB44:
	.uleb128 .LEHB2-.LFB44
	.uleb128 .LEHE2-.LEHB2
	.uleb128 .L186-.LFB44
	.uleb128 0
	.uleb128 .LEHB3-.LFB44
	.uleb128 .LEHE3-.LEHB3
	.uleb128 0
	.uleb128 0
.LLSDACSE44:
	.text
	.size	_ZN5boost4asio6detail17executor_functionINS1_7binder2ISt5_BindIFM6ClientFvRKNS_6system10error_codeEiEPS5_St12_PlaceholderILi1EESD_ILi2EEEES7_iEESaIvEE11do_completeEPNS1_22executor_function_baseEb, .-_ZN5boost4asio6detail17executor_functionINS1_7binder2ISt5_BindIFM6ClientFvRKNS_6system10error_codeEiEPS5_St12_PlaceholderILi1EESD_ILi2EEEES7_iEESaIvEE11do_completeEPNS1_22executor_function_baseEb
	.align 2
	.type	_ZN5boost4asio6detail14signal_handlerISt5_BindIFM6ClientFvRKNS_6system10error_codeEiEPS4_St12_PlaceholderILi1EESC_ILi2EEEENS1_18io_object_executorINS0_8executorEEEE3ptr5resetEv, @function
_ZN5boost4asio6detail14signal_handlerISt5_BindIFM6ClientFvRKNS_6system10error_codeEiEPS4_St12_PlaceholderILi1EESC_ILi2EEEENS1_18io_object_executorINS0_8executorEEEE3ptr5resetEv:
.LVL284:
.LFB45:
	.file 39 "/usr/local/include/boost/asio/detail/signal_handler.hpp"
	.loc 39 37 626 is_stmt 1 view -0
	.cfi_startproc
	.loc 39 37 626 is_stmt 0 view .LVU842
	pushq	%rbx
	.cfi_def_cfa_offset 16
	.cfi_offset 3, -16
	movq	%rdi, %rbx
	.loc 39 37 640 view .LVU843
	movq	16(%rdi), %rax
	.loc 39 37 636 view .LVU844
	testq	%rax, %rax
	je	.L191
.LVL285:
.LBB665:
.LBI665:
	.loc 39 34 7 is_stmt 1 discriminator 1 view .LVU845
.LBB666:
.LBI666:
	.file 40 "/usr/local/include/boost/asio/detail/io_object_executor.hpp"
	.loc 40 32 7 discriminator 1 view .LVU846
.LBB667:
.LBI667:
	.loc 2 84 3 discriminator 1 view .LVU847
.LBE667:
.LBE666:
.LBE665:
	.loc 2 86 5 discriminator 1 view .LVU848
.LBB674:
.LBB671:
.LBB670:
.LBB668:
.LBI668:
	.loc 2 321 8 discriminator 1 view .LVU849
.LBB669:
	.loc 2 323 5 discriminator 1 view .LVU850
	.loc 2 323 9 is_stmt 0 discriminator 1 view .LVU851
	movq	72(%rax), %rdi
.LVL286:
	.loc 2 323 5 discriminator 1 view .LVU852
	testq	%rdi, %rdi
	je	.L192
	.loc 2 324 7 is_stmt 1 view .LVU853
	.loc 2 324 22 is_stmt 0 view .LVU854
	movq	(%rdi), %rdx
	.loc 2 324 21 view .LVU855
	call	*8(%rdx)
.LVL287:
.L192:
	.loc 2 324 21 view .LVU856
.LBE669:
.LBE668:
.LBE670:
.LBE671:
.LBB672:
.LBI672:
	.file 41 "/usr/local/include/boost/asio/detail/signal_op.hpp"
	.loc 41 27 7 is_stmt 1 view .LVU857
.LBB673:
.LBI673:
	.loc 17 61 3 view .LVU858
	.loc 17 61 3 is_stmt 0 view .LVU859
.LBE673:
.LBE672:
.LBE674:
	.loc 39 37 667 view .LVU860
	movq	$0, 16(%rbx)
.L191:
.LBB675:
	.loc 39 37 680 discriminator 3 view .LVU861
	movq	8(%rbx), %rdi
	.loc 39 37 676 discriminator 3 view .LVU862
	testq	%rdi, %rdi
	je	.L190
.LVL288:
.LBB676:
.LBB677:
.LBI677:
	.file 42 "/usr/local/include/boost/asio/detail/handler_alloc_helpers.hpp"
	.loc 42 141 15 is_stmt 1 discriminator 4 view .LVU863
.LBB678:
.LBI678:
	.loc 42 110 12 discriminator 4 view .LVU864
	.loc 42 110 12 is_stmt 0 discriminator 4 view .LVU865
.LBE678:
.LBE677:
.LBB679:
.LBI679:
	.loc 42 78 3 is_stmt 1 discriminator 4 view .LVU866
	.loc 42 78 3 is_stmt 0 discriminator 4 view .LVU867
.LBE679:
.LBB680:
.LBI680:
	.loc 42 89 8 is_stmt 1 discriminator 4 view .LVU868
.LBB681:
.LBI681:
	.loc 42 44 13 discriminator 4 view .LVU869
.LBB682:
.LBI682:
	.file 43 "/usr/local/include/boost/asio/impl/handler_alloc_hook.ipp"
	.loc 43 38 6 discriminator 4 view .LVU870
.LBE682:
.LBE681:
.LBE680:
.LBE676:
.LBE675:
	.loc 43 41 3 discriminator 4 view .LVU871
.LBB709:
.LBB706:
.LBB703:
.LBB700:
.LBB697:
.LBB683:
.LBI683:
	.loc 27 106 17 discriminator 4 view .LVU872
.LBB684:
.LBB685:
.LBI685:
	.loc 30 46 3 discriminator 4 view .LVU873
.LBB686:
	.loc 30 48 12 is_stmt 0 discriminator 4 view .LVU874
	movq	%fs:_ZN5boost4asio6detail15keyword_tss_ptrINS1_10call_stackINS1_14thread_contextENS1_16thread_info_baseEE7contextEE6value_E@tpoff, %rcx
.LVL289:
	.loc 30 48 12 discriminator 4 view .LVU875
.LBE686:
.LBE685:
	.loc 27 109 17 discriminator 4 view .LVU876
	testq	%rcx, %rcx
	je	.L194
	.loc 27 109 17 view .LVU877
	movq	8(%rcx), %rcx
.LVL290:
.L194:
	.loc 27 109 17 view .LVU878
.LBE684:
.LBE683:
.LBB687:
.LBI687:
	.loc 38 64 15 is_stmt 1 view .LVU879
.LBE687:
.LBE697:
.LBE700:
.LBE703:
.LBE706:
.LBE709:
	.loc 38 67 5 view .LVU880
.LBB710:
.LBB707:
.LBB704:
.LBB701:
.LBB698:
.LBB695:
.LBB688:
.LBI688:
	.loc 38 98 15 view .LVU881
.LBB689:
.LBB690:
	.loc 38 103 7 is_stmt 0 view .LVU882
	testq	%rcx, %rcx
	je	.L195
	.loc 38 103 23 view .LVU883
	cmpq	$0, (%rcx)
	je	.L198
.L195:
	.loc 38 103 23 view .LVU884
.LBE690:
	.loc 38 112 22 view .LVU885
	call	_ZdlPv
.LVL291:
.L196:
	.loc 38 112 22 view .LVU886
.LBE689:
.LBE688:
.LBE695:
.LBE698:
.LBE701:
.LBE704:
	.loc 39 37 1184 view .LVU887
	movq	$0, 8(%rbx)
.LVL292:
.L190:
	.loc 39 37 1184 view .LVU888
.LBE707:
.LBE710:
	.loc 39 37 1193 view .LVU889
	popq	%rbx
	.cfi_remember_state
	.cfi_def_cfa_offset 8
.LVL293:
	.loc 39 37 1193 view .LVU890
	ret
.LVL294:
.L198:
	.cfi_restore_state
.LBB711:
.LBB708:
.LBB705:
.LBB702:
.LBB699:
.LBB696:
.LBB694:
.LBB693:
.LBB692:
.LBB691:
	.loc 38 106 16 view .LVU891
	movzbl	88(%rdi), %esi
	.loc 38 106 9 view .LVU892
	movb	%sil, (%rdi)
.LVL295:
	.loc 38 107 9 view .LVU893
	movq	%rdi, (%rcx)
	jmp	.L196
.LBE691:
.LBE692:
.LBE693:
.LBE694:
.LBE696:
.LBE699:
.LBE702:
.LBE705:
.LBE708:
.LBE711:
	.cfi_endproc
.LFE45:
	.size	_ZN5boost4asio6detail14signal_handlerISt5_BindIFM6ClientFvRKNS_6system10error_codeEiEPS4_St12_PlaceholderILi1EESC_ILi2EEEENS1_18io_object_executorINS0_8executorEEEE3ptr5resetEv, .-_ZN5boost4asio6detail14signal_handlerISt5_BindIFM6ClientFvRKNS_6system10error_codeEiEPS4_St12_PlaceholderILi1EESC_ILi2EEEENS1_18io_object_executorINS0_8executorEEEE3ptr5resetEv
	.type	_ZSt8for_eachIN9__gnu_cxx17__normal_iteratorIPKcNSt7__cxx1112basic_stringIcSt11char_traitsIcESaIcEEEEEN3vuu15CodepointFinderEET0_T_SE_SD_, @function
_ZSt8for_eachIN9__gnu_cxx17__normal_iteratorIPKcNSt7__cxx1112basic_stringIcSt11char_traitsIcESaIcEEEEEN3vuu15CodepointFinderEET0_T_SE_SD_:
.LVL296:
.LFB48:
	.loc 32 3870 5 is_stmt 1 view -0
	.cfi_startproc
	.loc 32 3870 5 is_stmt 0 view .LVU895
	pushq	%r15
	.cfi_def_cfa_offset 16
	.cfi_offset 15, -16
	pushq	%r14
	.cfi_def_cfa_offset 24
	.cfi_offset 14, -24
	pushq	%r13
	.cfi_def_cfa_offset 32
	.cfi_offset 13, -32
	pushq	%r12
	.cfi_def_cfa_offset 40
	.cfi_offset 12, -40
	pushq	%rbp
	.cfi_def_cfa_offset 48
	.cfi_offset 6, -48
	pushq	%rbx
	.cfi_def_cfa_offset 56
	.cfi_offset 3, -56
	subq	$8, %rsp
	.cfi_def_cfa_offset 64
	movq	%rdi, %r13
	movq	%rsi, %rbp
.LVL297:
	.loc 32 3870 5 view .LVU896
	movq	%rdx, %r14
.LVL298:
	.loc 32 3870 5 view .LVU897
	movq	%rcx, %rbx
.LVL299:
	.loc 32 3870 5 view .LVU898
	movq	%rdx, %r12
.LVL300:
	.loc 32 3870 5 view .LVU899
	subq	%rsi, %r12
	andl	$7, %r12d
	je	.L201
	.loc 32 3875 22 is_stmt 1 view .LVU900
.LVL301:
.LBB712:
.LBI712:
	.loc 33 907 5 view .LVU901
	.loc 33 907 5 is_stmt 0 view .LVU902
.LBE712:
	.loc 32 3876 5 view .LVU903
	movsbl	(%rsi), %esi
.LVL302:
	.loc 32 3876 5 view .LVU904
	movq	%rcx, %rdi
.LVL303:
	.loc 32 3876 5 view .LVU905
	call	_ZN3vuu15CodepointFinderclEc
.LVL304:
	.loc 32 3875 7 is_stmt 1 view .LVU906
.LBB713:
.LBI713:
	.loc 33 827 7 view .LVU907
.LBB714:
	.loc 33 829 2 is_stmt 0 view .LVU908
	addq	$1, %rbp
.LVL305:
	.loc 33 829 2 view .LVU909
	cmpq	$1, %r12
	je	.L201
	cmpq	$2, %r12
	je	.L224
	cmpq	$3, %r12
	je	.L225
	cmpq	$4, %r12
	je	.L226
	cmpq	$5, %r12
	je	.L227
	cmpq	$6, %r12
	je	.L228
.LVL306:
	.loc 33 829 2 view .LVU910
.LBE714:
.LBE713:
	.loc 32 3875 22 is_stmt 1 view .LVU911
.LBB723:
	.loc 33 907 5 view .LVU912
	.loc 33 907 5 is_stmt 0 view .LVU913
.LBE723:
	.loc 32 3876 5 view .LVU914
	movsbl	0(%rbp), %esi
	movq	%rbx, %rdi
	call	_ZN3vuu15CodepointFinderclEc
.LVL307:
	.loc 32 3875 7 is_stmt 1 view .LVU915
.LBB724:
	.loc 33 827 7 view .LVU916
.LBB715:
	.loc 33 829 2 is_stmt 0 view .LVU917
	addq	$1, %rbp
.LVL308:
.L228:
	.loc 33 829 2 view .LVU918
.LBE715:
.LBE724:
	.loc 32 3875 22 is_stmt 1 view .LVU919
.LBB725:
	.loc 33 907 5 view .LVU920
	.loc 33 907 5 is_stmt 0 view .LVU921
.LBE725:
	.loc 32 3876 5 view .LVU922
	movsbl	0(%rbp), %esi
	movq	%rbx, %rdi
	call	_ZN3vuu15CodepointFinderclEc
.LVL309:
	.loc 32 3875 7 is_stmt 1 view .LVU923
.LBB726:
	.loc 33 827 7 view .LVU924
.LBB716:
	.loc 33 829 2 is_stmt 0 view .LVU925
	addq	$1, %rbp
.LVL310:
.L227:
	.loc 33 829 2 view .LVU926
.LBE716:
.LBE726:
	.loc 32 3875 22 is_stmt 1 view .LVU927
.LBB727:
	.loc 33 907 5 view .LVU928
	.loc 33 907 5 is_stmt 0 view .LVU929
.LBE727:
	.loc 32 3876 5 view .LVU930
	movsbl	0(%rbp), %esi
	movq	%rbx, %rdi
	call	_ZN3vuu15CodepointFinderclEc
.LVL311:
	.loc 32 3875 7 is_stmt 1 view .LVU931
.LBB728:
	.loc 33 827 7 view .LVU932
.LBB717:
	.loc 33 829 2 is_stmt 0 view .LVU933
	addq	$1, %rbp
.LVL312:
.L226:
	.loc 33 829 2 view .LVU934
.LBE717:
.LBE728:
	.loc 32 3875 22 is_stmt 1 view .LVU935
.LBB729:
	.loc 33 907 5 view .LVU936
	.loc 33 907 5 is_stmt 0 view .LVU937
.LBE729:
	.loc 32 3876 5 view .LVU938
	movsbl	0(%rbp), %esi
	movq	%rbx, %rdi
	call	_ZN3vuu15CodepointFinderclEc
.LVL313:
	.loc 32 3875 7 is_stmt 1 view .LVU939
.LBB730:
	.loc 33 827 7 view .LVU940
.LBB718:
	.loc 33 829 2 is_stmt 0 view .LVU941
	addq	$1, %rbp
.LVL314:
.L225:
	.loc 33 829 2 view .LVU942
.LBE718:
.LBE730:
	.loc 32 3875 22 is_stmt 1 view .LVU943
.LBB731:
	.loc 33 907 5 view .LVU944
	.loc 33 907 5 is_stmt 0 view .LVU945
.LBE731:
	.loc 32 3876 5 view .LVU946
	movsbl	0(%rbp), %esi
	movq	%rbx, %rdi
	call	_ZN3vuu15CodepointFinderclEc
.LVL315:
	.loc 32 3875 7 is_stmt 1 view .LVU947
.LBB732:
	.loc 33 827 7 view .LVU948
.LBB719:
	.loc 33 829 2 is_stmt 0 view .LVU949
	addq	$1, %rbp
.LVL316:
.L224:
	.loc 33 829 2 view .LVU950
.LBE719:
.LBE732:
	.loc 32 3875 22 is_stmt 1 view .LVU951
.LBB733:
	.loc 33 907 5 view .LVU952
	.loc 33 907 5 is_stmt 0 view .LVU953
.LBE733:
	.loc 32 3876 5 view .LVU954
	movsbl	0(%rbp), %esi
	movq	%rbx, %rdi
	call	_ZN3vuu15CodepointFinderclEc
.LVL317:
	.loc 32 3875 7 is_stmt 1 view .LVU955
.LBB734:
	.loc 33 827 7 view .LVU956
.LBB720:
	.loc 33 829 2 is_stmt 0 view .LVU957
	addq	$1, %rbp
.LVL318:
.L201:
	.loc 33 829 2 view .LVU958
.LBE720:
.LBE734:
	.loc 32 3875 22 is_stmt 1 discriminator 2 view .LVU959
.LBB735:
	.loc 33 907 5 discriminator 2 view .LVU960
	.loc 33 907 5 is_stmt 0 discriminator 2 view .LVU961
.LBE735:
	.loc 32 3875 22 discriminator 2 view .LVU962
	cmpq	%rbp, %r14
	je	.L200
	.loc 32 3876 5 view .LVU963
	movsbl	0(%rbp), %esi
	movq	%rbx, %rdi
	call	_ZN3vuu15CodepointFinderclEc
.LVL319:
	.loc 32 3875 7 is_stmt 1 view .LVU964
.LBB736:
	.loc 33 827 7 view .LVU965
.LBB721:
	.loc 33 829 2 is_stmt 0 view .LVU966
	leaq	1(%rbp), %r15
.LVL320:
	.loc 33 829 2 view .LVU967
.LBE721:
.LBE736:
	.loc 32 3875 22 is_stmt 1 view .LVU968
.LBB737:
	.loc 33 907 5 view .LVU969
	.loc 33 907 5 is_stmt 0 view .LVU970
.LBE737:
	.loc 32 3876 5 view .LVU971
	movsbl	1(%rbp), %esi
	movq	%rbx, %rdi
	call	_ZN3vuu15CodepointFinderclEc
.LVL321:
	.loc 32 3875 7 is_stmt 1 view .LVU972
.LBB738:
	.loc 33 827 7 view .LVU973
	.loc 33 827 7 is_stmt 0 view .LVU974
.LBE738:
	.loc 32 3875 22 is_stmt 1 view .LVU975
.LBB739:
	.loc 33 907 5 view .LVU976
	.loc 33 907 5 is_stmt 0 view .LVU977
.LBE739:
	.loc 32 3876 5 view .LVU978
	movsbl	2(%rbp), %esi
	movq	%rbx, %rdi
	call	_ZN3vuu15CodepointFinderclEc
.LVL322:
	.loc 32 3875 7 is_stmt 1 view .LVU979
.LBB740:
	.loc 33 827 7 view .LVU980
	.loc 33 827 7 is_stmt 0 view .LVU981
.LBE740:
	.loc 32 3875 22 is_stmt 1 view .LVU982
.LBB741:
	.loc 33 907 5 view .LVU983
	.loc 33 907 5 is_stmt 0 view .LVU984
.LBE741:
	.loc 32 3876 5 view .LVU985
	movsbl	3(%rbp), %esi
	movq	%rbx, %rdi
	call	_ZN3vuu15CodepointFinderclEc
.LVL323:
	.loc 32 3875 7 is_stmt 1 view .LVU986
.LBB742:
	.loc 33 827 7 view .LVU987
	.loc 33 827 7 is_stmt 0 view .LVU988
.LBE742:
	.loc 32 3875 22 is_stmt 1 view .LVU989
.LBB743:
	.loc 33 907 5 view .LVU990
	.loc 33 907 5 is_stmt 0 view .LVU991
.LBE743:
	.loc 32 3876 5 view .LVU992
	movsbl	4(%rbp), %esi
	movq	%rbx, %rdi
	call	_ZN3vuu15CodepointFinderclEc
.LVL324:
	.loc 32 3875 7 is_stmt 1 view .LVU993
.LBB744:
	.loc 33 827 7 view .LVU994
	.loc 33 827 7 is_stmt 0 view .LVU995
.LBE744:
	.loc 32 3875 22 is_stmt 1 view .LVU996
.LBB745:
	.loc 33 907 5 view .LVU997
	.loc 33 907 5 is_stmt 0 view .LVU998
.LBE745:
	.loc 32 3876 5 view .LVU999
	movsbl	5(%rbp), %esi
	movq	%rbx, %rdi
	call	_ZN3vuu15CodepointFinderclEc
.LVL325:
	.loc 32 3875 7 is_stmt 1 view .LVU1000
.LBB746:
	.loc 33 827 7 view .LVU1001
	.loc 33 827 7 is_stmt 0 view .LVU1002
.LBE746:
	.loc 32 3875 22 is_stmt 1 view .LVU1003
.LBB747:
	.loc 33 907 5 view .LVU1004
	.loc 33 907 5 is_stmt 0 view .LVU1005
.LBE747:
	.loc 32 3876 5 view .LVU1006
	movsbl	6(%rbp), %esi
	movq	%rbx, %rdi
	call	_ZN3vuu15CodepointFinderclEc
.LVL326:
	.loc 32 3875 7 is_stmt 1 view .LVU1007
.LBB748:
	.loc 33 827 7 view .LVU1008
	.loc 33 827 7 is_stmt 0 view .LVU1009
.LBE748:
	.loc 32 3875 22 is_stmt 1 view .LVU1010
.LBB749:
	.loc 33 907 5 view .LVU1011
	.loc 33 907 5 is_stmt 0 view .LVU1012
.LBE749:
	.loc 32 3876 5 view .LVU1013
	movsbl	7(%rbp), %esi
	movq	%rbx, %rdi
	call	_ZN3vuu15CodepointFinderclEc
.LVL327:
	.loc 32 3875 7 is_stmt 1 view .LVU1014
.LBB750:
	.loc 33 827 7 view .LVU1015
.LBB722:
	.loc 33 829 2 is_stmt 0 view .LVU1016
	leaq	7(%r15), %rbp
.LVL328:
	.loc 33 829 2 view .LVU1017
	jmp	.L201
.LVL329:
.L200:
	.loc 33 829 2 view .LVU1018
.LBE722:
.LBE750:
.LBB751:
.LBI751:
	.file 44 "/home/victor/include/vuu/CodepointFinder.hpp"
	.loc 44 15 8 is_stmt 1 view .LVU1019
.LBB752:
	movl	(%rbx), %eax
	movl	%eax, 0(%r13)
.LVL330:
.LBB753:
.LBI753:
	.file 45 "/usr/include/c++/9/bits/forward_list.h"
	.loc 45 569 7 view .LVU1020
.LBB754:
.LBI754:
	.loc 45 340 7 view .LVU1021
.LBB755:
.LBI755:
	.loc 45 300 2 view .LVU1022
.LBB756:
.LBI756:
	.file 46 "/usr/include/c++/9/bits/allocator.h"
	.loc 46 141 7 view .LVU1023
.LBB757:
.LBI757:
	.file 47 "/usr/include/c++/9/ext/new_allocator.h"
	.loc 47 83 7 view .LVU1024
	.loc 47 83 7 is_stmt 0 view .LVU1025
.LBE757:
.LBE756:
.LBB758:
.LBI758:
	.loc 45 57 5 is_stmt 1 view .LVU1026
.LBB759:
	.loc 45 58 21 is_stmt 0 view .LVU1027
	movq	8(%rbx), %rdx
	.loc 45 58 28 view .LVU1028
	movq	%rdx, 8(%r13)
	.loc 45 59 7 is_stmt 1 view .LVU1029
	.loc 45 59 19 is_stmt 0 view .LVU1030
	movq	$0, 8(%rbx)
.LVL331:
	.loc 45 59 19 view .LVU1031
.LBE759:
.LBE758:
.LBE755:
.LBE754:
.LBE753:
.LBB760:
.LBI760:
	.file 48 "/usr/include/c++/9/bits/unique_ptr.h"
	.loc 48 257 7 is_stmt 1 view .LVU1032
.LBB761:
.LBI761:
	.loc 48 365 7 view .LVU1033
	.loc 48 365 7 is_stmt 0 view .LVU1034
.LBE761:
.LBB762:
.LBI762:
	.loc 10 74 5 is_stmt 1 view .LVU1035
	.loc 10 74 5 is_stmt 0 view .LVU1036
.LBE762:
.LBB763:
.LBI763:
	.loc 48 381 7 is_stmt 1 view .LVU1037
.LBB764:
.LBB765:
.LBI765:
	.loc 48 360 7 view .LVU1038
.LBB766:
.LBI766:
	.loc 48 154 15 view .LVU1039
.LBB767:
	.loc 48 154 55 is_stmt 0 view .LVU1040
	movq	16(%rbx), %rcx
.LVL332:
	.loc 48 154 55 view .LVU1041
.LBE767:
.LBE766:
.LBE765:
	.loc 48 384 2 view .LVU1042
	movq	$0, 16(%rbx)
.LVL333:
	.loc 48 384 2 view .LVU1043
.LBE764:
.LBE763:
.LBB768:
.LBI768:
	.loc 48 150 7 is_stmt 1 view .LVU1044
.LBB769:
.LBI769:
	.loc 10 74 5 view .LVU1045
	.loc 10 74 5 is_stmt 0 view .LVU1046
.LBE769:
.LBB770:
.LBI770:
	.loc 11 968 19 is_stmt 1 view .LVU1047
.LBB771:
.LBI771:
	.loc 10 74 5 view .LVU1048
	.loc 10 74 5 is_stmt 0 view .LVU1049
.LBE771:
.LBB772:
.LBI772:
	.loc 10 74 5 is_stmt 1 view .LVU1050
	.loc 10 74 5 is_stmt 0 view .LVU1051
.LBE772:
.LBB773:
.LBI773:
	.loc 11 216 19 is_stmt 1 view .LVU1052
.LBB774:
.LBI774:
	.loc 10 74 5 view .LVU1053
	.loc 10 74 5 is_stmt 0 view .LVU1054
.LBE774:
.LBB775:
.LBI775:
	.loc 11 348 19 is_stmt 1 view .LVU1055
	.loc 11 348 19 is_stmt 0 view .LVU1056
.LBE775:
.LBB776:
.LBI776:
	.loc 10 74 5 is_stmt 1 view .LVU1057
	.loc 10 74 5 is_stmt 0 view .LVU1058
.LBE776:
.LBB777:
.LBI777:
	.loc 11 132 19 is_stmt 1 view .LVU1059
.LBB778:
.LBB779:
.LBI779:
	.loc 10 74 5 view .LVU1060
	.loc 10 74 5 is_stmt 0 view .LVU1061
.LBE779:
	.loc 11 133 42 view .LVU1062
	movq	%rcx, 16(%r13)
.LVL334:
	.loc 11 133 42 view .LVU1063
.LBE778:
.LBE777:
.LBE773:
.LBE770:
.LBE768:
.LBE760:
.LBE752:
.LBE751:
	.loc 32 3878 5 view .LVU1064
	movq	%r13, %rax
	addq	$8, %rsp
	.cfi_def_cfa_offset 56
	popq	%rbx
	.cfi_def_cfa_offset 48
.LVL335:
	.loc 32 3878 5 view .LVU1065
	popq	%rbp
	.cfi_def_cfa_offset 40
.LVL336:
	.loc 32 3878 5 view .LVU1066
	popq	%r12
	.cfi_def_cfa_offset 32
	popq	%r13
	.cfi_def_cfa_offset 24
.LVL337:
	.loc 32 3878 5 view .LVU1067
	popq	%r14
	.cfi_def_cfa_offset 16
.LVL338:
	.loc 32 3878 5 view .LVU1068
	popq	%r15
	.cfi_def_cfa_offset 8
	ret
	.cfi_endproc
.LFE48:
	.size	_ZSt8for_eachIN9__gnu_cxx17__normal_iteratorIPKcNSt7__cxx1112basic_stringIcSt11char_traitsIcESaIcEEEEEN3vuu15CodepointFinderEET0_T_SE_SD_, .-_ZSt8for_eachIN9__gnu_cxx17__normal_iteratorIPKcNSt7__cxx1112basic_stringIcSt11char_traitsIcESaIcEEEEEN3vuu15CodepointFinderEET0_T_SE_SD_
	.type	_ZN5boost4asio6detail11executor_opINS0_8executor8functionESaIvENS1_19scheduler_operationEE11do_completeEPvPS6_RKNS_6system10error_codeEm, @function
_ZN5boost4asio6detail11executor_opINS0_8executor8functionESaIvENS1_19scheduler_operationEE11do_completeEPvPS6_RKNS_6system10error_codeEm:
.LVL339:
.LFB49:
	.loc 35 45 15 is_stmt 1 view -0
	.cfi_startproc
	.cfi_personality 0x3,__gxx_personality_v0
	.cfi_lsda 0x3,.LLSDA49
	.loc 35 45 15 is_stmt 0 view .LVU1070
	pushq	%rbp
	.cfi_def_cfa_offset 16
	.cfi_offset 6, -16
	pushq	%rbx
	.cfi_def_cfa_offset 24
	.cfi_offset 3, -24
	subq	$56, %rsp
	.cfi_def_cfa_offset 80
	movq	%rdi, %rbx
.LVL340:
	.loc 35 52 9 view .LVU1071
	leaq	47(%rsp), %rax
	movq	%rax, 16(%rsp)
	movq	%rsi, 24(%rsp)
	movq	%rsi, 32(%rsp)
.LVL341:
.LBB859:
.LBI859:
	.loc 1 51 3 is_stmt 1 view .LVU1072
.LBB860:
.LBB861:
	.loc 1 52 19 is_stmt 0 view .LVU1073
	movq	24(%rsi), %rbp
	.loc 1 52 24 view .LVU1074
	movq	%rbp, 8(%rsp)
	.loc 1 54 5 is_stmt 1 view .LVU1075
	.loc 1 54 17 is_stmt 0 view .LVU1076
	movq	$0, 24(%rsi)
.LVL342:
	.loc 1 54 17 view .LVU1077
.LBE861:
.LBE860:
.LBE859:
.LBB862:
.LBI862:
	.loc 35 35 528 is_stmt 1 view .LVU1078
.LBB863:
	.loc 35 35 538 is_stmt 0 view .LVU1079
	testq	%rsi, %rsi
	je	.L232
.LVL343:
.LBB864:
.LBB865:
.LBB866:
	.loc 1 59 9 view .LVU1080
	movl	$0, %edx
	.loc 1 59 5 view .LVU1081
	testq	%rdx, %rdx
	je	.L233
.LVL344:
.LBB867:
.LBB868:
	.loc 36 37 10 view .LVU1082
	movl	$0, %esi
.LVL345:
	.loc 36 37 10 view .LVU1083
	movq	%rdx, %rdi
.LVL346:
	.loc 36 37 10 view .LVU1084
	call	*(%rdx)
.LVL347:
.L233:
	.loc 36 37 10 view .LVU1085
.LBE868:
.LBE867:
.LBE866:
.LBE865:
.LBE864:
	.loc 35 35 566 view .LVU1086
	movq	$0, 32(%rsp)
.L232:
.LBB869:
	.loc 35 35 579 view .LVU1087
	movq	24(%rsp), %rdi
	.loc 35 35 575 view .LVU1088
	testq	%rdi, %rdi
	je	.L234
.LVL348:
.LBB870:
.LBB871:
.LBI871:
	.loc 37 58 8 is_stmt 1 view .LVU1089
.LBB872:
.LBI872:
	.loc 27 106 17 view .LVU1090
.LBB873:
.LBB874:
.LBI874:
	.loc 30 46 3 view .LVU1091
.LBB875:
	.loc 30 48 12 is_stmt 0 view .LVU1092
	movq	%fs:_ZN5boost4asio6detail15keyword_tss_ptrINS1_10call_stackINS1_14thread_contextENS1_16thread_info_baseEE7contextEE6value_E@tpoff, %rcx
.LVL349:
	.loc 30 48 12 view .LVU1093
.LBE875:
.LBE874:
	.loc 27 109 17 view .LVU1094
	testq	%rcx, %rcx
	je	.L235
	movq	8(%rcx), %rcx
.LVL350:
.L235:
	.loc 27 109 17 view .LVU1095
.LBE873:
.LBE872:
.LBB876:
.LBI876:
	.loc 38 98 15 is_stmt 1 view .LVU1096
.LBB877:
.LBB878:
	.loc 38 103 7 is_stmt 0 view .LVU1097
	testq	%rcx, %rcx
	je	.L236
	.loc 38 103 23 view .LVU1098
	cmpq	$0, (%rcx)
	je	.L250
.L236:
	.loc 38 103 23 view .LVU1099
.LBE878:
	.loc 38 112 22 view .LVU1100
	call	_ZdlPv
.LVL351:
.L237:
	.loc 38 112 22 view .LVU1101
.LBE877:
.LBE876:
.LBE871:
	.loc 35 35 1007 view .LVU1102
	movq	$0, 24(%rsp)
.LVL352:
.L234:
	.loc 35 35 1007 view .LVU1103
.LBE870:
.LBE869:
.LBE863:
.LBE862:
.LBB887:
	.loc 35 66 5 view .LVU1104
	testq	%rbx, %rbx
	je	.L238
.LVL353:
.LBB888:
.LBB889:
.LBI889:
	.file 49 "/usr/local/include/boost/asio/detail/std_fenced_block.hpp"
	.loc 49 39 12 is_stmt 1 view .LVU1105
	.loc 49 39 12 is_stmt 0 view .LVU1106
.LBE889:
.LBB890:
.LBI890:
	.loc 12 30 13 is_stmt 1 view .LVU1107
.LBB891:
.LBI891:
	.loc 13 67 13 view .LVU1108
.LBB892:
.LBI892:
	.loc 1 63 8 view .LVU1109
.LBE892:
.LBE891:
.LBE890:
.LBE888:
.LBE887:
	.loc 1 65 5 view .LVU1110
.LBB915:
.LBB910:
.LBB899:
.LBB898:
.LBB897:
.LBB893:
	testq	%rbp, %rbp
	je	.L239
.LBB894:
	.loc 1 67 7 view .LVU1111
.LVL354:
	.loc 1 68 7 view .LVU1112
	.loc 1 68 13 is_stmt 0 view .LVU1113
	movq	$0, 8(%rsp)
	.loc 1 69 7 is_stmt 1 view .LVU1114
.LVL355:
.LBB895:
.LBI895:
	.loc 36 30 8 view .LVU1115
.LBB896:
	.loc 36 32 5 view .LVU1116
	.loc 36 32 10 is_stmt 0 view .LVU1117
	movl	$1, %esi
	movq	%rbp, %rdi
.LEHB4:
	call	*0(%rbp)
.LVL356:
.LEHE4:
	jmp	.L239
.LVL357:
.L250:
	.loc 36 32 10 view .LVU1118
.LBE896:
.LBE895:
.LBE894:
.LBE893:
.LBE897:
.LBE898:
.LBE899:
.LBE910:
.LBE915:
.LBB916:
.LBB886:
.LBB885:
.LBB884:
.LBB883:
.LBB882:
.LBB881:
.LBB880:
.LBB879:
	.loc 38 106 16 view .LVU1119
	movzbl	40(%rdi), %esi
	.loc 38 106 9 view .LVU1120
	movb	%sil, (%rdi)
.LVL358:
	.loc 38 107 9 view .LVU1121
	movq	%rdi, (%rcx)
	jmp	.L237
.LVL359:
.L239:
	.loc 38 107 9 view .LVU1122
.LBE879:
.LBE880:
.LBE881:
.LBE882:
.LBE883:
.LBE884:
.LBE885:
.LBE886:
.LBE916:
.LBB917:
.LBB911:
.LBB900:
.LBI900:
	.loc 49 50 3 is_stmt 1 view .LVU1123
.LBE900:
.LBE911:
.LBE917:
	.loc 49 52 5 view .LVU1124
.LBB918:
.LBB912:
.LBB904:
.LBB901:
.LBI901:
	.file 50 "/usr/include/c++/9/bits/atomic_base.h"
	.loc 50 120 3 view .LVU1125
.LBB902:
	.loc 50 121 5 view .LVU1126
	.loc 50 121 26 is_stmt 0 view .LVU1127
.LVL360:
	.loc 50 121 26 view .LVU1128
.LBE902:
.LBE901:
.LBB903:
.LBI903:
	.file 51 "/usr/local/include/boost/asio/detail/noncopyable.hpp"
	.loc 51 30 3 is_stmt 1 view .LVU1129
.L238:
	.loc 51 30 3 is_stmt 0 view .LVU1130
.LBE903:
.LBE904:
.LBE912:
.LBE918:
.LBB919:
.LBI919:
	.loc 1 57 3 is_stmt 1 view .LVU1131
.LBB920:
	.loc 1 59 5 view .LVU1132
	.loc 1 59 9 is_stmt 0 view .LVU1133
	movq	8(%rsp), %r8
	.loc 1 59 5 view .LVU1134
	testq	%r8, %r8
	je	.L240
	.loc 1 60 7 is_stmt 1 view .LVU1135
.LVL361:
.LBB921:
.LBI921:
	.loc 36 35 8 view .LVU1136
.LBB922:
	.loc 36 37 5 view .LVU1137
	.loc 36 37 10 is_stmt 0 view .LVU1138
	movl	$0, %esi
	movq	%r8, %rdi
	call	*(%r8)
.LVL362:
.L240:
	.loc 36 37 10 view .LVU1139
.LBE922:
.LBE921:
.LBE920:
.LBE919:
.LBB923:
.LBI923:
	.loc 35 35 57 is_stmt 1 view .LVU1140
.LBB924:
.LBI924:
	.loc 35 35 528 view .LVU1141
.LBB925:
	.loc 35 35 542 is_stmt 0 view .LVU1142
	movq	32(%rsp), %rdi
	.loc 35 35 538 view .LVU1143
	testq	%rdi, %rdi
	je	.L241
.LVL363:
.LBB926:
.LBB927:
.LBB928:
	.loc 1 59 9 view .LVU1144
	movq	24(%rdi), %r9
	.loc 1 59 5 view .LVU1145
	testq	%r9, %r9
	je	.L242
.LVL364:
.LBB929:
.LBB930:
	.loc 36 37 10 view .LVU1146
	movl	$0, %esi
	movq	%r9, %rdi
.LVL365:
	.loc 36 37 10 view .LVU1147
	call	*(%r9)
.LVL366:
.L242:
	.loc 36 37 10 view .LVU1148
.LBE930:
.LBE929:
.LBE928:
.LBE927:
.LBE926:
	.loc 35 35 566 view .LVU1149
	movq	$0, 32(%rsp)
.L241:
.LBB931:
	.loc 35 35 579 view .LVU1150
	movq	24(%rsp), %rdi
	.loc 35 35 575 view .LVU1151
	testq	%rdi, %rdi
	je	.L231
.LVL367:
.LBB932:
.LBB933:
.LBI933:
	.loc 37 58 8 is_stmt 1 view .LVU1152
.LBB934:
.LBI934:
	.loc 27 106 17 view .LVU1153
.LBB935:
.LBB936:
.LBI936:
	.loc 30 46 3 view .LVU1154
.LBB937:
	.loc 30 48 12 is_stmt 0 view .LVU1155
	movq	%fs:_ZN5boost4asio6detail15keyword_tss_ptrINS1_10call_stackINS1_14thread_contextENS1_16thread_info_baseEE7contextEE6value_E@tpoff, %r10
.LVL368:
	.loc 30 48 12 view .LVU1156
.LBE937:
.LBE936:
	.loc 27 109 17 view .LVU1157
	testq	%r10, %r10
	je	.L244
	movq	8(%r10), %r10
.LVL369:
.L244:
	.loc 27 109 17 view .LVU1158
.LBE935:
.LBE934:
.LBB938:
.LBI938:
	.loc 38 98 15 is_stmt 1 view .LVU1159
.LBB939:
.LBB940:
	.loc 38 103 7 is_stmt 0 view .LVU1160
	testq	%r10, %r10
	je	.L245
	.loc 38 103 23 view .LVU1161
	cmpq	$0, (%r10)
	je	.L251
.L245:
	.loc 38 103 23 view .LVU1162
.LBE940:
	.loc 38 112 22 view .LVU1163
	call	_ZdlPv
.LVL370:
.L231:
	.loc 38 112 22 view .LVU1164
.LBE939:
.LBE938:
.LBE933:
.LBE932:
.LBE931:
.LBE925:
.LBE924:
.LBE923:
	.loc 35 73 3 view .LVU1165
	addq	$56, %rsp
	.cfi_remember_state
	.cfi_def_cfa_offset 24
	popq	%rbx
	.cfi_def_cfa_offset 16
.LVL371:
	.loc 35 73 3 view .LVU1166
	popq	%rbp
	.cfi_def_cfa_offset 8
	ret
.LVL372:
.L251:
	.cfi_restore_state
.LBB950:
.LBB949:
.LBB948:
.LBB947:
.LBB946:
.LBB945:
.LBB944:
.LBB943:
.LBB942:
.LBB941:
	.loc 38 106 16 view .LVU1167
	movzbl	40(%rdi), %r11d
	.loc 38 106 9 view .LVU1168
	movb	%r11b, (%rdi)
.LVL373:
	.loc 38 107 9 view .LVU1169
	movq	%rdi, (%r10)
	jmp	.L231
.LVL374:
.L248:
	.loc 38 107 9 view .LVU1170
	movq	%rax, %rbx
.LVL375:
	.loc 38 107 9 view .LVU1171
.LBE941:
.LBE942:
.LBE943:
.LBE944:
.LBE945:
.LBE946:
.LBE947:
.LBE948:
.LBE949:
.LBE950:
.LBB951:
.LBB913:
.LBB905:
.LBI905:
	.loc 49 50 3 is_stmt 1 view .LVU1172
.LBE905:
.LBE913:
.LBE951:
	.loc 49 52 5 view .LVU1173
.LBB952:
.LBB914:
.LBB909:
.LBB906:
.LBI906:
	.loc 50 120 3 view .LVU1174
.LBB907:
	.loc 50 121 5 view .LVU1175
	.loc 50 121 26 is_stmt 0 view .LVU1176
.LVL376:
	.loc 50 121 26 view .LVU1177
.LBE907:
.LBE906:
.LBB908:
.LBI908:
	.loc 51 30 3 is_stmt 1 view .LVU1178
	.loc 51 30 3 is_stmt 0 view .LVU1179
.LBE908:
.LBE909:
.LBE914:
.LBE952:
.LBB953:
.LBI953:
	.loc 35 35 57 is_stmt 1 view .LVU1180
.LBB954:
	.loc 35 35 66 is_stmt 0 view .LVU1181
	leaq	16(%rsp), %rdi
.LVL377:
	.loc 35 35 66 view .LVU1182
	call	_ZN5boost4asio6detail11executor_opINS0_8executor8functionESaIvENS1_19scheduler_operationEE3ptr5resetEv
.LVL378:
	.loc 35 35 66 view .LVU1183
	movq	%rbx, %rdi
.LEHB5:
	call	_Unwind_Resume
.LVL379:
.LEHE5:
.LBE954:
.LBE953:
	.cfi_endproc
.LFE49:
	.section	.gcc_except_table
.LLSDA49:
	.byte	0xff
	.byte	0xff
	.byte	0x1
	.uleb128 .LLSDACSE49-.LLSDACSB49
.LLSDACSB49:
	.uleb128 .LEHB4-.LFB49
	.uleb128 .LEHE4-.LEHB4
	.uleb128 .L248-.LFB49
	.uleb128 0
	.uleb128 .LEHB5-.LFB49
	.uleb128 .LEHE5-.LEHB5
	.uleb128 0
	.uleb128 0
.LLSDACSE49:
	.text
	.size	_ZN5boost4asio6detail11executor_opINS0_8executor8functionESaIvENS1_19scheduler_operationEE11do_completeEPvPS6_RKNS_6system10error_codeEm, .-_ZN5boost4asio6detail11executor_opINS0_8executor8functionESaIvENS1_19scheduler_operationEE11do_completeEPvPS6_RKNS_6system10error_codeEm
	.align 2
	.type	_ZN5boost4asio6detail13epoll_reactor8shutdownEv, @function
_ZN5boost4asio6detail13epoll_reactor8shutdownEv:
.LVL380:
.LFB50:
	.file 52 "/usr/local/include/boost/asio/detail/impl/epoll_reactor.ipp"
	.loc 52 74 1 is_stmt 1 view -0
	.cfi_startproc
	.cfi_personality 0x3,__gxx_personality_v0
	.cfi_lsda 0x3,.LLSDA50
	.loc 52 74 1 is_stmt 0 view .LVU1185
	pushq	%rbp
	.cfi_def_cfa_offset 16
	.cfi_offset 6, -16
	pushq	%rbx
	.cfi_def_cfa_offset 24
	.cfi_offset 3, -24
	subq	$88, %rsp
	.cfi_def_cfa_offset 112
	movq	%rdi, %rbx
	.loc 52 75 3 is_stmt 1 view .LVU1186
	.loc 52 75 27 is_stmt 0 view .LVU1187
	leaq	48(%rdi), %rbp
.LVL381:
.LBB1039:
.LBI1039:
	.file 53 "/usr/local/include/boost/asio/detail/conditionally_enabled_mutex.hpp"
	.loc 53 50 14 is_stmt 1 view .LVU1188
.LBB1040:
.LBB1041:
.LBB1042:
.LBI1042:
	.loc 51 29 3 view .LVU1189
	.loc 51 29 3 is_stmt 0 view .LVU1190
.LBE1042:
	.loc 53 53 7 is_stmt 1 view .LVU1191
	cmpb	$0, 96(%rdi)
	jne	.L280
	.loc 53 59 9 view .LVU1192
	.loc 53 59 17 is_stmt 0 view .LVU1193
	movb	$0, 40(%rsp)
.LVL382:
.L254:
	.loc 53 59 17 view .LVU1194
.LBE1041:
.LBE1040:
.LBE1039:
	.loc 52 76 3 is_stmt 1 view .LVU1195
	.loc 52 76 13 is_stmt 0 view .LVU1196
	movb	$1, 128(%rbx)
	.loc 52 77 3 is_stmt 1 view .LVU1197
.LVL383:
.LBB1047:
.LBI1047:
	.loc 53 80 10 view .LVU1198
.LBB1048:
	.loc 53 82 7 view .LVU1199
	cmpb	$0, 40(%rsp)
	je	.L255
	.loc 53 84 9 view .LVU1200
.LVL384:
.LBB1049:
.LBI1049:
	.loc 53 132 8 view .LVU1201
.LBB1050:
	.loc 53 134 5 view .LVU1202
	cmpb	$0, 48(%rbp)
	jne	.L281
.L256:
.LVL385:
	.loc 53 134 5 is_stmt 0 view .LVU1203
.LBE1050:
.LBE1049:
	.loc 53 85 9 is_stmt 1 view .LVU1204
	.loc 53 85 17 is_stmt 0 view .LVU1205
	movb	$0, 40(%rsp)
.L255:
.LVL386:
	.loc 53 85 17 view .LVU1206
.LBE1048:
.LBE1047:
	.loc 52 79 3 is_stmt 1 view .LVU1207
.LBB1056:
.LBI1056:
	.loc 16 69 3 view .LVU1208
.LBB1057:
.LBB1058:
.LBB1059:
.LBI1059:
	.loc 51 29 3 view .LVU1209
	.loc 51 29 3 is_stmt 0 view .LVU1210
.LBE1059:
	.loc 16 71 14 view .LVU1211
	movq	$0, 16(%rsp)
	movq	$0, 24(%rsp)
	jmp	.L266
.LVL387:
.L280:
	.loc 16 71 14 view .LVU1212
.LBE1058:
.LBE1057:
.LBE1056:
.LBB1060:
.LBB1046:
.LBB1045:
	.loc 53 55 9 is_stmt 1 view .LVU1213
.LBB1043:
.LBI1043:
	.file 54 "/usr/local/include/boost/asio/detail/posix_mutex.hpp"
	.loc 54 50 8 view .LVU1214
.LBB1044:
	.loc 54 52 5 view .LVU1215
	.loc 54 52 31 is_stmt 0 view .LVU1216
	leaq	56(%rdi), %rdi
	call	pthread_mutex_lock
.LVL388:
	.loc 54 52 31 view .LVU1217
.LBE1044:
.LBE1043:
	.loc 53 56 9 is_stmt 1 view .LVU1218
	.loc 53 56 17 is_stmt 0 view .LVU1219
	movb	$1, 40(%rsp)
	jmp	.L254
.LVL389:
.L281:
	.loc 53 56 17 view .LVU1220
.LBE1045:
.LBE1046:
.LBE1060:
.LBB1061:
.LBB1055:
.LBB1054:
.LBB1053:
	.loc 53 135 7 is_stmt 1 view .LVU1221
.LBB1051:
.LBI1051:
	.loc 54 56 8 view .LVU1222
.LBB1052:
	.loc 54 58 5 view .LVU1223
	.loc 54 58 33 is_stmt 0 view .LVU1224
	leaq	8(%rbp), %rdi
.LVL390:
	.loc 54 58 33 view .LVU1225
	call	pthread_mutex_unlock
.LVL391:
	.loc 54 58 33 view .LVU1226
	jmp	.L256
.LVL392:
.L260:
	.loc 54 58 33 view .LVU1227
.LBE1052:
.LBE1051:
.LBE1053:
.LBE1054:
.LBE1055:
.LBE1061:
.LBB1062:
.LBB1063:
.LBB1064:
.LBB1065:
	.loc 16 129 9 view .LVU1228
	movq	%rsi, 16(%rsp)
.L261:
	.loc 16 130 7 view .LVU1229
	movq	8(%rax), %r8
	movq	%r8, 24(%rsp)
	.loc 16 131 7 view .LVU1230
	movq	$0, (%rax)
	.loc 16 132 7 view .LVU1231
	movq	$0, 8(%rax)
.L259:
.LVL393:
	.loc 16 132 7 view .LVU1232
.LBE1065:
.LBE1064:
	.loc 52 83 5 is_stmt 1 view .LVU1233
	addl	$1, %edx
.LVL394:
.L262:
	.loc 52 83 23 discriminator 1 view .LVU1234
	cmpl	$2, %edx
	jg	.L258
	.loc 52 84 7 view .LVU1235
	.loc 52 84 34 is_stmt 0 view .LVU1236
	movslq	%edx, %rax
	addq	$7, %rax
	salq	$4, %rax
	addq	%rcx, %rax
.LVL395:
.LBB1069:
.LBI1064:
	.loc 16 122 8 is_stmt 1 view .LVU1237
.LBB1068:
	.loc 16 124 20 is_stmt 0 view .LVU1238
	movq	(%rax), %rsi
.LVL396:
	.loc 16 124 5 view .LVU1239
	testq	%rsi, %rsi
	je	.L259
	.loc 16 126 11 view .LVU1240
	movq	24(%rsp), %rdi
	.loc 16 126 7 view .LVU1241
	testq	%rdi, %rdi
	je	.L260
.LVL397:
.LBB1066:
.LBI1066:
	.loc 16 39 15 is_stmt 1 view .LVU1242
.LBB1067:
	.loc 16 41 5 is_stmt 0 view .LVU1243
	movq	%rsi, (%rdi)
	jmp	.L261
.LVL398:
.L258:
	.loc 16 41 5 view .LVU1244
.LBE1067:
.LBE1066:
.LBE1068:
.LBE1069:
.LBE1063:
	.loc 52 85 5 is_stmt 1 view .LVU1245
	.loc 52 85 22 is_stmt 0 view .LVU1246
	movb	$1, 163(%rcx)
	.loc 52 86 5 is_stmt 1 view .LVU1247
.LVL399:
.LBB1070:
.LBI1070:
	.file 55 "/usr/local/include/boost/asio/detail/object_pool.hpp"
	.loc 55 126 8 view .LVU1248
.LBB1071:
	.loc 55 128 5 is_stmt 0 view .LVU1249
	cmpq	192(%rbx), %rcx
	je	.L282
.L263:
	.loc 55 131 5 view .LVU1250
	movq	32(%rcx), %r10
	testq	%r10, %r10
	je	.L264
	.loc 55 133 7 view .LVU1251
	movq	24(%rcx), %r11
	movq	%r11, 24(%r10)
.L264:
	.loc 55 137 5 view .LVU1252
	movq	24(%rcx), %rax
	testq	%rax, %rax
	je	.L265
	.loc 55 139 7 view .LVU1253
	movq	32(%rcx), %rdx
.LVL400:
	.loc 55 139 7 view .LVU1254
	movq	%rdx, 32(%rax)
.L265:
	.loc 55 143 35 view .LVU1255
	movq	200(%rbx), %rsi
	.loc 55 143 5 view .LVU1256
	movq	%rsi, 24(%rcx)
	.loc 55 144 5 view .LVU1257
	movq	$0, 32(%rcx)
	.loc 55 145 5 view .LVU1258
	movq	%rcx, 200(%rbx)
.LVL401:
.L266:
	.loc 55 145 5 view .LVU1259
.LBE1071:
.LBE1070:
.LBE1062:
	.loc 52 81 3 is_stmt 1 view .LVU1260
.LBB1076:
.LBB1073:
.LBI1073:
	.loc 55 83 11 view .LVU1261
.LBB1074:
	.loc 55 85 12 is_stmt 0 view .LVU1262
	movq	192(%rbx), %rcx
.LVL402:
	.loc 55 85 12 view .LVU1263
.LBE1074:
.LBE1073:
	.loc 52 81 66 view .LVU1264
	testq	%rcx, %rcx
	je	.L257
.LBE1076:
	.loc 52 83 14 view .LVU1265
	movl	$0, %edx
	jmp	.L262
.LVL403:
.L282:
.LBB1077:
.LBB1075:
.LBB1072:
	.loc 55 129 7 view .LVU1266
	movq	24(%rcx), %r9
	movq	%r9, 192(%rbx)
	jmp	.L263
.LVL404:
.L257:
	.loc 55 129 7 view .LVU1267
.LBE1072:
.LBE1075:
.LBE1077:
	.loc 52 89 3 is_stmt 1 view .LVU1268
.LBB1078:
.LBI1078:
	.file 56 "/usr/local/include/boost/asio/detail/impl/timer_queue_set.ipp"
	.loc 56 91 6 view .LVU1269
.LBE1078:
	.loc 56 93 3 view .LVU1270
.LBB1080:
.LBB1079:
	.loc 56 93 26 is_stmt 0 view .LVU1271
	movq	120(%rbx), %rbx
.LVL405:
	.loc 56 93 26 view .LVU1272
	jmp	.L268
.LVL406:
.L283:
	.loc 56 93 3 is_stmt 1 view .LVU1273
	.loc 56 93 43 is_stmt 0 view .LVU1274
	movq	8(%rbx), %rbx
.LVL407:
.L268:
	.loc 56 93 38 is_stmt 1 view .LVU1275
	testq	%rbx, %rbx
	je	.L267
	.loc 56 94 5 view .LVU1276
	.loc 56 94 26 is_stmt 0 view .LVU1277
	movq	(%rbx), %rcx
	.loc 56 94 22 view .LVU1278
	leaq	16(%rsp), %rsi
.LVL408:
	.loc 56 94 22 view .LVU1279
	movq	%rbx, %rdi
.LEHB6:
	call	*48(%rcx)
.LVL409:
.LEHE6:
	.loc 56 94 22 view .LVU1280
	jmp	.L283
.L267:
.LVL410:
	.loc 56 94 22 view .LVU1281
.LBE1079:
.LBE1080:
	.loc 52 91 3 is_stmt 1 view .LVU1282
.LBB1081:
.LBI1081:
	.file 57 "/usr/local/include/boost/asio/detail/impl/scheduler.ipp"
	.loc 57 396 6 view .LVU1283
.LBB1082:
	.loc 57 399 3 view .LVU1284
.LBB1083:
.LBI1083:
	.loc 16 69 3 view .LVU1285
.LBB1084:
.LBB1085:
.LBB1086:
.LBI1086:
	.loc 51 29 3 view .LVU1286
	.loc 51 29 3 is_stmt 0 view .LVU1287
.LBE1086:
	.loc 16 71 14 view .LVU1288
	movq	$0, (%rsp)
.LVL411:
	.loc 16 71 14 view .LVU1289
.LBE1085:
.LBE1084:
.LBE1083:
	.loc 57 400 3 is_stmt 1 view .LVU1290
.LBB1087:
.LBI1087:
	.loc 16 122 8 view .LVU1291
.LBB1088:
	.loc 16 124 20 is_stmt 0 view .LVU1292
	movq	16(%rsp), %rdi
.LVL412:
	.loc 16 124 5 view .LVU1293
	testq	%rdi, %rdi
	je	.L271
	.loc 16 129 9 view .LVU1294
	movq	%rdi, (%rsp)
	.loc 16 131 7 view .LVU1295
	movq	$0, 16(%rsp)
	.loc 16 132 7 view .LVU1296
	movq	$0, 24(%rsp)
.LVL413:
	.loc 16 132 7 view .LVU1297
.LBE1088:
.LBE1087:
.LBB1089:
.LBI1089:
	.loc 16 76 3 is_stmt 1 view .LVU1298
.L271:
.LBB1090:
.LBB1091:
	.loc 16 78 23 is_stmt 0 view .LVU1299
	movq	(%rsp), %rsi
.LVL414:
	.loc 16 78 5 view .LVU1300
	testq	%rsi, %rsi
	je	.L274
.LVL415:
.LBB1092:
.LBB1093:
.LBB1094:
.LBB1095:
	.loc 16 35 44 view .LVU1301
	movq	(%rsi), %r8
.LVL416:
	.loc 16 35 44 view .LVU1302
.LBE1095:
.LBE1094:
	.loc 16 97 7 view .LVU1303
	movq	%r8, (%rsp)
.LVL417:
.LBB1096:
.LBB1097:
	.loc 16 41 5 view .LVU1304
	movq	$0, (%rsi)
.LVL418:
	.loc 16 41 5 view .LVU1305
.LBE1097:
.LBE1096:
.LBE1093:
.LBE1092:
.LBB1098:
.LBB1099:
.LBB1100:
	.loc 17 45 5 view .LVU1306
	movq	8(%rsi), %r9
.LVL419:
.LBB1101:
.LBB1102:
.LBB1103:
	.loc 18 584 63 view .LVU1307
	movl	$0, 64(%rsp)
	movb	$0, 68(%rsp)
	movq	$_ZN5boost6system6detail10cat_holderIvE24system_category_instanceE, 72(%rsp)
.LVL420:
	.loc 18 584 63 view .LVU1308
.LBE1103:
.LBE1102:
.LBE1101:
	.loc 17 45 10 view .LVU1309
	movl	$0, %ecx
	leaq	64(%rsp), %rdx
	movl	$0, %edi
	call	*%r9
.LVL421:
	.loc 17 45 10 view .LVU1310
	jmp	.L271
.LVL422:
.L284:
	.loc 17 45 10 view .LVU1311
.LBE1100:
.LBE1099:
.LBE1098:
.LBE1091:
.LBE1090:
.LBE1089:
.LBE1082:
.LBE1081:
.LBB1104:
.LBB1105:
.LBB1106:
.LBB1107:
.LBB1108:
	.loc 16 99 9 view .LVU1312
	movq	$0, 24(%rsp)
.L273:
.LVL423:
.LBB1109:
.LBB1110:
	.loc 16 41 5 view .LVU1313
	movq	$0, (%rsi)
.LVL424:
	.loc 16 41 5 view .LVU1314
.LBE1110:
.LBE1109:
.LBE1108:
.LBE1107:
.LBB1114:
.LBB1115:
.LBB1116:
	.loc 17 45 5 view .LVU1315
	movq	8(%rsi), %r11
.LVL425:
.LBB1117:
.LBB1118:
.LBB1119:
	.loc 18 584 63 view .LVU1316
	movl	$0, 48(%rsp)
	movb	$0, 52(%rsp)
	movq	$_ZN5boost6system6detail10cat_holderIvE24system_category_instanceE, 56(%rsp)
.LVL426:
	.loc 18 584 63 view .LVU1317
.LBE1119:
.LBE1118:
.LBE1117:
	.loc 17 45 10 view .LVU1318
	movl	$0, %ecx
	leaq	48(%rsp), %rdx
	movl	$0, %edi
	call	*%r11
.LVL427:
.L274:
	.loc 17 45 10 view .LVU1319
.LBE1116:
.LBE1115:
.LBE1114:
	.loc 16 78 23 view .LVU1320
	movq	16(%rsp), %rsi
.LVL428:
	.loc 16 78 5 view .LVU1321
	testq	%rsi, %rsi
	je	.L272
.LVL429:
.LBB1120:
.LBB1113:
.LBB1111:
.LBB1112:
	.loc 16 35 44 view .LVU1322
	movq	(%rsi), %r10
.LVL430:
	.loc 16 35 44 view .LVU1323
.LBE1112:
.LBE1111:
	.loc 16 97 7 view .LVU1324
	movq	%r10, 16(%rsp)
	.loc 16 98 7 view .LVU1325
	testq	%r10, %r10
	jne	.L273
	jmp	.L284
.LVL431:
.L272:
	.loc 16 98 7 view .LVU1326
.LBE1113:
.LBE1120:
.LBE1106:
.LBE1105:
.LBE1104:
.LBB1121:
.LBI1121:
	.loc 53 63 5 is_stmt 1 view .LVU1327
.LBB1122:
	.loc 53 65 7 view .LVU1328
	cmpb	$0, 40(%rsp)
	jne	.L285
.LVL432:
.L252:
	.loc 53 65 7 is_stmt 0 view .LVU1329
.LBE1122:
.LBE1121:
	.loc 52 92 1 view .LVU1330
	addq	$88, %rsp
	.cfi_remember_state
	.cfi_def_cfa_offset 24
.LVL433:
	.loc 52 92 1 view .LVU1331
	popq	%rbx
	.cfi_def_cfa_offset 16
	popq	%rbp
	.cfi_def_cfa_offset 8
.LVL434:
	.loc 52 92 1 view .LVU1332
	ret
.LVL435:
.L285:
	.cfi_restore_state
.LBB1127:
.LBB1126:
	.loc 53 66 9 is_stmt 1 view .LVU1333
.LBB1123:
.LBI1123:
	.loc 54 56 8 view .LVU1334
.LBB1124:
	.loc 54 58 5 view .LVU1335
	.loc 54 58 33 is_stmt 0 view .LVU1336
	leaq	8(%rbp), %rdi
.LVL436:
	.loc 54 58 33 view .LVU1337
	call	pthread_mutex_unlock
.LVL437:
	.loc 54 58 33 view .LVU1338
.LBE1124:
.LBE1123:
.LBB1125:
.LBI1125:
	.loc 51 30 3 is_stmt 1 view .LVU1339
	.loc 51 30 3 is_stmt 0 view .LVU1340
	jmp	.L252
.LVL438:
.L278:
	.loc 51 30 3 view .LVU1341
	movq	%rax, %rbx
.LVL439:
	.loc 51 30 3 view .LVU1342
.LBE1125:
.LBE1126:
.LBE1127:
	.loc 52 79 23 view .LVU1343
	leaq	16(%rsp), %rdi
.LVL440:
	.loc 52 79 23 view .LVU1344
	call	_ZN5boost4asio6detail8op_queueINS1_19scheduler_operationEED1Ev
.LVL441:
.LBB1128:
.LBI1128:
	.loc 53 63 5 is_stmt 1 view .LVU1345
.LBB1129:
	.loc 53 65 7 view .LVU1346
	cmpb	$0, 40(%rsp)
	je	.L277
	.loc 53 66 9 view .LVU1347
.LVL442:
.LBB1130:
.LBI1130:
	.loc 54 56 8 view .LVU1348
.LBB1131:
	.loc 54 58 5 view .LVU1349
	.loc 54 58 33 is_stmt 0 view .LVU1350
	leaq	8(%rbp), %rdi
.LVL443:
	.loc 54 58 33 view .LVU1351
	call	pthread_mutex_unlock
.LVL444:
.L277:
	.loc 54 58 33 view .LVU1352
.LBE1131:
.LBE1130:
.LBB1132:
.LBI1132:
	.loc 51 30 3 is_stmt 1 view .LVU1353
	.loc 51 30 3 is_stmt 0 view .LVU1354
	movq	%rbx, %rdi
.LEHB7:
	call	_Unwind_Resume
.LVL445:
.LEHE7:
.LBE1132:
.LBE1129:
.LBE1128:
	.cfi_endproc
.LFE50:
	.section	.gcc_except_table
.LLSDA50:
	.byte	0xff
	.byte	0xff
	.byte	0x1
	.uleb128 .LLSDACSE50-.LLSDACSB50
.LLSDACSB50:
	.uleb128 .LEHB6-.LFB50
	.uleb128 .LEHE6-.LEHB6
	.uleb128 .L278-.LFB50
	.uleb128 0
	.uleb128 .LEHB7-.LFB50
	.uleb128 .LEHE7-.LEHB7
	.uleb128 0
	.uleb128 0
.LLSDACSE50:
	.text
	.size	_ZN5boost4asio6detail13epoll_reactor8shutdownEv, .-_ZN5boost4asio6detail13epoll_reactor8shutdownEv
	.align 2
	.type	_ZN5boost4asio8executor4implINS0_10io_context13executor_typeESaIvEE15on_work_startedEv, @function
_ZN5boost4asio8executor4implINS0_10io_context13executor_typeESaIvEE15on_work_startedEv:
.LVL446:
.LFB51:
	.loc 1 167 8 is_stmt 1 view -0
	.cfi_startproc
.LBB1133:
.LBI1133:
	.loc 3 241 1 view .LVU1356
.LBB1134:
	.loc 3 243 3 view .LVU1357
	movq	24(%rdi), %rax
	.loc 3 243 15 is_stmt 0 view .LVU1358
	movq	8(%rax), %rdx
.LVL447:
.LBB1135:
.LBI1135:
	.file 58 "/usr/local/include/boost/asio/detail/scheduler.hpp"
	.loc 58 86 8 is_stmt 1 view .LVU1359
.LBE1135:
.LBE1134:
.LBE1133:
	.loc 58 88 5 view .LVU1360
.LBB1140:
.LBB1139:
.LBB1138:
.LBB1136:
.LBI1136:
	.loc 50 318 7 view .LVU1361
.LBB1137:
	.loc 50 319 36 is_stmt 0 view .LVU1362
	addq	$208, %rdx
.LVL448:
	.loc 50 319 34 view .LVU1363
	lock addq	$1, (%rdx)
.LVL449:
	.loc 50 319 34 view .LVU1364
.LBE1137:
.LBE1136:
.LBE1138:
.LBE1139:
.LBE1140:
	.loc 1 170 3 view .LVU1365
	ret
	.cfi_endproc
.LFE51:
	.size	_ZN5boost4asio8executor4implINS0_10io_context13executor_typeESaIvEE15on_work_startedEv, .-_ZN5boost4asio8executor4implINS0_10io_context13executor_typeESaIvEE15on_work_startedEv
	.align 2
	.type	_ZNK5boost4asio8executor4implINS0_10io_context13executor_typeESaIvEE5cloneEv, @function
_ZNK5boost4asio8executor4implINS0_10io_context13executor_typeESaIvEE5cloneEv:
.LVL450:
.LFB52:
	.loc 1 150 14 is_stmt 1 view -0
	.cfi_startproc
	.loc 1 150 14 is_stmt 0 view .LVU1367
	movq	%rdi, %rax
.LVL451:
.LBB1141:
.LBI1141:
	.loc 50 318 7 is_stmt 1 view .LVU1368
.LBB1142:
	.loc 50 319 36 is_stmt 0 view .LVU1369
	leaq	16(%rdi), %rdx
.LVL452:
	.loc 50 319 34 view .LVU1370
	lock addq	$1, (%rdx)
.LVL453:
	.loc 50 319 34 view .LVU1371
.LBE1142:
.LBE1141:
	.loc 1 154 3 view .LVU1372
	ret
	.cfi_endproc
.LFE52:
	.size	_ZNK5boost4asio8executor4implINS0_10io_context13executor_typeESaIvEE5cloneEv, .-_ZNK5boost4asio8executor4implINS0_10io_context13executor_typeESaIvEE5cloneEv
	.section	.rodata.str1.8,"aMS",@progbits,1
	.align 8
.LC6:
	.string	"bool boost::asio::detail::posix_event::maybe_unlock_and_signal_one(Lock&) [with Lock = boost::asio::detail::conditionally_enabled_mutex::scoped_lock]"
	.align 8
.LC7:
	.string	"/usr/local/include/boost/asio/detail/posix_event.hpp"
	.section	.rodata.str1.1
.LC8:
	.string	"lock.locked()"
	.text
	.align 2
	.type	_ZN5boost4asio6detail9scheduler26wake_one_thread_and_unlockERNS1_27conditionally_enabled_mutex11scoped_lockE, @function
_ZN5boost4asio6detail9scheduler26wake_one_thread_and_unlockERNS1_27conditionally_enabled_mutex11scoped_lockE:
.LVL454:
.LFB53:
	.loc 57 601 1 is_stmt 1 view -0
	.cfi_startproc
	.loc 57 601 1 is_stmt 0 view .LVU1374
	pushq	%r13
	.cfi_def_cfa_offset 16
	.cfi_offset 13, -16
	pushq	%r12
	.cfi_def_cfa_offset 24
	.cfi_offset 12, -24
	pushq	%rbp
	.cfi_def_cfa_offset 32
	.cfi_offset 6, -32
	pushq	%rbx
	.cfi_def_cfa_offset 40
	.cfi_offset 3, -40
	subq	$24, %rsp
	.cfi_def_cfa_offset 64
	movq	%rdi, %rbp
	movq	%rsi, %rbx
	.loc 57 602 3 is_stmt 1 view .LVU1375
.LVL455:
.LBB1177:
.LBI1177:
	.file 59 "/usr/local/include/boost/asio/detail/conditionally_enabled_event.hpp"
	.loc 59 69 8 view .LVU1376
.LBB1178:
	.loc 59 72 5 view .LVU1377
	.loc 59 72 14 is_stmt 0 view .LVU1378
	movq	(%rsi), %rax
	.loc 59 72 5 view .LVU1379
	cmpb	$0, 48(%rax)
	jne	.L299
.LVL456:
.L289:
	.loc 59 72 5 view .LVU1380
.LBE1178:
.LBE1177:
	.loc 57 604 5 is_stmt 1 view .LVU1381
	cmpb	$0, 200(%rbp)
	jne	.L295
	.loc 57 604 31 is_stmt 0 discriminator 1 view .LVU1382
	movq	168(%rbp), %rcx
	.loc 57 604 28 discriminator 1 view .LVU1383
	testq	%rcx, %rcx
	je	.L295
	.loc 57 606 7 is_stmt 1 view .LVU1384
	.loc 57 606 25 is_stmt 0 view .LVU1385
	movb	$1, 200(%rbp)
	.loc 57 607 7 is_stmt 1 view .LVU1386
.LVL457:
.LBB1197:
.LBI1197:
	.loc 52 568 6 view .LVU1387
.LBB1198:
	.loc 52 570 3 view .LVU1388
	.loc 52 571 3 view .LVU1389
	.loc 52 571 13 is_stmt 0 view .LVU1390
	movl	$-2147483639, 4(%rsp)
	.loc 52 572 3 is_stmt 1 view .LVU1391
	.loc 52 572 17 is_stmt 0 view .LVU1392
	leaq	104(%rcx), %rsi
	.loc 52 572 15 view .LVU1393
	movq	%rsi, 8(%rsp)
	.loc 52 573 3 is_stmt 1 view .LVU1394
.LVL458:
.LBB1199:
.LBI1199:
	.file 60 "/usr/local/include/boost/asio/detail/eventfd_select_interrupter.hpp"
	.loc 60 48 7 view .LVU1395
.LBB1200:
	.loc 60 50 5 view .LVU1396
	.loc 60 50 12 is_stmt 0 view .LVU1397
	movl	104(%rcx), %edx
.LVL459:
	.loc 60 50 12 view .LVU1398
.LBE1200:
.LBE1199:
	.loc 52 573 12 view .LVU1399
	movl	112(%rcx), %edi
	leaq	4(%rsp), %rcx
.LVL460:
	.loc 52 573 12 view .LVU1400
	movl	$3, %esi
	call	epoll_ctl
.LVL461:
.L295:
	.loc 52 573 12 view .LVU1401
.LBE1198:
.LBE1197:
	.loc 57 609 5 is_stmt 1 view .LVU1402
.LBB1201:
.LBI1201:
	.loc 53 80 10 view .LVU1403
.LBB1202:
	.loc 53 82 7 view .LVU1404
	cmpb	$0, 8(%rbx)
	je	.L288
	.loc 53 84 9 view .LVU1405
	movq	(%rbx), %rdi
.LVL462:
.LBB1203:
.LBI1203:
	.loc 53 132 8 view .LVU1406
.LBB1204:
	.loc 53 134 5 view .LVU1407
	cmpb	$0, 48(%rdi)
	jne	.L300
.LVL463:
.L296:
	.loc 53 134 5 is_stmt 0 view .LVU1408
.LBE1204:
.LBE1203:
	.loc 53 85 9 is_stmt 1 view .LVU1409
	.loc 53 85 17 is_stmt 0 view .LVU1410
	movb	$0, 8(%rbx)
.LVL464:
.L288:
	.loc 53 85 17 view .LVU1411
.LBE1202:
.LBE1201:
	.loc 57 611 1 view .LVU1412
	addq	$24, %rsp
	.cfi_remember_state
	.cfi_def_cfa_offset 40
	popq	%rbx
	.cfi_def_cfa_offset 32
.LVL465:
	.loc 57 611 1 view .LVU1413
	popq	%rbp
	.cfi_def_cfa_offset 24
.LVL466:
	.loc 57 611 1 view .LVU1414
	popq	%r12
	.cfi_def_cfa_offset 16
	popq	%r13
	.cfi_def_cfa_offset 8
	ret
.LVL467:
.L299:
	.cfi_restore_state
.LBB1210:
.LBB1195:
	.loc 59 73 7 is_stmt 1 view .LVU1415
	.loc 59 73 48 is_stmt 0 view .LVU1416
	leaq	112(%rdi), %r13
.LVL468:
.LBB1179:
.LBI1179:
	.file 61 "/usr/local/include/boost/asio/detail/posix_event.hpp"
	.loc 61 76 8 is_stmt 1 view .LVU1417
.LBB1180:
.LBB1181:
.LBI1181:
	.loc 53 90 10 view .LVU1418
.LBB1182:
	.loc 53 92 7 view .LVU1419
	.loc 53 92 14 is_stmt 0 view .LVU1420
	movzbl	8(%rsi), %r12d
.LVL469:
	.loc 53 92 14 view .LVU1421
.LBE1182:
.LBE1181:
	.loc 61 78 41 view .LVU1422
	testb	%r12b, %r12b
	je	.L301
	.loc 61 79 12 view .LVU1423
	movq	48(%r13), %rdx
	orq	$1, %rdx
	.loc 61 79 5 view .LVU1424
	movq	%rdx, 48(%r13)
	.loc 61 80 5 view .LVU1425
	cmpq	$1, %rdx
	ja	.L302
.LBE1180:
	.loc 61 86 12 view .LVU1426
	movl	$0, %r12d
.LVL470:
.L291:
	.loc 61 86 12 view .LVU1427
.LBE1179:
.LBE1195:
.LBE1210:
	.loc 57 602 3 view .LVU1428
	testb	%r12b, %r12b
	jne	.L288
	jmp	.L289
.LVL471:
.L301:
.LBB1211:
.LBB1196:
.LBB1194:
.LBB1193:
	.loc 61 78 68 view .LVU1429
	movl	$.LC6, %ecx
	movl	$78, %edx
	movl	$.LC7, %esi
	movl	$.LC8, %edi
.LVL472:
	.loc 61 78 68 view .LVU1430
	call	__assert_fail
.LVL473:
.L302:
.LBB1183:
.LBI1183:
	.loc 53 80 10 is_stmt 1 view .LVU1431
.LBB1184:
	.loc 53 82 7 view .LVU1432
	cmpb	$0, 8(%rsi)
	je	.L292
	.loc 53 84 9 view .LVU1433
	movq	(%rsi), %rdi
.LVL474:
.LBB1185:
.LBI1185:
	.loc 53 132 8 view .LVU1434
.LBB1186:
	.loc 53 134 5 view .LVU1435
	cmpb	$0, 48(%rdi)
	jne	.L303
.LVL475:
.L293:
	.loc 53 134 5 is_stmt 0 view .LVU1436
.LBE1186:
.LBE1185:
	.loc 53 85 9 is_stmt 1 view .LVU1437
	.loc 53 85 17 is_stmt 0 view .LVU1438
	movb	$0, 8(%rbx)
.L292:
.LVL476:
	.loc 53 85 17 view .LVU1439
.LBE1184:
.LBE1183:
	.loc 61 83 28 view .LVU1440
	movq	%r13, %rdi
	call	pthread_cond_signal
.LVL477:
	jmp	.L291
.LVL478:
.L303:
.LBB1192:
.LBB1191:
.LBB1190:
.LBB1189:
	.loc 53 135 7 is_stmt 1 view .LVU1441
.LBB1187:
.LBI1187:
	.loc 54 56 8 view .LVU1442
.LBB1188:
	.loc 54 58 5 view .LVU1443
	.loc 54 58 33 is_stmt 0 view .LVU1444
	addq	$8, %rdi
.LVL479:
	.loc 54 58 33 view .LVU1445
	call	pthread_mutex_unlock
.LVL480:
	.loc 54 58 33 view .LVU1446
	jmp	.L293
.LVL481:
.L300:
	.loc 54 58 33 view .LVU1447
.LBE1188:
.LBE1187:
.LBE1189:
.LBE1190:
.LBE1191:
.LBE1192:
.LBE1193:
.LBE1194:
.LBE1196:
.LBE1211:
.LBB1212:
.LBB1209:
.LBB1208:
.LBB1207:
	.loc 53 135 7 is_stmt 1 view .LVU1448
.LBB1205:
.LBI1205:
	.loc 54 56 8 view .LVU1449
.LBB1206:
	.loc 54 58 5 view .LVU1450
	.loc 54 58 33 is_stmt 0 view .LVU1451
	addq	$8, %rdi
.LVL482:
	.loc 54 58 33 view .LVU1452
	call	pthread_mutex_unlock
.LVL483:
	.loc 54 58 33 view .LVU1453
	jmp	.L296
.LBE1206:
.LBE1205:
.LBE1207:
.LBE1208:
.LBE1209:
.LBE1212:
	.cfi_endproc
.LFE53:
	.size	_ZN5boost4asio6detail9scheduler26wake_one_thread_and_unlockERNS1_27conditionally_enabled_mutex11scoped_lockE, .-_ZN5boost4asio6detail9scheduler26wake_one_thread_and_unlockERNS1_27conditionally_enabled_mutex11scoped_lockE
	.align 2
	.type	_ZN5boost4asio6detail13epoll_reactor16descriptor_state11do_completeEPvPNS1_19scheduler_operationERKNS_6system10error_codeEm, @function
_ZN5boost4asio6detail13epoll_reactor16descriptor_state11do_completeEPvPNS1_19scheduler_operationERKNS_6system10error_codeEm:
.LVL484:
.LFB56:
	.loc 52 769 1 is_stmt 1 view -0
	.cfi_startproc
	.cfi_personality 0x3,__gxx_personality_v0
	.cfi_lsda 0x3,.LLSDA56
	.loc 52 769 1 is_stmt 0 view .LVU1455
	pushq	%r15
	.cfi_def_cfa_offset 16
	.cfi_offset 15, -16
	pushq	%r14
	.cfi_def_cfa_offset 24
	.cfi_offset 14, -24
	pushq	%r13
	.cfi_def_cfa_offset 32
	.cfi_offset 13, -32
	pushq	%r12
	.cfi_def_cfa_offset 40
	.cfi_offset 12, -40
	pushq	%rbp
	.cfi_def_cfa_offset 48
	.cfi_offset 6, -48
	pushq	%rbx
	.cfi_def_cfa_offset 56
	.cfi_offset 3, -56
	subq	$136, %rsp
	.cfi_def_cfa_offset 192
	movq	%rdx, 16(%rsp)
	.loc 52 770 3 is_stmt 1 view .LVU1456
.LBB1445:
	testq	%rdi, %rdi
	je	.L304
	movq	%rdi, %r14
	movq	%rsi, %r12
.LBB1446:
	.loc 52 772 5 view .LVU1457
.LVL485:
	.loc 52 773 5 view .LVU1458
	.loc 52 773 14 is_stmt 0 view .LVU1459
	movl	%ecx, 12(%rsp)
.LVL486:
	.loc 52 774 5 is_stmt 1 view .LVU1460
.LBB1447:
.LBB1448:
.LBI1448:
	.loc 52 727 12 view .LVU1461
.LBB1449:
	.loc 52 729 3 view .LVU1462
.LBB1450:
.LBI1450:
	.loc 53 125 8 view .LVU1463
.LBB1451:
	.loc 53 127 5 view .LVU1464
	cmpb	$0, 88(%rsi)
	jne	.L382
.LVL487:
.L306:
	.loc 53 127 5 is_stmt 0 view .LVU1465
.LBE1451:
.LBE1450:
	.loc 52 730 3 is_stmt 1 view .LVU1466
	.loc 52 730 55 is_stmt 0 view .LVU1467
	movq	96(%r12), %rax
.LVL488:
.LBB1455:
.LBI1455:
	.loc 52 690 12 is_stmt 1 view .LVU1468
.LBB1456:
.LBB1457:
	.loc 52 691 31 is_stmt 0 view .LVU1469
	movq	%rax, 64(%rsp)
.LVL489:
.LBB1458:
.LBI1458:
	.loc 16 69 3 is_stmt 1 view .LVU1470
.LBB1459:
.LBB1460:
.LBB1461:
.LBI1461:
	.loc 51 29 3 view .LVU1471
	.loc 51 29 3 is_stmt 0 view .LVU1472
.LBE1461:
	.loc 16 71 14 view .LVU1473
	movq	$0, 72(%rsp)
	movq	$0, 80(%rsp)
.LVL490:
	.loc 16 71 14 view .LVU1474
.LBE1460:
.LBE1459:
.LBE1458:
	.loc 52 691 31 view .LVU1475
	movq	$0, 88(%rsp)
.LVL491:
	.loc 52 691 31 view .LVU1476
.LBE1457:
.LBE1456:
.LBE1455:
	.loc 52 731 3 is_stmt 1 view .LVU1477
	.loc 52 731 38 is_stmt 0 view .LVU1478
	leaq	40(%r12), %rdx
	movq	%rdx, 24(%rsp)
.LVL492:
.LBB1462:
.LBI1462:
	.loc 53 43 5 is_stmt 1 view .LVU1479
.LBB1463:
.LBB1464:
.LBI1464:
	.loc 51 29 3 view .LVU1480
	.loc 51 29 3 is_stmt 0 view .LVU1481
.LBE1464:
	.loc 53 45 19 view .LVU1482
	movzbl	88(%r12), %r15d
.LVL493:
	.loc 53 45 19 view .LVU1483
.LBE1463:
.LBE1462:
	.loc 52 735 3 is_stmt 1 view .LVU1484
	.loc 52 736 3 view .LVU1485
	.loc 52 736 3 is_stmt 0 view .LVU1486
.LBE1449:
	.loc 52 736 12 view .LVU1487
	movl	$2, %r13d
	jmp	.L314
.LVL494:
.L382:
.LBB1761:
.LBB1465:
.LBB1454:
	.loc 53 128 7 is_stmt 1 view .LVU1488
.LBB1452:
.LBI1452:
	.loc 54 50 8 view .LVU1489
.LBB1453:
	.loc 54 52 5 view .LVU1490
	.loc 54 52 31 is_stmt 0 view .LVU1491
	leaq	48(%rsi), %rdi
.LVL495:
	.loc 54 52 31 view .LVU1492
	call	pthread_mutex_lock
.LVL496:
	.loc 54 52 31 view .LVU1493
	jmp	.L306
.LVL497:
.L385:
	.loc 54 52 31 view .LVU1494
.LBE1453:
.LBE1452:
.LBE1454:
.LBE1465:
.LBB1466:
.LBB1467:
.LBB1468:
.LBB1469:
.LBB1470:
	.loc 52 743 9 view .LVU1495
	testl	%eax, %eax
	je	.L308
	.loc 52 745 11 is_stmt 1 view .LVU1496
.LVL498:
.LBB1471:
.LBI1471:
	.loc 16 92 8 view .LVU1497
.LBB1472:
	.loc 16 94 9 is_stmt 0 view .LVU1498
	movq	0(%rbp), %rsi
	.loc 16 94 5 view .LVU1499
	testq	%rsi, %rsi
	je	.L309
.LVL499:
.LBB1473:
.LBB1474:
.LBI1474:
	.loc 16 33 21 is_stmt 1 view .LVU1500
.LBB1475:
	.loc 16 35 44 is_stmt 0 view .LVU1501
	movq	(%rsi), %rdi
.LVL500:
	.loc 16 35 44 view .LVU1502
.LBE1475:
.LBE1474:
	.loc 16 97 7 view .LVU1503
	movq	%rdi, 0(%rbp)
	.loc 16 98 7 view .LVU1504
	testq	%rdi, %rdi
	je	.L383
.L310:
.LVL501:
.LBB1476:
.LBI1476:
	.loc 16 39 15 is_stmt 1 view .LVU1505
.LBB1477:
	.loc 16 41 5 is_stmt 0 view .LVU1506
	movq	$0, (%rsi)
.LVL502:
.L309:
	.loc 16 41 5 view .LVU1507
.LBE1477:
.LBE1476:
.LBE1473:
.LBE1472:
.LBE1471:
	.loc 52 746 11 is_stmt 1 view .LVU1508
.LBB1480:
.LBI1480:
	.loc 16 105 8 view .LVU1509
.LBB1481:
.LBB1482:
.LBI1482:
	.loc 16 39 15 view .LVU1510
.LBB1483:
	.loc 16 41 5 is_stmt 0 view .LVU1511
	movq	$0, (%rbx)
.LVL503:
	.loc 16 41 5 view .LVU1512
.LBE1483:
.LBE1482:
	.loc 16 108 9 view .LVU1513
	movq	80(%rsp), %r8
	.loc 16 108 5 view .LVU1514
	testq	%r8, %r8
	je	.L311
.LVL504:
.LBB1484:
.LBI1484:
	.loc 16 39 15 is_stmt 1 view .LVU1515
.LBB1485:
	.loc 16 41 5 is_stmt 0 view .LVU1516
	movq	%rbx, (%r8)
.LVL505:
	.loc 16 41 5 view .LVU1517
.LBE1485:
.LBE1484:
	.loc 16 111 7 view .LVU1518
	movq	%rbx, 80(%rsp)
.L312:
.LVL506:
	.loc 16 111 7 view .LVU1519
.LBE1481:
.LBE1480:
	.loc 52 747 11 is_stmt 1 view .LVU1520
	cmpl	$2, %eax
	je	.L384
.LVL507:
.L313:
	.loc 52 747 11 is_stmt 0 view .LVU1521
.LBE1470:
.LBE1469:
	.loc 52 741 7 is_stmt 1 view .LVU1522
.LBB1496:
.LBB1491:
.LBI1491:
	.loc 16 86 14 view .LVU1523
.LBB1492:
	.loc 16 88 12 is_stmt 0 view .LVU1524
	movq	0(%rbp), %rbx
.LVL508:
	.loc 16 88 12 view .LVU1525
.LBE1492:
.LBE1491:
	.loc 52 741 50 view .LVU1526
	testq	%rbx, %rbx
	je	.L308
	.loc 52 743 9 is_stmt 1 view .LVU1527
.LVL509:
.LBB1494:
.LBB1487:
.LBI1487:
	.file 62 "/usr/local/include/boost/asio/detail/reactor_op.hpp"
	.loc 62 42 10 view .LVU1528
.LBB1488:
	.loc 62 44 5 view .LVU1529
	.loc 62 44 25 is_stmt 0 view .LVU1530
	movq	%rbx, %rdi
.LEHB8:
	call	*48(%rbx)
.LVL510:
.LEHE8:
	jmp	.L385
.LVL511:
.L383:
	.loc 62 44 25 view .LVU1531
.LBE1488:
.LBE1487:
.LBB1489:
.LBB1479:
.LBB1478:
	.loc 16 99 9 view .LVU1532
	movq	$0, 8(%rbp)
	jmp	.L310
.LVL512:
.L311:
	.loc 16 99 9 view .LVU1533
.LBE1478:
.LBE1479:
.LBE1489:
.LBB1490:
.LBB1486:
	.loc 16 115 7 view .LVU1534
	movq	%rbx, 80(%rsp)
	movq	%rbx, 72(%rsp)
	jmp	.L312
.LVL513:
.L384:
	.loc 16 115 7 view .LVU1535
.LBE1486:
.LBE1490:
	.loc 52 749 13 is_stmt 1 view .LVU1536
	.loc 52 749 33 is_stmt 0 view .LVU1537
	movslq	%r13d, %r9
	movb	$0, 160(%r12,%r9)
	.loc 52 750 13 is_stmt 1 view .LVU1538
.LVL514:
.L308:
	.loc 52 750 13 is_stmt 0 view .LVU1539
.LBE1494:
.LBE1496:
.LBE1468:
.LBE1467:
	.loc 52 736 3 is_stmt 1 view .LVU1540
	subl	$1, %r13d
.LVL515:
.L314:
	.loc 52 736 31 view .LVU1541
	testl	%r13d, %r13d
	js	.L307
.LBE1466:
.LBE1761:
.LBE1448:
.LBE1447:
.LBE1446:
.LBE1445:
	.loc 52 738 5 view .LVU1542
.LBB1788:
.LBB1782:
.LBB1776:
.LBB1768:
.LBB1762:
.LBB1500:
.LBB1499:
	.loc 52 738 25 is_stmt 0 view .LVU1543
	movslq	%r13d, %rcx
	movl	_ZZN5boost4asio6detail13epoll_reactor16descriptor_state10perform_ioEjE4flag(,%rcx,4), %ebx
	.loc 52 738 38 view .LVU1544
	orl	$24, %ebx
	.loc 52 738 5 view .LVU1545
	testl	%ebx, 12(%rsp)
	je	.L308
.LBB1498:
	.loc 52 740 7 is_stmt 1 view .LVU1546
	.loc 52 740 27 is_stmt 0 view .LVU1547
	movslq	%r13d, %rbp
	movb	$1, 160(%r12,%rbp)
.LBB1497:
.LBB1495:
.LBB1493:
	.loc 16 88 12 view .LVU1548
	addq	$7, %rbp
	salq	$4, %rbp
	addq	%r12, %rbp
	jmp	.L313
.L307:
	.loc 16 88 12 view .LVU1549
.LBE1493:
.LBE1495:
.LBE1497:
.LBE1498:
.LBE1499:
.LBE1500:
	.loc 52 761 3 is_stmt 1 view .LVU1550
.LVL516:
.LBB1501:
.LBI1501:
	.loc 16 86 14 view .LVU1551
.LBB1502:
	.loc 16 88 12 is_stmt 0 view .LVU1552
	movq	72(%rsp), %rdi
.LVL517:
	.loc 16 88 12 view .LVU1553
.LBE1502:
.LBE1501:
	.loc 52 761 24 view .LVU1554
	movq	%rdi, 88(%rsp)
	.loc 52 762 3 is_stmt 1 view .LVU1555
.LVL518:
.LBB1503:
.LBI1503:
	.loc 16 92 8 view .LVU1556
.LBB1504:
	.loc 16 94 5 is_stmt 0 view .LVU1557
	testq	%rdi, %rdi
	je	.L315
.LVL519:
.LBB1505:
.LBB1506:
.LBI1506:
	.loc 16 33 21 is_stmt 1 view .LVU1558
.LBB1507:
	.loc 16 35 44 is_stmt 0 view .LVU1559
	movq	(%rdi), %r9
.LVL520:
	.loc 16 35 44 view .LVU1560
.LBE1507:
.LBE1506:
	.loc 16 97 7 view .LVU1561
	movq	%r9, 72(%rsp)
	.loc 16 98 7 view .LVU1562
	testq	%r9, %r9
	je	.L386
.L316:
.LVL521:
.LBB1508:
.LBI1508:
	.loc 16 39 15 is_stmt 1 view .LVU1563
.LBB1509:
	.loc 16 41 5 is_stmt 0 view .LVU1564
	movq	$0, (%rdi)
.LVL522:
.L315:
	.loc 16 41 5 view .LVU1565
.LBE1509:
.LBE1508:
.LBE1505:
.LBE1504:
.LBE1503:
	.loc 52 763 3 is_stmt 1 view .LVU1566
	.loc 52 763 21 is_stmt 0 view .LVU1567
	movq	88(%rsp), %rbx
.LVL523:
.LBB1512:
.LBI1512:
	.loc 53 63 5 is_stmt 1 view .LVU1568
.LBB1513:
	.loc 53 65 7 view .LVU1569
	testb	%r15b, %r15b
	jne	.L387
.L317:
.LVL524:
.LBB1514:
.LBI1514:
	.loc 51 30 3 view .LVU1570
	.loc 51 30 3 is_stmt 0 view .LVU1571
.LBE1514:
.LBE1513:
.LBE1512:
.LBB1518:
.LBI1518:
	.loc 52 695 3 is_stmt 1 view .LVU1572
.LBB1519:
	.loc 52 697 5 view .LVU1573
	cmpq	$0, 88(%rsp)
	je	.L318
	.loc 52 700 7 view .LVU1574
.LVL525:
.LBB1520:
.LBI1520:
	.loc 16 137 8 view .LVU1575
	.loc 16 137 8 is_stmt 0 view .LVU1576
.LBE1520:
	.loc 52 700 7 view .LVU1577
	cmpq	$0, 72(%rsp)
	je	.L345
	.loc 52 701 9 is_stmt 1 view .LVU1578
	movq	64(%rsp), %rdx
	.loc 52 701 19 is_stmt 0 view .LVU1579
	movq	40(%rdx), %rbp
.LVL526:
.LBB1521:
.LBI1521:
	.loc 57 365 6 is_stmt 1 view .LVU1580
.LBE1521:
.LBE1519:
.LBE1518:
.LBE1762:
.LBE1768:
.LBE1776:
.LBE1782:
.LBE1788:
	.loc 57 368 3 view .LVU1581
.LBB1789:
.LBB1783:
.LBB1777:
.LBB1769:
.LBB1763:
.LBB1634:
.LBB1631:
.LBB1607:
.LBB1522:
.LBB1523:
.LBI1523:
	.loc 16 137 8 view .LVU1582
.LBB1524:
	.loc 16 139 12 is_stmt 0 view .LVU1583
	movq	72(%rsp), %r13
.LVL527:
	.loc 16 139 12 view .LVU1584
.LBE1524:
.LBE1523:
	.loc 57 368 3 view .LVU1585
	je	.L345
.LBB1525:
	.loc 57 371 5 is_stmt 1 view .LVU1586
.LBB1526:
	cmpb	$0, 40(%rbp)
	je	.L321
.LBE1526:
.LBE1525:
.LBE1522:
.LBE1607:
.LBE1631:
.LBE1634:
.LBE1763:
.LBE1769:
.LBE1777:
.LBE1783:
.LBE1789:
	.loc 57 373 7 view .LVU1587
.LVL528:
.LBB1790:
.LBB1784:
.LBB1778:
.LBB1770:
.LBB1764:
.LBB1635:
.LBB1632:
.LBB1608:
.LBB1605:
.LBB1603:
.LBB1541:
.LBB1527:
.LBB1528:
.LBI1528:
	.loc 27 93 17 view .LVU1588
.LBB1529:
.LBB1530:
.LBI1530:
	.loc 30 46 3 view .LVU1589
.LBB1531:
	.loc 30 48 12 is_stmt 0 view .LVU1590
	movq	%fs:_ZN5boost4asio6detail15keyword_tss_ptrINS1_10call_stackINS1_14thread_contextENS1_16thread_info_baseEE7contextEE6value_E@tpoff, %rsi
.LVL529:
	.loc 30 48 12 view .LVU1591
	jmp	.L324
.LVL530:
.L386:
	.loc 30 48 12 view .LVU1592
.LBE1531:
.LBE1530:
.LBE1529:
.LBE1528:
.LBE1527:
.LBE1541:
.LBE1603:
.LBE1605:
.LBE1608:
.LBE1632:
.LBE1635:
.LBB1636:
.LBB1511:
.LBB1510:
	.loc 16 99 9 view .LVU1593
	movq	$0, 80(%rsp)
	jmp	.L316
.LVL531:
.L387:
	.loc 16 99 9 view .LVU1594
.LBE1510:
.LBE1511:
.LBE1636:
.LBB1637:
.LBB1517:
	.loc 53 66 9 is_stmt 1 view .LVU1595
.LBB1515:
.LBI1515:
	.loc 54 56 8 view .LVU1596
.LBB1516:
	.loc 54 58 5 view .LVU1597
	.loc 54 58 33 is_stmt 0 view .LVU1598
	movq	24(%rsp), %rdi
	addq	$8, %rdi
.LVL532:
	.loc 54 58 33 view .LVU1599
	call	pthread_mutex_unlock
.LVL533:
	.loc 54 58 33 view .LVU1600
	jmp	.L317
.LVL534:
.L323:
	.loc 54 58 33 view .LVU1601
.LBE1516:
.LBE1515:
.LBE1517:
.LBE1637:
.LBB1638:
.LBB1633:
.LBB1609:
.LBB1606:
.LBB1604:
.LBB1542:
.LBB1540:
.LBB1533:
.LBB1532:
	.loc 27 100 7 view .LVU1602
	movq	16(%rsi), %rsi
.LVL535:
.L324:
	.loc 27 96 5 is_stmt 1 view .LVU1603
	testq	%rsi, %rsi
	je	.L322
	.loc 27 98 7 is_stmt 0 view .LVU1604
	cmpq	(%rsi), %rbp
	jne	.L323
	.loc 27 99 22 view .LVU1605
	movq	8(%rsi), %rsi
.LVL536:
.L322:
	.loc 27 99 22 view .LVU1606
.LBE1532:
.LBE1533:
	.loc 57 373 7 view .LVU1607
	testq	%rsi, %rsi
	je	.L321
	.loc 57 375 9 is_stmt 1 view .LVU1608
.LVL537:
.LBB1534:
.LBI1534:
	.loc 16 122 8 view .LVU1609
.LBB1535:
	.loc 16 126 11 is_stmt 0 view .LVU1610
	movq	32(%rsi), %rcx
	.loc 16 126 7 view .LVU1611
	testq	%rcx, %rcx
	je	.L325
.LVL538:
.LBB1536:
.LBI1536:
	.loc 16 39 15 is_stmt 1 view .LVU1612
.LBB1537:
	.loc 16 41 5 is_stmt 0 view .LVU1613
	movq	%r13, (%rcx)
.LVL539:
.L326:
	.loc 16 41 5 view .LVU1614
.LBE1537:
.LBE1536:
	.loc 16 130 7 view .LVU1615
	movq	80(%rsp), %r8
	movq	%r8, 32(%rsi)
	.loc 16 131 7 view .LVU1616
	movq	$0, 72(%rsp)
.LVL540:
	.loc 16 131 7 view .LVU1617
.LBE1535:
.LBE1534:
	.loc 57 376 9 is_stmt 1 view .LVU1618
	jmp	.L345
.LVL541:
.L325:
.LBB1539:
.LBB1538:
	.loc 16 129 9 is_stmt 0 view .LVU1619
	movq	%r13, 24(%rsi)
	jmp	.L326
.LVL542:
.L321:
	.loc 16 129 9 view .LVU1620
.LBE1538:
.LBE1539:
.LBE1540:
.LBE1542:
	.loc 57 381 5 is_stmt 1 view .LVU1621
	.loc 57 381 29 is_stmt 0 view .LVU1622
	leaq	48(%rbp), %rcx
.LVL543:
.LBB1543:
.LBI1543:
	.loc 53 50 14 is_stmt 1 view .LVU1623
.LBB1544:
.LBB1545:
.LBB1546:
.LBI1546:
	.loc 51 29 3 view .LVU1624
	.loc 51 29 3 is_stmt 0 view .LVU1625
.LBE1546:
	.loc 53 51 17 view .LVU1626
	movq	%rcx, 48(%rsp)
	.loc 53 53 7 is_stmt 1 view .LVU1627
	cmpb	$0, 96(%rbp)
	jne	.L388
	.loc 53 59 9 view .LVU1628
	.loc 53 59 17 is_stmt 0 view .LVU1629
	movb	$0, 56(%rsp)
.LVL544:
.L328:
	.loc 53 59 17 view .LVU1630
.LBE1545:
.LBE1544:
.LBE1543:
	.loc 57 382 5 is_stmt 1 view .LVU1631
.LBB1551:
.LBI1551:
	.loc 16 122 8 view .LVU1632
.LBB1552:
	.loc 16 124 20 is_stmt 0 view .LVU1633
	movq	72(%rsp), %r8
.LVL545:
	.loc 16 124 5 view .LVU1634
	testq	%r8, %r8
	je	.L329
	.loc 16 126 11 view .LVU1635
	movq	224(%rbp), %rdi
	.loc 16 126 7 view .LVU1636
	testq	%rdi, %rdi
	je	.L330
.LVL546:
.LBB1553:
.LBI1553:
	.loc 16 39 15 is_stmt 1 view .LVU1637
.LBB1554:
	.loc 16 41 5 is_stmt 0 view .LVU1638
	movq	%r8, (%rdi)
.LVL547:
.L331:
	.loc 16 41 5 view .LVU1639
.LBE1554:
.LBE1553:
	.loc 16 130 7 view .LVU1640
	movq	80(%rsp), %r9
	movq	%r9, 224(%rbp)
	.loc 16 131 7 view .LVU1641
	movq	$0, 72(%rsp)
.L329:
.LVL548:
	.loc 16 131 7 view .LVU1642
.LBE1552:
.LBE1551:
	.loc 57 383 5 is_stmt 1 view .LVU1643
.LBB1556:
.LBI1556:
	.loc 57 599 6 view .LVU1644
.LBB1557:
.LBB1558:
.LBB1559:
	.loc 59 72 5 is_stmt 0 view .LVU1645
	movq	48(%rsp), %r15
	cmpb	$0, 48(%r15)
	jne	.L389
.LVL549:
.L332:
	.loc 59 72 5 view .LVU1646
.LBE1559:
.LBE1558:
	.loc 57 604 5 view .LVU1647
	cmpb	$0, 200(%rbp)
	jne	.L338
	.loc 57 604 31 view .LVU1648
	movq	168(%rbp), %rax
	.loc 57 604 28 view .LVU1649
	testq	%rax, %rax
	je	.L338
	.loc 57 606 25 view .LVU1650
	movb	$1, 200(%rbp)
.LVL550:
.LBB1578:
.LBB1579:
	.loc 52 571 13 view .LVU1651
	movl	$-2147483639, 36(%rsp)
	.loc 52 572 17 view .LVU1652
	leaq	104(%rax), %rdx
	.loc 52 572 15 view .LVU1653
	movq	%rdx, 40(%rsp)
.LVL551:
.LBB1580:
.LBB1581:
	.loc 60 50 12 view .LVU1654
	movl	104(%rax), %edx
.LVL552:
	.loc 60 50 12 view .LVU1655
.LBE1581:
.LBE1580:
	.loc 52 573 12 view .LVU1656
	movl	112(%rax), %edi
	leaq	36(%rsp), %rcx
	movl	$3, %esi
	call	epoll_ctl
.LVL553:
.L338:
	.loc 52 573 12 view .LVU1657
.LBE1579:
.LBE1578:
.LBB1582:
.LBB1583:
	.loc 53 82 7 view .LVU1658
	cmpb	$0, 56(%rsp)
	je	.L337
	.loc 53 84 9 view .LVU1659
	movq	48(%rsp), %rbp
.LVL554:
.LBB1584:
.LBB1585:
	.loc 53 134 5 view .LVU1660
	cmpb	$0, 48(%rbp)
	jne	.L390
.L339:
.LVL555:
	.loc 53 134 5 view .LVU1661
.LBE1585:
.LBE1584:
	.loc 53 85 17 view .LVU1662
	movb	$0, 56(%rsp)
.LVL556:
.L337:
	.loc 53 85 17 view .LVU1663
.LBE1583:
.LBE1582:
.LBE1557:
.LBE1556:
.LBB1595:
.LBI1595:
	.loc 53 63 5 is_stmt 1 view .LVU1664
.LBB1596:
	.loc 53 65 7 view .LVU1665
	cmpb	$0, 56(%rsp)
	je	.L345
	.loc 53 66 9 view .LVU1666
.LVL557:
.LBB1597:
.LBI1597:
	.loc 54 56 8 view .LVU1667
.LBB1598:
	.loc 54 58 5 view .LVU1668
	.loc 54 58 33 is_stmt 0 view .LVU1669
	movq	48(%rsp), %rsi
	leaq	8(%rsi), %rdi
.LVL558:
	.loc 54 58 33 view .LVU1670
	call	pthread_mutex_unlock
.LVL559:
	.loc 54 58 33 view .LVU1671
.LBE1598:
.LBE1597:
.LBB1599:
.LBI1599:
	.loc 51 30 3 is_stmt 1 view .LVU1672
	.loc 51 30 3 is_stmt 0 view .LVU1673
	jmp	.L345
.LVL560:
.L388:
	.loc 51 30 3 view .LVU1674
.LBE1599:
.LBE1596:
.LBE1595:
.LBB1600:
.LBB1550:
.LBB1549:
	.loc 53 55 9 is_stmt 1 view .LVU1675
.LBB1547:
.LBI1547:
	.loc 54 50 8 view .LVU1676
.LBB1548:
	.loc 54 52 5 view .LVU1677
	.loc 54 52 31 is_stmt 0 view .LVU1678
	leaq	56(%rbp), %rdi
	call	pthread_mutex_lock
.LVL561:
	.loc 54 52 31 view .LVU1679
.LBE1548:
.LBE1547:
	.loc 53 56 9 is_stmt 1 view .LVU1680
	.loc 53 56 17 is_stmt 0 view .LVU1681
	movb	$1, 56(%rsp)
	jmp	.L328
.LVL562:
.L330:
	.loc 53 56 17 view .LVU1682
.LBE1549:
.LBE1550:
.LBE1600:
.LBB1601:
.LBB1555:
	.loc 16 129 9 view .LVU1683
	movq	%r8, 216(%rbp)
	jmp	.L331
.LVL563:
.L389:
	.loc 16 129 9 view .LVU1684
.LBE1555:
.LBE1601:
.LBB1602:
.LBB1594:
.LBB1591:
.LBB1576:
	.loc 59 73 48 view .LVU1685
	leaq	112(%rbp), %r13
.LVL564:
.LBB1560:
.LBI1560:
	.loc 61 76 8 is_stmt 1 view .LVU1686
.LBB1561:
.LBB1562:
.LBI1562:
	.loc 53 90 10 view .LVU1687
.LBB1563:
	.loc 53 92 7 view .LVU1688
	.loc 53 92 14 is_stmt 0 view .LVU1689
	movzbl	56(%rsp), %r12d
.LVL565:
	.loc 53 92 14 view .LVU1690
.LBE1563:
.LBE1562:
	.loc 61 78 41 view .LVU1691
	testb	%r12b, %r12b
	je	.L391
	.loc 61 79 12 view .LVU1692
	movq	48(%r13), %r10
	orq	$1, %r10
	.loc 61 79 5 view .LVU1693
	movq	%r10, 48(%r13)
	.loc 61 80 5 view .LVU1694
	cmpq	$1, %r10
	ja	.L392
.LBE1561:
	.loc 61 86 12 view .LVU1695
	movl	$0, %r12d
.L334:
.LVL566:
	.loc 61 86 12 view .LVU1696
.LBE1560:
.LBE1576:
.LBE1591:
	.loc 57 602 3 view .LVU1697
	testb	%r12b, %r12b
	jne	.L337
	jmp	.L332
.LVL567:
.L391:
.LBB1592:
.LBB1577:
.LBB1575:
.LBB1574:
	.loc 61 78 68 view .LVU1698
	movl	$.LC6, %ecx
	movl	$78, %edx
	movl	$.LC7, %esi
	movl	$.LC8, %edi
	call	__assert_fail
.LVL568:
.L392:
.LBB1564:
.LBI1564:
	.loc 53 80 10 is_stmt 1 view .LVU1699
.LBB1565:
	.loc 53 82 7 view .LVU1700
	cmpb	$0, 56(%rsp)
	je	.L335
	.loc 53 84 9 view .LVU1701
	movq	48(%rsp), %r11
.LVL569:
.LBB1566:
.LBI1566:
	.loc 53 132 8 view .LVU1702
.LBB1567:
	.loc 53 134 5 view .LVU1703
	cmpb	$0, 48(%r11)
	jne	.L393
.LVL570:
.L336:
	.loc 53 134 5 is_stmt 0 view .LVU1704
.LBE1567:
.LBE1566:
	.loc 53 85 9 is_stmt 1 view .LVU1705
	.loc 53 85 17 is_stmt 0 view .LVU1706
	movb	$0, 56(%rsp)
.L335:
.LVL571:
	.loc 53 85 17 view .LVU1707
.LBE1565:
.LBE1564:
	.loc 61 83 28 view .LVU1708
	movq	%r13, %rdi
	call	pthread_cond_signal
.LVL572:
	jmp	.L334
.LVL573:
.L393:
.LBB1573:
.LBB1572:
.LBB1571:
.LBB1570:
	.loc 53 135 7 is_stmt 1 view .LVU1709
.LBB1568:
.LBI1568:
	.loc 54 56 8 view .LVU1710
.LBB1569:
	.loc 54 58 5 view .LVU1711
	.loc 54 58 33 is_stmt 0 view .LVU1712
	leaq	8(%r11), %rdi
.LVL574:
	.loc 54 58 33 view .LVU1713
	call	pthread_mutex_unlock
.LVL575:
	.loc 54 58 33 view .LVU1714
	jmp	.L336
.LVL576:
.L390:
	.loc 54 58 33 view .LVU1715
.LBE1569:
.LBE1568:
.LBE1570:
.LBE1571:
.LBE1572:
.LBE1573:
.LBE1574:
.LBE1575:
.LBE1577:
.LBE1592:
.LBB1593:
.LBB1590:
.LBB1589:
.LBB1588:
.LBB1586:
.LBB1587:
	leaq	8(%rbp), %rdi
.LVL577:
	.loc 54 58 33 view .LVU1716
	call	pthread_mutex_unlock
.LVL578:
	.loc 54 58 33 view .LVU1717
	jmp	.L339
.LVL579:
.L318:
	.loc 54 58 33 view .LVU1718
.LBE1587:
.LBE1586:
.LBE1588:
.LBE1589:
.LBE1590:
.LBE1593:
.LBE1594:
.LBE1602:
.LBE1604:
.LBE1606:
.LBE1609:
	.loc 52 712 7 is_stmt 1 view .LVU1719
	movq	64(%rsp), %r15
	.loc 52 712 17 is_stmt 0 view .LVU1720
	movq	40(%r15), %r10
.LVL580:
.LBB1610:
.LBI1610:
	.loc 57 318 6 is_stmt 1 view .LVU1721
.LBB1611:
	.loc 57 320 3 view .LVU1722
.LBB1612:
.LBI1612:
	.loc 27 93 17 view .LVU1723
.LBB1613:
.LBB1614:
.LBI1614:
	.loc 30 46 3 view .LVU1724
.LBB1615:
	.loc 30 48 12 is_stmt 0 view .LVU1725
	movq	%fs:_ZN5boost4asio6detail15keyword_tss_ptrINS1_10call_stackINS1_14thread_contextENS1_16thread_info_baseEE7contextEE6value_E@tpoff, %r12
.LVL581:
.L343:
	.loc 30 48 12 view .LVU1726
.LBE1615:
.LBE1614:
	.loc 27 96 5 is_stmt 1 view .LVU1727
	testq	%r12, %r12
	je	.L341
	.loc 27 98 7 is_stmt 0 view .LVU1728
	cmpq	(%r12), %r10
	je	.L394
	.loc 27 100 7 view .LVU1729
	movq	16(%r12), %r12
.LVL582:
	.loc 27 100 7 view .LVU1730
	jmp	.L343
.L394:
	.loc 27 99 22 view .LVU1731
	movq	8(%r12), %r12
.LVL583:
.L341:
	.loc 27 99 22 view .LVU1732
.LBE1613:
.LBE1612:
	.loc 57 321 3 is_stmt 1 view .LVU1733
	movq	40(%r12), %r11
	leaq	1(%r11), %rax
	movq	%rax, 40(%r12)
.LVL584:
	.loc 57 321 3 is_stmt 0 view .LVU1734
.LBE1611:
.LBE1610:
.LBB1616:
.LBI1616:
	.loc 16 76 3 is_stmt 1 view .LVU1735
	jmp	.L345
.LVL585:
.L395:
.LBB1617:
.LBB1618:
.LBB1619:
.LBB1620:
.LBB1621:
.LBB1622:
	.loc 16 35 44 is_stmt 0 view .LVU1736
	movq	(%rsi), %rdi
.LVL586:
	.loc 16 35 44 view .LVU1737
.LBE1622:
.LBE1621:
	.loc 16 97 7 view .LVU1738
	movq	%rdi, 72(%rsp)
.LVL587:
.LBB1623:
.LBB1624:
	.loc 16 41 5 view .LVU1739
	movq	$0, (%rsi)
.LVL588:
	.loc 16 41 5 view .LVU1740
.LBE1624:
.LBE1623:
.LBE1620:
.LBE1619:
.LBB1625:
.LBB1626:
.LBB1627:
	.loc 17 45 5 view .LVU1741
	movq	8(%rsi), %r9
.LVL589:
.LBB1628:
.LBB1629:
.LBB1630:
	.loc 18 584 63 view .LVU1742
	movl	$0, 96(%rsp)
	movb	$0, 100(%rsp)
	movq	$_ZN5boost6system6detail10cat_holderIvE24system_category_instanceE, 104(%rsp)
.LVL590:
	.loc 18 584 63 view .LVU1743
.LBE1630:
.LBE1629:
.LBE1628:
	.loc 17 45 10 view .LVU1744
	movl	$0, %ecx
	leaq	96(%rsp), %rdx
	movl	$0, %edi
	call	*%r9
.LVL591:
.L345:
	.loc 17 45 10 view .LVU1745
.LBE1627:
.LBE1626:
.LBE1625:
	.loc 16 78 23 view .LVU1746
	movq	72(%rsp), %rsi
.LVL592:
	.loc 16 78 5 view .LVU1747
	testq	%rsi, %rsi
	jne	.L395
.LVL593:
	.loc 16 78 5 view .LVU1748
.LBE1618:
.LBE1617:
.LBE1616:
.LBE1633:
.LBE1638:
.LBE1764:
.LBE1770:
	.loc 52 774 5 view .LVU1749
	testq	%rbx, %rbx
	je	.L304
	.loc 52 776 7 is_stmt 1 view .LVU1750
.LVL594:
.LBB1771:
.LBI1771:
	.loc 17 37 8 view .LVU1751
.LBB1772:
	.loc 17 40 5 view .LVU1752
	.loc 17 40 10 is_stmt 0 view .LVU1753
	movl	$0, %ecx
	movq	16(%rsp), %rdx
	movq	%rbx, %rsi
	movq	%r14, %rdi
.LEHB9:
	call	*8(%rbx)
.LVL595:
.LEHE9:
.L304:
	.loc 17 40 10 view .LVU1754
.LBE1772:
.LBE1771:
.LBE1778:
.LBE1784:
.LBE1790:
	.loc 52 779 1 view .LVU1755
	addq	$136, %rsp
	.cfi_remember_state
	.cfi_def_cfa_offset 56
	popq	%rbx
	.cfi_def_cfa_offset 48
	popq	%rbp
	.cfi_def_cfa_offset 40
	popq	%r12
	.cfi_def_cfa_offset 32
	popq	%r13
	.cfi_def_cfa_offset 24
	popq	%r14
	.cfi_def_cfa_offset 16
	popq	%r15
	.cfi_def_cfa_offset 8
	ret
.LVL596:
.L379:
	.cfi_restore_state
	.loc 52 779 1 view .LVU1756
	movq	%rax, %r14
.LVL597:
.LBB1791:
.LBB1785:
.LBB1779:
.LBB1773:
.LBB1765:
.LBB1639:
.LBI1639:
	.loc 53 63 5 is_stmt 1 view .LVU1757
.LBB1640:
	.loc 53 65 7 view .LVU1758
	testb	%r15b, %r15b
	je	.L348
	.loc 53 66 9 view .LVU1759
.LVL598:
.LBB1641:
.LBI1641:
	.loc 54 56 8 view .LVU1760
.LBB1642:
	.loc 54 58 5 view .LVU1761
	.loc 54 58 33 is_stmt 0 view .LVU1762
	movq	24(%rsp), %rdi
	addq	$8, %rdi
.LVL599:
	.loc 54 58 33 view .LVU1763
	call	pthread_mutex_unlock
.LVL600:
.L348:
	.loc 54 58 33 view .LVU1764
.LBE1642:
.LBE1641:
.LBB1643:
.LBI1643:
	.loc 51 30 3 is_stmt 1 view .LVU1765
	.loc 51 30 3 is_stmt 0 view .LVU1766
.LBE1643:
.LBE1640:
.LBE1639:
.LBB1644:
.LBI1644:
	.loc 52 695 3 is_stmt 1 view .LVU1767
.LBB1645:
	.loc 52 697 5 view .LVU1768
	cmpq	$0, 88(%rsp)
	je	.L349
	.loc 52 700 7 view .LVU1769
.LVL601:
.LBB1646:
.LBI1646:
	.loc 16 137 8 view .LVU1770
	.loc 16 137 8 is_stmt 0 view .LVU1771
.LBE1646:
	.loc 52 700 7 view .LVU1772
	cmpq	$0, 72(%rsp)
	je	.L376
	.loc 52 701 9 is_stmt 1 view .LVU1773
	movq	64(%rsp), %rdx
	.loc 52 701 19 is_stmt 0 view .LVU1774
	movq	40(%rdx), %rbp
.LVL602:
.LBB1647:
.LBI1647:
	.loc 57 365 6 is_stmt 1 view .LVU1775
.LBE1647:
.LBE1645:
.LBE1644:
.LBE1765:
.LBE1773:
.LBE1779:
.LBE1785:
.LBE1791:
	.loc 57 368 3 view .LVU1776
.LBB1792:
.LBB1786:
.LBB1780:
.LBB1774:
.LBB1766:
.LBB1759:
.LBB1757:
.LBB1728:
.LBB1648:
.LBB1649:
.LBI1649:
	.loc 16 137 8 view .LVU1777
.LBB1650:
	.loc 16 139 12 is_stmt 0 view .LVU1778
	movq	72(%rsp), %r13
.LVL603:
	.loc 16 139 12 view .LVU1779
.LBE1650:
.LBE1649:
	.loc 57 368 3 view .LVU1780
	je	.L376
.LBB1651:
	.loc 57 371 5 is_stmt 1 view .LVU1781
.LBB1652:
	cmpb	$0, 40(%rbp)
	je	.L352
.LBE1652:
.LBE1651:
.LBE1648:
.LBE1728:
.LBE1757:
.LBE1759:
.LBE1766:
.LBE1774:
.LBE1780:
.LBE1786:
.LBE1792:
	.loc 57 373 7 view .LVU1782
.LVL604:
.LBB1793:
.LBB1787:
.LBB1781:
.LBB1775:
.LBB1767:
.LBB1760:
.LBB1758:
.LBB1729:
.LBB1726:
.LBB1724:
.LBB1667:
.LBB1653:
.LBB1654:
.LBI1654:
	.loc 27 93 17 view .LVU1783
.LBB1655:
.LBB1656:
.LBI1656:
	.loc 30 46 3 view .LVU1784
.LBB1657:
	.loc 30 48 12 is_stmt 0 view .LVU1785
	movq	%fs:_ZN5boost4asio6detail15keyword_tss_ptrINS1_10call_stackINS1_14thread_contextENS1_16thread_info_baseEE7contextEE6value_E@tpoff, %rbx
.LVL605:
.L355:
	.loc 30 48 12 view .LVU1786
.LBE1657:
.LBE1656:
	.loc 27 96 5 is_stmt 1 view .LVU1787
	testq	%rbx, %rbx
	je	.L353
	.loc 27 98 7 is_stmt 0 view .LVU1788
	cmpq	(%rbx), %rbp
	jne	.L354
	.loc 27 99 22 view .LVU1789
	movq	8(%rbx), %rbx
.LVL606:
.L353:
	.loc 27 99 22 view .LVU1790
.LBE1655:
.LBE1654:
	.loc 57 373 7 view .LVU1791
	testq	%rbx, %rbx
	je	.L352
	.loc 57 375 9 is_stmt 1 view .LVU1792
.LVL607:
.LBB1659:
.LBI1659:
	.loc 16 122 8 view .LVU1793
.LBB1660:
	.loc 16 126 11 is_stmt 0 view .LVU1794
	movq	32(%rbx), %rcx
	.loc 16 126 7 view .LVU1795
	testq	%rcx, %rcx
	je	.L356
.LVL608:
.LBB1661:
.LBI1661:
	.loc 16 39 15 is_stmt 1 view .LVU1796
.LBB1662:
	.loc 16 41 5 is_stmt 0 view .LVU1797
	movq	%r13, (%rcx)
.LVL609:
.L357:
	.loc 16 41 5 view .LVU1798
.LBE1662:
.LBE1661:
	.loc 16 130 7 view .LVU1799
	movq	80(%rsp), %rsi
	movq	%rsi, 32(%rbx)
	.loc 16 131 7 view .LVU1800
	movq	$0, 72(%rsp)
.LVL610:
	.loc 16 131 7 view .LVU1801
.LBE1660:
.LBE1659:
	.loc 57 376 9 is_stmt 1 view .LVU1802
.L376:
	.loc 57 376 9 is_stmt 0 view .LVU1803
.LBE1653:
.LBE1667:
.LBE1724:
.LBE1726:
.LBE1729:
.LBB1730:
.LBB1731:
.LBB1732:
	.loc 16 78 23 view .LVU1804
	movq	72(%rsp), %rsi
.LVL611:
	.loc 16 78 5 view .LVU1805
	testq	%rsi, %rsi
	je	.L375
.LVL612:
.LBB1733:
.LBB1734:
.LBB1735:
.LBB1736:
	.loc 16 35 44 view .LVU1806
	movq	(%rsi), %rbx
.LVL613:
	.loc 16 35 44 view .LVU1807
.LBE1736:
.LBE1735:
	.loc 16 97 7 view .LVU1808
	movq	%rbx, 72(%rsp)
.LVL614:
.LBB1737:
.LBB1738:
	.loc 16 41 5 view .LVU1809
	movq	$0, (%rsi)
.LVL615:
	.loc 16 41 5 view .LVU1810
.LBE1738:
.LBE1737:
.LBE1734:
.LBE1733:
.LBB1739:
.LBB1740:
.LBB1741:
	.loc 17 45 5 view .LVU1811
	movq	8(%rsi), %r8
.LVL616:
.LBB1742:
.LBB1743:
.LBB1744:
	.loc 18 584 63 view .LVU1812
	movl	$0, 112(%rsp)
	movb	$0, 116(%rsp)
	movq	$_ZN5boost6system6detail10cat_holderIvE24system_category_instanceE, 120(%rsp)
.LVL617:
	.loc 18 584 63 view .LVU1813
.LBE1744:
.LBE1743:
.LBE1742:
	.loc 17 45 10 view .LVU1814
	movl	$0, %ecx
	leaq	112(%rsp), %rdx
	movl	$0, %edi
	call	*%r8
.LVL618:
	.loc 17 45 10 view .LVU1815
	jmp	.L376
.LVL619:
.L354:
	.loc 17 45 10 view .LVU1816
.LBE1741:
.LBE1740:
.LBE1739:
.LBE1732:
.LBE1731:
.LBE1730:
.LBB1745:
.LBB1727:
.LBB1725:
.LBB1668:
.LBB1666:
.LBB1664:
.LBB1658:
	.loc 27 100 7 view .LVU1817
	movq	16(%rbx), %rbx
.LVL620:
	.loc 27 100 7 view .LVU1818
	jmp	.L355
.LVL621:
.L356:
	.loc 27 100 7 view .LVU1819
.LBE1658:
.LBE1664:
.LBB1665:
.LBB1663:
	.loc 16 129 9 view .LVU1820
	movq	%r13, 24(%rbx)
	jmp	.L357
.LVL622:
.L352:
	.loc 16 129 9 view .LVU1821
.LBE1663:
.LBE1665:
.LBE1666:
.LBE1668:
	.loc 57 381 5 is_stmt 1 view .LVU1822
	.loc 57 381 29 is_stmt 0 view .LVU1823
	leaq	48(%rbp), %rcx
.LVL623:
.LBB1669:
.LBI1669:
	.loc 53 50 14 is_stmt 1 view .LVU1824
.LBB1670:
.LBB1671:
.LBB1672:
.LBI1672:
	.loc 51 29 3 view .LVU1825
	.loc 51 29 3 is_stmt 0 view .LVU1826
.LBE1672:
	.loc 53 51 17 view .LVU1827
	movq	%rcx, 48(%rsp)
	.loc 53 53 7 is_stmt 1 view .LVU1828
	cmpb	$0, 96(%rbp)
	je	.L358
	.loc 53 55 9 view .LVU1829
.LVL624:
.LBB1673:
.LBI1673:
	.loc 54 50 8 view .LVU1830
.LBB1674:
	.loc 54 52 5 view .LVU1831
	.loc 54 52 31 is_stmt 0 view .LVU1832
	leaq	56(%rbp), %rdi
	call	pthread_mutex_lock
.LVL625:
	.loc 54 52 31 view .LVU1833
.LBE1674:
.LBE1673:
	.loc 53 56 9 is_stmt 1 view .LVU1834
	.loc 53 56 17 is_stmt 0 view .LVU1835
	movb	$1, 56(%rsp)
.L359:
.LVL626:
	.loc 53 56 17 view .LVU1836
.LBE1671:
.LBE1670:
.LBE1669:
	.loc 57 382 5 is_stmt 1 view .LVU1837
.LBB1677:
.LBI1677:
	.loc 16 122 8 view .LVU1838
.LBB1678:
	.loc 16 124 20 is_stmt 0 view .LVU1839
	movq	72(%rsp), %rsi
.LVL627:
	.loc 16 124 5 view .LVU1840
	testq	%rsi, %rsi
	je	.L360
	.loc 16 126 11 view .LVU1841
	movq	224(%rbp), %rdi
	.loc 16 126 7 view .LVU1842
	testq	%rdi, %rdi
	je	.L361
.LVL628:
.LBB1679:
.LBI1679:
	.loc 16 39 15 is_stmt 1 view .LVU1843
.LBB1680:
	.loc 16 41 5 is_stmt 0 view .LVU1844
	movq	%rsi, (%rdi)
.LVL629:
.L362:
	.loc 16 41 5 view .LVU1845
.LBE1680:
.LBE1679:
	.loc 16 130 7 view .LVU1846
	movq	80(%rsp), %r8
	movq	%r8, 224(%rbp)
	.loc 16 131 7 view .LVU1847
	movq	$0, 72(%rsp)
.L360:
.LVL630:
	.loc 16 131 7 view .LVU1848
.LBE1678:
.LBE1677:
	.loc 57 383 5 is_stmt 1 view .LVU1849
.LBB1682:
.LBI1682:
	.loc 57 599 6 view .LVU1850
.LBB1683:
.LBB1684:
.LBB1685:
	.loc 59 72 5 is_stmt 0 view .LVU1851
	movq	48(%rsp), %r9
	cmpb	$0, 48(%r9)
	je	.L363
	.loc 59 73 48 view .LVU1852
	leaq	112(%rbp), %r15
.LVL631:
.LBB1686:
.LBI1686:
	.loc 61 76 8 is_stmt 1 view .LVU1853
.LBB1687:
.LBB1688:
.LBI1688:
	.loc 53 90 10 view .LVU1854
.LBB1689:
	.loc 53 92 7 view .LVU1855
	.loc 53 92 14 is_stmt 0 view .LVU1856
	movzbl	56(%rsp), %r12d
.LVL632:
	.loc 53 92 14 view .LVU1857
.LBE1689:
.LBE1688:
	.loc 61 78 41 view .LVU1858
	testb	%r12b, %r12b
	jne	.L364
	.loc 61 78 68 view .LVU1859
	movl	$.LC6, %ecx
	movl	$78, %edx
	movl	$.LC7, %esi
	movl	$.LC8, %edi
	call	__assert_fail
.LVL633:
.L358:
	.loc 61 78 68 view .LVU1860
.LBE1687:
.LBE1686:
.LBE1685:
.LBE1684:
.LBE1683:
.LBE1682:
.LBB1715:
.LBB1676:
.LBB1675:
	.loc 53 59 9 is_stmt 1 view .LVU1861
	.loc 53 59 17 is_stmt 0 view .LVU1862
	movb	$0, 56(%rsp)
	jmp	.L359
.LVL634:
.L361:
	.loc 53 59 17 view .LVU1863
.LBE1675:
.LBE1676:
.LBE1715:
.LBB1716:
.LBB1681:
	.loc 16 129 9 view .LVU1864
	movq	%rsi, 216(%rbp)
	jmp	.L362
.LVL635:
.L364:
	.loc 16 129 9 view .LVU1865
.LBE1681:
.LBE1716:
.LBB1717:
.LBB1713:
.LBB1701:
.LBB1699:
.LBB1697:
.LBB1696:
	.loc 61 79 12 view .LVU1866
	movq	48(%r15), %r10
	orq	$1, %r10
	.loc 61 79 5 view .LVU1867
	movq	%r10, 48(%r15)
	.loc 61 80 5 view .LVU1868
	cmpq	$1, %r10
	jbe	.L378
.LVL636:
.LBB1690:
.LBI1690:
	.loc 53 80 10 is_stmt 1 view .LVU1869
.LBB1691:
	.loc 53 82 7 view .LVU1870
	cmpb	$0, 56(%rsp)
	je	.L366
	.loc 53 84 9 view .LVU1871
	movq	48(%rsp), %r11
.LVL637:
.LBB1692:
.LBI1692:
	.loc 53 132 8 view .LVU1872
.LBB1693:
	.loc 53 134 5 view .LVU1873
	cmpb	$0, 48(%r11)
	je	.L367
	.loc 53 135 7 view .LVU1874
.LVL638:
.LBB1694:
.LBI1694:
	.loc 54 56 8 view .LVU1875
.LBB1695:
	.loc 54 58 5 view .LVU1876
	.loc 54 58 33 is_stmt 0 view .LVU1877
	leaq	8(%r11), %rdi
.LVL639:
	.loc 54 58 33 view .LVU1878
	call	pthread_mutex_unlock
.LVL640:
.L367:
	.loc 54 58 33 view .LVU1879
.LBE1695:
.LBE1694:
.LBE1693:
.LBE1692:
	.loc 53 85 9 is_stmt 1 view .LVU1880
	.loc 53 85 17 is_stmt 0 view .LVU1881
	movb	$0, 56(%rsp)
.L366:
.LVL641:
	.loc 53 85 17 view .LVU1882
.LBE1691:
.LBE1690:
	.loc 61 83 28 view .LVU1883
	movq	%r15, %rdi
	call	pthread_cond_signal
.LVL642:
.L365:
	.loc 61 83 28 view .LVU1884
.LBE1696:
.LBE1697:
.LBE1699:
.LBE1701:
	.loc 57 602 3 view .LVU1885
	testb	%r12b, %r12b
	jne	.L368
.L363:
	.loc 57 604 5 view .LVU1886
	cmpb	$0, 200(%rbp)
	jne	.L369
	.loc 57 604 31 view .LVU1887
	movq	168(%rbp), %rax
	.loc 57 604 28 view .LVU1888
	testq	%rax, %rax
	je	.L369
	.loc 57 606 25 view .LVU1889
	movb	$1, 200(%rbp)
.LVL643:
.LBB1702:
.LBB1703:
	.loc 52 571 13 view .LVU1890
	movl	$-2147483639, 36(%rsp)
	.loc 52 572 17 view .LVU1891
	leaq	104(%rax), %rdx
	.loc 52 572 15 view .LVU1892
	movq	%rdx, 40(%rsp)
.LVL644:
.LBB1704:
.LBB1705:
	.loc 60 50 12 view .LVU1893
	movl	104(%rax), %edx
.LVL645:
	.loc 60 50 12 view .LVU1894
.LBE1705:
.LBE1704:
	.loc 52 573 12 view .LVU1895
	movl	112(%rax), %edi
	leaq	36(%rsp), %rcx
	movl	$3, %esi
	call	epoll_ctl
.LVL646:
.L369:
	.loc 52 573 12 view .LVU1896
.LBE1703:
.LBE1702:
.LBB1706:
.LBB1707:
	.loc 53 82 7 view .LVU1897
	cmpb	$0, 56(%rsp)
	je	.L368
	.loc 53 84 9 view .LVU1898
	movq	48(%rsp), %rbp
.LVL647:
.LBB1708:
.LBB1709:
	.loc 53 134 5 view .LVU1899
	cmpb	$0, 48(%rbp)
	je	.L370
.LVL648:
.LBB1710:
.LBB1711:
	.loc 54 58 33 view .LVU1900
	leaq	8(%rbp), %rdi
.LVL649:
	.loc 54 58 33 view .LVU1901
	call	pthread_mutex_unlock
.LVL650:
.L370:
	.loc 54 58 33 view .LVU1902
.LBE1711:
.LBE1710:
.LBE1709:
.LBE1708:
	.loc 53 85 17 view .LVU1903
	movb	$0, 56(%rsp)
.LVL651:
.L368:
	.loc 53 85 17 view .LVU1904
.LBE1707:
.LBE1706:
.LBE1713:
.LBE1717:
.LBB1718:
.LBI1718:
	.loc 53 63 5 is_stmt 1 view .LVU1905
.LBB1719:
	.loc 53 65 7 view .LVU1906
	cmpb	$0, 56(%rsp)
	je	.L376
	.loc 53 66 9 view .LVU1907
.LVL652:
.LBB1720:
.LBI1720:
	.loc 54 56 8 view .LVU1908
.LBB1721:
	.loc 54 58 5 view .LVU1909
	.loc 54 58 33 is_stmt 0 view .LVU1910
	movq	48(%rsp), %r13
	leaq	8(%r13), %rdi
.LVL653:
	.loc 54 58 33 view .LVU1911
	call	pthread_mutex_unlock
.LVL654:
	.loc 54 58 33 view .LVU1912
.LBE1721:
.LBE1720:
.LBB1722:
.LBI1722:
	.loc 51 30 3 is_stmt 1 view .LVU1913
	.loc 51 30 3 is_stmt 0 view .LVU1914
	jmp	.L376
.LVL655:
.L378:
	.loc 51 30 3 view .LVU1915
.LBE1722:
.LBE1719:
.LBE1718:
.LBB1723:
.LBB1714:
.LBB1712:
.LBB1700:
.LBB1698:
	.loc 61 86 12 view .LVU1916
	movl	$0, %r12d
	jmp	.L365
.LVL656:
.L349:
	.loc 61 86 12 view .LVU1917
.LBE1698:
.LBE1700:
.LBE1712:
.LBE1714:
.LBE1723:
.LBE1725:
.LBE1727:
.LBE1745:
	.loc 52 712 7 is_stmt 1 view .LVU1918
	movq	64(%rsp), %r10
	.loc 52 712 17 is_stmt 0 view .LVU1919
	movq	40(%r10), %r11
.LVL657:
.LBB1746:
.LBI1746:
	.loc 57 318 6 is_stmt 1 view .LVU1920
.LBB1747:
	.loc 57 320 3 view .LVU1921
.LBB1748:
.LBI1748:
	.loc 27 93 17 view .LVU1922
.LBB1749:
.LBB1750:
.LBI1750:
	.loc 30 46 3 view .LVU1923
.LBB1751:
	.loc 30 48 12 is_stmt 0 view .LVU1924
	movq	%fs:_ZN5boost4asio6detail15keyword_tss_ptrINS1_10call_stackINS1_14thread_contextENS1_16thread_info_baseEE7contextEE6value_E@tpoff, %r15
.LVL658:
.L374:
	.loc 30 48 12 view .LVU1925
.LBE1751:
.LBE1750:
	.loc 27 96 5 is_stmt 1 view .LVU1926
	testq	%r15, %r15
	je	.L372
	.loc 27 98 7 is_stmt 0 view .LVU1927
	cmpq	(%r15), %r11
	jne	.L373
	.loc 27 99 22 view .LVU1928
	movq	8(%r15), %r15
.LVL659:
.L372:
	.loc 27 99 22 view .LVU1929
.LBE1749:
.LBE1748:
	.loc 57 321 3 is_stmt 1 view .LVU1930
	movq	40(%r15), %r12
.LVL660:
	.loc 57 321 3 is_stmt 0 view .LVU1931
	leaq	1(%r12), %rax
	movq	%rax, 40(%r15)
.LVL661:
	.loc 57 321 3 view .LVU1932
.LBE1747:
.LBE1746:
.LBB1755:
.LBI1730:
	.loc 16 76 3 is_stmt 1 view .LVU1933
	jmp	.L376
.LVL662:
.L373:
	.loc 16 76 3 is_stmt 0 view .LVU1934
.LBE1755:
.LBB1756:
.LBB1754:
.LBB1753:
.LBB1752:
	.loc 27 100 7 view .LVU1935
	movq	16(%r15), %r15
.LVL663:
	.loc 27 100 7 view .LVU1936
	jmp	.L374
.LVL664:
.L375:
	.loc 27 100 7 view .LVU1937
	movq	%r14, %rdi
.LEHB10:
	call	_Unwind_Resume
.LVL665:
.LEHE10:
.LBE1752:
.LBE1753:
.LBE1754:
.LBE1756:
.LBE1758:
.LBE1760:
.LBE1767:
.LBE1775:
.LBE1781:
.LBE1787:
.LBE1793:
	.cfi_endproc
.LFE56:
	.section	.gcc_except_table
.LLSDA56:
	.byte	0xff
	.byte	0xff
	.byte	0x1
	.uleb128 .LLSDACSE56-.LLSDACSB56
.LLSDACSB56:
	.uleb128 .LEHB8-.LFB56
	.uleb128 .LEHE8-.LEHB8
	.uleb128 .L379-.LFB56
	.uleb128 0
	.uleb128 .LEHB9-.LFB56
	.uleb128 .LEHE9-.LEHB9
	.uleb128 0
	.uleb128 0
	.uleb128 .LEHB10-.LFB56
	.uleb128 .LEHE10-.LEHB10
	.uleb128 0
	.uleb128 0
.LLSDACSE56:
	.text
	.size	_ZN5boost4asio6detail13epoll_reactor16descriptor_state11do_completeEPvPNS1_19scheduler_operationERKNS_6system10error_codeEm, .-_ZN5boost4asio6detail13epoll_reactor16descriptor_state11do_completeEPvPNS1_19scheduler_operationERKNS_6system10error_codeEm
	.type	_ZN5boost4asio6detail16thread_info_base8allocateINS2_11default_tagEEEPvT_PS2_m, @function
_ZN5boost4asio6detail16thread_info_base8allocateINS2_11default_tagEEEPvT_PS2_m:
.LVL666:
.LFB60:
	.loc 38 71 16 is_stmt 1 view -0
	.cfi_startproc
	.loc 38 71 16 is_stmt 0 view .LVU1939
	pushq	%r12
	.cfi_def_cfa_offset 16
	.cfi_offset 12, -16
	pushq	%rbp
	.cfi_def_cfa_offset 24
	.cfi_offset 6, -24
	pushq	%rbx
	.cfi_def_cfa_offset 32
	.cfi_offset 3, -32
	movq	%rsi, %rbx
	.loc 38 74 45 is_stmt 1 view .LVU1940
	leaq	3(%rsi), %rbp
	.loc 38 74 17 view .LVU1941
	movq	%rbp, %r12
	shrq	$2, %r12
.LVL667:
.LBB1796:
	.loc 38 76 5 view .LVU1942
	testq	%rdi, %rdi
	je	.L397
	.loc 38 76 53 discriminator 1 view .LVU1943
	movq	(%rdi), %rax
	.loc 38 76 21 discriminator 1 view .LVU1944
	testq	%rax, %rax
	je	.L397
.LVL668:
.LBB1797:
	.loc 38 79 7 view .LVU1945
	movq	$0, (%rdi)
.LVL669:
	.loc 38 82 11 view .LVU1946
	movzbl	(%rax), %edx
	movzbl	%dl, %ecx
	.loc 38 82 7 view .LVU1947
	cmpq	%r12, %rcx
	jb	.L398
	.loc 38 84 9 view .LVU1948
	movb	%dl, (%rax,%rsi)
	jmp	.L396
.L398:
	.loc 38 88 24 view .LVU1949
	movq	%rax, %rdi
.LVL670:
	.loc 38 88 24 is_stmt 0 view .LVU1950
	call	_ZdlPv
.LVL671:
.L397:
	.loc 38 88 24 view .LVU1951
.LBE1797:
.LBE1796:
	.loc 38 91 49 is_stmt 1 view .LVU1952
	movq	%rbp, %rdi
	andq	$-4, %rdi
	.loc 38 91 41 view .LVU1953
	addq	$1, %rdi
	call	_Znwm
.LVL672:
	.loc 38 93 5 view .LVU1954
	cmpq	$1023, %rbp
	jbe	.L400
	movl	$0, %r12d
.LVL673:
.L400:
	.loc 38 93 5 is_stmt 0 discriminator 4 view .LVU1955
	movb	%r12b, (%rax,%rbx)
.LVL674:
.L396:
	.loc 38 95 3 is_stmt 1 view .LVU1956
	popq	%rbx
	.cfi_def_cfa_offset 24
.LVL675:
	.loc 38 95 3 is_stmt 0 view .LVU1957
	popq	%rbp
	.cfi_def_cfa_offset 16
.LVL676:
	.loc 38 95 3 view .LVU1958
	popq	%r12
	.cfi_def_cfa_offset 8
	ret
	.cfi_endproc
.LFE60:
	.size	_ZN5boost4asio6detail16thread_info_base8allocateINS2_11default_tagEEEPvT_PS2_m, .-_ZN5boost4asio6detail16thread_info_base8allocateINS2_11default_tagEEEPvT_PS2_m
	.align 2
	.type	_ZNK5boost4asio10io_context13executor_type5deferINS0_8executor8functionESaIvEEEvOT_RKT0_, @function
_ZNK5boost4asio10io_context13executor_type5deferINS0_8executor8functionESaIvEEEvOT_RKT0_:
.LVL677:
.LFB62:
	.loc 3 300 6 is_stmt 1 view -0
	.cfi_startproc
	.cfi_personality 0x3,__gxx_personality_v0
	.loc 3 300 6 is_stmt 0 view .LVU1960
	pushq	%r12
	.cfi_def_cfa_offset 16
	.cfi_offset 12, -16
	pushq	%rbp
	.cfi_def_cfa_offset 24
	.cfi_offset 6, -24
	pushq	%rbx
	.cfi_def_cfa_offset 32
	.cfi_offset 3, -32
	subq	$64, %rsp
	.cfi_def_cfa_offset 96
	movq	%rdi, %r12
	movq	%rsi, %rbp
.LVL678:
.LBB1907:
.LBI1907:
	.loc 35 35 97 is_stmt 1 view .LVU1961
.LBB1908:
.LBB1909:
.LBI1909:
	.loc 37 99 15 view .LVU1962
.LBB1910:
.LBI1910:
	.loc 37 78 3 view .LVU1963
	.loc 37 78 3 is_stmt 0 view .LVU1964
.LBE1910:
.LBE1909:
.LBB1911:
.LBI1911:
	.loc 37 46 3 is_stmt 1 view .LVU1965
	.loc 37 46 3 is_stmt 0 view .LVU1966
.LBE1911:
.LBB1912:
.LBI1912:
	.loc 37 50 6 is_stmt 1 view .LVU1967
.LBB1913:
.LBB1914:
.LBI1914:
	.loc 27 106 17 view .LVU1968
.LBB1915:
.LBB1916:
.LBI1916:
	.loc 30 46 3 view .LVU1969
.LBB1917:
	.loc 30 48 12 is_stmt 0 view .LVU1970
	movq	%fs:_ZN5boost4asio6detail15keyword_tss_ptrINS1_10call_stackINS1_14thread_contextENS1_16thread_info_baseEE7contextEE6value_E@tpoff, %rax
.LVL679:
	.loc 30 48 12 view .LVU1971
.LBE1917:
.LBE1916:
	.loc 27 109 17 view .LVU1972
	testq	%rax, %rax
	je	.L404
	movq	8(%rax), %rax
.LVL680:
.L404:
	.loc 27 109 17 view .LVU1973
.LBE1915:
.LBE1914:
.LBB1918:
.LBI1918:
	.loc 38 71 16 is_stmt 1 view .LVU1974
.LBB1919:
.LBB1920:
	.loc 38 76 5 is_stmt 0 view .LVU1975
	testq	%rax, %rax
	je	.L405
	.loc 38 76 53 view .LVU1976
	movq	(%rax), %rbx
	.loc 38 76 21 view .LVU1977
	testq	%rbx, %rbx
	je	.L405
.LVL681:
.LBB1921:
	.loc 38 79 7 view .LVU1978
	movq	$0, (%rax)
.LVL682:
	.loc 38 82 11 view .LVU1979
	movzbl	(%rbx), %edx
.LVL683:
	.loc 38 82 7 view .LVU1980
	cmpb	$9, %dl
	jbe	.L406
	.loc 38 84 9 view .LVU1981
	movb	%dl, 40(%rbx)
	jmp	.L407
.L406:
	.loc 38 88 24 view .LVU1982
	movq	%rbx, %rdi
.LVL684:
	.loc 38 88 24 view .LVU1983
	call	_ZdlPv
.LVL685:
.L405:
	.loc 38 88 24 view .LVU1984
.LBE1921:
.LBE1920:
	.loc 38 91 41 view .LVU1985
	movl	$41, %edi
	call	_Znwm
.LVL686:
	movq	%rax, %rbx
.LVL687:
	.loc 38 93 5 view .LVU1986
	movb	$10, 40(%rax)
.LVL688:
.L407:
	.loc 38 93 5 view .LVU1987
.LBE1919:
.LBE1918:
.LBE1913:
.LBE1912:
.LBE1908:
.LBE1907:
	.file 63 "/usr/include/c++/9/new"
	.loc 63 174 3 is_stmt 1 view .LVU1988
.LBB1922:
.LBI1922:
	.loc 35 38 3 view .LVU1989
.LBB1923:
.LBB1924:
.LBI1924:
	.loc 17 53 3 view .LVU1990
.LBB1925:
	.loc 17 56 21 is_stmt 0 view .LVU1991
	movq	$0, (%rbx)
	movq	$_ZN5boost4asio6detail11executor_opINS0_8executor8functionESaIvENS1_19scheduler_operationEE11do_completeEPvPS6_RKNS_6system10error_codeEm, 8(%rbx)
	movl	$0, 16(%rbx)
.LVL689:
	.loc 17 56 21 view .LVU1992
.LBE1925:
.LBE1924:
.LBB1926:
.LBI1926:
	.loc 1 51 3 is_stmt 1 view .LVU1993
.LBB1927:
	.loc 1 52 19 is_stmt 0 view .LVU1994
	movq	0(%rbp), %rcx
	.loc 1 52 24 view .LVU1995
	movq	%rcx, 24(%rbx)
	.loc 1 54 5 is_stmt 1 view .LVU1996
	.loc 1 54 17 is_stmt 0 view .LVU1997
	movq	$0, 0(%rbp)
.LVL690:
	.loc 1 54 17 view .LVU1998
.LBE1927:
.LBE1926:
.LBE1923:
.LBE1922:
	.loc 3 313 3 view .LVU1999
	movq	(%r12), %rsi
	.loc 3 313 15 view .LVU2000
	movq	8(%rsi), %rbp
.LVL691:
.LBB1928:
.LBI1928:
	.loc 57 324 6 is_stmt 1 view .LVU2001
.LBB1929:
	.loc 57 328 3 view .LVU2002
.LBE1929:
.LBE1928:
	.loc 57 330 5 view .LVU2003
.LBB2013:
.LBB2010:
.LBB1930:
.LBB1931:
.LBI1931:
	.loc 27 93 17 view .LVU2004
.LBB1932:
.LBB1933:
.LBI1933:
	.loc 30 46 3 view .LVU2005
.LBB1934:
	.loc 30 48 12 is_stmt 0 view .LVU2006
	movq	%fs:_ZN5boost4asio6detail15keyword_tss_ptrINS1_10call_stackINS1_14thread_contextENS1_16thread_info_baseEE7contextEE6value_E@tpoff, %rdi
.LVL692:
.L410:
	.loc 30 48 12 view .LVU2007
.LBE1934:
.LBE1933:
	.loc 27 96 5 is_stmt 1 view .LVU2008
	testq	%rdi, %rdi
	je	.L408
	.loc 27 98 7 is_stmt 0 view .LVU2009
	cmpq	(%rdi), %rbp
	je	.L436
	.loc 27 100 7 view .LVU2010
	movq	16(%rdi), %rdi
.LVL693:
	.loc 27 100 7 view .LVU2011
	jmp	.L410
.L436:
	.loc 27 99 22 view .LVU2012
	movq	8(%rdi), %rdi
.LVL694:
.L408:
	.loc 27 99 22 view .LVU2013
.LBE1932:
.LBE1931:
	.loc 57 330 5 view .LVU2014
	testq	%rdi, %rdi
	je	.L411
	.loc 57 332 7 is_stmt 1 view .LVU2015
	movq	40(%rdi), %r8
	leaq	1(%r8), %r9
	movq	%r9, 40(%rdi)
	.loc 57 333 7 view .LVU2016
.LVL695:
.LBB1935:
.LBI1935:
	.loc 16 105 8 view .LVU2017
.LBB1936:
.LBB1937:
.LBI1937:
	.loc 16 39 15 view .LVU2018
.LBB1938:
	.loc 16 41 5 is_stmt 0 view .LVU2019
	movq	$0, (%rbx)
.LVL696:
	.loc 16 41 5 view .LVU2020
.LBE1938:
.LBE1937:
	.loc 16 108 9 view .LVU2021
	movq	32(%rdi), %r10
	.loc 16 108 5 view .LVU2022
	testq	%r10, %r10
	je	.L412
.LVL697:
.LBB1939:
.LBI1939:
	.loc 16 39 15 is_stmt 1 view .LVU2023
.LBB1940:
	.loc 16 41 5 is_stmt 0 view .LVU2024
	movq	%rbx, (%r10)
.LVL698:
	.loc 16 41 5 view .LVU2025
.LBE1940:
.LBE1939:
	.loc 16 111 7 view .LVU2026
	movq	%rbx, 32(%rdi)
.LVL699:
.L414:
	.loc 16 111 7 view .LVU2027
.LBE1936:
.LBE1935:
.LBE1930:
.LBE2010:
.LBE2013:
	.loc 3 314 3 view .LVU2028
	movq	$0, 48(%rsp)
	movq	$0, 40(%rsp)
.LVL700:
.LBB2014:
.LBI2014:
	.loc 35 35 57 is_stmt 1 view .LVU2029
.LBB2015:
.LBI2015:
	.loc 35 35 528 view .LVU2030
.LBB2016:
.LBB2017:
	.loc 35 35 579 is_stmt 0 view .LVU2031
	movl	$0, %edi
	.loc 35 35 575 view .LVU2032
	testq	%rdi, %rdi
	je	.L403
.LVL701:
.LBB2018:
.LBB2019:
.LBI2019:
	.loc 37 58 8 is_stmt 1 view .LVU2033
.LBB2020:
.LBI2020:
	.loc 27 106 17 view .LVU2034
.LBB2021:
.LBB2022:
.LBI2022:
	.loc 30 46 3 view .LVU2035
.LBB2023:
	.loc 30 48 12 is_stmt 0 view .LVU2036
	movq	%fs:_ZN5boost4asio6detail15keyword_tss_ptrINS1_10call_stackINS1_14thread_contextENS1_16thread_info_baseEE7contextEE6value_E@tpoff, %r11
.LVL702:
	.loc 30 48 12 view .LVU2037
.LBE2023:
.LBE2022:
	.loc 27 109 17 view .LVU2038
	testq	%r11, %r11
	je	.L431
	movq	8(%r11), %r11
.LVL703:
.L431:
	.loc 27 109 17 view .LVU2039
.LBE2021:
.LBE2020:
.LBB2024:
.LBI2024:
	.loc 38 98 15 is_stmt 1 view .LVU2040
.LBB2025:
.LBB2026:
	.loc 38 103 7 is_stmt 0 view .LVU2041
	testq	%r11, %r11
	je	.L432
	.loc 38 103 23 view .LVU2042
	cmpq	$0, (%r11)
	je	.L437
.L432:
	.loc 38 103 23 view .LVU2043
.LBE2026:
	.loc 38 112 22 view .LVU2044
	call	_ZdlPv
.LVL704:
.L403:
	.loc 38 112 22 view .LVU2045
.LBE2025:
.LBE2024:
.LBE2019:
.LBE2018:
.LBE2017:
.LBE2016:
.LBE2015:
.LBE2014:
	.loc 3 315 1 view .LVU2046
	addq	$64, %rsp
	.cfi_remember_state
	.cfi_def_cfa_offset 32
	popq	%rbx
	.cfi_def_cfa_offset 24
	popq	%rbp
	.cfi_def_cfa_offset 16
	popq	%r12
	.cfi_def_cfa_offset 8
	ret
.LVL705:
.L412:
	.cfi_restore_state
.LBB2036:
.LBB2011:
.LBB1943:
.LBB1942:
.LBB1941:
	.loc 16 115 7 view .LVU2047
	movq	%rbx, 32(%rdi)
	movq	%rbx, 24(%rdi)
.LVL706:
	.loc 16 115 7 view .LVU2048
.LBE1941:
.LBE1942:
	.loc 57 334 7 is_stmt 1 view .LVU2049
	jmp	.L414
.L411:
	.loc 57 334 7 is_stmt 0 view .LVU2050
.LBE1943:
	.loc 57 341 3 is_stmt 1 view .LVU2051
.LVL707:
.LBB1944:
.LBI1944:
	.loc 58 86 8 view .LVU2052
.LBE1944:
.LBE2011:
.LBE2036:
	.loc 58 88 5 view .LVU2053
.LBB2037:
.LBB2012:
.LBB1947:
.LBB1945:
.LBI1945:
	.loc 50 318 7 view .LVU2054
.LBB1946:
	.loc 50 319 36 is_stmt 0 view .LVU2055
	leaq	208(%rbp), %r8
.LVL708:
	.loc 50 319 34 view .LVU2056
	lock addq	$1, (%r8)
.LVL709:
	.loc 50 319 34 view .LVU2057
.LBE1946:
.LBE1945:
.LBE1947:
	.loc 57 342 3 is_stmt 1 view .LVU2058
	.loc 57 342 27 is_stmt 0 view .LVU2059
	leaq	48(%rbp), %r9
.LVL710:
.LBB1948:
.LBI1948:
	.loc 53 50 14 is_stmt 1 view .LVU2060
.LBB1949:
.LBB1950:
.LBB1951:
.LBI1951:
	.loc 51 29 3 view .LVU2061
	.loc 51 29 3 is_stmt 0 view .LVU2062
.LBE1951:
	.loc 53 51 17 view .LVU2063
	movq	%r9, 16(%rsp)
	.loc 53 53 7 is_stmt 1 view .LVU2064
	cmpb	$0, 96(%rbp)
	jne	.L438
	.loc 53 59 9 view .LVU2065
	.loc 53 59 17 is_stmt 0 view .LVU2066
	movb	$0, 24(%rsp)
.LVL711:
.L416:
	.loc 53 59 17 view .LVU2067
.LBE1950:
.LBE1949:
.LBE1948:
	.loc 57 343 3 is_stmt 1 view .LVU2068
.LBB1956:
.LBI1956:
	.loc 16 105 8 view .LVU2069
.LBB1957:
.LBB1958:
.LBI1958:
	.loc 16 39 15 view .LVU2070
.LBB1959:
	.loc 16 41 5 is_stmt 0 view .LVU2071
	movq	$0, (%rbx)
.LVL712:
	.loc 16 41 5 view .LVU2072
.LBE1959:
.LBE1958:
	.loc 16 108 9 view .LVU2073
	movq	224(%rbp), %r10
	.loc 16 108 5 view .LVU2074
	testq	%r10, %r10
	je	.L417
.LVL713:
.LBB1960:
.LBI1960:
	.loc 16 39 15 is_stmt 1 view .LVU2075
.LBB1961:
	.loc 16 41 5 is_stmt 0 view .LVU2076
	movq	%rbx, (%r10)
.LVL714:
	.loc 16 41 5 view .LVU2077
.LBE1961:
.LBE1960:
	.loc 16 111 7 view .LVU2078
	movq	%rbx, 224(%rbp)
.L418:
.LVL715:
	.loc 16 111 7 view .LVU2079
.LBE1957:
.LBE1956:
	.loc 57 344 3 is_stmt 1 view .LVU2080
.LBB1963:
.LBI1963:
	.loc 57 599 6 view .LVU2081
.LBB1964:
.LBB1965:
.LBB1966:
	.loc 59 72 5 is_stmt 0 view .LVU2082
	movq	16(%rsp), %r11
	cmpb	$0, 48(%r11)
	jne	.L439
.LVL716:
.L419:
	.loc 59 72 5 view .LVU2083
.LBE1966:
.LBE1965:
	.loc 57 604 5 view .LVU2084
	cmpb	$0, 200(%rbp)
	jne	.L425
	.loc 57 604 31 view .LVU2085
	movq	168(%rbp), %rcx
	.loc 57 604 28 view .LVU2086
	testq	%rcx, %rcx
	je	.L425
	.loc 57 606 25 view .LVU2087
	movb	$1, 200(%rbp)
.LVL717:
.LBB1985:
.LBB1986:
	.loc 52 571 13 view .LVU2088
	movl	$-2147483639, 4(%rsp)
	.loc 52 572 17 view .LVU2089
	leaq	104(%rcx), %rsi
	.loc 52 572 15 view .LVU2090
	movq	%rsi, 8(%rsp)
.LVL718:
.LBB1987:
.LBB1988:
	.loc 60 50 12 view .LVU2091
	movl	104(%rcx), %edx
.LVL719:
	.loc 60 50 12 view .LVU2092
.LBE1988:
.LBE1987:
	.loc 52 573 12 view .LVU2093
	movl	112(%rcx), %edi
	leaq	4(%rsp), %rcx
.LVL720:
	.loc 52 573 12 view .LVU2094
	movl	$3, %esi
	call	epoll_ctl
.LVL721:
.L425:
	.loc 52 573 12 view .LVU2095
.LBE1986:
.LBE1985:
.LBB1989:
.LBB1990:
	.loc 53 82 7 view .LVU2096
	cmpb	$0, 24(%rsp)
	je	.L424
	.loc 53 84 9 view .LVU2097
	movq	16(%rsp), %rdi
.LVL722:
.LBB1991:
.LBB1992:
	.loc 53 134 5 view .LVU2098
	cmpb	$0, 48(%rdi)
	jne	.L440
.LVL723:
.L426:
	.loc 53 134 5 view .LVU2099
.LBE1992:
.LBE1991:
	.loc 53 85 17 view .LVU2100
	movb	$0, 24(%rsp)
.LVL724:
.L424:
	.loc 53 85 17 view .LVU2101
.LBE1990:
.LBE1989:
.LBE1964:
.LBE1963:
.LBB2002:
.LBI2002:
	.loc 53 63 5 is_stmt 1 view .LVU2102
.LBB2003:
	.loc 53 65 7 view .LVU2103
	cmpb	$0, 24(%rsp)
	je	.L414
	.loc 53 66 9 view .LVU2104
.LVL725:
.LBB2004:
.LBI2004:
	.loc 54 56 8 view .LVU2105
.LBB2005:
	.loc 54 58 5 view .LVU2106
	.loc 54 58 33 is_stmt 0 view .LVU2107
	movq	16(%rsp), %rbp
.LVL726:
	.loc 54 58 33 view .LVU2108
	leaq	8(%rbp), %rdi
.LVL727:
	.loc 54 58 33 view .LVU2109
	call	pthread_mutex_unlock
.LVL728:
	.loc 54 58 33 view .LVU2110
.LBE2005:
.LBE2004:
.LBB2006:
.LBI2006:
	.loc 51 30 3 is_stmt 1 view .LVU2111
	.loc 51 30 3 is_stmt 0 view .LVU2112
	jmp	.L414
.LVL729:
.L438:
	.loc 51 30 3 view .LVU2113
.LBE2006:
.LBE2003:
.LBE2002:
.LBB2007:
.LBB1955:
.LBB1954:
	.loc 53 55 9 is_stmt 1 view .LVU2114
.LBB1952:
.LBI1952:
	.loc 54 50 8 view .LVU2115
.LBB1953:
	.loc 54 52 5 view .LVU2116
	.loc 54 52 31 is_stmt 0 view .LVU2117
	leaq	56(%rbp), %rdi
.LVL730:
	.loc 54 52 31 view .LVU2118
	call	pthread_mutex_lock
.LVL731:
	.loc 54 52 31 view .LVU2119
.LBE1953:
.LBE1952:
	.loc 53 56 9 is_stmt 1 view .LVU2120
	.loc 53 56 17 is_stmt 0 view .LVU2121
	movb	$1, 24(%rsp)
	jmp	.L416
.LVL732:
.L417:
	.loc 53 56 17 view .LVU2122
.LBE1954:
.LBE1955:
.LBE2007:
.LBB2008:
.LBB1962:
	.loc 16 115 7 view .LVU2123
	movq	%rbx, 224(%rbp)
	movq	%rbx, 216(%rbp)
	jmp	.L418
.LVL733:
.L439:
	.loc 16 115 7 view .LVU2124
.LBE1962:
.LBE2008:
.LBB2009:
.LBB2001:
.LBB1998:
.LBB1983:
	.loc 59 73 48 view .LVU2125
	leaq	112(%rbp), %r12
.LVL734:
.LBB1967:
.LBI1967:
	.loc 61 76 8 is_stmt 1 view .LVU2126
.LBB1968:
.LBB1969:
.LBI1969:
	.loc 53 90 10 view .LVU2127
.LBB1970:
	.loc 53 92 7 view .LVU2128
	.loc 53 92 14 is_stmt 0 view .LVU2129
	movzbl	24(%rsp), %ebx
.LVL735:
	.loc 53 92 14 view .LVU2130
.LBE1970:
.LBE1969:
	.loc 61 78 41 view .LVU2131
	testb	%bl, %bl
	je	.L441
	.loc 61 79 12 view .LVU2132
	movq	48(%r12), %rax
	orq	$1, %rax
	.loc 61 79 5 view .LVU2133
	movq	%rax, 48(%r12)
	.loc 61 80 5 view .LVU2134
	cmpq	$1, %rax
	ja	.L442
.LBE1968:
	.loc 61 86 12 view .LVU2135
	movl	$0, %ebx
.L421:
.LVL736:
	.loc 61 86 12 view .LVU2136
.LBE1967:
.LBE1983:
.LBE1998:
	.loc 57 602 3 view .LVU2137
	testb	%bl, %bl
	jne	.L424
	jmp	.L419
.LVL737:
.L441:
.LBB1999:
.LBB1984:
.LBB1982:
.LBB1981:
	.loc 61 78 68 view .LVU2138
	movl	$.LC6, %ecx
	movl	$78, %edx
	movl	$.LC7, %esi
	movl	$.LC8, %edi
	call	__assert_fail
.LVL738:
.L442:
.LBB1971:
.LBI1971:
	.loc 53 80 10 is_stmt 1 view .LVU2139
.LBB1972:
	.loc 53 82 7 view .LVU2140
	cmpb	$0, 24(%rsp)
	je	.L422
	.loc 53 84 9 view .LVU2141
	movq	16(%rsp), %rdx
.LVL739:
.LBB1973:
.LBI1973:
	.loc 53 132 8 view .LVU2142
.LBB1974:
	.loc 53 134 5 view .LVU2143
	cmpb	$0, 48(%rdx)
	jne	.L443
.LVL740:
.L423:
	.loc 53 134 5 is_stmt 0 view .LVU2144
.LBE1974:
.LBE1973:
	.loc 53 85 9 is_stmt 1 view .LVU2145
	.loc 53 85 17 is_stmt 0 view .LVU2146
	movb	$0, 24(%rsp)
.L422:
.LVL741:
	.loc 53 85 17 view .LVU2147
.LBE1972:
.LBE1971:
	.loc 61 83 28 view .LVU2148
	movq	%r12, %rdi
	call	pthread_cond_signal
.LVL742:
	jmp	.L421
.LVL743:
.L443:
.LBB1980:
.LBB1979:
.LBB1978:
.LBB1977:
	.loc 53 135 7 is_stmt 1 view .LVU2149
.LBB1975:
.LBI1975:
	.loc 54 56 8 view .LVU2150
.LBB1976:
	.loc 54 58 5 view .LVU2151
	.loc 54 58 33 is_stmt 0 view .LVU2152
	leaq	8(%rdx), %rdi
.LVL744:
	.loc 54 58 33 view .LVU2153
	call	pthread_mutex_unlock
.LVL745:
	.loc 54 58 33 view .LVU2154
	jmp	.L423
.LVL746:
.L440:
	.loc 54 58 33 view .LVU2155
.LBE1976:
.LBE1975:
.LBE1977:
.LBE1978:
.LBE1979:
.LBE1980:
.LBE1981:
.LBE1982:
.LBE1984:
.LBE1999:
.LBB2000:
.LBB1997:
.LBB1996:
.LBB1995:
.LBB1993:
.LBB1994:
	addq	$8, %rdi
.LVL747:
	.loc 54 58 33 view .LVU2156
	call	pthread_mutex_unlock
.LVL748:
	.loc 54 58 33 view .LVU2157
	jmp	.L426
.LVL749:
.L437:
	.loc 54 58 33 view .LVU2158
.LBE1994:
.LBE1993:
.LBE1995:
.LBE1996:
.LBE1997:
.LBE2000:
.LBE2001:
.LBE2009:
.LBE2012:
.LBE2037:
.LBB2038:
.LBB2035:
.LBB2034:
.LBB2033:
.LBB2032:
.LBB2031:
.LBB2030:
.LBB2029:
.LBB2028:
.LBB2027:
	.loc 38 106 16 view .LVU2159
	movzbl	40(%rdi), %r12d
	.loc 38 106 9 view .LVU2160
	movb	%r12b, (%rdi)
.LVL750:
	.loc 38 107 9 view .LVU2161
	movq	%rdi, (%r11)
	jmp	.L403
.LBE2027:
.LBE2028:
.LBE2029:
.LBE2030:
.LBE2031:
.LBE2032:
.LBE2033:
.LBE2034:
.LBE2035:
.LBE2038:
	.cfi_endproc
.LFE62:
	.size	_ZNK5boost4asio10io_context13executor_type5deferINS0_8executor8functionESaIvEEEvOT_RKT0_, .-_ZNK5boost4asio10io_context13executor_type5deferINS0_8executor8functionESaIvEEEvOT_RKT0_
	.align 2
	.type	_ZN5boost4asio8executor4implINS0_10io_context13executor_typeESaIvEE5deferEONS1_8functionE, @function
_ZN5boost4asio8executor4implINS0_10io_context13executor_typeESaIvEE5deferEONS1_8functionE:
.LVL751:
.LFB64:
	.loc 1 192 8 is_stmt 1 view -0
	.cfi_startproc
	.loc 1 192 8 is_stmt 0 view .LVU2163
	subq	$8, %rsp
	.cfi_def_cfa_offset 16
	.loc 1 194 49 is_stmt 1 view .LVU2164
	leaq	32(%rdi), %rdx
	.loc 1 194 5 view .LVU2165
	addq	$24, %rdi
.LVL752:
	.loc 1 194 5 is_stmt 0 view .LVU2166
	call	_ZNK5boost4asio10io_context13executor_type5deferINS0_8executor8functionESaIvEEEvOT_RKT0_
.LVL753:
	.loc 1 195 3 is_stmt 1 view .LVU2167
	addq	$8, %rsp
	.cfi_def_cfa_offset 8
	ret
	.cfi_endproc
.LFE64:
	.size	_ZN5boost4asio8executor4implINS0_10io_context13executor_typeESaIvEE5deferEONS1_8functionE, .-_ZN5boost4asio8executor4implINS0_10io_context13executor_typeESaIvEE5deferEONS1_8functionE
	.align 2
	.type	_ZNK5boost4asio10io_context13executor_type4postINS0_8executor8functionESaIvEEEvOT_RKT0_, @function
_ZNK5boost4asio10io_context13executor_type4postINS0_8executor8functionESaIvEEEvOT_RKT0_:
.LVL754:
.LFB65:
	.loc 3 282 6 view -0
	.cfi_startproc
	.cfi_personality 0x3,__gxx_personality_v0
	.loc 3 282 6 is_stmt 0 view .LVU2169
	pushq	%r12
	.cfi_def_cfa_offset 16
	.cfi_offset 12, -16
	pushq	%rbp
	.cfi_def_cfa_offset 24
	.cfi_offset 6, -24
	pushq	%rbx
	.cfi_def_cfa_offset 32
	.cfi_offset 3, -32
	subq	$64, %rsp
	.cfi_def_cfa_offset 96
	movq	%rdi, %r12
	movq	%rsi, %rbp
.LVL755:
.LBB2148:
.LBI2148:
	.loc 35 35 97 is_stmt 1 view .LVU2170
.LBB2149:
.LBB2150:
.LBI2150:
	.loc 37 99 15 view .LVU2171
.LBB2151:
.LBI2151:
	.loc 37 78 3 view .LVU2172
	.loc 37 78 3 is_stmt 0 view .LVU2173
.LBE2151:
.LBE2150:
.LBB2152:
.LBI2152:
	.loc 37 46 3 is_stmt 1 view .LVU2174
	.loc 37 46 3 is_stmt 0 view .LVU2175
.LBE2152:
.LBB2153:
.LBI2153:
	.loc 37 50 6 is_stmt 1 view .LVU2176
.LBB2154:
.LBB2155:
.LBI2155:
	.loc 27 106 17 view .LVU2177
.LBB2156:
.LBB2157:
.LBI2157:
	.loc 30 46 3 view .LVU2178
.LBB2158:
	.loc 30 48 12 is_stmt 0 view .LVU2179
	movq	%fs:_ZN5boost4asio6detail15keyword_tss_ptrINS1_10call_stackINS1_14thread_contextENS1_16thread_info_baseEE7contextEE6value_E@tpoff, %rax
.LVL756:
	.loc 30 48 12 view .LVU2180
.LBE2158:
.LBE2157:
	.loc 27 109 17 view .LVU2181
	testq	%rax, %rax
	je	.L447
	movq	8(%rax), %rax
.LVL757:
.L447:
	.loc 27 109 17 view .LVU2182
.LBE2156:
.LBE2155:
.LBB2159:
.LBI2159:
	.loc 38 71 16 is_stmt 1 view .LVU2183
.LBB2160:
.LBB2161:
	.loc 38 76 5 is_stmt 0 view .LVU2184
	testq	%rax, %rax
	je	.L448
	.loc 38 76 53 view .LVU2185
	movq	(%rax), %rbx
	.loc 38 76 21 view .LVU2186
	testq	%rbx, %rbx
	je	.L448
.LVL758:
.LBB2162:
	.loc 38 79 7 view .LVU2187
	movq	$0, (%rax)
.LVL759:
	.loc 38 82 11 view .LVU2188
	movzbl	(%rbx), %edx
.LVL760:
	.loc 38 82 7 view .LVU2189
	cmpb	$9, %dl
	jbe	.L449
	.loc 38 84 9 view .LVU2190
	movb	%dl, 40(%rbx)
	jmp	.L450
.L449:
	.loc 38 88 24 view .LVU2191
	movq	%rbx, %rdi
.LVL761:
	.loc 38 88 24 view .LVU2192
	call	_ZdlPv
.LVL762:
.L448:
	.loc 38 88 24 view .LVU2193
.LBE2162:
.LBE2161:
	.loc 38 91 41 view .LVU2194
	movl	$41, %edi
	call	_Znwm
.LVL763:
	movq	%rax, %rbx
.LVL764:
	.loc 38 93 5 view .LVU2195
	movb	$10, 40(%rax)
.LVL765:
.L450:
	.loc 38 93 5 view .LVU2196
.LBE2160:
.LBE2159:
.LBE2154:
.LBE2153:
.LBE2149:
.LBE2148:
	.loc 63 174 3 is_stmt 1 view .LVU2197
.LBB2163:
.LBI2163:
	.loc 35 38 3 view .LVU2198
.LBB2164:
.LBB2165:
.LBI2165:
	.loc 17 53 3 view .LVU2199
.LBB2166:
	.loc 17 56 21 is_stmt 0 view .LVU2200
	movq	$0, (%rbx)
	movq	$_ZN5boost4asio6detail11executor_opINS0_8executor8functionESaIvENS1_19scheduler_operationEE11do_completeEPvPS6_RKNS_6system10error_codeEm, 8(%rbx)
	movl	$0, 16(%rbx)
.LVL766:
	.loc 17 56 21 view .LVU2201
.LBE2166:
.LBE2165:
.LBB2167:
.LBI2167:
	.loc 1 51 3 is_stmt 1 view .LVU2202
.LBB2168:
	.loc 1 52 19 is_stmt 0 view .LVU2203
	movq	0(%rbp), %rcx
	.loc 1 52 24 view .LVU2204
	movq	%rcx, 24(%rbx)
	.loc 1 54 5 is_stmt 1 view .LVU2205
	.loc 1 54 17 is_stmt 0 view .LVU2206
	movq	$0, 0(%rbp)
.LVL767:
	.loc 1 54 17 view .LVU2207
.LBE2168:
.LBE2167:
.LBE2164:
.LBE2163:
	.loc 3 295 3 view .LVU2208
	movq	(%r12), %rsi
	.loc 3 295 15 view .LVU2209
	movq	8(%rsi), %rbp
.LVL768:
.LBB2169:
.LBI2169:
	.loc 57 324 6 is_stmt 1 view .LVU2210
.LBB2170:
	.loc 57 328 3 view .LVU2211
.LBB2171:
	cmpb	$0, 40(%rbp)
	je	.L451
.LBE2171:
.LBE2170:
.LBE2169:
	.loc 57 330 5 view .LVU2212
.LVL769:
.LBB2255:
.LBB2252:
.LBB2183:
.LBB2172:
.LBB2173:
.LBI2173:
	.loc 27 93 17 view .LVU2213
.LBB2174:
.LBB2175:
.LBI2175:
	.loc 30 46 3 view .LVU2214
.LBB2176:
	.loc 30 48 12 is_stmt 0 view .LVU2215
	movq	%fs:_ZN5boost4asio6detail15keyword_tss_ptrINS1_10call_stackINS1_14thread_contextENS1_16thread_info_baseEE7contextEE6value_E@tpoff, %rdi
.LVL770:
.L454:
	.loc 30 48 12 view .LVU2216
.LBE2176:
.LBE2175:
	.loc 27 96 5 is_stmt 1 view .LVU2217
	testq	%rdi, %rdi
	je	.L452
	.loc 27 98 7 is_stmt 0 view .LVU2218
	cmpq	(%rdi), %rbp
	je	.L479
	.loc 27 100 7 view .LVU2219
	movq	16(%rdi), %rdi
.LVL771:
	.loc 27 100 7 view .LVU2220
	jmp	.L454
.L479:
	.loc 27 99 22 view .LVU2221
	movq	8(%rdi), %rdi
.LVL772:
.L452:
	.loc 27 99 22 view .LVU2222
.LBE2174:
.LBE2173:
	.loc 57 330 5 view .LVU2223
	testq	%rdi, %rdi
	je	.L451
	.loc 57 332 7 is_stmt 1 view .LVU2224
	movq	40(%rdi), %rbp
.LVL773:
	.loc 57 332 7 is_stmt 0 view .LVU2225
	leaq	1(%rbp), %r8
	movq	%r8, 40(%rdi)
.LVL774:
	.loc 57 333 7 is_stmt 1 view .LVU2226
.LBB2177:
.LBI2177:
	.loc 16 105 8 view .LVU2227
.LBB2178:
.LBB2179:
.LBI2179:
	.loc 16 39 15 view .LVU2228
.LBB2180:
	.loc 16 41 5 is_stmt 0 view .LVU2229
	movq	$0, (%rbx)
.LVL775:
	.loc 16 41 5 view .LVU2230
.LBE2180:
.LBE2179:
	.loc 16 108 9 view .LVU2231
	movq	32(%rdi), %r9
	.loc 16 108 5 view .LVU2232
	testq	%r9, %r9
	je	.L455
.LVL776:
.LBB2181:
.LBI2181:
	.loc 16 39 15 is_stmt 1 view .LVU2233
.LBB2182:
	.loc 16 41 5 is_stmt 0 view .LVU2234
	movq	%rbx, (%r9)
.LVL777:
	.loc 16 41 5 view .LVU2235
.LBE2182:
.LBE2181:
	.loc 16 111 7 view .LVU2236
	movq	%rbx, 32(%rdi)
	jmp	.L457
.L455:
	.loc 16 115 7 view .LVU2237
	movq	%rbx, 32(%rdi)
	movq	%rbx, 24(%rdi)
.LVL778:
	.loc 16 115 7 view .LVU2238
.LBE2178:
.LBE2177:
	.loc 57 334 7 is_stmt 1 view .LVU2239
	jmp	.L457
.LVL779:
.L451:
	.loc 57 334 7 is_stmt 0 view .LVU2240
.LBE2172:
.LBE2183:
	.loc 57 341 3 is_stmt 1 view .LVU2241
.LBB2184:
.LBI2184:
	.loc 58 86 8 view .LVU2242
.LBE2184:
.LBE2252:
.LBE2255:
	.loc 58 88 5 view .LVU2243
.LBB2256:
.LBB2253:
.LBB2187:
.LBB2185:
.LBI2185:
	.loc 50 318 7 view .LVU2244
.LBB2186:
	.loc 50 319 36 is_stmt 0 view .LVU2245
	leaq	208(%rbp), %r8
.LVL780:
	.loc 50 319 34 view .LVU2246
	lock addq	$1, (%r8)
.LVL781:
	.loc 50 319 34 view .LVU2247
.LBE2186:
.LBE2185:
.LBE2187:
	.loc 57 342 3 is_stmt 1 view .LVU2248
	.loc 57 342 27 is_stmt 0 view .LVU2249
	leaq	48(%rbp), %r9
.LVL782:
.LBB2188:
.LBI2188:
	.loc 53 50 14 is_stmt 1 view .LVU2250
.LBB2189:
.LBB2190:
.LBB2191:
.LBI2191:
	.loc 51 29 3 view .LVU2251
	.loc 51 29 3 is_stmt 0 view .LVU2252
.LBE2191:
	.loc 53 51 17 view .LVU2253
	movq	%r9, 16(%rsp)
	.loc 53 53 7 is_stmt 1 view .LVU2254
	cmpb	$0, 96(%rbp)
	jne	.L480
	.loc 53 59 9 view .LVU2255
	.loc 53 59 17 is_stmt 0 view .LVU2256
	movb	$0, 24(%rsp)
.LVL783:
.L459:
	.loc 53 59 17 view .LVU2257
.LBE2190:
.LBE2189:
.LBE2188:
	.loc 57 343 3 is_stmt 1 view .LVU2258
.LBB2196:
.LBI2196:
	.loc 16 105 8 view .LVU2259
.LBB2197:
.LBB2198:
.LBI2198:
	.loc 16 39 15 view .LVU2260
.LBB2199:
	.loc 16 41 5 is_stmt 0 view .LVU2261
	movq	$0, (%rbx)
.LVL784:
	.loc 16 41 5 view .LVU2262
.LBE2199:
.LBE2198:
	.loc 16 108 9 view .LVU2263
	movq	224(%rbp), %r10
	.loc 16 108 5 view .LVU2264
	testq	%r10, %r10
	je	.L460
.LVL785:
.LBB2200:
.LBI2200:
	.loc 16 39 15 is_stmt 1 view .LVU2265
.LBB2201:
	.loc 16 41 5 is_stmt 0 view .LVU2266
	movq	%rbx, (%r10)
.LVL786:
	.loc 16 41 5 view .LVU2267
.LBE2201:
.LBE2200:
	.loc 16 111 7 view .LVU2268
	movq	%rbx, 224(%rbp)
.L461:
.LVL787:
	.loc 16 111 7 view .LVU2269
.LBE2197:
.LBE2196:
	.loc 57 344 3 is_stmt 1 view .LVU2270
.LBB2203:
.LBI2203:
	.loc 57 599 6 view .LVU2271
.LBB2204:
.LBB2205:
.LBB2206:
	.loc 59 72 5 is_stmt 0 view .LVU2272
	movq	16(%rsp), %r11
	cmpb	$0, 48(%r11)
	jne	.L481
.LVL788:
.L462:
	.loc 59 72 5 view .LVU2273
.LBE2206:
.LBE2205:
	.loc 57 604 5 view .LVU2274
	cmpb	$0, 200(%rbp)
	jne	.L468
	.loc 57 604 31 view .LVU2275
	movq	168(%rbp), %rcx
	.loc 57 604 28 view .LVU2276
	testq	%rcx, %rcx
	je	.L468
	.loc 57 606 25 view .LVU2277
	movb	$1, 200(%rbp)
.LVL789:
.LBB2225:
.LBB2226:
	.loc 52 571 13 view .LVU2278
	movl	$-2147483639, 4(%rsp)
	.loc 52 572 17 view .LVU2279
	leaq	104(%rcx), %rdx
	.loc 52 572 15 view .LVU2280
	movq	%rdx, 8(%rsp)
.LVL790:
.LBB2227:
.LBB2228:
	.loc 60 50 12 view .LVU2281
	movl	104(%rcx), %edx
.LVL791:
	.loc 60 50 12 view .LVU2282
.LBE2228:
.LBE2227:
	.loc 52 573 12 view .LVU2283
	movl	112(%rcx), %edi
	leaq	4(%rsp), %rcx
.LVL792:
	.loc 52 573 12 view .LVU2284
	movl	$3, %esi
	call	epoll_ctl
.LVL793:
.L468:
	.loc 52 573 12 view .LVU2285
.LBE2226:
.LBE2225:
.LBB2229:
.LBB2230:
	.loc 53 82 7 view .LVU2286
	cmpb	$0, 24(%rsp)
	je	.L467
	.loc 53 84 9 view .LVU2287
	movq	16(%rsp), %rdi
.LVL794:
.LBB2231:
.LBB2232:
	.loc 53 134 5 view .LVU2288
	cmpb	$0, 48(%rdi)
	jne	.L482
.LVL795:
.L469:
	.loc 53 134 5 view .LVU2289
.LBE2232:
.LBE2231:
	.loc 53 85 17 view .LVU2290
	movb	$0, 24(%rsp)
.LVL796:
.L467:
	.loc 53 85 17 view .LVU2291
.LBE2230:
.LBE2229:
.LBE2204:
.LBE2203:
.LBB2242:
.LBI2242:
	.loc 53 63 5 is_stmt 1 view .LVU2292
.LBB2243:
	.loc 53 65 7 view .LVU2293
	cmpb	$0, 24(%rsp)
	jne	.L483
.LVL797:
.L457:
	.loc 53 65 7 is_stmt 0 view .LVU2294
.LBE2243:
.LBE2242:
.LBE2253:
.LBE2256:
	.loc 3 296 3 view .LVU2295
	movq	$0, 48(%rsp)
	movq	$0, 40(%rsp)
.LVL798:
.LBB2257:
.LBI2257:
	.loc 35 35 57 is_stmt 1 view .LVU2296
.LBB2258:
.LBI2258:
	.loc 35 35 528 view .LVU2297
.LBB2259:
.LBB2260:
	.loc 35 35 579 is_stmt 0 view .LVU2298
	movl	$0, %edi
	.loc 35 35 575 view .LVU2299
	testq	%rdi, %rdi
	je	.L446
.LVL799:
.LBB2261:
.LBB2262:
.LBI2262:
	.loc 37 58 8 is_stmt 1 view .LVU2300
.LBB2263:
.LBI2263:
	.loc 27 106 17 view .LVU2301
.LBB2264:
.LBB2265:
.LBI2265:
	.loc 30 46 3 view .LVU2302
.LBB2266:
	.loc 30 48 12 is_stmt 0 view .LVU2303
	movq	%fs:_ZN5boost4asio6detail15keyword_tss_ptrINS1_10call_stackINS1_14thread_contextENS1_16thread_info_baseEE7contextEE6value_E@tpoff, %r10
.LVL800:
	.loc 30 48 12 view .LVU2304
.LBE2266:
.LBE2265:
	.loc 27 109 17 view .LVU2305
	testq	%r10, %r10
	je	.L474
	movq	8(%r10), %r10
.LVL801:
.L474:
	.loc 27 109 17 view .LVU2306
.LBE2264:
.LBE2263:
.LBB2267:
.LBI2267:
	.loc 38 98 15 is_stmt 1 view .LVU2307
.LBB2268:
.LBB2269:
	.loc 38 103 7 is_stmt 0 view .LVU2308
	testq	%r10, %r10
	je	.L475
	.loc 38 103 23 view .LVU2309
	cmpq	$0, (%r10)
	je	.L484
.L475:
	.loc 38 103 23 view .LVU2310
.LBE2269:
	.loc 38 112 22 view .LVU2311
	call	_ZdlPv
.LVL802:
.L446:
	.loc 38 112 22 view .LVU2312
.LBE2268:
.LBE2267:
.LBE2262:
.LBE2261:
.LBE2260:
.LBE2259:
.LBE2258:
.LBE2257:
	.loc 3 297 1 view .LVU2313
	addq	$64, %rsp
	.cfi_remember_state
	.cfi_def_cfa_offset 32
	popq	%rbx
	.cfi_def_cfa_offset 24
	popq	%rbp
	.cfi_def_cfa_offset 16
	popq	%r12
	.cfi_def_cfa_offset 8
	ret
.LVL803:
.L480:
	.cfi_restore_state
.LBB2279:
.LBB2254:
.LBB2248:
.LBB2195:
.LBB2194:
	.loc 53 55 9 is_stmt 1 view .LVU2314
.LBB2192:
.LBI2192:
	.loc 54 50 8 view .LVU2315
.LBB2193:
	.loc 54 52 5 view .LVU2316
	.loc 54 52 31 is_stmt 0 view .LVU2317
	leaq	56(%rbp), %rdi
	call	pthread_mutex_lock
.LVL804:
	.loc 54 52 31 view .LVU2318
.LBE2193:
.LBE2192:
	.loc 53 56 9 is_stmt 1 view .LVU2319
	.loc 53 56 17 is_stmt 0 view .LVU2320
	movb	$1, 24(%rsp)
	jmp	.L459
.LVL805:
.L460:
	.loc 53 56 17 view .LVU2321
.LBE2194:
.LBE2195:
.LBE2248:
.LBB2249:
.LBB2202:
	.loc 16 115 7 view .LVU2322
	movq	%rbx, 224(%rbp)
	movq	%rbx, 216(%rbp)
	jmp	.L461
.LVL806:
.L481:
	.loc 16 115 7 view .LVU2323
.LBE2202:
.LBE2249:
.LBB2250:
.LBB2241:
.LBB2238:
.LBB2223:
	.loc 59 73 48 view .LVU2324
	leaq	112(%rbp), %r12
.LVL807:
.LBB2207:
.LBI2207:
	.loc 61 76 8 is_stmt 1 view .LVU2325
.LBB2208:
.LBB2209:
.LBI2209:
	.loc 53 90 10 view .LVU2326
.LBB2210:
	.loc 53 92 7 view .LVU2327
	.loc 53 92 14 is_stmt 0 view .LVU2328
	movzbl	24(%rsp), %ebx
.LVL808:
	.loc 53 92 14 view .LVU2329
.LBE2210:
.LBE2209:
	.loc 61 78 41 view .LVU2330
	testb	%bl, %bl
	je	.L485
	.loc 61 79 12 view .LVU2331
	movq	48(%r12), %rax
	orq	$1, %rax
	.loc 61 79 5 view .LVU2332
	movq	%rax, 48(%r12)
	.loc 61 80 5 view .LVU2333
	cmpq	$1, %rax
	ja	.L486
.LBE2208:
	.loc 61 86 12 view .LVU2334
	movl	$0, %ebx
.L464:
.LVL809:
	.loc 61 86 12 view .LVU2335
.LBE2207:
.LBE2223:
.LBE2238:
	.loc 57 602 3 view .LVU2336
	testb	%bl, %bl
	jne	.L467
	jmp	.L462
.LVL810:
.L485:
.LBB2239:
.LBB2224:
.LBB2222:
.LBB2221:
	.loc 61 78 68 view .LVU2337
	movl	$.LC6, %ecx
	movl	$78, %edx
	movl	$.LC7, %esi
	movl	$.LC8, %edi
	call	__assert_fail
.LVL811:
.L486:
.LBB2211:
.LBI2211:
	.loc 53 80 10 is_stmt 1 view .LVU2338
.LBB2212:
	.loc 53 82 7 view .LVU2339
	cmpb	$0, 24(%rsp)
	je	.L465
	.loc 53 84 9 view .LVU2340
	movq	16(%rsp), %rdi
.LVL812:
.LBB2213:
.LBI2213:
	.loc 53 132 8 view .LVU2341
.LBB2214:
	.loc 53 134 5 view .LVU2342
	cmpb	$0, 48(%rdi)
	jne	.L487
.LVL813:
.L466:
	.loc 53 134 5 is_stmt 0 view .LVU2343
.LBE2214:
.LBE2213:
	.loc 53 85 9 is_stmt 1 view .LVU2344
	.loc 53 85 17 is_stmt 0 view .LVU2345
	movb	$0, 24(%rsp)
.L465:
.LVL814:
	.loc 53 85 17 view .LVU2346
.LBE2212:
.LBE2211:
	.loc 61 83 28 view .LVU2347
	movq	%r12, %rdi
	call	pthread_cond_signal
.LVL815:
	jmp	.L464
.LVL816:
.L487:
.LBB2220:
.LBB2219:
.LBB2218:
.LBB2217:
	.loc 53 135 7 is_stmt 1 view .LVU2348
.LBB2215:
.LBI2215:
	.loc 54 56 8 view .LVU2349
.LBB2216:
	.loc 54 58 5 view .LVU2350
	.loc 54 58 33 is_stmt 0 view .LVU2351
	addq	$8, %rdi
.LVL817:
	.loc 54 58 33 view .LVU2352
	call	pthread_mutex_unlock
.LVL818:
	.loc 54 58 33 view .LVU2353
	jmp	.L466
.LVL819:
.L482:
	.loc 54 58 33 view .LVU2354
.LBE2216:
.LBE2215:
.LBE2217:
.LBE2218:
.LBE2219:
.LBE2220:
.LBE2221:
.LBE2222:
.LBE2224:
.LBE2239:
.LBB2240:
.LBB2237:
.LBB2236:
.LBB2235:
.LBB2233:
.LBB2234:
	addq	$8, %rdi
.LVL820:
	.loc 54 58 33 view .LVU2355
	call	pthread_mutex_unlock
.LVL821:
	.loc 54 58 33 view .LVU2356
	jmp	.L469
.LVL822:
.L483:
	.loc 54 58 33 view .LVU2357
.LBE2234:
.LBE2233:
.LBE2235:
.LBE2236:
.LBE2237:
.LBE2240:
.LBE2241:
.LBE2250:
.LBB2251:
.LBB2247:
	.loc 53 66 9 is_stmt 1 view .LVU2358
.LBB2244:
.LBI2244:
	.loc 54 56 8 view .LVU2359
.LBB2245:
	.loc 54 58 5 view .LVU2360
	.loc 54 58 33 is_stmt 0 view .LVU2361
	movq	16(%rsp), %rsi
	leaq	8(%rsi), %rdi
.LVL823:
	.loc 54 58 33 view .LVU2362
	call	pthread_mutex_unlock
.LVL824:
	.loc 54 58 33 view .LVU2363
.LBE2245:
.LBE2244:
.LBB2246:
.LBI2246:
	.loc 51 30 3 is_stmt 1 view .LVU2364
	.loc 51 30 3 is_stmt 0 view .LVU2365
	jmp	.L457
.LVL825:
.L484:
	.loc 51 30 3 view .LVU2366
.LBE2246:
.LBE2247:
.LBE2251:
.LBE2254:
.LBE2279:
.LBB2280:
.LBB2278:
.LBB2277:
.LBB2276:
.LBB2275:
.LBB2274:
.LBB2273:
.LBB2272:
.LBB2271:
.LBB2270:
	.loc 38 106 16 view .LVU2367
	movzbl	40(%rdi), %r11d
	.loc 38 106 9 view .LVU2368
	movb	%r11b, (%rdi)
.LVL826:
	.loc 38 107 9 view .LVU2369
	movq	%rdi, (%r10)
	jmp	.L446
.LBE2270:
.LBE2271:
.LBE2272:
.LBE2273:
.LBE2274:
.LBE2275:
.LBE2276:
.LBE2277:
.LBE2278:
.LBE2280:
	.cfi_endproc
.LFE65:
	.size	_ZNK5boost4asio10io_context13executor_type4postINS0_8executor8functionESaIvEEEvOT_RKT0_, .-_ZNK5boost4asio10io_context13executor_type4postINS0_8executor8functionESaIvEEEvOT_RKT0_
	.align 2
	.type	_ZN5boost4asio8executor4implINS0_10io_context13executor_typeESaIvEE4postEONS1_8functionE, @function
_ZN5boost4asio8executor4implINS0_10io_context13executor_typeESaIvEE4postEONS1_8functionE:
.LVL827:
.LFB66:
	.loc 1 187 8 is_stmt 1 view -0
	.cfi_startproc
	.loc 1 187 8 is_stmt 0 view .LVU2371
	subq	$8, %rsp
	.cfi_def_cfa_offset 16
	.loc 1 189 48 is_stmt 1 view .LVU2372
	leaq	32(%rdi), %rdx
	.loc 1 189 5 view .LVU2373
	addq	$24, %rdi
.LVL828:
	.loc 1 189 5 is_stmt 0 view .LVU2374
	call	_ZNK5boost4asio10io_context13executor_type4postINS0_8executor8functionESaIvEEEvOT_RKT0_
.LVL829:
	.loc 1 190 3 is_stmt 1 view .LVU2375
	addq	$8, %rsp
	.cfi_def_cfa_offset 8
	ret
	.cfi_endproc
.LFE66:
	.size	_ZN5boost4asio8executor4implINS0_10io_context13executor_typeESaIvEE4postEONS1_8functionE, .-_ZN5boost4asio8executor4implINS0_10io_context13executor_typeESaIvEE4postEONS1_8functionE
	.align 2
	.type	_ZNK5boost4asio10io_context13executor_type8dispatchINS0_8executor8functionESaIvEEEvOT_RKT0_, @function
_ZNK5boost4asio10io_context13executor_type8dispatchINS0_8executor8functionESaIvEEEvOT_RKT0_:
.LVL830:
.LFB67:
	.loc 3 253 6 view -0
	.cfi_startproc
	.cfi_personality 0x3,__gxx_personality_v0
	.cfi_lsda 0x3,.LLSDA67
	.loc 3 253 6 is_stmt 0 view .LVU2377
	pushq	%r12
	.cfi_def_cfa_offset 16
	.cfi_offset 12, -16
	pushq	%rbp
	.cfi_def_cfa_offset 24
	.cfi_offset 6, -24
	pushq	%rbx
	.cfi_def_cfa_offset 32
	.cfi_offset 3, -32
	subq	$64, %rsp
	.cfi_def_cfa_offset 96
	movq	%rdi, %r12
	movq	%rsi, %rbp
.LBB2421:
	.loc 3 259 7 view .LVU2378
	movq	(%rdi), %rax
	.loc 3 259 19 view .LVU2379
	movq	8(%rax), %rdx
.LVL831:
.LBB2422:
.LBI2422:
	.loc 58 103 8 is_stmt 1 view .LVU2380
.LBE2422:
.LBE2421:
	.loc 58 105 5 view .LVU2381
.LBB2469:
.LBB2429:
.LBB2423:
.LBI2423:
	.loc 27 93 17 view .LVU2382
.LBB2424:
.LBB2425:
.LBI2425:
	.loc 30 46 3 view .LVU2383
.LBB2426:
	.loc 30 48 12 is_stmt 0 view .LVU2384
	movq	%fs:_ZN5boost4asio6detail15keyword_tss_ptrINS1_10call_stackINS1_14thread_contextENS1_16thread_info_baseEE7contextEE6value_E@tpoff, %rcx
.LVL832:
	.loc 30 48 12 view .LVU2385
.LBE2426:
.LBE2425:
.LBE2424:
.LBE2423:
.LBE2429:
.LBE2469:
	.loc 27 95 14 view .LVU2386
	movq	%rcx, %rbx
.LVL833:
.L493:
.LBB2470:
.LBB2430:
.LBB2428:
.LBB2427:
	.loc 27 96 5 is_stmt 1 view .LVU2387
	testq	%rbx, %rbx
	je	.L491
	.loc 27 98 7 is_stmt 0 view .LVU2388
	cmpq	(%rbx), %rdx
	je	.L532
	.loc 27 100 7 view .LVU2389
	movq	16(%rbx), %rbx
.LVL834:
	.loc 27 100 7 view .LVU2390
	jmp	.L493
.L532:
	.loc 27 99 22 view .LVU2391
	movq	8(%rbx), %rbx
.LVL835:
.L491:
	.loc 27 99 22 view .LVU2392
.LBE2427:
.LBE2428:
.LBE2430:
	.loc 3 259 3 view .LVU2393
	testq	%rbx, %rbx
	je	.L494
.LVL836:
.LBB2431:
.LBB2432:
.LBI2432:
	.loc 1 51 3 is_stmt 1 view .LVU2394
.LBB2433:
.LBB2434:
	.loc 1 52 19 is_stmt 0 view .LVU2395
	movq	0(%rbp), %rdx
	.loc 1 52 24 view .LVU2396
	movq	%rdx, 16(%rsp)
	.loc 1 54 5 is_stmt 1 view .LVU2397
	.loc 1 54 17 is_stmt 0 view .LVU2398
	movq	$0, 0(%rbp)
.LVL837:
	.loc 1 54 17 view .LVU2399
.LBE2434:
.LBE2433:
.LBE2432:
.LBB2435:
.LBI2435:
	.loc 49 44 12 is_stmt 1 view .LVU2400
.LBB2436:
.LBI2436:
	.loc 51 29 3 view .LVU2401
	.loc 51 29 3 is_stmt 0 view .LVU2402
.LBE2436:
.LBE2435:
.LBE2431:
.LBE2470:
	.loc 49 46 5 is_stmt 1 view .LVU2403
.LBB2471:
.LBB2464:
.LBB2439:
.LBB2437:
.LBI2437:
	.loc 50 120 3 view .LVU2404
.LBB2438:
	.loc 50 121 5 view .LVU2405
	.loc 50 121 26 is_stmt 0 view .LVU2406
.LVL838:
	.loc 50 121 26 view .LVU2407
.LBE2438:
.LBE2437:
.LBE2439:
.LBB2440:
.LBI2440:
	.loc 12 30 13 is_stmt 1 view .LVU2408
.LBB2441:
.LBI2441:
	.loc 13 67 13 view .LVU2409
.LBB2442:
.LBI2442:
	.loc 1 63 8 view .LVU2410
.LBE2442:
.LBE2441:
.LBE2440:
.LBE2464:
.LBE2471:
	.loc 1 65 5 view .LVU2411
.LBB2472:
.LBB2465:
.LBB2449:
.LBB2448:
.LBB2447:
.LBB2443:
	testq	%rdx, %rdx
	je	.L495
.LBB2444:
	.loc 1 67 7 view .LVU2412
.LVL839:
	.loc 1 68 7 view .LVU2413
	.loc 1 68 13 is_stmt 0 view .LVU2414
	movq	$0, 16(%rsp)
	.loc 1 69 7 is_stmt 1 view .LVU2415
.LVL840:
.LBB2445:
.LBI2445:
	.loc 36 30 8 view .LVU2416
.LBB2446:
	.loc 36 32 5 view .LVU2417
	.loc 36 32 10 is_stmt 0 view .LVU2418
	movl	$1, %esi
.LVL841:
	.loc 36 32 10 view .LVU2419
	movq	%rdx, %rdi
.LVL842:
.LEHB11:
	.loc 36 32 10 view .LVU2420
	call	*(%rdx)
.LVL843:
.LEHE11:
.L495:
	.loc 36 32 10 view .LVU2421
.LBE2446:
.LBE2445:
.LBE2444:
.LBE2443:
.LBE2447:
.LBE2448:
.LBE2449:
.LBB2450:
.LBI2450:
	.loc 49 50 3 is_stmt 1 view .LVU2422
.LBE2450:
.LBE2465:
.LBE2472:
	.loc 49 52 5 view .LVU2423
.LBB2473:
.LBB2466:
.LBB2454:
.LBB2451:
.LBI2451:
	.loc 50 120 3 view .LVU2424
.LBB2452:
	.loc 50 121 5 view .LVU2425
	.loc 50 121 26 is_stmt 0 view .LVU2426
.LVL844:
	.loc 50 121 26 view .LVU2427
.LBE2452:
.LBE2451:
.LBB2453:
.LBI2453:
	.loc 51 30 3 is_stmt 1 view .LVU2428
	.loc 51 30 3 is_stmt 0 view .LVU2429
.LBE2453:
.LBE2454:
.LBB2455:
.LBI2455:
	.loc 1 57 3 is_stmt 1 view .LVU2430
.LBB2456:
	.loc 1 59 5 view .LVU2431
	.loc 1 59 9 is_stmt 0 view .LVU2432
	movq	16(%rsp), %rbx
	.loc 1 59 5 view .LVU2433
	testq	%rbx, %rbx
	je	.L490
	.loc 1 60 7 is_stmt 1 view .LVU2434
.LVL845:
.LBB2457:
.LBI2457:
	.loc 36 35 8 view .LVU2435
.LBB2458:
	.loc 36 37 5 view .LVU2436
	.loc 36 37 10 is_stmt 0 view .LVU2437
	movl	$0, %esi
	movq	%rbx, %rdi
	call	*(%rbx)
.LVL846:
.L490:
	.loc 36 37 10 view .LVU2438
.LBE2458:
.LBE2457:
.LBE2456:
.LBE2455:
.LBE2466:
.LBE2473:
	.loc 3 279 1 view .LVU2439
	addq	$64, %rsp
	.cfi_remember_state
	.cfi_def_cfa_offset 32
	popq	%rbx
	.cfi_def_cfa_offset 24
	popq	%rbp
	.cfi_def_cfa_offset 16
	popq	%r12
	.cfi_def_cfa_offset 8
	ret
.LVL847:
.L494:
	.cfi_restore_state
.LBB2474:
.LBI2474:
	.loc 35 35 97 is_stmt 1 view .LVU2440
.LBB2475:
.LBB2476:
.LBI2476:
	.loc 37 99 15 view .LVU2441
.LBB2477:
.LBI2477:
	.loc 37 78 3 view .LVU2442
	.loc 37 78 3 is_stmt 0 view .LVU2443
.LBE2477:
.LBE2476:
.LBB2478:
.LBI2478:
	.loc 37 46 3 is_stmt 1 view .LVU2444
	.loc 37 46 3 is_stmt 0 view .LVU2445
.LBE2478:
.LBB2479:
.LBI2479:
	.loc 37 50 6 is_stmt 1 view .LVU2446
.LBB2480:
.LBB2481:
.LBI2481:
	.loc 27 106 17 view .LVU2447
.LBB2482:
	.loc 27 109 17 is_stmt 0 view .LVU2448
	testq	%rcx, %rcx
	je	.L498
	movq	8(%rcx), %rcx
.LVL848:
.L498:
	.loc 27 109 17 view .LVU2449
.LBE2482:
.LBE2481:
.LBB2483:
.LBI2483:
	.loc 38 71 16 is_stmt 1 view .LVU2450
.LBB2484:
.LBB2485:
	.loc 38 76 5 is_stmt 0 view .LVU2451
	testq	%rcx, %rcx
	je	.L499
	.loc 38 76 53 view .LVU2452
	movq	(%rcx), %rbx
	.loc 38 76 21 view .LVU2453
	testq	%rbx, %rbx
	je	.L499
.LVL849:
.LBB2486:
	.loc 38 79 7 view .LVU2454
	movq	$0, (%rcx)
.LVL850:
	.loc 38 82 11 view .LVU2455
	movzbl	(%rbx), %esi
.LVL851:
	.loc 38 82 7 view .LVU2456
	cmpb	$9, %sil
	jbe	.L500
	.loc 38 84 9 view .LVU2457
	movb	%sil, 40(%rbx)
	jmp	.L501
.L500:
	.loc 38 88 24 view .LVU2458
	movq	%rbx, %rdi
.LVL852:
	.loc 38 88 24 view .LVU2459
	call	_ZdlPv
.LVL853:
.L499:
	.loc 38 88 24 view .LVU2460
.LBE2486:
.LBE2485:
	.loc 38 91 41 view .LVU2461
	movl	$41, %edi
.LEHB12:
	call	_Znwm
.LVL854:
	movq	%rax, %rbx
.LVL855:
	.loc 38 93 5 view .LVU2462
	movb	$10, 40(%rax)
.LVL856:
.L501:
	.loc 38 93 5 view .LVU2463
.LBE2484:
.LBE2483:
.LBE2480:
.LBE2479:
.LBE2475:
.LBE2474:
	.loc 63 174 3 is_stmt 1 view .LVU2464
.LBB2487:
.LBI2487:
	.loc 35 38 3 view .LVU2465
.LBB2488:
.LBB2489:
.LBI2489:
	.loc 17 53 3 view .LVU2466
.LBB2490:
	.loc 17 56 21 is_stmt 0 view .LVU2467
	movq	$0, (%rbx)
	movq	$_ZN5boost4asio6detail11executor_opINS0_8executor8functionESaIvENS1_19scheduler_operationEE11do_completeEPvPS6_RKNS_6system10error_codeEm, 8(%rbx)
	movl	$0, 16(%rbx)
.LVL857:
	.loc 17 56 21 view .LVU2468
.LBE2490:
.LBE2489:
.LBB2491:
.LBI2491:
	.loc 1 51 3 is_stmt 1 view .LVU2469
.LBB2492:
	.loc 1 52 19 is_stmt 0 view .LVU2470
	movq	0(%rbp), %rdi
	.loc 1 52 24 view .LVU2471
	movq	%rdi, 24(%rbx)
	.loc 1 54 5 is_stmt 1 view .LVU2472
	.loc 1 54 17 is_stmt 0 view .LVU2473
	movq	$0, 0(%rbp)
.LVL858:
	.loc 1 54 17 view .LVU2474
.LBE2492:
.LBE2491:
.LBE2488:
.LBE2487:
	.loc 3 277 3 view .LVU2475
	movq	(%r12), %r8
	.loc 3 277 15 view .LVU2476
	movq	8(%r8), %rbp
.LVL859:
.LBB2493:
.LBI2493:
	.loc 57 324 6 is_stmt 1 view .LVU2477
.LBB2494:
	.loc 57 328 3 view .LVU2478
.LBB2495:
	cmpb	$0, 40(%rbp)
	je	.L502
.LBE2495:
.LBE2494:
.LBE2493:
	.loc 57 330 5 view .LVU2479
.LVL860:
.LBB2579:
.LBB2576:
.LBB2507:
.LBB2496:
.LBB2497:
.LBI2497:
	.loc 27 93 17 view .LVU2480
.LBB2498:
.LBB2499:
.LBI2499:
	.loc 30 46 3 view .LVU2481
.LBB2500:
	.loc 30 48 12 is_stmt 0 view .LVU2482
	movq	%fs:_ZN5boost4asio6detail15keyword_tss_ptrINS1_10call_stackINS1_14thread_contextENS1_16thread_info_baseEE7contextEE6value_E@tpoff, %r9
.LVL861:
.L505:
	.loc 30 48 12 view .LVU2483
.LBE2500:
.LBE2499:
	.loc 27 96 5 is_stmt 1 view .LVU2484
	testq	%r9, %r9
	je	.L503
	.loc 27 98 7 is_stmt 0 view .LVU2485
	cmpq	(%r9), %rbp
	je	.L533
	.loc 27 100 7 view .LVU2486
	movq	16(%r9), %r9
.LVL862:
	.loc 27 100 7 view .LVU2487
	jmp	.L505
.L533:
	.loc 27 99 22 view .LVU2488
	movq	8(%r9), %r9
.LVL863:
.L503:
	.loc 27 99 22 view .LVU2489
.LBE2498:
.LBE2497:
	.loc 57 330 5 view .LVU2490
	testq	%r9, %r9
	je	.L502
	.loc 57 332 7 is_stmt 1 view .LVU2491
	movq	40(%r9), %r10
	leaq	1(%r10), %r11
	movq	%r11, 40(%r9)
	.loc 57 333 7 view .LVU2492
.LVL864:
.LBB2501:
.LBI2501:
	.loc 16 105 8 view .LVU2493
.LBB2502:
.LBB2503:
.LBI2503:
	.loc 16 39 15 view .LVU2494
.LBB2504:
	.loc 16 41 5 is_stmt 0 view .LVU2495
	movq	$0, (%rbx)
.LVL865:
	.loc 16 41 5 view .LVU2496
.LBE2504:
.LBE2503:
	.loc 16 108 9 view .LVU2497
	movq	32(%r9), %rax
	.loc 16 108 5 view .LVU2498
	testq	%rax, %rax
	je	.L506
.LVL866:
.LBB2505:
.LBI2505:
	.loc 16 39 15 is_stmt 1 view .LVU2499
.LBB2506:
	.loc 16 41 5 is_stmt 0 view .LVU2500
	movq	%rbx, (%rax)
.LVL867:
	.loc 16 41 5 view .LVU2501
.LBE2506:
.LBE2505:
	.loc 16 111 7 view .LVU2502
	movq	%rbx, 32(%r9)
	jmp	.L508
.L506:
	.loc 16 115 7 view .LVU2503
	movq	%rbx, 32(%r9)
	movq	%rbx, 24(%r9)
.LVL868:
	.loc 16 115 7 view .LVU2504
.LBE2502:
.LBE2501:
	.loc 57 334 7 is_stmt 1 view .LVU2505
	jmp	.L508
.LVL869:
.L502:
	.loc 57 334 7 is_stmt 0 view .LVU2506
.LBE2496:
.LBE2507:
	.loc 57 341 3 is_stmt 1 view .LVU2507
.LBB2508:
.LBI2508:
	.loc 58 86 8 view .LVU2508
.LBE2508:
.LBE2576:
.LBE2579:
	.loc 58 88 5 view .LVU2509
.LBB2580:
.LBB2577:
.LBB2511:
.LBB2509:
.LBI2509:
	.loc 50 318 7 view .LVU2510
.LBB2510:
	.loc 50 319 36 is_stmt 0 view .LVU2511
	leaq	208(%rbp), %r10
.LVL870:
	.loc 50 319 34 view .LVU2512
	lock addq	$1, (%r10)
.LVL871:
	.loc 50 319 34 view .LVU2513
.LBE2510:
.LBE2509:
.LBE2511:
	.loc 57 342 3 is_stmt 1 view .LVU2514
	.loc 57 342 27 is_stmt 0 view .LVU2515
	leaq	48(%rbp), %r11
.LVL872:
.LBB2512:
.LBI2512:
	.loc 53 50 14 is_stmt 1 view .LVU2516
.LBB2513:
.LBB2514:
.LBB2515:
.LBI2515:
	.loc 51 29 3 view .LVU2517
	.loc 51 29 3 is_stmt 0 view .LVU2518
.LBE2515:
	.loc 53 51 17 view .LVU2519
	movq	%r11, 16(%rsp)
	.loc 53 53 7 is_stmt 1 view .LVU2520
	cmpb	$0, 96(%rbp)
	jne	.L534
	.loc 53 59 9 view .LVU2521
	.loc 53 59 17 is_stmt 0 view .LVU2522
	movb	$0, 24(%rsp)
.LVL873:
.L510:
	.loc 53 59 17 view .LVU2523
.LBE2514:
.LBE2513:
.LBE2512:
	.loc 57 343 3 is_stmt 1 view .LVU2524
.LBB2520:
.LBI2520:
	.loc 16 105 8 view .LVU2525
.LBB2521:
.LBB2522:
.LBI2522:
	.loc 16 39 15 view .LVU2526
.LBB2523:
	.loc 16 41 5 is_stmt 0 view .LVU2527
	movq	$0, (%rbx)
.LVL874:
	.loc 16 41 5 view .LVU2528
.LBE2523:
.LBE2522:
	.loc 16 108 9 view .LVU2529
	movq	224(%rbp), %r12
.LVL875:
	.loc 16 108 5 view .LVU2530
	testq	%r12, %r12
	je	.L511
.LVL876:
.LBB2524:
.LBI2524:
	.loc 16 39 15 is_stmt 1 view .LVU2531
.LBB2525:
	.loc 16 41 5 is_stmt 0 view .LVU2532
	movq	%rbx, (%r12)
.LVL877:
	.loc 16 41 5 view .LVU2533
.LBE2525:
.LBE2524:
	.loc 16 111 7 view .LVU2534
	movq	%rbx, 224(%rbp)
.L512:
.LVL878:
	.loc 16 111 7 view .LVU2535
.LBE2521:
.LBE2520:
	.loc 57 344 3 is_stmt 1 view .LVU2536
.LBB2527:
.LBI2527:
	.loc 57 599 6 view .LVU2537
.LBB2528:
.LBB2529:
.LBB2530:
	.loc 59 72 5 is_stmt 0 view .LVU2538
	movq	16(%rsp), %rax
	cmpb	$0, 48(%rax)
	jne	.L535
.LVL879:
.L513:
	.loc 59 72 5 view .LVU2539
.LBE2530:
.LBE2529:
	.loc 57 604 5 view .LVU2540
	cmpb	$0, 200(%rbp)
	jne	.L519
	.loc 57 604 31 view .LVU2541
	movq	168(%rbp), %rsi
	.loc 57 604 28 view .LVU2542
	testq	%rsi, %rsi
	je	.L519
	.loc 57 606 25 view .LVU2543
	movb	$1, 200(%rbp)
.LVL880:
.LBB2549:
.LBB2550:
	.loc 52 571 13 view .LVU2544
	movl	$-2147483639, 4(%rsp)
	.loc 52 572 17 view .LVU2545
	leaq	104(%rsi), %rdi
	.loc 52 572 15 view .LVU2546
	movq	%rdi, 8(%rsp)
.LVL881:
.LBB2551:
.LBB2552:
	.loc 60 50 12 view .LVU2547
	movl	104(%rsi), %edx
.LVL882:
	.loc 60 50 12 view .LVU2548
.LBE2552:
.LBE2551:
	.loc 52 573 12 view .LVU2549
	movl	112(%rsi), %edi
	leaq	4(%rsp), %rcx
	movl	$3, %esi
.LVL883:
	.loc 52 573 12 view .LVU2550
	call	epoll_ctl
.LVL884:
.L519:
	.loc 52 573 12 view .LVU2551
.LBE2550:
.LBE2549:
.LBB2553:
.LBB2554:
	.loc 53 82 7 view .LVU2552
	cmpb	$0, 24(%rsp)
	je	.L518
	.loc 53 84 9 view .LVU2553
	movq	16(%rsp), %r8
.LVL885:
.LBB2555:
.LBB2556:
	.loc 53 134 5 view .LVU2554
	cmpb	$0, 48(%r8)
	jne	.L536
.LVL886:
.L520:
	.loc 53 134 5 view .LVU2555
.LBE2556:
.LBE2555:
	.loc 53 85 17 view .LVU2556
	movb	$0, 24(%rsp)
.LVL887:
.L518:
	.loc 53 85 17 view .LVU2557
.LBE2554:
.LBE2553:
.LBE2528:
.LBE2527:
.LBB2566:
.LBI2566:
	.loc 53 63 5 is_stmt 1 view .LVU2558
.LBB2567:
	.loc 53 65 7 view .LVU2559
	cmpb	$0, 24(%rsp)
	jne	.L537
.LVL888:
.L508:
	.loc 53 65 7 is_stmt 0 view .LVU2560
.LBE2567:
.LBE2566:
.LBE2577:
.LBE2580:
	.loc 3 278 3 view .LVU2561
	movq	$0, 48(%rsp)
	movq	$0, 40(%rsp)
.LVL889:
.LBB2581:
.LBI2581:
	.loc 35 35 57 is_stmt 1 view .LVU2562
.LBB2582:
.LBI2582:
	.loc 35 35 528 view .LVU2563
.LBB2583:
.LBB2584:
	.loc 35 35 579 is_stmt 0 view .LVU2564
	movl	$0, %edi
	.loc 35 35 575 view .LVU2565
	testq	%rdi, %rdi
	je	.L490
.LVL890:
.LBB2585:
.LBB2586:
.LBI2586:
	.loc 37 58 8 is_stmt 1 view .LVU2566
.LBB2587:
.LBI2587:
	.loc 27 106 17 view .LVU2567
.LBB2588:
.LBB2589:
.LBI2589:
	.loc 30 46 3 view .LVU2568
.LBB2590:
	.loc 30 48 12 is_stmt 0 view .LVU2569
	movq	%fs:_ZN5boost4asio6detail15keyword_tss_ptrINS1_10call_stackINS1_14thread_contextENS1_16thread_info_baseEE7contextEE6value_E@tpoff, %r9
.LVL891:
	.loc 30 48 12 view .LVU2570
.LBE2590:
.LBE2589:
	.loc 27 109 17 view .LVU2571
	testq	%r9, %r9
	je	.L525
	movq	8(%r9), %r9
.LVL892:
.L525:
	.loc 27 109 17 view .LVU2572
.LBE2588:
.LBE2587:
.LBB2591:
.LBI2591:
	.loc 38 98 15 is_stmt 1 view .LVU2573
.LBB2592:
.LBB2593:
	.loc 38 103 7 is_stmt 0 view .LVU2574
	testq	%r9, %r9
	je	.L526
	.loc 38 103 23 view .LVU2575
	cmpq	$0, (%r9)
	je	.L538
.L526:
	.loc 38 103 23 view .LVU2576
.LBE2593:
	.loc 38 112 22 view .LVU2577
	call	_ZdlPv
.LVL893:
	.loc 38 112 22 view .LVU2578
	jmp	.L490
.LVL894:
.L534:
	.loc 38 112 22 view .LVU2579
.LBE2592:
.LBE2591:
.LBE2586:
.LBE2585:
.LBE2584:
.LBE2583:
.LBE2582:
.LBE2581:
.LBB2603:
.LBB2578:
.LBB2572:
.LBB2519:
.LBB2518:
	.loc 53 55 9 is_stmt 1 view .LVU2580
.LBB2516:
.LBI2516:
	.loc 54 50 8 view .LVU2581
.LBB2517:
	.loc 54 52 5 view .LVU2582
	.loc 54 52 31 is_stmt 0 view .LVU2583
	leaq	56(%rbp), %rdi
	call	pthread_mutex_lock
.LVL895:
	.loc 54 52 31 view .LVU2584
.LBE2517:
.LBE2516:
	.loc 53 56 9 is_stmt 1 view .LVU2585
	.loc 53 56 17 is_stmt 0 view .LVU2586
	movb	$1, 24(%rsp)
	jmp	.L510
.LVL896:
.L511:
	.loc 53 56 17 view .LVU2587
.LBE2518:
.LBE2519:
.LBE2572:
.LBB2573:
.LBB2526:
	.loc 16 115 7 view .LVU2588
	movq	%rbx, 224(%rbp)
	movq	%rbx, 216(%rbp)
	jmp	.L512
.LVL897:
.L535:
	.loc 16 115 7 view .LVU2589
.LBE2526:
.LBE2573:
.LBB2574:
.LBB2565:
.LBB2562:
.LBB2547:
	.loc 59 73 48 view .LVU2590
	leaq	112(%rbp), %r12
.LVL898:
.LBB2531:
.LBI2531:
	.loc 61 76 8 is_stmt 1 view .LVU2591
.LBB2532:
.LBB2533:
.LBI2533:
	.loc 53 90 10 view .LVU2592
.LBB2534:
	.loc 53 92 7 view .LVU2593
	.loc 53 92 14 is_stmt 0 view .LVU2594
	movzbl	24(%rsp), %ebx
.LVL899:
	.loc 53 92 14 view .LVU2595
.LBE2534:
.LBE2533:
	.loc 61 78 41 view .LVU2596
	testb	%bl, %bl
	je	.L539
	.loc 61 79 12 view .LVU2597
	movq	48(%r12), %rdx
	orq	$1, %rdx
	.loc 61 79 5 view .LVU2598
	movq	%rdx, 48(%r12)
	.loc 61 80 5 view .LVU2599
	cmpq	$1, %rdx
	ja	.L540
.LBE2532:
	.loc 61 86 12 view .LVU2600
	movl	$0, %ebx
.L515:
.LVL900:
	.loc 61 86 12 view .LVU2601
.LBE2531:
.LBE2547:
.LBE2562:
	.loc 57 602 3 view .LVU2602
	testb	%bl, %bl
	jne	.L518
	jmp	.L513
.LVL901:
.L539:
.LBB2563:
.LBB2548:
.LBB2546:
.LBB2545:
	.loc 61 78 68 view .LVU2603
	movl	$.LC6, %ecx
	movl	$78, %edx
	movl	$.LC7, %esi
	movl	$.LC8, %edi
	call	__assert_fail
.LVL902:
.L540:
.LBB2535:
.LBI2535:
	.loc 53 80 10 is_stmt 1 view .LVU2604
.LBB2536:
	.loc 53 82 7 view .LVU2605
	cmpb	$0, 24(%rsp)
	je	.L516
	.loc 53 84 9 view .LVU2606
	movq	16(%rsp), %rcx
.LVL903:
.LBB2537:
.LBI2537:
	.loc 53 132 8 view .LVU2607
.LBB2538:
	.loc 53 134 5 view .LVU2608
	cmpb	$0, 48(%rcx)
	jne	.L541
.LVL904:
.L517:
	.loc 53 134 5 is_stmt 0 view .LVU2609
.LBE2538:
.LBE2537:
	.loc 53 85 9 is_stmt 1 view .LVU2610
	.loc 53 85 17 is_stmt 0 view .LVU2611
	movb	$0, 24(%rsp)
.L516:
.LVL905:
	.loc 53 85 17 view .LVU2612
.LBE2536:
.LBE2535:
	.loc 61 83 28 view .LVU2613
	movq	%r12, %rdi
	call	pthread_cond_signal
.LVL906:
	jmp	.L515
.LVL907:
.L541:
.LBB2544:
.LBB2543:
.LBB2542:
.LBB2541:
	.loc 53 135 7 is_stmt 1 view .LVU2614
.LBB2539:
.LBI2539:
	.loc 54 56 8 view .LVU2615
.LBB2540:
	.loc 54 58 5 view .LVU2616
	.loc 54 58 33 is_stmt 0 view .LVU2617
	leaq	8(%rcx), %rdi
.LVL908:
	.loc 54 58 33 view .LVU2618
	call	pthread_mutex_unlock
.LVL909:
	.loc 54 58 33 view .LVU2619
	jmp	.L517
.LVL910:
.L536:
	.loc 54 58 33 view .LVU2620
.LBE2540:
.LBE2539:
.LBE2541:
.LBE2542:
.LBE2543:
.LBE2544:
.LBE2545:
.LBE2546:
.LBE2548:
.LBE2563:
.LBB2564:
.LBB2561:
.LBB2560:
.LBB2559:
.LBB2557:
.LBB2558:
	leaq	8(%r8), %rdi
.LVL911:
	.loc 54 58 33 view .LVU2621
	call	pthread_mutex_unlock
.LVL912:
	.loc 54 58 33 view .LVU2622
	jmp	.L520
.LVL913:
.L537:
	.loc 54 58 33 view .LVU2623
.LBE2558:
.LBE2557:
.LBE2559:
.LBE2560:
.LBE2561:
.LBE2564:
.LBE2565:
.LBE2574:
.LBB2575:
.LBB2571:
	.loc 53 66 9 is_stmt 1 view .LVU2624
.LBB2568:
.LBI2568:
	.loc 54 56 8 view .LVU2625
.LBB2569:
	.loc 54 58 5 view .LVU2626
	.loc 54 58 33 is_stmt 0 view .LVU2627
	movq	16(%rsp), %rbp
.LVL914:
	.loc 54 58 33 view .LVU2628
	leaq	8(%rbp), %rdi
.LVL915:
	.loc 54 58 33 view .LVU2629
	call	pthread_mutex_unlock
.LVL916:
	.loc 54 58 33 view .LVU2630
.LBE2569:
.LBE2568:
.LBB2570:
.LBI2570:
	.loc 51 30 3 is_stmt 1 view .LVU2631
	.loc 51 30 3 is_stmt 0 view .LVU2632
	jmp	.L508
.LVL917:
.L538:
	.loc 51 30 3 view .LVU2633
.LBE2570:
.LBE2571:
.LBE2575:
.LBE2578:
.LBE2603:
.LBB2604:
.LBB2602:
.LBB2601:
.LBB2600:
.LBB2599:
.LBB2598:
.LBB2597:
.LBB2596:
.LBB2595:
.LBB2594:
	.loc 38 106 16 view .LVU2634
	movzbl	40(%rdi), %r12d
	.loc 38 106 9 view .LVU2635
	movb	%r12b, (%rdi)
.LVL918:
	.loc 38 107 9 view .LVU2636
	movq	%rdi, (%r9)
	jmp	.L490
.LVL919:
.L530:
	.loc 38 107 9 view .LVU2637
	movq	%rax, %rdi
.LVL920:
	.loc 38 107 9 view .LVU2638
.LBE2594:
.LBE2595:
.LBE2596:
.LBE2597:
.LBE2598:
.LBE2599:
.LBE2600:
.LBE2601:
.LBE2602:
.LBE2604:
.LBB2605:
.LBB2467:
.LBB2459:
.LBI2459:
	.loc 49 50 3 is_stmt 1 view .LVU2639
.LBE2459:
.LBE2467:
.LBE2605:
	.loc 49 52 5 view .LVU2640
.LBB2606:
.LBB2468:
.LBB2463:
.LBB2460:
.LBI2460:
	.loc 50 120 3 view .LVU2641
.LBB2461:
	.loc 50 121 5 view .LVU2642
	.loc 50 121 26 is_stmt 0 view .LVU2643
.LVL921:
	.loc 50 121 26 view .LVU2644
.LBE2461:
.LBE2460:
.LBB2462:
.LBI2462:
	.loc 51 30 3 is_stmt 1 view .LVU2645
	.loc 51 30 3 is_stmt 0 view .LVU2646
	call	_Unwind_Resume
.LVL922:
.LEHE12:
.LBE2462:
.LBE2463:
.LBE2468:
.LBE2606:
	.cfi_endproc
.LFE67:
	.section	.gcc_except_table
.LLSDA67:
	.byte	0xff
	.byte	0xff
	.byte	0x1
	.uleb128 .LLSDACSE67-.LLSDACSB67
.LLSDACSB67:
	.uleb128 .LEHB11-.LFB67
	.uleb128 .LEHE11-.LEHB11
	.uleb128 .L530-.LFB67
	.uleb128 0
	.uleb128 .LEHB12-.LFB67
	.uleb128 .LEHE12-.LEHB12
	.uleb128 0
	.uleb128 0
.LLSDACSE67:
	.text
	.size	_ZNK5boost4asio10io_context13executor_type8dispatchINS0_8executor8functionESaIvEEEvOT_RKT0_, .-_ZNK5boost4asio10io_context13executor_type8dispatchINS0_8executor8functionESaIvEEEvOT_RKT0_
	.align 2
	.type	_ZN5boost4asio8executor4implINS0_10io_context13executor_typeESaIvEE8dispatchEONS1_8functionE, @function
_ZN5boost4asio8executor4implINS0_10io_context13executor_typeESaIvEE8dispatchEONS1_8functionE:
.LVL923:
.LFB68:
	.loc 1 182 8 is_stmt 1 view -0
	.cfi_startproc
	.loc 1 182 8 is_stmt 0 view .LVU2648
	subq	$8, %rsp
	.cfi_def_cfa_offset 16
	.loc 1 184 52 is_stmt 1 view .LVU2649
	leaq	32(%rdi), %rdx
	.loc 1 184 5 view .LVU2650
	addq	$24, %rdi
.LVL924:
	.loc 1 184 5 is_stmt 0 view .LVU2651
	call	_ZNK5boost4asio10io_context13executor_type8dispatchINS0_8executor8functionESaIvEEEvOT_RKT0_
.LVL925:
	.loc 1 185 3 is_stmt 1 view .LVU2652
	addq	$8, %rsp
	.cfi_def_cfa_offset 8
	ret
	.cfi_endproc
.LFE68:
	.size	_ZN5boost4asio8executor4implINS0_10io_context13executor_typeESaIvEE8dispatchEONS1_8functionE, .-_ZN5boost4asio8executor4implINS0_10io_context13executor_typeESaIvEE8dispatchEONS1_8functionE
	.align 2
	.type	_ZN5boost4asio8executorC2INS0_10io_context13executor_typeEEET_, @function
_ZN5boost4asio8executorC2INS0_10io_context13executor_typeEEET_:
.LVL926:
.LFB69:
	.loc 1 332 1 view -0
	.cfi_startproc
	.loc 1 332 1 is_stmt 0 view .LVU2654
	pushq	%rbp
	.cfi_def_cfa_offset 16
	.cfi_offset 6, -16
	pushq	%rbx
	.cfi_def_cfa_offset 24
	.cfi_offset 3, -24
	subq	$8, %rsp
	.cfi_def_cfa_offset 32
	movq	%rdi, %rbx
	movq	%rsi, %rbp
.LVL927:
.LBB2607:
.LBB2608:
.LBI2608:
	.loc 1 134 21 is_stmt 1 view .LVU2655
.LBB2609:
.LBB2610:
.LBI2610:
	.loc 1 231 14 view .LVU2656
.LBB2611:
.LBI2611:
	.loc 46 151 2 view .LVU2657
.LBB2612:
.LBI2612:
	.loc 47 80 7 view .LVU2658
	.loc 47 80 7 is_stmt 0 view .LVU2659
.LBE2612:
.LBE2611:
.LBB2613:
.LBI2613:
	.loc 47 102 7 is_stmt 1 view .LVU2660
.LBB2614:
	.loc 47 114 41 is_stmt 0 view .LVU2661
	movl	$40, %edi
.LVL928:
	.loc 47 114 41 view .LVU2662
	call	_Znwm
.LVL929:
	.loc 47 114 41 view .LVU2663
.LBE2614:
.LBE2613:
.LBE2610:
.LBE2609:
.LBE2608:
.LBE2607:
	.loc 63 174 3 is_stmt 1 view .LVU2664
.LBB2626:
.LBB2625:
.LBB2624:
.LBB2615:
.LBI2615:
	.loc 1 142 3 view .LVU2665
.LBB2616:
.LBB2617:
.LBI2617:
	.loc 2 295 5 view .LVU2666
.LBB2618:
	.loc 2 295 65 is_stmt 0 view .LVU2667
	movb	$0, 8(%rax)
.LVL930:
	.loc 2 295 65 view .LVU2668
.LBE2618:
.LBE2617:
	.loc 1 146 19 view .LVU2669
	movq	$_ZTVN5boost4asio8executor4implINS0_10io_context13executor_typeESaIvEEE+16, (%rax)
.LVL931:
.LBB2619:
.LBI2619:
	.file 64 "/usr/include/c++/9/atomic"
	.loc 64 805 17 is_stmt 1 view .LVU2670
.LBB2620:
.LBI2620:
	.loc 50 279 17 view .LVU2671
.LBB2621:
	.loc 50 279 67 is_stmt 0 view .LVU2672
	movq	$1, 16(%rax)
.LVL932:
	.loc 50 279 67 view .LVU2673
.LBE2621:
.LBE2620:
.LBE2619:
	.loc 1 146 19 view .LVU2674
	movq	%rbp, 24(%rax)
.LVL933:
	.loc 1 146 19 view .LVU2675
.LBE2616:
.LBE2615:
.LBB2622:
.LBI2622:
	.loc 1 237 5 is_stmt 1 view .LVU2676
.LBB2623:
.LBI2623:
	.loc 46 153 7 view .LVU2677
	.loc 46 153 7 is_stmt 0 view .LVU2678
.LBE2623:
.LBE2622:
.LBE2624:
.LBE2625:
	.loc 1 333 59 view .LVU2679
	movq	%rax, (%rbx)
.LBE2626:
	.loc 1 335 1 view .LVU2680
	addq	$8, %rsp
	.cfi_def_cfa_offset 24
	popq	%rbx
	.cfi_def_cfa_offset 16
.LVL934:
	.loc 1 335 1 view .LVU2681
	popq	%rbp
	.cfi_def_cfa_offset 8
.LVL935:
	.loc 1 335 1 view .LVU2682
	ret
	.cfi_endproc
.LFE69:
	.size	_ZN5boost4asio8executorC2INS0_10io_context13executor_typeEEET_, .-_ZN5boost4asio8executorC2INS0_10io_context13executor_typeEEET_
	.set	_ZN5boost4asio8executorC1INS0_10io_context13executor_typeEEET_,_ZN5boost4asio8executorC2INS0_10io_context13executor_typeEEET_
	.align 2
	.type	_ZN5boost4asio6detail12posix_thread4funcINS1_9scheduler15thread_functionEED0Ev, @function
_ZN5boost4asio6detail12posix_thread4funcINS1_9scheduler15thread_functionEED0Ev:
.LVL936:
.LFB70:
	.loc 6 75 9 is_stmt 1 view -0
	.cfi_startproc
	.loc 6 75 9 is_stmt 0 view .LVU2684
	subq	$8, %rsp
	.cfi_def_cfa_offset 16
.LVL937:
.LBB2627:
.LBI2627:
	.loc 6 75 9 is_stmt 1 view .LVU2685
.LBB2628:
.LBI2628:
	.loc 6 64 13 view .LVU2686
	.loc 6 64 13 is_stmt 0 view .LVU2687
.LBE2628:
.LBE2627:
	.loc 6 75 9 view .LVU2688
	movl	$16, %esi
	call	_ZdlPvm
.LVL938:
	.loc 6 75 9 view .LVU2689
	addq	$8, %rsp
	.cfi_def_cfa_offset 8
	ret
	.cfi_endproc
.LFE70:
	.size	_ZN5boost4asio6detail12posix_thread4funcINS1_9scheduler15thread_functionEED0Ev, .-_ZN5boost4asio6detail12posix_thread4funcINS1_9scheduler15thread_functionEED0Ev
	.align 2
	.type	_ZN5boost4asio8executor4implINS0_10io_context13executor_typeESaIvEED0Ev, @function
_ZN5boost4asio8executor4implINS0_10io_context13executor_typeESaIvEED0Ev:
.LVL939:
.LFB71:
	.loc 1 128 17 is_stmt 1 view -0
	.cfi_startproc
	.loc 1 128 17 is_stmt 0 view .LVU2691
	subq	$8, %rsp
	.cfi_def_cfa_offset 16
.LVL940:
.LBB2629:
.LBI2629:
	.loc 1 128 17 is_stmt 1 view .LVU2692
.LBB2630:
.LBI2630:
	.loc 2 296 13 view .LVU2693
	.loc 2 296 13 is_stmt 0 view .LVU2694
.LBE2630:
.LBE2629:
	.loc 1 128 17 view .LVU2695
	movl	$40, %esi
	call	_ZdlPvm
.LVL941:
	.loc 1 128 17 view .LVU2696
	addq	$8, %rsp
	.cfi_def_cfa_offset 8
	ret
	.cfi_endproc
.LFE71:
	.size	_ZN5boost4asio8executor4implINS0_10io_context13executor_typeESaIvEED0Ev, .-_ZN5boost4asio8executor4implINS0_10io_context13executor_typeESaIvEED0Ev
	.type	_ZN5boost4asio6detail18signal_set_service12pipe_read_op11do_completeEPvPNS1_19scheduler_operationERKNS_6system10error_codeEm, @function
_ZN5boost4asio6detail18signal_set_service12pipe_read_op11do_completeEPvPNS1_19scheduler_operationERKNS_6system10error_codeEm:
.LVL942:
.LFB72:
	.file 65 "/usr/local/include/boost/asio/detail/impl/signal_set_service.ipp"
	.loc 65 110 15 is_stmt 1 view -0
	.cfi_startproc
	.loc 65 114 5 view .LVU2698
	.loc 65 115 5 view .LVU2699
	.loc 65 115 13 is_stmt 0 view .LVU2700
	testq	%rsi, %rsi
	je	.L553
	.loc 65 110 15 view .LVU2701
	subq	$8, %rsp
	.cfi_def_cfa_offset 16
	movq	%rsi, %rdi
.LVL943:
.LBB2631:
.LBI2631:
	.loc 65 89 27 is_stmt 1 view .LVU2702
.LBB2632:
.LBI2632:
	.loc 62 27 7 view .LVU2703
.LBB2633:
.LBI2633:
	.loc 17 61 3 view .LVU2704
	.loc 17 61 3 is_stmt 0 view .LVU2705
.LBE2633:
.LBE2632:
.LBE2631:
	.loc 65 115 12 view .LVU2706
	movl	$56, %esi
.LVL944:
	.loc 65 115 12 view .LVU2707
	call	_ZdlPvm
.LVL945:
	.loc 65 116 3 view .LVU2708
	addq	$8, %rsp
	.cfi_def_cfa_offset 8
	ret
.LVL946:
.L553:
	.loc 65 116 3 view .LVU2709
	ret
	.cfi_endproc
.LFE72:
	.size	_ZN5boost4asio6detail18signal_set_service12pipe_read_op11do_completeEPvPNS1_19scheduler_operationERKNS_6system10error_codeEm, .-_ZN5boost4asio6detail18signal_set_service12pipe_read_op11do_completeEPvPNS1_19scheduler_operationERKNS_6system10error_codeEm
	.align 2
	.type	_ZN5boost4asio17execution_contextD2Ev, @function
_ZN5boost4asio17execution_contextD2Ev:
.LVL947:
.LFB73:
	.loc 21 32 1 is_stmt 1 view -0
	.cfi_startproc
	.cfi_personality 0x3,__gxx_personality_v0
	.cfi_lsda 0x3,.LLSDA73
	.loc 21 32 1 is_stmt 0 view .LVU2711
	pushq	%r12
	.cfi_def_cfa_offset 16
	.cfi_offset 12, -16
	pushq	%rbp
	.cfi_def_cfa_offset 24
	.cfi_offset 6, -24
	pushq	%rbx
	.cfi_def_cfa_offset 32
	.cfi_offset 3, -32
	movq	%rdi, %r12
.LBB2653:
	.loc 21 34 3 is_stmt 1 view .LVU2712
.LVL948:
.LBB2654:
.LBI2654:
	.loc 21 39 6 view .LVU2713
.LBB2655:
	.loc 21 41 3 view .LVU2714
	movq	(%rdi), %rax
.LVL949:
.LBB2656:
.LBI2656:
	.file 66 "/usr/local/include/boost/asio/detail/impl/service_registry.ipp"
	.loc 66 39 6 view .LVU2715
.LBB2657:
	.loc 66 41 3 view .LVU2716
	.loc 66 41 31 is_stmt 0 view .LVU2717
	movq	56(%rax), %rbx
.LVL950:
.L558:
	.loc 66 42 3 is_stmt 1 view .LVU2718
	.loc 66 42 10 view .LVU2719
	testq	%rbx, %rbx
	je	.L557
	.loc 66 44 5 view .LVU2720
	.loc 66 44 23 is_stmt 0 view .LVU2721
	movq	(%rbx), %rdx
	.loc 66 44 22 view .LVU2722
	movq	%rbx, %rdi
	call	*16(%rdx)
.LVL951:
	.loc 66 45 5 is_stmt 1 view .LVU2723
	.loc 66 45 13 is_stmt 0 view .LVU2724
	movq	32(%rbx), %rbx
.LVL952:
	.loc 66 45 13 view .LVU2725
	jmp	.L558
.L557:
.LVL953:
	.loc 66 45 13 view .LVU2726
.LBE2657:
.LBE2656:
.LBE2655:
.LBE2654:
	.loc 21 35 3 is_stmt 1 view .LVU2727
.LBB2658:
.LBI2658:
	.loc 21 44 6 view .LVU2728
.LBB2659:
	.loc 21 46 3 view .LVU2729
	movq	(%r12), %rbx
.LVL954:
.LBB2660:
.LBI2660:
	.loc 66 49 6 view .LVU2730
.L560:
.LBB2661:
	.loc 66 51 3 view .LVU2731
	.loc 66 51 10 view .LVU2732
	movq	56(%rbx), %rdi
	testq	%rdi, %rdi
	je	.L559
.LBB2662:
	.loc 66 53 5 view .LVU2733
	.loc 66 53 33 is_stmt 0 view .LVU2734
	movq	32(%rdi), %rbp
.LVL955:
	.loc 66 54 5 is_stmt 1 view .LVU2735
.LBB2663:
.LBI2663:
	.loc 66 108 6 view .LVU2736
.LBB2664:
	.loc 66 110 3 view .LVU2737
	.loc 66 110 10 is_stmt 0 view .LVU2738
	movq	(%rdi), %rcx
	call	*8(%rcx)
.LVL956:
	.loc 66 110 10 view .LVU2739
.LBE2664:
.LBE2663:
	.loc 66 55 5 is_stmt 1 view .LVU2740
	.loc 66 55 20 is_stmt 0 view .LVU2741
	movq	%rbp, 56(%rbx)
	jmp	.L560
.LVL957:
.L559:
	.loc 66 55 20 view .LVU2742
.LBE2662:
.LBE2661:
.LBE2660:
.LBE2659:
.LBE2658:
	.loc 21 36 3 is_stmt 1 view .LVU2743
	.loc 21 36 10 is_stmt 0 view .LVU2744
	movq	(%r12), %r12
.LVL958:
	.loc 21 36 27 view .LVU2745
	testq	%r12, %r12
	je	.L556
.LVL959:
.LBB2665:
.LBI2665:
	.loc 66 35 1 is_stmt 1 view .LVU2746
.LBB2666:
.LBI2666:
	.loc 54 44 3 view .LVU2747
.LBB2667:
	.loc 54 46 5 view .LVU2748
	.loc 54 46 28 is_stmt 0 view .LVU2749
	leaq	8(%r12), %rdi
.LVL960:
	.loc 54 46 28 view .LVU2750
	call	pthread_mutex_destroy
.LVL961:
.LBB2668:
.LBI2668:
	.loc 51 30 3 is_stmt 1 view .LVU2751
	.loc 51 30 3 is_stmt 0 view .LVU2752
.LBE2668:
.LBE2667:
.LBE2666:
.LBB2669:
.LBI2669:
	.loc 51 30 3 is_stmt 1 view .LVU2753
	.loc 51 30 3 is_stmt 0 view .LVU2754
.LBE2669:
.LBE2665:
	.loc 21 36 10 view .LVU2755
	movl	$64, %esi
	movq	%r12, %rdi
	call	_ZdlPvm
.LVL962:
.LBB2670:
.LBI2670:
	.loc 51 30 3 is_stmt 1 view .LVU2756
.L556:
	.loc 51 30 3 is_stmt 0 view .LVU2757
.LBE2670:
.LBE2653:
	.loc 21 37 1 view .LVU2758
	popq	%rbx
	.cfi_def_cfa_offset 24
	popq	%rbp
	.cfi_def_cfa_offset 16
	popq	%r12
	.cfi_def_cfa_offset 8
	ret
	.cfi_endproc
.LFE73:
	.section	.gcc_except_table
.LLSDA73:
	.byte	0xff
	.byte	0xff
	.byte	0x1
	.uleb128 .LLSDACSE73-.LLSDACSB73
.LLSDACSB73:
.LLSDACSE73:
	.text
	.size	_ZN5boost4asio17execution_contextD2Ev, .-_ZN5boost4asio17execution_contextD2Ev
	.section	.rodata.str1.8
	.align 8
.LC9:
	.string	"void boost::asio::detail::posix_event::signal_all(Lock&) [with Lock = boost::asio::detail::conditionally_enabled_mutex::scoped_lock]"
	.text
	.align 2
	.type	_ZN5boost4asio6detail9scheduler8shutdownEv, @function
_ZN5boost4asio6detail9scheduler8shutdownEv:
.LVL963:
.LFB75:
	.loc 57 145 1 is_stmt 1 view -0
	.cfi_startproc
	.cfi_personality 0x3,__gcc_personality_v0
	.cfi_lsda 0x3,.LLSDA75
	.loc 57 145 1 is_stmt 0 view .LVU2760
	pushq	%rbp
	.cfi_def_cfa_offset 16
	.cfi_offset 6, -16
	pushq	%rbx
	.cfi_def_cfa_offset 24
	.cfi_offset 3, -24
	subq	$56, %rsp
	.cfi_def_cfa_offset 80
	movq	%rdi, %rbx
	.loc 57 146 3 is_stmt 1 view .LVU2761
	.loc 57 146 27 is_stmt 0 view .LVU2762
	leaq	48(%rdi), %rax
.LVL964:
.LBB2724:
.LBI2724:
	.loc 53 50 14 is_stmt 1 view .LVU2763
.LBB2725:
.LBB2726:
.LBB2727:
.LBI2727:
	.loc 51 29 3 view .LVU2764
	.loc 51 29 3 is_stmt 0 view .LVU2765
.LBE2727:
	.loc 53 51 17 view .LVU2766
	movq	%rax, 16(%rsp)
	.loc 53 53 7 is_stmt 1 view .LVU2767
	cmpb	$0, 96(%rdi)
	jne	.L586
	.loc 53 59 9 view .LVU2768
	.loc 53 59 17 is_stmt 0 view .LVU2769
	movb	$0, 24(%rsp)
.LVL965:
.L565:
	.loc 53 59 17 view .LVU2770
.LBE2726:
.LBE2725:
.LBE2724:
	.loc 57 147 3 is_stmt 1 view .LVU2771
	.loc 57 147 13 is_stmt 0 view .LVU2772
	movb	$1, 233(%rbx)
	.loc 57 148 3 is_stmt 1 view .LVU2773
	cmpq	$0, 240(%rbx)
	je	.L566
	.loc 57 149 5 view .LVU2774
.LVL966:
.LBB2732:
.LBI2732:
	.loc 57 586 6 view .LVU2775
.LBB2733:
	.loc 57 589 3 view .LVU2776
	.loc 57 589 12 is_stmt 0 view .LVU2777
	movb	$1, 232(%rbx)
	.loc 57 590 3 is_stmt 1 view .LVU2778
.LVL967:
.LBB2734:
.LBI2734:
	.loc 59 54 8 view .LVU2779
.LBB2735:
	.loc 59 56 5 view .LVU2780
	movq	16(%rsp), %rdx
	cmpb	$0, 48(%rdx)
	jne	.L587
.L567:
.LVL968:
	.loc 59 56 5 is_stmt 0 view .LVU2781
.LBE2735:
.LBE2734:
	.loc 57 592 3 is_stmt 1 view .LVU2782
	cmpb	$0, 200(%rbx)
	jne	.L566
	.loc 57 592 29 is_stmt 0 view .LVU2783
	movq	168(%rbx), %rsi
	.loc 57 592 26 view .LVU2784
	testq	%rsi, %rsi
	je	.L566
	.loc 57 594 5 is_stmt 1 view .LVU2785
	.loc 57 594 23 is_stmt 0 view .LVU2786
	movb	$1, 200(%rbx)
	.loc 57 595 5 is_stmt 1 view .LVU2787
.LVL969:
.LBB2741:
.LBI2741:
	.loc 52 568 6 view .LVU2788
.LBB2742:
	.loc 52 570 3 view .LVU2789
	.loc 52 571 3 view .LVU2790
	.loc 52 571 13 is_stmt 0 view .LVU2791
	movl	$-2147483639, 4(%rsp)
	.loc 52 572 3 is_stmt 1 view .LVU2792
	.loc 52 572 17 is_stmt 0 view .LVU2793
	leaq	104(%rsi), %rdi
	.loc 52 572 15 view .LVU2794
	movq	%rdi, 8(%rsp)
	.loc 52 573 3 is_stmt 1 view .LVU2795
.LVL970:
.LBB2743:
.LBI2743:
	.loc 60 48 7 view .LVU2796
.LBB2744:
	.loc 60 50 5 view .LVU2797
	.loc 60 50 12 is_stmt 0 view .LVU2798
	movl	104(%rsi), %edx
.LVL971:
	.loc 60 50 12 view .LVU2799
.LBE2744:
.LBE2743:
	.loc 52 573 12 view .LVU2800
	movl	112(%rsi), %edi
	leaq	4(%rsp), %rcx
	movl	$3, %esi
.LVL972:
	.loc 52 573 12 view .LVU2801
	call	epoll_ctl
.LVL973:
.L566:
	.loc 52 573 12 view .LVU2802
.LBE2742:
.LBE2741:
.LBE2733:
.LBE2732:
	.loc 57 150 3 is_stmt 1 view .LVU2803
.LBB2747:
.LBI2747:
	.loc 53 80 10 view .LVU2804
.LBB2748:
	.loc 53 82 7 view .LVU2805
	cmpb	$0, 24(%rsp)
	je	.L570
	.loc 53 84 9 view .LVU2806
	movq	16(%rsp), %rbp
.LVL974:
.LBB2749:
.LBI2749:
	.loc 53 132 8 view .LVU2807
.LBB2750:
	.loc 53 134 5 view .LVU2808
	cmpb	$0, 48(%rbp)
	jne	.L588
.L571:
.LVL975:
	.loc 53 134 5 is_stmt 0 view .LVU2809
.LBE2750:
.LBE2749:
	.loc 53 85 9 is_stmt 1 view .LVU2810
	.loc 53 85 17 is_stmt 0 view .LVU2811
	movb	$0, 24(%rsp)
.L570:
.LVL976:
	.loc 53 85 17 view .LVU2812
.LBE2748:
.LBE2747:
	.loc 57 153 3 is_stmt 1 view .LVU2813
	.loc 57 153 7 is_stmt 0 view .LVU2814
	movq	240(%rbx), %rbp
	.loc 57 153 3 view .LVU2815
	testq	%rbp, %rbp
	je	.L572
	.loc 57 155 5 is_stmt 1 view .LVU2816
.LVL977:
.LBB2756:
.LBI2756:
	.loc 20 38 6 view .LVU2817
.LBB2757:
	.loc 20 40 3 view .LVU2818
	cmpb	$0, 8(%rbp)
	je	.L589
.L573:
.LVL978:
	.loc 20 40 3 is_stmt 0 view .LVU2819
.LBE2757:
.LBE2756:
	.loc 57 156 5 is_stmt 1 view .LVU2820
	.loc 57 156 12 is_stmt 0 view .LVU2821
	movq	240(%rbx), %rbp
	.loc 57 156 19 view .LVU2822
	testq	%rbp, %rbp
	je	.L574
.LVL979:
.LBB2759:
.LBI2759:
	.loc 20 32 1 is_stmt 1 view .LVU2823
.LBB2760:
	.loc 20 34 3 view .LVU2824
	cmpb	$0, 8(%rbp)
	je	.L590
.L575:
.LVL980:
.LBB2761:
.LBI2761:
	.loc 51 30 3 view .LVU2825
	.loc 51 30 3 is_stmt 0 view .LVU2826
.LBE2761:
.LBE2760:
.LBE2759:
	.loc 57 156 12 view .LVU2827
	movl	$16, %esi
	movq	%rbp, %rdi
	call	_ZdlPvm
.LVL981:
.L574:
	.loc 57 157 5 is_stmt 1 view .LVU2828
	.loc 57 157 13 is_stmt 0 view .LVU2829
	movq	$0, 240(%rbx)
.L572:
.LBB2763:
	.loc 57 165 11 view .LVU2830
	leaq	176(%rbx), %rbp
	jmp	.L578
.LVL982:
.L586:
	.loc 57 165 11 view .LVU2831
.LBE2763:
.LBB2777:
.LBB2731:
.LBB2730:
	.loc 53 55 9 is_stmt 1 view .LVU2832
.LBB2728:
.LBI2728:
	.loc 54 50 8 view .LVU2833
.LBB2729:
	.loc 54 52 5 view .LVU2834
	.loc 54 52 31 is_stmt 0 view .LVU2835
	leaq	56(%rdi), %rdi
	call	pthread_mutex_lock
.LVL983:
	.loc 54 52 31 view .LVU2836
.LBE2729:
.LBE2728:
	.loc 53 56 9 is_stmt 1 view .LVU2837
	.loc 53 56 17 is_stmt 0 view .LVU2838
	movb	$1, 24(%rsp)
	jmp	.L565
.LVL984:
.L587:
	.loc 53 56 17 view .LVU2839
.LBE2730:
.LBE2731:
.LBE2777:
.LBB2778:
.LBB2746:
.LBB2745:
.LBB2740:
	.loc 59 57 7 is_stmt 1 view .LVU2840
	.loc 59 57 24 is_stmt 0 view .LVU2841
	leaq	112(%rbx), %rdi
.LVL985:
.LBB2736:
.LBI2736:
	.loc 61 54 8 is_stmt 1 view .LVU2842
.LBB2737:
.LBB2738:
.LBI2738:
	.loc 53 90 10 view .LVU2843
.LBB2739:
	.loc 53 92 7 view .LVU2844
	.loc 53 92 7 is_stmt 0 view .LVU2845
.LBE2739:
.LBE2738:
	.loc 61 56 41 view .LVU2846
	cmpb	$0, 24(%rsp)
	je	.L591
	.loc 61 58 12 view .LVU2847
	movq	48(%rdi), %rcx
	orq	$1, %rcx
	.loc 61 58 5 view .LVU2848
	movq	%rcx, 48(%rdi)
	.loc 61 59 29 view .LVU2849
	call	pthread_cond_broadcast
.LVL986:
	.loc 61 59 29 view .LVU2850
	jmp	.L567
.LVL987:
.L591:
	.loc 61 56 68 view .LVU2851
	movl	$.LC9, %ecx
	movl	$56, %edx
	movl	$.LC7, %esi
	movl	$.LC8, %edi
.LVL988:
	.loc 61 56 68 view .LVU2852
	call	__assert_fail
.LVL989:
.L588:
	.loc 61 56 68 view .LVU2853
.LBE2737:
.LBE2736:
.LBE2740:
.LBE2745:
.LBE2746:
.LBE2778:
.LBB2779:
.LBB2755:
.LBB2754:
.LBB2753:
	.loc 53 135 7 is_stmt 1 view .LVU2854
.LBB2751:
.LBI2751:
	.loc 54 56 8 view .LVU2855
.LBB2752:
	.loc 54 58 5 view .LVU2856
	.loc 54 58 33 is_stmt 0 view .LVU2857
	leaq	8(%rbp), %rdi
.LVL990:
	.loc 54 58 33 view .LVU2858
	call	pthread_mutex_unlock
.LVL991:
	.loc 54 58 33 view .LVU2859
	jmp	.L571
.LVL992:
.L589:
	.loc 54 58 33 view .LVU2860
.LBE2752:
.LBE2751:
.LBE2753:
.LBE2754:
.LBE2755:
.LBE2779:
.LBB2780:
.LBB2758:
	.loc 20 42 5 is_stmt 1 view .LVU2861
	.loc 20 42 19 is_stmt 0 view .LVU2862
	movl	$0, %esi
	movq	0(%rbp), %rdi
.LEHB13:
	call	pthread_join
.LVL993:
	.loc 20 43 5 is_stmt 1 view .LVU2863
	.loc 20 43 13 is_stmt 0 view .LVU2864
	movb	$1, 8(%rbp)
	jmp	.L573
.LVL994:
.L590:
	.loc 20 43 13 view .LVU2865
.LBE2758:
.LBE2780:
.LBB2781:
.LBB2762:
	.loc 20 35 5 is_stmt 1 view .LVU2866
	.loc 20 35 21 is_stmt 0 view .LVU2867
	movq	0(%rbp), %rdi
	call	pthread_detach
.LVL995:
	jmp	.L575
.LVL996:
.L593:
	.loc 20 35 21 view .LVU2868
.LBE2762:
.LBE2781:
.LBB2782:
.LBB2764:
.LBB2765:
	.loc 16 99 9 view .LVU2869
	movq	$0, 224(%rbx)
.L577:
.LVL997:
.LBB2766:
.LBI2766:
	.loc 16 39 15 is_stmt 1 view .LVU2870
.LBB2767:
	.loc 16 41 5 is_stmt 0 view .LVU2871
	movq	$0, (%rsi)
.LVL998:
	.loc 16 41 5 view .LVU2872
.LBE2767:
.LBE2766:
.LBE2765:
.LBE2764:
	.loc 57 165 5 is_stmt 1 view .LVU2873
	cmpq	%rsi, %rbp
	jne	.L592
.LVL999:
.L578:
	.loc 57 165 5 is_stmt 0 view .LVU2874
.LBE2782:
	.loc 57 161 3 is_stmt 1 view .LVU2875
	.loc 57 161 10 view .LVU2876
.LBB2783:
.LBI2783:
	.loc 16 137 8 view .LVU2877
.LBB2784:
	.loc 16 139 12 is_stmt 0 view .LVU2878
	movq	216(%rbx), %rsi
.LVL1000:
	.loc 16 139 12 view .LVU2879
.LBE2784:
.LBE2783:
	.loc 57 161 10 view .LVU2880
	testq	%rsi, %rsi
	je	.L576
.LBB2785:
	.loc 57 163 5 is_stmt 1 view .LVU2881
.LVL1001:
	.loc 57 164 5 view .LVU2882
.LBB2771:
.LBI2764:
	.loc 16 92 8 view .LVU2883
.LBB2770:
.LBB2768:
.LBI2768:
	.loc 16 33 21 view .LVU2884
.LBB2769:
	.loc 16 35 44 is_stmt 0 view .LVU2885
	movq	(%rsi), %r9
.LVL1002:
	.loc 16 35 44 view .LVU2886
.LBE2769:
.LBE2768:
	.loc 16 97 7 view .LVU2887
	movq	%r9, 216(%rbx)
	.loc 16 98 7 view .LVU2888
	testq	%r9, %r9
	jne	.L577
	jmp	.L593
.LVL1003:
.L592:
	.loc 16 98 7 view .LVU2889
.LBE2770:
.LBE2771:
	.loc 57 166 7 is_stmt 1 view .LVU2890
.LBB2772:
.LBI2772:
	.loc 17 43 8 view .LVU2891
.LBB2773:
	.loc 17 45 5 view .LVU2892
	movq	8(%rsi), %r10
.LVL1004:
.LBB2774:
.LBI2774:
	.loc 18 583 15 view .LVU2893
.LBB2775:
.LBB2776:
	.loc 18 584 63 is_stmt 0 view .LVU2894
	movl	$0, 32(%rsp)
	movb	$0, 36(%rsp)
	movq	$_ZN5boost6system6detail10cat_holderIvE24system_category_instanceE, 40(%rsp)
.LVL1005:
	.loc 18 584 63 view .LVU2895
.LBE2776:
.LBE2775:
.LBE2774:
	.loc 17 45 10 view .LVU2896
	movl	$0, %ecx
	leaq	32(%rsp), %rdx
	movl	$0, %edi
	call	*%r10
.LVL1006:
.LEHE13:
	.loc 17 45 10 view .LVU2897
	jmp	.L578
.L576:
	.loc 17 45 10 view .LVU2898
.LBE2773:
.LBE2772:
.LBE2785:
	.loc 57 170 3 is_stmt 1 view .LVU2899
	.loc 57 170 9 is_stmt 0 view .LVU2900
	movq	$0, 168(%rbx)
.LVL1007:
.LBB2786:
.LBI2786:
	.loc 53 63 5 is_stmt 1 view .LVU2901
.LBB2787:
	.loc 53 65 7 view .LVU2902
	cmpb	$0, 24(%rsp)
	jne	.L594
.LVL1008:
.L563:
	.loc 53 65 7 is_stmt 0 view .LVU2903
.LBE2787:
.LBE2786:
	.loc 57 171 1 view .LVU2904
	addq	$56, %rsp
	.cfi_remember_state
	.cfi_def_cfa_offset 24
	popq	%rbx
	.cfi_def_cfa_offset 16
.LVL1009:
	.loc 57 171 1 view .LVU2905
	popq	%rbp
	.cfi_def_cfa_offset 8
.LVL1010:
	.loc 57 171 1 view .LVU2906
	ret
.LVL1011:
.L594:
	.cfi_restore_state
.LBB2792:
.LBB2791:
	.loc 53 66 9 is_stmt 1 view .LVU2907
.LBB2788:
.LBI2788:
	.loc 54 56 8 view .LVU2908
.LBB2789:
	.loc 54 58 5 view .LVU2909
	.loc 54 58 33 is_stmt 0 view .LVU2910
	movq	16(%rsp), %r8
	leaq	8(%r8), %rdi
.LVL1012:
	.loc 54 58 33 view .LVU2911
	call	pthread_mutex_unlock
.LVL1013:
	.loc 54 58 33 view .LVU2912
.LBE2789:
.LBE2788:
.LBB2790:
.LBI2790:
	.loc 51 30 3 is_stmt 1 view .LVU2913
	.loc 51 30 3 is_stmt 0 view .LVU2914
	jmp	.L563
.L583:
	.loc 51 30 3 view .LVU2915
	movq	%rax, %rbx
.LVL1014:
	.loc 51 30 3 view .LVU2916
.LBE2790:
.LBE2791:
.LBE2792:
.LBB2793:
.LBI2793:
	.loc 53 63 5 is_stmt 1 view .LVU2917
.LBB2794:
	.loc 53 65 7 view .LVU2918
	cmpb	$0, 24(%rsp)
	je	.L582
	.loc 53 66 9 view .LVU2919
.LVL1015:
.LBB2795:
.LBI2795:
	.loc 54 56 8 view .LVU2920
.LBB2796:
	.loc 54 58 5 view .LVU2921
	.loc 54 58 33 is_stmt 0 view .LVU2922
	movq	16(%rsp), %r11
	leaq	8(%r11), %rdi
.LVL1016:
	.loc 54 58 33 view .LVU2923
	call	pthread_mutex_unlock
.LVL1017:
.L582:
	.loc 54 58 33 view .LVU2924
.LBE2796:
.LBE2795:
.LBB2797:
.LBI2797:
	.loc 51 30 3 is_stmt 1 view .LVU2925
	.loc 51 30 3 is_stmt 0 view .LVU2926
	movq	%rbx, %rdi
.LEHB14:
	call	_Unwind_Resume
.LVL1018:
.LEHE14:
.LBE2797:
.LBE2794:
.LBE2793:
	.cfi_endproc
.LFE75:
	.section	.gcc_except_table
.LLSDA75:
	.byte	0xff
	.byte	0xff
	.byte	0x1
	.uleb128 .LLSDACSE75-.LLSDACSB75
.LLSDACSB75:
	.uleb128 .LEHB13-.LFB75
	.uleb128 .LEHE13-.LEHB13
	.uleb128 .L583-.LFB75
	.uleb128 0
	.uleb128 .LEHB14-.LFB75
	.uleb128 .LEHE14-.LEHB14
	.uleb128 0
	.uleb128 0
.LLSDACSE75:
	.text
	.size	_ZN5boost4asio6detail9scheduler8shutdownEv, .-_ZN5boost4asio6detail9scheduler8shutdownEv
	.align 2
	.type	_ZN5boost4asio6detail17posix_global_implINS0_14system_contextEED2Ev, @function
_ZN5boost4asio6detail17posix_global_implINS0_14system_contextEED2Ev:
.LVL1019:
.LFB78:
	.loc 29 41 3 is_stmt 1 view -0
	.cfi_startproc
	.loc 29 44 3 view .LVU2928
	ret
	.cfi_endproc
.LFE78:
	.size	_ZN5boost4asio6detail17posix_global_implINS0_14system_contextEED2Ev, .-_ZN5boost4asio6detail17posix_global_implINS0_14system_contextEED2Ev
	.set	_ZN5boost4asio6detail17posix_global_implINS0_14system_contextEED1Ev,_ZN5boost4asio6detail17posix_global_implINS0_14system_contextEED2Ev
	.align 2
	.type	_ZN5boost4asio8executor4implINS0_10io_context13executor_typeESaIvEE16on_work_finishedEv, @function
_ZN5boost4asio8executor4implINS0_10io_context13executor_typeESaIvEE16on_work_finishedEv:
.LVL1020:
.LFB83:
	.loc 1 172 8 view -0
	.cfi_startproc
	.loc 1 172 8 is_stmt 0 view .LVU2930
	pushq	%rbx
	.cfi_def_cfa_offset 16
	.cfi_offset 3, -16
	subq	$32, %rsp
	.cfi_def_cfa_offset 48
.LVL1021:
.LBB2930:
.LBI2930:
	.loc 3 247 1 is_stmt 1 view .LVU2931
.LBB2931:
	.loc 3 249 3 view .LVU2932
	movq	24(%rdi), %rax
	.loc 3 249 15 is_stmt 0 view .LVU2933
	movq	8(%rax), %rbx
.LVL1022:
.LBB2932:
.LBI2932:
	.loc 58 96 8 is_stmt 1 view .LVU2934
.LBB2933:
	.loc 58 98 5 view .LVU2935
.LBB2934:
.LBI2934:
	.loc 50 326 7 view .LVU2936
.LBB2935:
	.loc 50 327 36 is_stmt 0 view .LVU2937
	leaq	208(%rbx), %rcx
.LVL1023:
	.loc 50 327 34 view .LVU2938
	movq	$-1, %rdx
	lock xaddq	%rdx, (%rcx)
.LVL1024:
	.loc 50 327 34 view .LVU2939
.LBE2935:
.LBE2934:
	.loc 58 98 5 view .LVU2940
	cmpq	$1, %rdx
	je	.L605
.LVL1025:
.L596:
	.loc 58 98 5 view .LVU2941
.LBE2933:
.LBE2932:
.LBE2931:
.LBE2930:
	.loc 1 175 3 view .LVU2942
	addq	$32, %rsp
	.cfi_remember_state
	.cfi_def_cfa_offset 16
	popq	%rbx
	.cfi_def_cfa_offset 8
	ret
.LVL1026:
.L605:
	.cfi_restore_state
.LBB2971:
.LBB2970:
.LBB2969:
.LBB2968:
	.loc 58 99 7 is_stmt 1 view .LVU2943
.LBB2936:
.LBI2936:
	.loc 57 300 6 view .LVU2944
.LBB2937:
	.loc 57 302 3 view .LVU2945
	.loc 57 302 27 is_stmt 0 view .LVU2946
	leaq	48(%rbx), %rsi
.LVL1027:
.LBB2938:
.LBI2938:
	.loc 53 50 14 is_stmt 1 view .LVU2947
.LBB2939:
.LBB2940:
.LBB2941:
.LBI2941:
	.loc 51 29 3 view .LVU2948
	.loc 51 29 3 is_stmt 0 view .LVU2949
.LBE2941:
	.loc 53 51 17 view .LVU2950
	movq	%rsi, 16(%rsp)
	.loc 53 53 7 is_stmt 1 view .LVU2951
	cmpb	$0, 96(%rbx)
	jne	.L606
	.loc 53 59 9 view .LVU2952
	.loc 53 59 17 is_stmt 0 view .LVU2953
	movb	$0, 24(%rsp)
.LVL1028:
.L599:
	.loc 53 59 17 view .LVU2954
.LBE2940:
.LBE2939:
.LBE2938:
	.loc 57 303 3 is_stmt 1 view .LVU2955
.LBB2946:
.LBI2946:
	.loc 57 586 6 view .LVU2956
.LBB2947:
	.loc 57 589 3 view .LVU2957
	.loc 57 589 12 is_stmt 0 view .LVU2958
	movb	$1, 232(%rbx)
	.loc 57 590 3 is_stmt 1 view .LVU2959
.LVL1029:
.LBB2948:
.LBI2948:
	.loc 59 54 8 view .LVU2960
.LBB2949:
	.loc 59 56 5 view .LVU2961
	movq	16(%rsp), %rdi
	cmpb	$0, 48(%rdi)
	jne	.L607
.L600:
.LVL1030:
	.loc 59 56 5 is_stmt 0 view .LVU2962
.LBE2949:
.LBE2948:
	.loc 57 592 3 is_stmt 1 view .LVU2963
	cmpb	$0, 200(%rbx)
	jne	.L602
	.loc 57 592 29 is_stmt 0 view .LVU2964
	movq	168(%rbx), %r9
	.loc 57 592 26 view .LVU2965
	testq	%r9, %r9
	je	.L602
	.loc 57 594 5 is_stmt 1 view .LVU2966
	.loc 57 594 23 is_stmt 0 view .LVU2967
	movb	$1, 200(%rbx)
	.loc 57 595 5 is_stmt 1 view .LVU2968
.LVL1031:
.LBB2955:
.LBI2955:
	.loc 52 568 6 view .LVU2969
.LBB2956:
	.loc 52 570 3 view .LVU2970
	.loc 52 571 3 view .LVU2971
	.loc 52 571 13 is_stmt 0 view .LVU2972
	movl	$-2147483639, 4(%rsp)
	.loc 52 572 3 is_stmt 1 view .LVU2973
	.loc 52 572 17 is_stmt 0 view .LVU2974
	leaq	104(%r9), %r10
	.loc 52 572 15 view .LVU2975
	movq	%r10, 8(%rsp)
	.loc 52 573 3 is_stmt 1 view .LVU2976
.LVL1032:
.LBB2957:
.LBI2957:
	.loc 60 48 7 view .LVU2977
.LBB2958:
	.loc 60 50 5 view .LVU2978
	.loc 60 50 12 is_stmt 0 view .LVU2979
	movl	104(%r9), %edx
.LVL1033:
	.loc 60 50 12 view .LVU2980
.LBE2958:
.LBE2957:
	.loc 52 573 12 view .LVU2981
	movl	112(%r9), %edi
	leaq	4(%rsp), %rcx
	movl	$3, %esi
	call	epoll_ctl
.LVL1034:
.L602:
	.loc 52 573 12 view .LVU2982
.LBE2956:
.LBE2955:
.LBE2947:
.LBE2946:
.LBB2961:
.LBI2961:
	.loc 53 63 5 is_stmt 1 view .LVU2983
.LBB2962:
	.loc 53 65 7 view .LVU2984
	cmpb	$0, 24(%rsp)
	je	.L596
	.loc 53 66 9 view .LVU2985
.LVL1035:
.LBB2963:
.LBI2963:
	.loc 54 56 8 view .LVU2986
.LBB2964:
	.loc 54 58 5 view .LVU2987
	.loc 54 58 33 is_stmt 0 view .LVU2988
	movq	16(%rsp), %r11
	leaq	8(%r11), %rdi
.LVL1036:
	.loc 54 58 33 view .LVU2989
	call	pthread_mutex_unlock
.LVL1037:
	.loc 54 58 33 view .LVU2990
.LBE2964:
.LBE2963:
.LBB2965:
.LBI2965:
	.loc 51 30 3 is_stmt 1 view .LVU2991
	.loc 51 30 3 is_stmt 0 view .LVU2992
	jmp	.L596
.LVL1038:
.L606:
	.loc 51 30 3 view .LVU2993
.LBE2965:
.LBE2962:
.LBE2961:
.LBB2966:
.LBB2945:
.LBB2944:
	.loc 53 55 9 is_stmt 1 view .LVU2994
.LBB2942:
.LBI2942:
	.loc 54 50 8 view .LVU2995
.LBB2943:
	.loc 54 52 5 view .LVU2996
	.loc 54 52 31 is_stmt 0 view .LVU2997
	leaq	56(%rbx), %rdi
.LVL1039:
	.loc 54 52 31 view .LVU2998
	call	pthread_mutex_lock
.LVL1040:
	.loc 54 52 31 view .LVU2999
.LBE2943:
.LBE2942:
	.loc 53 56 9 is_stmt 1 view .LVU3000
	.loc 53 56 17 is_stmt 0 view .LVU3001
	movb	$1, 24(%rsp)
	jmp	.L599
.LVL1041:
.L607:
	.loc 53 56 17 view .LVU3002
.LBE2944:
.LBE2945:
.LBE2966:
.LBB2967:
.LBB2960:
.LBB2959:
.LBB2954:
	.loc 59 57 7 is_stmt 1 view .LVU3003
	.loc 59 57 24 is_stmt 0 view .LVU3004
	leaq	112(%rbx), %rdi
.LVL1042:
.LBB2950:
.LBI2950:
	.loc 61 54 8 is_stmt 1 view .LVU3005
.LBB2951:
.LBB2952:
.LBI2952:
	.loc 53 90 10 view .LVU3006
.LBB2953:
	.loc 53 92 7 view .LVU3007
	.loc 53 92 7 is_stmt 0 view .LVU3008
.LBE2953:
.LBE2952:
	.loc 61 56 41 view .LVU3009
	cmpb	$0, 24(%rsp)
	je	.L608
	.loc 61 58 12 view .LVU3010
	movq	48(%rdi), %r8
	orq	$1, %r8
	.loc 61 58 5 view .LVU3011
	movq	%r8, 48(%rdi)
	.loc 61 59 29 view .LVU3012
	call	pthread_cond_broadcast
.LVL1043:
	.loc 61 59 29 view .LVU3013
	jmp	.L600
.LVL1044:
.L608:
	.loc 61 56 68 view .LVU3014
	movl	$.LC9, %ecx
	movl	$56, %edx
	movl	$.LC7, %esi
	movl	$.LC8, %edi
.LVL1045:
	.loc 61 56 68 view .LVU3015
	call	__assert_fail
.LVL1046:
.LBE2951:
.LBE2950:
.LBE2954:
.LBE2959:
.LBE2960:
.LBE2967:
.LBE2937:
.LBE2936:
.LBE2968:
.LBE2969:
.LBE2970:
.LBE2971:
	.cfi_endproc
.LFE83:
	.size	_ZN5boost4asio8executor4implINS0_10io_context13executor_typeESaIvEE16on_work_finishedEv, .-_ZN5boost4asio8executor4implINS0_10io_context13executor_typeESaIvEE16on_work_finishedEv
	.align 2
	.type	_ZN5boost4asio8executor4implINS0_10io_context13executor_typeESaIvEE7destroyEv, @function
_ZN5boost4asio8executor4implINS0_10io_context13executor_typeESaIvEE7destroyEv:
.LVL1047:
.LFB84:
	.loc 1 156 8 is_stmt 1 view -0
	.cfi_startproc
.LBB2972:
.LBB2973:
.LBI2973:
	.loc 50 326 7 view .LVU3017
.LBB2974:
	.loc 50 327 36 is_stmt 0 view .LVU3018
	leaq	16(%rdi), %rax
	.loc 50 327 34 view .LVU3019
	movq	$-1, %rdx
	lock xaddq	%rdx, (%rax)
.LVL1048:
	.loc 50 327 34 view .LVU3020
.LBE2974:
.LBE2973:
	.loc 1 158 5 view .LVU3021
	cmpq	$1, %rdx
	jne	.L612
.LBE2972:
	.loc 1 156 8 view .LVU3022
	pushq	%rbx
	.cfi_def_cfa_offset 16
	.cfi_offset 3, -16
	movq	%rdi, %rbx
.LVL1049:
.LBB2980:
.LBB2975:
.LBB2976:
.LBI2976:
	.loc 46 151 2 is_stmt 1 view .LVU3023
.LBB2977:
.LBI2977:
	.loc 47 80 7 view .LVU3024
	.loc 47 80 7 is_stmt 0 view .LVU3025
.LBE2977:
.LBE2976:
	.loc 1 162 7 view .LVU3026
	movq	(%rdi), %rcx
	call	*96(%rcx)
.LVL1050:
.LBB2978:
.LBI2978:
	.loc 47 119 7 is_stmt 1 view .LVU3027
.LBB2979:
	.loc 47 128 19 is_stmt 0 view .LVU3028
	movq	%rbx, %rdi
	call	_ZdlPv
.LVL1051:
	.loc 47 128 19 view .LVU3029
.LBE2979:
.LBE2978:
.LBE2975:
.LBE2980:
	.loc 1 165 3 view .LVU3030
	popq	%rbx
	.cfi_def_cfa_offset 8
.LVL1052:
	.loc 1 165 3 view .LVU3031
	ret
.LVL1053:
.L612:
	.cfi_restore 3
	.loc 1 165 3 view .LVU3032
	ret
	.cfi_endproc
.LFE84:
	.size	_ZN5boost4asio8executor4implINS0_10io_context13executor_typeESaIvEE7destroyEv, .-_ZN5boost4asio8executor4implINS0_10io_context13executor_typeESaIvEE7destroyEv
	.type	_ZN5boost15throw_exceptionINS_4asio12bad_executorEEEvRKT_, @function
_ZN5boost15throw_exceptionINS_4asio12bad_executorEEEvRKT_:
.LVL1054:
.LFB85:
	.file 67 "/usr/local/include/boost/throw_exception.hpp"
	.loc 67 162 55 is_stmt 1 view -0
	.cfi_startproc
	.loc 67 162 55 is_stmt 0 view .LVU3034
	subq	$8, %rsp
	.cfi_def_cfa_offset 16
	.loc 67 165 28 view .LVU3035
	movl	$56, %edi
.LVL1055:
	.loc 67 165 28 view .LVU3036
	call	__cxa_allocate_exception
.LVL1056:
	movq	%rax, %rdi
.LVL1057:
.LBB2981:
.LBI2981:
	.loc 67 129 14 is_stmt 1 view .LVU3037
.LBB2982:
.LBB2983:
.LBI2983:
	.file 68 "/usr/local/include/boost/exception/exception.hpp"
	.loc 68 399 9 view .LVU3038
	.loc 68 399 9 is_stmt 0 view .LVU3039
.LBE2983:
.LBB2984:
.LBI2984:
	.loc 2 31 7 is_stmt 1 view .LVU3040
.LBB2985:
.LBI2985:
	.file 69 "/usr/include/c++/9/bits/exception.h"
	.loc 69 66 5 view .LVU3041
	.loc 69 66 5 is_stmt 0 view .LVU3042
.LBE2985:
.LBE2984:
.LBB2986:
.LBI2986:
	.loc 68 232 9 is_stmt 1 view .LVU3043
.LBB2987:
.LBB2988:
.LBI2988:
	.loc 68 44 13 view .LVU3044
.LBB2989:
	.loc 68 45 22 is_stmt 0 view .LVU3045
	movq	$0, 24(%rax)
.LVL1058:
	.loc 68 45 22 view .LVU3046
.LBE2989:
.LBE2988:
	.loc 68 235 27 view .LVU3047
	movq	$0, 32(%rax)
	movq	$0, 40(%rax)
	movl	$-1, 48(%rax)
.LVL1059:
	.loc 68 235 27 view .LVU3048
.LBE2987:
.LBE2986:
	.loc 67 129 46 view .LVU3049
	movq	$_ZTVN5boost10wrapexceptINS_4asio12bad_executorEEE+16, (%rax)
	movq	$_ZTVN5boost10wrapexceptINS_4asio12bad_executorEEE+64, 8(%rax)
	movq	$_ZTVN5boost10wrapexceptINS_4asio12bad_executorEEE+104, 16(%rax)
.LVL1060:
.LBB2990:
.LBI2990:
	.loc 67 118 10 is_stmt 1 view .LVU3050
	.loc 67 118 10 is_stmt 0 view .LVU3051
.LBE2990:
.LBE2982:
.LBE2981:
	.loc 67 165 28 view .LVU3052
	movl	$_ZN5boost10wrapexceptINS_4asio12bad_executorEED1Ev, %edx
	movl	$_ZTIN5boost10wrapexceptINS_4asio12bad_executorEEE, %esi
	call	__cxa_throw
.LVL1061:
	.cfi_endproc
.LFE85:
	.size	_ZN5boost15throw_exceptionINS_4asio12bad_executorEEEvRKT_, .-_ZN5boost15throw_exceptionINS_4asio12bad_executorEEEvRKT_
	.align 2
	.type	_ZN5boost6system12system_errorD2Ev, @function
_ZN5boost6system12system_errorD2Ev:
.LVL1062:
.LFB86:
	.file 70 "/usr/local/include/boost/system/system_error.hpp"
	.loc 70 47 15 is_stmt 1 view -0
	.cfi_startproc
	.loc 70 47 15 is_stmt 0 view .LVU3054
	pushq	%rbx
	.cfi_def_cfa_offset 16
	.cfi_offset 3, -16
	movq	%rdi, %rbx
.LBB3008:
	.loc 70 47 40 view .LVU3055
	movq	$_ZTVN5boost6system12system_errorE+16, (%rdi)
.LVL1063:
.LBB3009:
.LBI3009:
	.file 71 "/usr/include/c++/9/bits/basic_string.h"
	.loc 71 657 7 is_stmt 1 view .LVU3056
.LBB3010:
.LBI3010:
	.loc 71 229 7 view .LVU3057
.LBB3011:
.LBB3012:
.LBI3012:
	.loc 71 221 7 view .LVU3058
.LBB3013:
.LBI3013:
	.loc 71 186 7 view .LVU3059
.LBB3014:
	.loc 71 187 28 is_stmt 0 view .LVU3060
	movq	32(%rdi), %rdi
.LVL1064:
	.loc 71 187 28 view .LVU3061
.LBE3014:
.LBE3013:
.LBB3015:
.LBI3015:
	.loc 71 200 7 is_stmt 1 view .LVU3062
.LBB3016:
	.loc 71 203 57 is_stmt 0 view .LVU3063
	leaq	48(%rbx), %rax
.LVL1065:
	.loc 71 203 57 view .LVU3064
.LBE3016:
.LBE3015:
.LBE3012:
	.loc 71 231 2 view .LVU3065
	cmpq	%rax, %rdi
	je	.L618
.LVL1066:
.LBB3017:
.LBI3017:
	.loc 71 236 7 is_stmt 1 view .LVU3066
.LBB3018:
.LBI3018:
	.file 72 "/usr/include/c++/9/bits/alloc_traits.h"
	.loc 72 469 7 view .LVU3067
.LBB3019:
.LBI3019:
	.loc 47 119 7 view .LVU3068
.LBB3020:
	.loc 47 128 19 is_stmt 0 view .LVU3069
	call	_ZdlPv
.LVL1067:
.L618:
	.loc 47 128 19 view .LVU3070
.LBE3020:
.LBE3019:
.LBE3018:
.LBE3017:
.LBE3011:
.LBE3010:
.LBB3021:
.LBI3021:
	.loc 71 150 14 is_stmt 1 view .LVU3071
.LBB3022:
.LBI3022:
	.loc 46 153 7 view .LVU3072
	.loc 46 153 7 is_stmt 0 view .LVU3073
.LBE3022:
.LBE3021:
.LBE3009:
	.loc 70 47 40 view .LVU3074
	movq	%rbx, %rdi
	call	_ZNSt13runtime_errorD2Ev
.LVL1068:
.LBE3008:
	.loc 70 47 41 view .LVU3075
	popq	%rbx
	.cfi_def_cfa_offset 8
.LVL1069:
	.loc 70 47 41 view .LVU3076
	ret
	.cfi_endproc
.LFE86:
	.size	_ZN5boost6system12system_errorD2Ev, .-_ZN5boost6system12system_errorD2Ev
	.set	_ZN5boost6system12system_errorD1Ev,_ZN5boost6system12system_errorD2Ev
	.align 2
	.type	_ZN5boost10wrapexceptINS_6system12system_errorEED2Ev, @function
_ZN5boost10wrapexceptINS_6system12system_errorEED2Ev:
.LVL1070:
.LFB88:
	.loc 67 103 69 is_stmt 1 view -0
	.cfi_startproc
	.cfi_personality 0x3,__gxx_personality_v0
	.cfi_lsda 0x3,.LLSDA88
	.loc 67 103 69 is_stmt 0 view .LVU3078
	pushq	%rbp
	.cfi_def_cfa_offset 16
	.cfi_offset 6, -16
	pushq	%rbx
	.cfi_def_cfa_offset 24
	.cfi_offset 3, -24
	subq	$8, %rsp
	.cfi_def_cfa_offset 32
	movq	%rdi, %rbx
.LBB3056:
	.loc 67 103 69 view .LVU3079
	movq	$_ZTVN5boost10wrapexceptINS_6system12system_errorEEE+16, (%rdi)
	movq	$_ZTVN5boost10wrapexceptINS_6system12system_errorEEE+64, 8(%rdi)
.LVL1071:
.LBB3057:
.LBI3057:
	.loc 68 295 5 is_stmt 1 view .LVU3080
.LBB3058:
	.loc 68 296 18 is_stmt 0 view .LVU3081
	movq	$_ZTVN5boost9exceptionE+16, 72(%rdi)
.LVL1072:
.LBB3059:
.LBI3059:
	.loc 68 49 13 is_stmt 1 view .LVU3082
.LBB3060:
.LBI3060:
	.loc 68 93 13 view .LVU3083
.LBB3061:
	.loc 68 95 21 is_stmt 0 view .LVU3084
	movq	80(%rdi), %rdi
.LVL1073:
	.loc 68 95 25 view .LVU3085
	testq	%rdi, %rdi
	je	.L621
	movq	(%rdi), %rax
	call	*32(%rax)
.LVL1074:
.L621:
	.loc 68 95 25 view .LVU3086
.LBE3061:
.LBE3060:
.LBE3059:
.LBE3058:
.LBE3057:
	.loc 67 103 69 view .LVU3087
	leaq	8(%rbx), %rbp
.LVL1075:
.LBB3062:
.LBI3062:
	.loc 70 47 15 is_stmt 1 view .LVU3088
.LBB3063:
	.loc 70 47 40 is_stmt 0 view .LVU3089
	movq	$_ZTVN5boost6system12system_errorE+16, 8(%rbx)
.LVL1076:
.LBB3064:
.LBB3065:
.LBB3066:
.LBB3067:
.LBB3068:
.LBB3069:
	.loc 71 187 28 view .LVU3090
	movq	32(%rbp), %rdi
.LVL1077:
	.loc 71 187 28 view .LVU3091
.LBE3069:
.LBE3068:
.LBB3070:
.LBB3071:
	.loc 71 203 57 view .LVU3092
	addq	$56, %rbx
.LVL1078:
	.loc 71 203 57 view .LVU3093
.LBE3071:
.LBE3070:
.LBE3067:
	.loc 71 231 2 view .LVU3094
	cmpq	%rbx, %rdi
	je	.L622
.LVL1079:
.LBB3072:
.LBB3073:
.LBB3074:
.LBB3075:
	.loc 47 128 19 view .LVU3095
	call	_ZdlPv
.LVL1080:
.L622:
	.loc 47 128 19 view .LVU3096
.LBE3075:
.LBE3074:
.LBE3073:
.LBE3072:
.LBE3066:
.LBE3065:
.LBE3064:
	.loc 70 47 40 view .LVU3097
	movq	%rbp, %rdi
	call	_ZNSt13runtime_errorD2Ev
.LVL1081:
	.loc 70 47 40 view .LVU3098
.LBE3063:
.LBE3062:
.LBB3076:
.LBI3076:
	.loc 68 407 13 is_stmt 1 view .LVU3099
	.loc 68 407 13 is_stmt 0 view .LVU3100
.LBE3076:
.LBE3056:
	.loc 67 103 69 view .LVU3101
	addq	$8, %rsp
	.cfi_def_cfa_offset 24
	popq	%rbx
	.cfi_def_cfa_offset 16
.LVL1082:
	.loc 67 103 69 view .LVU3102
	popq	%rbp
	.cfi_def_cfa_offset 8
.LVL1083:
	.loc 67 103 69 view .LVU3103
	ret
	.cfi_endproc
.LFE88:
	.section	.gcc_except_table
.LLSDA88:
	.byte	0xff
	.byte	0xff
	.byte	0x1
	.uleb128 .LLSDACSE88-.LLSDACSB88
.LLSDACSB88:
.LLSDACSE88:
	.text
	.size	_ZN5boost10wrapexceptINS_6system12system_errorEED2Ev, .-_ZN5boost10wrapexceptINS_6system12system_errorEED2Ev
	.set	_ZN5boost10wrapexceptINS_6system12system_errorEED1Ev,_ZN5boost10wrapexceptINS_6system12system_errorEED2Ev
	.type	_ZThn8_N5boost10wrapexceptINS_6system12system_errorEED0Ev, @function
_ZThn8_N5boost10wrapexceptINS_6system12system_errorEED0Ev:
.LFB90:
	.cfi_startproc
	.cfi_personality 0x3,__gxx_personality_v0
	.cfi_lsda 0x3,.LLSDA90
	pushq	%rbp
	.cfi_def_cfa_offset 16
	.cfi_offset 6, -16
	pushq	%rbx
	.cfi_def_cfa_offset 24
	.cfi_offset 3, -24
	subq	$8, %rsp
	.cfi_def_cfa_offset 32
	leaq	-8(%rdi), %rbx
	movq	$_ZTVN5boost10wrapexceptINS_6system12system_errorEEE+16, -8(%rdi)
	movq	$_ZTVN5boost10wrapexceptINS_6system12system_errorEEE+64, 8(%rbx)
	movq	$_ZTVN5boost9exceptionE+16, 72(%rbx)
	movq	80(%rbx), %rdi
	testq	%rdi, %rdi
	je	.L625
	movq	(%rdi), %rax
	call	*32(%rax)
.L625:
	leaq	8(%rbx), %rbp
	movq	$_ZTVN5boost6system12system_errorE+16, 8(%rbx)
	movq	32(%rbp), %rdi
	leaq	56(%rbx), %rdx
