	.file	"<artificial>"
	.text
.Ltext0:
	.align 2
	.type	_ZNK5boost4asio8executor4implINS0_10io_context13executor_typeESaIvEE6targetEv, @function
_ZNK5boost4asio8executor4implINS0_10io_context13executor_typeESaIvEE6targetEv:
.LVL0:
.LFB0:
	.file 1 "/usr/local/include/boost/asio/impl/executor.hpp"
	.loc 1 207 15 view -0
	.cfi_startproc
	.loc 1 209 13 view .LVU1
	leaq	24(%rdi), %rax
	.loc 1 210 3 view .LVU2
	ret
	.cfi_endproc
.LFE0:
	.size	_ZNK5boost4asio8executor4implINS0_10io_context13executor_typeESaIvEE6targetEv, .-_ZNK5boost4asio8executor4implINS0_10io_context13executor_typeESaIvEE6targetEv
	.align 2
	.type	_ZN5boost4asio8executor4implINS0_10io_context13executor_typeESaIvEE6targetEv, @function
_ZN5boost4asio8executor4implINS0_10io_context13executor_typeESaIvEE6targetEv:
.LVL1:
.LFB1:
	.loc 1 202 9 view -0
	.cfi_startproc
	.loc 1 204 13 view .LVU4
	leaq	24(%rdi), %rax
	.loc 1 205 3 view .LVU5
	ret
	.cfi_endproc
.LFE1:
	.size	_ZN5boost4asio8executor4implINS0_10io_context13executor_typeESaIvEE6targetEv, .-_ZN5boost4asio8executor4implINS0_10io_context13executor_typeESaIvEE6targetEv
	.align 2
	.type	_ZNK5boost4asio8executor4implINS0_10io_context13executor_typeESaIvEE11target_typeEv, @function
_ZNK5boost4asio8executor4implINS0_10io_context13executor_typeESaIvEE11target_typeEv:
.LVL2:
.LFB2:
	.loc 1 197 23 view -0
	.cfi_startproc
.LBB2:
.LBI2:
	.file 2 "/usr/local/include/boost/asio/executor.hpp"
	.loc 2 267 30 view .LVU7
.LBE2:
	.loc 1 200 3 is_stmt 0 view .LVU8
	leaq	_ZTIN5boost4asio10io_context13executor_typeE(%rip), %rax
	ret
	.cfi_endproc
.LFE2:
	.size	_ZNK5boost4asio8executor4implINS0_10io_context13executor_typeESaIvEE11target_typeEv, .-_ZNK5boost4asio8executor4implINS0_10io_context13executor_typeESaIvEE11target_typeEv
	.align 2
	.type	_ZN5boost4asio8executor4implINS0_10io_context13executor_typeESaIvEE7contextEv, @function
_ZN5boost4asio8executor4implINS0_10io_context13executor_typeESaIvEE7contextEv:
.LVL3:
.LFB3:
	.loc 1 177 22 is_stmt 1 view -0
	.cfi_startproc
.LBB3:
.LBI3:
	.file 3 "/usr/local/include/boost/asio/impl/io_context.hpp"
	.loc 3 235 1 view .LVU10
.LBB4:
	.loc 3 237 3 view .LVU11
	.loc 3 237 10 is_stmt 0 view .LVU12
	movq	24(%rdi), %rax
.LVL4:
	.loc 3 237 10 view .LVU13
.LBE4:
.LBE3:
	.loc 1 180 3 view .LVU14
	ret
	.cfi_endproc
.LFE3:
	.size	_ZN5boost4asio8executor4implINS0_10io_context13executor_typeESaIvEE7contextEv, .-_ZN5boost4asio8executor4implINS0_10io_context13executor_typeESaIvEE7contextEv
	.align 2
	.type	_ZN5boost4asio6detail10service_idINS1_18signal_set_serviceEED2Ev, @function
_ZN5boost4asio6detail10service_idINS1_18signal_set_serviceEED2Ev:
.LVL5:
.LFB4:
	.file 4 "/usr/local/include/boost/asio/execution_context.hpp"
	.loc 4 380 7 is_stmt 1 view -0
	.cfi_startproc
	.loc 4 380 7 is_stmt 0 view .LVU16
	ret
	.cfi_endproc
.LFE4:
	.size	_ZN5boost4asio6detail10service_idINS1_18signal_set_serviceEED2Ev, .-_ZN5boost4asio6detail10service_idINS1_18signal_set_serviceEED2Ev
	.set	_ZN5boost4asio6detail10service_idINS1_18signal_set_serviceEED1Ev,_ZN5boost4asio6detail10service_idINS1_18signal_set_serviceEED2Ev
	.align 2
	.type	_ZN5boost4asio6detail10service_idINS1_13epoll_reactorEED2Ev, @function
_ZN5boost4asio6detail10service_idINS1_13epoll_reactorEED2Ev:
.LVL6:
.LFB5:
	.loc 4 380 7 is_stmt 1 view -0
	.cfi_startproc
	.loc 4 380 7 is_stmt 0 view .LVU18
	ret
	.cfi_endproc
.LFE5:
	.size	_ZN5boost4asio6detail10service_idINS1_13epoll_reactorEED2Ev, .-_ZN5boost4asio6detail10service_idINS1_13epoll_reactorEED2Ev
	.set	_ZN5boost4asio6detail10service_idINS1_13epoll_reactorEED1Ev,_ZN5boost4asio6detail10service_idINS1_13epoll_reactorEED2Ev
	.align 2
	.type	_ZN5boost4asio6detail10service_idINS1_9schedulerEED2Ev, @function
_ZN5boost4asio6detail10service_idINS1_9schedulerEED2Ev:
.LVL7:
.LFB6:
	.loc 4 380 7 is_stmt 1 view -0
	.cfi_startproc
	.loc 4 380 7 is_stmt 0 view .LVU20
	ret
	.cfi_endproc
.LFE6:
	.size	_ZN5boost4asio6detail10service_idINS1_9schedulerEED2Ev, .-_ZN5boost4asio6detail10service_idINS1_9schedulerEED2Ev
	.set	_ZN5boost4asio6detail10service_idINS1_9schedulerEED1Ev,_ZN5boost4asio6detail10service_idINS1_9schedulerEED2Ev
	.align 2
	.type	_ZN5boost4asio6detail7tss_ptrINS1_10call_stackINS1_23strand_executor_service11strand_implEhE7contextEED2Ev, @function
_ZN5boost4asio6detail7tss_ptrINS1_10call_stackINS1_23strand_executor_service11strand_implEhE7contextEED2Ev:
.LVL8:
.LFB7:
	.file 5 "/usr/local/include/boost/asio/detail/tss_ptr.hpp"
	.loc 5 39 7 is_stmt 1 view -0
	.cfi_startproc
	.loc 5 39 7 is_stmt 0 view .LVU22
	ret
	.cfi_endproc
.LFE7:
	.size	_ZN5boost4asio6detail7tss_ptrINS1_10call_stackINS1_23strand_executor_service11strand_implEhE7contextEED2Ev, .-_ZN5boost4asio6detail7tss_ptrINS1_10call_stackINS1_23strand_executor_service11strand_implEhE7contextEED2Ev
	.set	_ZN5boost4asio6detail7tss_ptrINS1_10call_stackINS1_23strand_executor_service11strand_implEhE7contextEED1Ev,_ZN5boost4asio6detail7tss_ptrINS1_10call_stackINS1_23strand_executor_service11strand_implEhE7contextEED2Ev
	.align 2
	.type	_ZN5boost4asio6detail10service_idINS1_14strand_serviceEED2Ev, @function
_ZN5boost4asio6detail10service_idINS1_14strand_serviceEED2Ev:
.LVL9:
.LFB8:
	.loc 4 380 7 is_stmt 1 view -0
	.cfi_startproc
	.loc 4 380 7 is_stmt 0 view .LVU24
	ret
	.cfi_endproc
.LFE8:
	.size	_ZN5boost4asio6detail10service_idINS1_14strand_serviceEED2Ev, .-_ZN5boost4asio6detail10service_idINS1_14strand_serviceEED2Ev
	.set	_ZN5boost4asio6detail10service_idINS1_14strand_serviceEED1Ev,_ZN5boost4asio6detail10service_idINS1_14strand_serviceEED2Ev
	.align 2
	.type	_ZN5boost4asio6detail7tss_ptrINS1_10call_stackINS1_14strand_service11strand_implEhE7contextEED2Ev, @function
_ZN5boost4asio6detail7tss_ptrINS1_10call_stackINS1_14strand_service11strand_implEhE7contextEED2Ev:
.LVL10:
.LFB9:
	.loc 5 39 7 is_stmt 1 view -0
	.cfi_startproc
	.loc 5 39 7 is_stmt 0 view .LVU26
	ret
	.cfi_endproc
.LFE9:
	.size	_ZN5boost4asio6detail7tss_ptrINS1_10call_stackINS1_14strand_service11strand_implEhE7contextEED2Ev, .-_ZN5boost4asio6detail7tss_ptrINS1_10call_stackINS1_14strand_service11strand_implEhE7contextEED2Ev
	.set	_ZN5boost4asio6detail7tss_ptrINS1_10call_stackINS1_14strand_service11strand_implEhE7contextEED1Ev,_ZN5boost4asio6detail7tss_ptrINS1_10call_stackINS1_14strand_service11strand_implEhE7contextEED2Ev
	.align 2
	.type	_ZN5boost4asio6detail7tss_ptrINS1_10call_stackINS1_14thread_contextENS1_16thread_info_baseEE7contextEED2Ev, @function
_ZN5boost4asio6detail7tss_ptrINS1_10call_stackINS1_14thread_contextENS1_16thread_info_baseEE7contextEED2Ev:
.LVL11:
.LFB10:
	.loc 5 39 7 is_stmt 1 view -0
	.cfi_startproc
	.loc 5 39 7 is_stmt 0 view .LVU28
	ret
	.cfi_endproc
.LFE10:
	.size	_ZN5boost4asio6detail7tss_ptrINS1_10call_stackINS1_14thread_contextENS1_16thread_info_baseEE7contextEED2Ev, .-_ZN5boost4asio6detail7tss_ptrINS1_10call_stackINS1_14thread_contextENS1_16thread_info_baseEE7contextEED2Ev
	.set	_ZN5boost4asio6detail7tss_ptrINS1_10call_stackINS1_14thread_contextENS1_16thread_info_baseEE7contextEED1Ev,_ZN5boost4asio6detail7tss_ptrINS1_10call_stackINS1_14thread_contextENS1_16thread_info_baseEE7contextEED2Ev
	.align 2
	.type	_ZN5boost4asio6detail12posix_thread4funcINS1_9scheduler15thread_functionEED2Ev, @function
_ZN5boost4asio6detail12posix_thread4funcINS1_9scheduler15thread_functionEED2Ev:
.LVL12:
.LFB11:
	.file 6 "/usr/local/include/boost/asio/detail/posix_thread.hpp"
	.loc 6 75 9 is_stmt 1 view -0
	.cfi_startproc
.LBB5:
.LBI5:
	.loc 6 64 13 view .LVU30
	.loc 6 64 13 is_stmt 0 view .LVU31
.LBE5:
	.loc 6 75 9 view .LVU32
	ret
	.cfi_endproc
.LFE11:
	.size	_ZN5boost4asio6detail12posix_thread4funcINS1_9scheduler15thread_functionEED2Ev, .-_ZN5boost4asio6detail12posix_thread4funcINS1_9scheduler15thread_functionEED2Ev
	.set	_ZN5boost4asio6detail12posix_thread4funcINS1_9scheduler15thread_functionEED1Ev,_ZN5boost4asio6detail12posix_thread4funcINS1_9scheduler15thread_functionEED2Ev
	.align 2
	.type	_ZN5boost4asio8executor4implINS0_10io_context13executor_typeESaIvEED2Ev, @function
_ZN5boost4asio8executor4implINS0_10io_context13executor_typeESaIvEED2Ev:
.LVL13:
.LFB12:
	.loc 1 128 17 is_stmt 1 view -0
	.cfi_startproc
.LBB6:
.LBI6:
	.loc 2 296 13 view .LVU34
	.loc 2 296 13 is_stmt 0 view .LVU35
.LBE6:
	.loc 1 128 17 view .LVU36
	ret
	.cfi_endproc
.LFE12:
	.size	_ZN5boost4asio8executor4implINS0_10io_context13executor_typeESaIvEED2Ev, .-_ZN5boost4asio8executor4implINS0_10io_context13executor_typeESaIvEED2Ev
	.set	_ZN5boost4asio8executor4implINS0_10io_context13executor_typeESaIvEED1Ev,_ZN5boost4asio8executor4implINS0_10io_context13executor_typeESaIvEED2Ev
	.align 2
	.type	_ZNK5boost4asio15system_executor8dispatchINS0_6detail7binder2ISt5_BindIFM6ClientFvRKNS_6system10error_codeEiEPS6_St12_PlaceholderILi1EESE_ILi2EEEES8_iEESaIvEEEvOT_RKT0_, @function
_ZNK5boost4asio15system_executor8dispatchINS0_6detail7binder2ISt5_BindIFM6ClientFvRKNS_6system10error_codeEiEPS6_St12_PlaceholderILi1EESE_ILi2EEEES8_iEESaIvEEEvOT_RKT0_:
.LVL14:
.LFB13:
	.file 7 "/usr/local/include/boost/asio/impl/system_executor.hpp"
	.loc 7 35 6 is_stmt 1 view -0
	.cfi_startproc
	.loc 7 35 6 is_stmt 0 view .LVU38
	subq	$72, %rsp
	.cfi_def_cfa_offset 80
.LVL15:
.LBB59:
.LBI59:
	.file 8 "/usr/local/include/boost/asio/detail/bind_handler.hpp"
	.loc 8 154 3 is_stmt 1 view .LVU39
.LBB60:
.LBB61:
.LBB62:
.LBI62:
	.file 9 "/usr/include/c++/9/functional"
	.loc 9 472 7 view .LVU40
.LBB63:
.LBB64:
.LBI64:
	.file 10 "/usr/include/c++/9/bits/move.h"
	.loc 10 99 5 view .LVU41
	.loc 10 99 5 is_stmt 0 view .LVU42
.LBE64:
	.loc 9 473 78 view .LVU43
	movq	(%rsi), %rdx
	movq	8(%rsi), %rcx
	movq	%rdx, %rax
	movq	%rdx, (%rsp)
	movq	%rcx, 8(%rsp)
.LVL16:
.LBB65:
.LBI65:
	.loc 10 99 5 is_stmt 1 view .LVU44
	.loc 10 99 5 is_stmt 0 view .LVU45
.LBE65:
.LBB66:
.LBI66:
	.file 11 "/usr/include/c++/9/tuple"
	.loc 11 642 17 is_stmt 1 view .LVU46
.LBB67:
.LBI67:
	.loc 11 227 7 view .LVU47
.LBB68:
.LBI68:
	.loc 11 201 7 view .LVU48
	.loc 11 201 7 is_stmt 0 view .LVU49
.LBE68:
.LBB69:
.LBI69:
	.loc 10 99 5 is_stmt 1 view .LVU50
	.loc 10 99 5 is_stmt 0 view .LVU51
.LBE69:
.LBB70:
.LBI70:
	.loc 11 227 7 is_stmt 1 view .LVU52
	.loc 11 227 7 is_stmt 0 view .LVU53
.LBE70:
.LBB71:
.LBI71:
	.loc 11 195 7 is_stmt 1 view .LVU54
	.loc 11 195 7 is_stmt 0 view .LVU55
.LBE71:
.LBB72:
.LBI72:
	.loc 10 74 5 is_stmt 1 view .LVU56
	.loc 10 74 5 is_stmt 0 view .LVU57
.LBE72:
.LBB73:
.LBI73:
	.loc 11 132 19 is_stmt 1 view .LVU58
.LBB74:
.LBB75:
.LBB76:
.LBI76:
	.loc 10 74 5 view .LVU59
	.loc 10 74 5 is_stmt 0 view .LVU60
.LBE76:
	.loc 11 133 42 view .LVU61
	movq	16(%rsi), %rdi
.LVL17:
	.loc 11 133 42 view .LVU62
	movq	%rdi, 16(%rsp)
.LVL18:
	.loc 11 133 42 view .LVU63
.LBE75:
.LBE74:
.LBE73:
.LBE67:
.LBE66:
.LBE63:
.LBE62:
	.loc 8 157 45 view .LVU64
	movdqu	24(%rsi), %xmm0
	movups	%xmm0, 24(%rsp)
	.loc 8 157 39 view .LVU65
	movl	40(%rsi), %esi
.LVL19:
	.loc 8 157 45 view .LVU66
	movl	%esi, 40(%rsp)
.LVL20:
	.loc 8 157 45 view .LVU67
.LBE61:
.LBE60:
.LBE59:
.LBB77:
.LBI77:
	.file 12 "/usr/local/include/boost/asio/detail/handler_invoke_helpers.hpp"
	.loc 12 30 13 is_stmt 1 view .LVU68
.LBB78:
.LBI78:
	.loc 8 204 13 view .LVU69
.LBB79:
.LBI79:
	.loc 12 30 13 view .LVU70
.LBB80:
.LBI80:
	.file 13 "/usr/local/include/boost/asio/handler_invoke_hook.hpp"
	.loc 13 67 13 view .LVU71
.LBB81:
.LBI81:
	.loc 8 162 8 view .LVU72
.LBB82:
.LBI82:
	.loc 9 480 2 view .LVU73
.LBB83:
.LBB84:
.LBI84:
	.loc 11 1482 5 view .LVU74
.LBB85:
.LBI85:
	.loc 11 945 19 view .LVU75
.LBB86:
.LBI86:
	.loc 11 210 17 view .LVU76
.LBB87:
.LBI87:
	.loc 11 343 17 view .LVU77
.LBB88:
.LBI88:
	.loc 11 125 17 view .LVU78
.LBB89:
	.loc 11 126 25 is_stmt 0 view .LVU79
	leaq	40(%rsp), %r8
.LVL21:
	.loc 11 126 25 view .LVU80
	movq	%r8, 48(%rsp)
.LVL22:
	.loc 11 126 25 view .LVU81
.LBE89:
.LBE88:
.LBE87:
.LBB90:
.LBI90:
	.loc 11 125 17 is_stmt 1 view .LVU82
.LBB91:
	.loc 11 126 25 is_stmt 0 view .LVU83
	leaq	24(%rsp), %rsi
.LVL23:
	.loc 11 126 25 view .LVU84
	movq	%rsi, 56(%rsp)
.LVL24:
	.loc 11 126 25 view .LVU85
.LBE91:
.LBE90:
.LBE86:
.LBE85:
.LBE84:
.LBB92:
.LBI92:
	.loc 9 398 2 is_stmt 1 view .LVU86
.LBB93:
.LBI93:
	.loc 9 345 2 view .LVU87
.LBB94:
.LBI94:
	.loc 11 1332 5 view .LVU88
.LBB95:
.LBI95:
	.loc 11 1320 5 view .LVU89
.LBB96:
.LBI96:
	.loc 11 1309 5 view .LVU90
.LBB97:
.LBI97:
	.loc 11 334 7 view .LVU91
.LBB98:
.LBI98:
	.loc 11 160 7 view .LVU92
	.loc 11 160 7 is_stmt 0 view .LVU93
.LBE98:
.LBE97:
.LBE96:
.LBE95:
.LBE94:
.LBE93:
.LBB99:
.LBI99:
	.loc 9 345 2 is_stmt 1 view .LVU94
.LBB100:
.LBI100:
	.loc 11 1332 5 view .LVU95
.LBB101:
.LBI101:
	.loc 11 1320 5 view .LVU96
.LBB102:
.LBI102:
	.loc 11 1309 5 view .LVU97
.LBB103:
.LBI103:
	.loc 11 195 7 view .LVU98
.LBB104:
.LBI104:
	.loc 11 160 7 view .LVU99
	.loc 11 160 7 is_stmt 0 view .LVU100
.LBE104:
.LBE103:
.LBE102:
.LBE101:
.LBE100:
.LBE99:
.LBB105:
.LBI105:
	.file 14 "/usr/include/c++/9/bits/invoke.h"
	.loc 14 89 5 is_stmt 1 view .LVU101
.LBB106:
.LBI106:
	.loc 14 70 5 view .LVU102
.LBB107:
	.loc 14 73 46 is_stmt 0 view .LVU103
	testb	$1, %al
	je	.L15
	movq	(%rdi,%rcx), %r9
	movq	-1(%rdx,%r9), %rax
.L15:
	addq	8(%rsp), %rdi
	movl	(%r8), %edx
	call	*%rax
.LVL25:
	.loc 14 73 46 view .LVU104
.LBE107:
.LBE106:
.LBE105:
.LBE92:
.LBE83:
.LBE82:
.LBE81:
.LBE80:
.LBE79:
.LBE78:
.LBE77:
	.loc 7 40 1 view .LVU105
	addq	$72, %rsp
	.cfi_def_cfa_offset 8
	ret
	.cfi_endproc
.LFE13:
	.size	_ZNK5boost4asio15system_executor8dispatchINS0_6detail7binder2ISt5_BindIFM6ClientFvRKNS_6system10error_codeEiEPS6_St12_PlaceholderILi1EESE_ILi2EEEES8_iEESaIvEEEvOT_RKT0_, .-_ZNK5boost4asio15system_executor8dispatchINS0_6detail7binder2ISt5_BindIFM6ClientFvRKNS_6system10error_codeEiEPS6_St12_PlaceholderILi1EESE_ILi2EEEES8_iEESaIvEEEvOT_RKT0_
	.align 2
	.type	_ZN5boost4asio6detail16service_registry16init_key_from_idINS1_18signal_set_serviceEEEvRNS0_17execution_context7service3keyERKNS1_10service_idIT_EE, @function
_ZN5boost4asio6detail16service_registry16init_key_from_idINS1_18signal_set_serviceEEEvRNS0_17execution_context7service3keyERKNS1_10service_idIT_EE:
.LVL26:
.LFB15:
	.file 15 "/usr/local/include/boost/asio/detail/impl/service_registry.hpp"
	.loc 15 76 6 is_stmt 1 view -0
	.cfi_startproc
	.loc 15 79 3 view .LVU107
	leaq	_ZTIN5boost4asio6detail14typeid_wrapperINS1_18signal_set_serviceEEE(%rip), %rax
	movq	%rax, (%rdi)
	.loc 15 80 3 view .LVU108
	movq	$0, 8(%rdi)
	.loc 15 81 1 view .LVU109
	ret
	.cfi_endproc
.LFE15:
	.size	_ZN5boost4asio6detail16service_registry16init_key_from_idINS1_18signal_set_serviceEEEvRNS0_17execution_context7service3keyERKNS1_10service_idIT_EE, .-_ZN5boost4asio6detail16service_registry16init_key_from_idINS1_18signal_set_serviceEEEvRNS0_17execution_context7service3keyERKNS1_10service_idIT_EE
	.align 2
	.type	_ZN5boost4asio6detail16service_registry16init_key_from_idINS1_13epoll_reactorEEEvRNS0_17execution_context7service3keyERKNS1_10service_idIT_EE, @function
_ZN5boost4asio6detail16service_registry16init_key_from_idINS1_13epoll_reactorEEEvRNS0_17execution_context7service3keyERKNS1_10service_idIT_EE:
.LVL27:
.LFB16:
	.loc 15 76 6 view -0
	.cfi_startproc
	.loc 15 79 3 view .LVU111
	leaq	_ZTIN5boost4asio6detail14typeid_wrapperINS1_13epoll_reactorEEE(%rip), %rax
	movq	%rax, (%rdi)
	.loc 15 80 3 view .LVU112
	movq	$0, 8(%rdi)
	.loc 15 81 1 view .LVU113
	ret
	.cfi_endproc
.LFE16:
	.size	_ZN5boost4asio6detail16service_registry16init_key_from_idINS1_13epoll_reactorEEEvRNS0_17execution_context7service3keyERKNS1_10service_idIT_EE, .-_ZN5boost4asio6detail16service_registry16init_key_from_idINS1_13epoll_reactorEEEvRNS0_17execution_context7service3keyERKNS1_10service_idIT_EE
	.align 2
	.type	_ZN5boost4asio6detail16service_registry16init_key_from_idINS1_9schedulerEEEvRNS0_17execution_context7service3keyERKNS1_10service_idIT_EE, @function
_ZN5boost4asio6detail16service_registry16init_key_from_idINS1_9schedulerEEEvRNS0_17execution_context7service3keyERKNS1_10service_idIT_EE:
.LVL28:
.LFB17:
	.loc 15 76 6 view -0
	.cfi_startproc
	.loc 15 79 3 view .LVU115
	leaq	_ZTIN5boost4asio6detail14typeid_wrapperINS1_9schedulerEEE(%rip), %rax
	movq	%rax, (%rdi)
	.loc 15 80 3 view .LVU116
	movq	$0, 8(%rdi)
	.loc 15 81 1 view .LVU117
	ret
	.cfi_endproc
.LFE17:
	.size	_ZN5boost4asio6detail16service_registry16init_key_from_idINS1_9schedulerEEEvRNS0_17execution_context7service3keyERKNS1_10service_idIT_EE, .-_ZN5boost4asio6detail16service_registry16init_key_from_idINS1_9schedulerEEEvRNS0_17execution_context7service3keyERKNS1_10service_idIT_EE
	.align 2
	.type	_ZN5boost4asio6detail8op_queueINS1_9signal_opEED2Ev, @function
_ZN5boost4asio6detail8op_queueINS1_9signal_opEED2Ev:
.LVL29:
.LFB18:
	.file 16 "/usr/local/include/boost/asio/detail/op_queue.hpp"
	.loc 16 76 3 view -0
	.cfi_startproc
	.cfi_personality 0x9b,DW.ref.__gxx_personality_v0
	.cfi_lsda 0x1b,.LLSDA18
	.loc 16 76 3 is_stmt 0 view .LVU119
	pushq	%rbp
	.cfi_def_cfa_offset 16
	.cfi_offset 6, -16
	pushq	%rbx
	.cfi_def_cfa_offset 24
	.cfi_offset 3, -24
	subq	$24, %rsp
	.cfi_def_cfa_offset 48
	movq	%rdi, %rbx
.LBB108:
.LBB109:
.LBB110:
.LBB111:
.LBB112:
	.file 17 "/usr/local/include/boost/asio/detail/scheduler_operation.hpp"
	.loc 17 45 10 view .LVU120
	movq	%rsp, %rbp
	jmp	.L23
.LVL30:
.L25:
	.loc 17 45 10 view .LVU121
.LBE112:
.LBE111:
.LBE110:
.LBE109:
.LBB119:
.LBB120:
	.loc 16 99 9 view .LVU122
	movq	$0, 8(%rbx)
.L22:
.LVL31:
.LBB121:
.LBI121:
	.loc 16 39 15 is_stmt 1 view .LVU123
.LBB122:
	.loc 16 41 5 is_stmt 0 view .LVU124
	movq	$0, (%rsi)
.LVL32:
	.loc 16 41 5 view .LVU125
.LBE122:
.LBE121:
.LBE120:
.LBE119:
.LBB126:
.LBI109:
	.loc 16 45 15 is_stmt 1 view .LVU126
.LBB118:
.LBB117:
.LBI111:
	.loc 17 43 8 view .LVU127
.LBB116:
	.loc 17 45 5 view .LVU128
	movq	8(%rsi), %r8
.LVL33:
.LBB113:
.LBI113:
	.file 18 "/usr/local/include/boost/system/error_code.hpp"
	.loc 18 583 15 view .LVU129
.LBB114:
.LBB115:
	.loc 18 584 63 is_stmt 0 view .LVU130
	movl	$0, (%rsp)
	movb	$0, 4(%rsp)
	movq	_ZN5boost6system6detail10cat_holderIvE24system_category_instanceE@GOTPCREL(%rip), %rdx
	movq	%rdx, 8(%rsp)
.LVL34:
	.loc 18 584 63 view .LVU131
.LBE115:
.LBE114:
.LBE113:
	.loc 17 45 10 view .LVU132
	movl	$0, %ecx
	movq	%rbp, %rdx
	movl	$0, %edi
	call	*%r8
.LVL35:
.L23:
	.loc 17 45 10 view .LVU133
.LBE116:
.LBE117:
.LBE118:
.LBE126:
	.loc 16 78 23 view .LVU134
	movq	(%rbx), %rsi
.LVL36:
	.loc 16 78 5 view .LVU135
	testq	%rsi, %rsi
	je	.L20
.LVL37:
.LBB127:
.LBI119:
	.loc 16 92 8 is_stmt 1 view .LVU136
.LBB125:
.LBB123:
.LBI123:
	.loc 16 33 21 view .LVU137
.LBB124:
	.loc 16 35 44 is_stmt 0 view .LVU138
	movq	(%rsi), %rax
.LVL38:
	.loc 16 35 44 view .LVU139
.LBE124:
.LBE123:
	.loc 16 97 7 view .LVU140
	movq	%rax, (%rbx)
	.loc 16 98 7 view .LVU141
	testq	%rax, %rax
	jne	.L22
	jmp	.L25
.LVL39:
.L20:
	.loc 16 98 7 view .LVU142
.LBE125:
.LBE127:
.LBE108:
	.loc 16 83 3 view .LVU143
	addq	$24, %rsp
	.cfi_def_cfa_offset 24
	popq	%rbx
	.cfi_def_cfa_offset 16
.LVL40:
	.loc 16 83 3 view .LVU144
	popq	%rbp
	.cfi_def_cfa_offset 8
	ret
	.cfi_endproc
.LFE18:
	.globl	__gxx_personality_v0
	.section	.gcc_except_table,"a",@progbits
.LLSDA18:
	.byte	0xff
	.byte	0xff
	.byte	0x1
	.uleb128 .LLSDACSE18-.LLSDACSB18
.LLSDACSB18:
.LLSDACSE18:
	.text
	.size	_ZN5boost4asio6detail8op_queueINS1_9signal_opEED2Ev, .-_ZN5boost4asio6detail8op_queueINS1_9signal_opEED2Ev
	.set	_ZN5boost4asio6detail8op_queueINS1_9signal_opEED1Ev,_ZN5boost4asio6detail8op_queueINS1_9signal_opEED2Ev
	.align 2
	.type	_ZN5boost4asio6detail8op_queueINS1_19scheduler_operationEED2Ev, @function
_ZN5boost4asio6detail8op_queueINS1_19scheduler_operationEED2Ev:
.LVL41:
.LFB19:
	.loc 16 76 3 is_stmt 1 view -0
	.cfi_startproc
	.cfi_personality 0x9b,DW.ref.__gxx_personality_v0
	.cfi_lsda 0x1b,.LLSDA19
	.loc 16 76 3 is_stmt 0 view .LVU146
	pushq	%rbp
	.cfi_def_cfa_offset 16
	.cfi_offset 6, -16
	pushq	%rbx
	.cfi_def_cfa_offset 24
	.cfi_offset 3, -24
	subq	$24, %rsp
	.cfi_def_cfa_offset 48
	movq	%rdi, %rbx
.LBB145:
.LBB146:
.LBB147:
.LBB148:
	.loc 17 45 10 view .LVU147
	movq	%rsp, %rbp
	jmp	.L29
.LVL42:
.L31:
	.loc 17 45 10 view .LVU148
.LBE148:
.LBE147:
.LBE146:
.LBB154:
.LBB155:
	.loc 16 99 9 view .LVU149
	movq	$0, 8(%rbx)
.L28:
.LVL43:
.LBB156:
.LBI156:
	.loc 16 39 15 is_stmt 1 view .LVU150
.LBB157:
	.loc 16 41 5 is_stmt 0 view .LVU151
	movq	$0, (%rsi)
.LVL44:
	.loc 16 41 5 view .LVU152
.LBE157:
.LBE156:
.LBE155:
.LBE154:
.LBB161:
.LBI146:
	.loc 16 45 15 is_stmt 1 view .LVU153
.LBB153:
.LBI147:
	.loc 17 43 8 view .LVU154
.LBB152:
	.loc 17 45 5 view .LVU155
	movq	8(%rsi), %r8
.LVL45:
.LBB149:
.LBI149:
	.loc 18 583 15 view .LVU156
.LBB150:
.LBB151:
	.loc 18 584 63 is_stmt 0 view .LVU157
	movl	$0, (%rsp)
	movb	$0, 4(%rsp)
	movq	_ZN5boost6system6detail10cat_holderIvE24system_category_instanceE@GOTPCREL(%rip), %rdx
	movq	%rdx, 8(%rsp)
.LVL46:
	.loc 18 584 63 view .LVU158
.LBE151:
.LBE150:
.LBE149:
	.loc 17 45 10 view .LVU159
	movl	$0, %ecx
	movq	%rbp, %rdx
	movl	$0, %edi
	call	*%r8
.LVL47:
.L29:
	.loc 17 45 10 view .LVU160
.LBE152:
.LBE153:
.LBE161:
	.loc 16 78 23 view .LVU161
	movq	(%rbx), %rsi
.LVL48:
	.loc 16 78 5 view .LVU162
	testq	%rsi, %rsi
	je	.L26
.LVL49:
.LBB162:
.LBI154:
	.loc 16 92 8 is_stmt 1 view .LVU163
.LBB160:
.LBB158:
.LBI158:
	.loc 16 33 21 view .LVU164
.LBB159:
	.loc 16 35 44 is_stmt 0 view .LVU165
	movq	(%rsi), %rax
.LVL50:
	.loc 16 35 44 view .LVU166
.LBE159:
.LBE158:
	.loc 16 97 7 view .LVU167
	movq	%rax, (%rbx)
	.loc 16 98 7 view .LVU168
	testq	%rax, %rax
	jne	.L28
	jmp	.L31
.LVL51:
.L26:
	.loc 16 98 7 view .LVU169
.LBE160:
.LBE162:
.LBE145:
	.loc 16 83 3 view .LVU170
	addq	$24, %rsp
	.cfi_def_cfa_offset 24
	popq	%rbx
	.cfi_def_cfa_offset 16
.LVL52:
	.loc 16 83 3 view .LVU171
	popq	%rbp
	.cfi_def_cfa_offset 8
	ret
	.cfi_endproc
.LFE19:
	.section	.gcc_except_table
.LLSDA19:
	.byte	0xff
	.byte	0xff
	.byte	0x1
	.uleb128 .LLSDACSE19-.LLSDACSB19
.LLSDACSB19:
.LLSDACSE19:
	.text
	.size	_ZN5boost4asio6detail8op_queueINS1_19scheduler_operationEED2Ev, .-_ZN5boost4asio6detail8op_queueINS1_19scheduler_operationEED2Ev
	.set	_ZN5boost4asio6detail8op_queueINS1_19scheduler_operationEED1Ev,_ZN5boost4asio6detail8op_queueINS1_19scheduler_operationEED2Ev
	.section	.rodata.str1.1,"aMS",@progbits,1
.LC0:
	.string	"bad executor"
	.text
	.align 2
	.type	_ZNK5boost4asio12bad_executor4whatEv, @function
_ZNK5boost4asio12bad_executor4whatEv:
.LVL53:
.LFB21:
	.file 19 "/usr/local/include/boost/asio/impl/executor.ipp"
	.loc 19 31 1 is_stmt 1 view -0
	.cfi_startproc
	.loc 19 32 3 view .LVU173
	.loc 19 33 1 is_stmt 0 view .LVU174
	leaq	.LC0(%rip), %rax
	ret
	.cfi_endproc
.LFE21:
	.size	_ZNK5boost4asio12bad_executor4whatEv, .-_ZNK5boost4asio12bad_executor4whatEv
	.type	boost_asio_detail_posix_thread_function, @function
boost_asio_detail_posix_thread_function:
.LVL54:
.LFB22:
	.file 20 "/usr/local/include/boost/asio/detail/impl/posix_thread.ipp"
	.loc 20 71 1 is_stmt 1 view -0
	.cfi_startproc
	.cfi_personality 0x9b,DW.ref.__gcc_personality_v0
	.cfi_lsda 0x1b,.LLSDA22
	.loc 20 71 1 is_stmt 0 view .LVU176
	pushq	%rbp
	.cfi_def_cfa_offset 16
	.cfi_offset 6, -16
	pushq	%rbx
	.cfi_def_cfa_offset 24
	.cfi_offset 3, -24
	subq	$8, %rsp
	.cfi_def_cfa_offset 32
	movq	%rdi, %rbx
	.loc 20 72 3 is_stmt 1 view .LVU177
	.loc 20 74 3 view .LVU178
	.loc 20 74 17 is_stmt 0 view .LVU179
	movq	(%rdi), %rax
.LEHB0:
	.loc 20 74 16 view .LVU180
	call	*16(%rax)
.LVL55:
.LEHE0:
	.loc 20 75 3 is_stmt 1 view .LVU181
.LBB163:
.LBI163:
	.loc 6 71 5 view .LVU182
.LBB164:
	.loc 6 71 29 view .LVU183
	.loc 6 71 39 is_stmt 0 view .LVU184
	testq	%rbx, %rbx
	je	.L38
	.loc 6 71 36 view .LVU185
	movq	(%rbx), %rdx
	movq	%rbx, %rdi
	call	*8(%rdx)
.LVL56:
.L38:
	.loc 6 71 36 view .LVU186
.LBE164:
.LBE163:
	.loc 20 76 1 view .LVU187
	movl	$0, %eax
	addq	$8, %rsp
	.cfi_remember_state
	.cfi_def_cfa_offset 24
	popq	%rbx
	.cfi_def_cfa_offset 16
.LVL57:
	.loc 20 76 1 view .LVU188
	popq	%rbp
	.cfi_def_cfa_offset 8
	ret
.LVL58:
.L37:
	.cfi_restore_state
	.loc 20 76 1 view .LVU189
	movq	%rax, %rbp
.LVL59:
.LBB165:
.LBI165:
	.loc 6 71 5 is_stmt 1 view .LVU190
.LBB166:
	.loc 6 71 29 view .LVU191
	.loc 6 71 39 is_stmt 0 view .LVU192
	testq	%rbx, %rbx
	je	.L36
	.loc 6 71 36 view .LVU193
	movq	(%rbx), %rcx
	movq	%rbx, %rdi
	call	*8(%rcx)
.LVL60:
.L36:
	.loc 6 71 36 view .LVU194
	movq	%rbp, %rdi
.LEHB1:
	call	_Unwind_Resume@PLT
.LVL61:
.LEHE1:
.LBE166:
.LBE165:
	.cfi_endproc
.LFE22:
	.globl	__gcc_personality_v0
	.section	.gcc_except_table
.LLSDA22:
	.byte	0xff
	.byte	0xff
	.byte	0x1
	.uleb128 .LLSDACSE22-.LLSDACSB22
.LLSDACSB22:
	.uleb128 .LEHB0-.LFB22
	.uleb128 .LEHE0-.LEHB0
	.uleb128 .L37-.LFB22
	.uleb128 0
	.uleb128 .LEHB1-.LFB22
	.uleb128 .LEHE1-.LEHB1
	.uleb128 0
	.uleb128 0
.LLSDACSE22:
	.text
	.size	boost_asio_detail_posix_thread_function, .-boost_asio_detail_posix_thread_function
	.align 2
	.type	_ZN5boost4asio17execution_context7service11notify_forkENS1_10fork_eventE, @function
_ZN5boost4asio17execution_context7service11notify_forkENS1_10fork_eventE:
.LVL62:
.LFB23:
	.file 21 "/usr/local/include/boost/asio/impl/execution_context.ipp"
	.loc 21 66 1 is_stmt 1 view -0
	.cfi_startproc
	.loc 21 67 1 view .LVU196
	ret
	.cfi_endproc
.LFE23:
	.size	_ZN5boost4asio17execution_context7service11notify_forkENS1_10fork_eventE, .-_ZN5boost4asio17execution_context7service11notify_forkENS1_10fork_eventE
	.section	.rodata.str1.1
.LC1:
	.string	"asio.misc"
	.text
	.align 2
	.type	_ZNK5boost4asio5error6detail13misc_category4nameEv, @function
_ZNK5boost4asio5error6detail13misc_category4nameEv:
.LVL63:
.LFB24:
	.file 22 "/usr/local/include/boost/asio/impl/error.ipp"
	.loc 22 97 15 view -0
	.cfi_startproc
	.loc 22 99 5 view .LVU198
	.loc 22 100 3 is_stmt 0 view .LVU199
	leaq	.LC1(%rip), %rax
	ret
	.cfi_endproc
.LFE24:
	.size	_ZNK5boost4asio5error6detail13misc_category4nameEv, .-_ZNK5boost4asio5error6detail13misc_category4nameEv
	.section	.rodata.str1.1
.LC2:
	.string	"asio.addrinfo"
	.text
	.align 2
	.type	_ZNK5boost4asio5error6detail17addrinfo_category4nameEv, @function
_ZNK5boost4asio5error6detail17addrinfo_category4nameEv:
.LVL64:
.LFB25:
	.loc 22 67 15 is_stmt 1 view -0
	.cfi_startproc
	.loc 22 69 5 view .LVU201
	.loc 22 70 3 is_stmt 0 view .LVU202
	leaq	.LC2(%rip), %rax
	ret
	.cfi_endproc
.LFE25:
	.size	_ZNK5boost4asio5error6detail17addrinfo_category4nameEv, .-_ZNK5boost4asio5error6detail17addrinfo_category4nameEv
	.section	.rodata.str1.1
.LC3:
	.string	"asio.netdb"
	.text
	.align 2
	.type	_ZNK5boost4asio5error6detail14netdb_category4nameEv, @function
_ZNK5boost4asio5error6detail14netdb_category4nameEv:
.LVL65:
.LFB26:
	.loc 22 35 15 is_stmt 1 view -0
	.cfi_startproc
	.loc 22 37 5 view .LVU204
	.loc 22 38 3 is_stmt 0 view .LVU205
	leaq	.LC3(%rip), %rax
	ret
	.cfi_endproc
.LFE26:
	.size	_ZNK5boost4asio5error6detail14netdb_category4nameEv, .-_ZNK5boost4asio5error6detail14netdb_category4nameEv
	.align 2
	.type	_ZNK5boost6system6detail21system_error_category23default_error_conditionEi, @function
_ZNK5boost6system6detail21system_error_category23default_error_conditionEi:
.LVL66:
.LFB27:
	.loc 18 943 1 is_stmt 1 view -0
	.cfi_startproc
	.loc 18 944 5 view .LVU207
.LBB182:
.LBI182:
	.file 23 "/usr/local/include/boost/system/detail/system_category_posix.hpp"
	.loc 23 116 24 view .LVU208
.LBB183:
	.loc 23 118 5 view .LVU209
.LBB184:
.LBI184:
	.loc 23 19 13 view .LVU210
.LBB185:
	.loc 23 21 5 view .LVU211
	.loc 23 23 5 view .LVU212
	.loc 23 106 5 view .LVU213
	.loc 23 108 5 view .LVU214
	.loc 23 108 5 is_stmt 0 view .LVU215
.LBE185:
.LBE184:
.LBE183:
	.loc 23 108 14 view .LVU216
	movl	$0, %eax
.LBB209:
.LBB188:
.LBB187:
.LBB186:
	.loc 23 110 26 view .LVU217
	leaq	_ZZN5boost6system6detail16is_generic_valueEiE3gen(%rip), %rdx
.LVL67:
	.loc 23 108 23 is_stmt 1 view .LVU218
	.loc 23 110 9 view .LVU219
	.loc 23 110 26 is_stmt 0 view .LVU220
	movslq	%eax, %rcx
	.loc 23 110 9 view .LVU221
	cmpl	(%rdx,%rcx,4), %esi
	je	.L50
	.loc 23 108 5 is_stmt 1 view .LVU222
	leal	1(%rax), %edi
.LVL68:
	.loc 23 108 23 view .LVU223
	.loc 23 110 9 view .LVU224
	cmpl	4(%rdx), %esi
	je	.L50
	.loc 23 108 5 view .LVU225
	addl	$1, %edi
.LVL69:
.L46:
	.loc 23 108 23 view .LVU226
	cmpl	$78, %edi
	jg	.L49
	.loc 23 110 9 view .LVU227
	.loc 23 110 26 is_stmt 0 view .LVU228
	movslq	%edi, %r8
	.loc 23 110 9 view .LVU229
	cmpl	(%rdx,%r8,4), %esi
	je	.L50
	.loc 23 108 5 is_stmt 1 view .LVU230
	addl	$1, %edi
	.loc 23 108 23 view .LVU231
	.loc 23 110 9 view .LVU232
	.loc 23 110 26 is_stmt 0 view .LVU233
	movslq	%edi, %r9
	.loc 23 110 9 view .LVU234
	cmpl	(%rdx,%r9,4), %esi
	je	.L50
	.loc 23 108 5 is_stmt 1 view .LVU235
	leal	1(%rdi), %r10d
	.loc 23 108 23 view .LVU236
	.loc 23 110 9 view .LVU237
	.loc 23 110 26 is_stmt 0 view .LVU238
	movslq	%r10d, %r11
	.loc 23 110 9 view .LVU239
	cmpl	(%rdx,%r11,4), %esi
	je	.L50
	.loc 23 108 5 is_stmt 1 view .LVU240
	leal	2(%rdi), %eax
	.loc 23 108 23 view .LVU241
	.loc 23 110 9 view .LVU242
	.loc 23 110 26 is_stmt 0 view .LVU243
	movslq	%eax, %rcx
	.loc 23 110 9 view .LVU244
	cmpl	(%rdx,%rcx,4), %esi
	je	.L50
	.loc 23 108 5 is_stmt 1 view .LVU245
	leal	3(%rdi), %r8d
	.loc 23 108 23 view .LVU246
	.loc 23 110 9 view .LVU247
	.loc 23 110 26 is_stmt 0 view .LVU248
	movslq	%r8d, %r9
	.loc 23 110 9 view .LVU249
	cmpl	(%rdx,%r9,4), %esi
	je	.L50
	.loc 23 108 5 is_stmt 1 view .LVU250
	leal	4(%rdi), %r10d
	.loc 23 108 23 view .LVU251
	.loc 23 110 9 view .LVU252
	.loc 23 110 26 is_stmt 0 view .LVU253
	movslq	%r10d, %r11
	.loc 23 110 9 view .LVU254
	cmpl	(%rdx,%r11,4), %esi
	je	.L50
	.loc 23 108 5 is_stmt 1 view .LVU255
	leal	5(%rdi), %eax
	.loc 23 108 23 view .LVU256
	.loc 23 110 9 view .LVU257
	.loc 23 110 26 is_stmt 0 view .LVU258
	movslq	%eax, %rcx
	.loc 23 110 9 view .LVU259
	cmpl	(%rdx,%rcx,4), %esi
	je	.L50
	.loc 23 108 5 is_stmt 1 view .LVU260
	leal	6(%rdi), %r8d
	.loc 23 108 23 view .LVU261
	.loc 23 110 9 view .LVU262
	.loc 23 110 26 is_stmt 0 view .LVU263
	movslq	%r8d, %r9
	.loc 23 110 9 view .LVU264
	cmpl	(%rdx,%r9,4), %esi
	je	.L50
	.loc 23 108 5 is_stmt 1 view .LVU265
	leal	7(%rdi), %r10d
	.loc 23 108 23 view .LVU266
	.loc 23 110 9 view .LVU267
	.loc 23 110 26 is_stmt 0 view .LVU268
	movslq	%r10d, %r11
	.loc 23 110 9 view .LVU269
	cmpl	(%rdx,%r11,4), %esi
	je	.L50
	.loc 23 108 5 is_stmt 1 view .LVU270
	leal	8(%rdi), %eax
	.loc 23 108 23 view .LVU271
	.loc 23 110 9 view .LVU272
	.loc 23 110 26 is_stmt 0 view .LVU273
	movslq	%eax, %rcx
	.loc 23 110 9 view .LVU274
	cmpl	(%rdx,%rcx,4), %esi
	je	.L50
	.loc 23 108 5 is_stmt 1 view .LVU275
	leal	9(%rdi), %r8d
	.loc 23 108 23 view .LVU276
	.loc 23 110 9 view .LVU277
	.loc 23 110 26 is_stmt 0 view .LVU278
	movslq	%r8d, %r9
	.loc 23 110 9 view .LVU279
	cmpl	(%rdx,%r9,4), %esi
	je	.L50
	.loc 23 108 5 is_stmt 1 view .LVU280
	addl	$10, %edi
	jmp	.L46
.L49:
	.loc 23 108 5 is_stmt 0 view .LVU281
.LBE186:
.LBE187:
.LBE188:
.LBE209:
	.loc 23 113 12 view .LVU282
	movl	$0, %edx
	jmp	.L45
.L50:
	.loc 23 110 37 view .LVU283
	movl	$1, %edx
.L45:
.LVL70:
.LBB210:
	.loc 23 118 5 view .LVU284
	testb	%dl, %dl
	je	.L47
	.loc 23 120 9 is_stmt 1 view .LVU285
.LVL71:
.LBB189:
.LBI189:
	.loc 18 452 15 view .LVU286
.LBB190:
.LBB191:
.LBB192:
.LBI192:
	.loc 18 415 23 view .LVU287
.LBB193:
	.loc 18 417 5 view .LVU288
	.loc 18 417 5 is_stmt 0 view .LVU289
.LBE193:
.LBE192:
.LBE191:
.LBE190:
.LBE189:
.LBE210:
.LBE182:
	.loc 18 235 9 is_stmt 1 view .LVU290
	.loc 18 235 9 view .LVU291
.LBB213:
.LBB211:
.LBB198:
.LBB197:
.LBB196:
.LBB195:
.LBB194:
	.loc 18 419 9 view .LVU292
	.loc 18 419 22 is_stmt 0 view .LVU293
	testl	%esi, %esi
.LVL72:
	.loc 18 419 22 view .LVU294
.LBE194:
.LBE195:
	.loc 18 453 77 view .LVU295
	setne	%r11b
	movzbl	%r11b, %edx
	salq	$32, %rdx
	movl	%esi, %eax
.LVL73:
	.loc 18 453 77 view .LVU296
.LBE196:
.LBE197:
.LBE198:
	.loc 23 120 56 view .LVU297
	orq	%rdx, %rax
	movq	_ZN5boost6system6detail10cat_holderIvE25generic_category_instanceE@GOTPCREL(%rip), %rdx
	ret
.L47:
	.loc 23 124 9 is_stmt 1 view .LVU298
.LVL74:
.LBB199:
.LBI199:
	.loc 18 452 15 view .LVU299
.LBB200:
.LBB201:
.LBB202:
.LBI202:
	.loc 18 415 23 view .LVU300
.LBB203:
	.loc 18 417 5 view .LVU301
	.loc 18 417 5 is_stmt 0 view .LVU302
.LBE203:
.LBE202:
.LBE201:
.LBE200:
.LBE199:
.LBE211:
.LBE213:
	.loc 18 235 9 is_stmt 1 view .LVU303
.LBB214:
.LBB212:
.LBB208:
.LBB207:
.LBB206:
.LBB205:
.LBB204:
	.loc 18 419 9 view .LVU304
	.loc 18 419 22 is_stmt 0 view .LVU305
	testl	%esi, %esi
.LVL75:
	.loc 18 419 22 view .LVU306
.LBE204:
.LBE205:
	.loc 18 453 77 view .LVU307
	setne	%dil
	movzbl	%dil, %edx
	salq	$32, %rdx
	movl	%esi, %eax
.LVL76:
	.loc 18 453 77 view .LVU308
.LBE206:
.LBE207:
.LBE208:
	.loc 23 124 55 view .LVU309
	orq	%rdx, %rax
	movq	_ZN5boost6system6detail10cat_holderIvE24system_category_instanceE@GOTPCREL(%rip), %rdx
.LVL77:
	.loc 23 124 55 view .LVU310
.LBE212:
.LBE214:
	.loc 18 945 1 view .LVU311
	ret
	.cfi_endproc
.LFE27:
	.size	_ZNK5boost6system6detail21system_error_category23default_error_conditionEi, .-_ZNK5boost6system6detail21system_error_category23default_error_conditionEi
	.align 2
	.type	_ZNK5boost6system14error_category6failedEi, @function
_ZNK5boost6system14error_category6failedEi:
.LVL78:
.LFB29:
	.loc 18 895 1 is_stmt 1 view -0
	.cfi_startproc
	.loc 18 896 5 view .LVU313
	.loc 18 896 18 is_stmt 0 view .LVU314
	testl	%esi, %esi
	setne	%al
	.loc 18 897 1 view .LVU315
	ret
	.cfi_endproc
.LFE29:
	.size	_ZNK5boost6system14error_category6failedEi, .-_ZNK5boost6system14error_category6failedEi
	.align 2
	.type	_ZNK5boost6system14error_category10equivalentERKNS0_10error_codeEi, @function
_ZNK5boost6system14error_category10equivalentERKNS0_10error_codeEi:
.LVL79:
.LFB30:
	.loc 18 842 1 is_stmt 1 view -0
	.cfi_startproc
	.loc 18 843 5 view .LVU317
.LBB215:
.LBI215:
	.loc 18 630 38 view .LVU318
.LBB216:
	.loc 18 632 9 view .LVU319
	.loc 18 632 17 is_stmt 0 view .LVU320
	movq	8(%rsi), %rcx
.LVL80:
	.loc 18 632 17 view .LVU321
.LBE216:
.LBE215:
.LBB217:
.LBI217:
	.loc 18 233 20 is_stmt 1 view .LVU322
.LBB218:
	.loc 18 235 9 view .LVU323
	.loc 18 235 20 is_stmt 0 view .LVU324
	movq	8(%rcx), %rax
	.loc 18 235 28 view .LVU325
	testq	%rax, %rax
	jne	.L67
	cmpq	%rcx, %rdi
	sete	%al
.L68:
.LVL81:
	.loc 18 235 28 view .LVU326
.LBE218:
.LBE217:
	.loc 18 843 37 view .LVU327
	testb	%al, %al
	je	.L66
.LVL82:
.LBB220:
.LBI220:
	.loc 18 625 19 is_stmt 1 view .LVU328
.LBB221:
	.loc 18 627 9 view .LVU329
	.loc 18 627 9 is_stmt 0 view .LVU330
.LBE221:
.LBE220:
	.loc 18 843 37 view .LVU331
	cmpl	(%rsi), %edx
	je	.L66
	movl	$0, %eax
.L66:
	.loc 18 844 1 view .LVU332
	ret
.LVL83:
.L67:
.LBB222:
.LBB219:
	.loc 18 235 28 view .LVU333
	cmpq	%rax, 8(%rdi)
	sete	%al
	jmp	.L68
.LBE219:
.LBE222:
	.cfi_endproc
.LFE30:
	.size	_ZNK5boost6system14error_category10equivalentERKNS0_10error_codeEi, .-_ZNK5boost6system14error_category10equivalentERKNS0_10error_codeEi
	.align 2
	.type	_ZNK5boost6system14error_category10equivalentEiRKNS0_15error_conditionE, @function
_ZNK5boost6system14error_category10equivalentEiRKNS0_15error_conditionE:
.LVL84:
.LFB31:
	.loc 18 837 1 is_stmt 1 view -0
	.cfi_startproc
	.loc 18 837 1 is_stmt 0 view .LVU335
	pushq	%rbx
	.cfi_def_cfa_offset 16
	.cfi_offset 3, -16
	movq	%rdx, %rbx
	.loc 18 838 5 is_stmt 1 view .LVU336
	.loc 18 838 42 is_stmt 0 view .LVU337
	movq	(%rdi), %rax
	call	*8(%rax)
.LVL85:
.LBB223:
.LBI223:
	.loc 18 542 34 is_stmt 1 view .LVU338
.LBB224:
	.loc 18 544 9 view .LVU339
	.loc 18 544 37 is_stmt 0 view .LVU340
	cmpl	%eax, (%rbx)
	je	.L77
.LBE224:
.LBE223:
	movl	$0, %eax
.L72:
.LVL86:
	.loc 18 839 1 view .LVU341
	popq	%rbx
	.cfi_remember_state
	.cfi_def_cfa_offset 8
.LVL87:
	.loc 18 839 1 view .LVU342
	ret
.LVL88:
.L77:
	.cfi_restore_state
.LBB228:
.LBB227:
	.loc 18 544 58 view .LVU343
	movq	8(%rbx), %rcx
.LVL89:
.LBB225:
.LBI225:
	.loc 18 233 20 is_stmt 1 view .LVU344
.LBB226:
	.loc 18 235 9 view .LVU345
	.loc 18 235 20 is_stmt 0 view .LVU346
	movq	8(%rcx), %rsi
	.loc 18 235 28 view .LVU347
	testq	%rsi, %rsi
	jne	.L73
	cmpq	%rdx, %rcx
	sete	%al
	jmp	.L72
.L73:
	cmpq	8(%rdx), %rsi
	sete	%al
.LVL90:
	.loc 18 235 28 view .LVU348
	jmp	.L72
.LBE226:
.LBE225:
.LBE227:
.LBE228:
	.cfi_endproc
.LFE31:
	.size	_ZNK5boost6system14error_category10equivalentEiRKNS0_15error_conditionE, .-_ZNK5boost6system14error_category10equivalentEiRKNS0_15error_conditionE
	.align 2
	.type	_ZNK5boost6system14error_category23default_error_conditionEi, @function
_ZNK5boost6system14error_category23default_error_conditionEi:
.LVL91:
.LFB32:
	.loc 18 832 1 is_stmt 1 view -0
	.cfi_startproc
	.loc 18 832 1 is_stmt 0 view .LVU350
	pushq	%rbp
	.cfi_def_cfa_offset 16
	.cfi_offset 6, -16
	pushq	%rbx
	.cfi_def_cfa_offset 24
	.cfi_offset 3, -24
	subq	$8, %rsp
	.cfi_def_cfa_offset 32
	movq	%rdi, %rbx
	.loc 18 833 5 is_stmt 1 view .LVU351
.LVL92:
.LBB229:
.LBI229:
	.loc 18 452 15 view .LVU352
.LBB230:
.LBB231:
	.loc 18 453 77 is_stmt 0 view .LVU353
	movl	%esi, %ebp
.LVL93:
.LBB232:
.LBI232:
	.loc 18 415 23 is_stmt 1 view .LVU354
.LBB233:
	.loc 18 417 5 view .LVU355
.LBB234:
.LBI234:
	.loc 18 233 20 view .LVU356
.LBB235:
	.loc 18 235 9 view .LVU357
	.loc 18 235 44 is_stmt 0 view .LVU358
	movq	8(%rdi), %rax
.LVL94:
	.loc 18 235 44 view .LVU359
.LBE235:
.LBE234:
	.loc 18 417 34 view .LVU360
	movabsq	$-8093018978436915045, %rdx
	cmpq	%rdx, %rax
	je	.L79
.LVL95:
	.loc 18 417 34 view .LVU361
.LBE233:
.LBE232:
.LBE231:
.LBE230:
.LBE229:
	.loc 18 235 9 is_stmt 1 view .LVU362
.LBB244:
.LBB242:
.LBB240:
.LBB238:
.LBB236:
	.loc 18 417 34 is_stmt 0 view .LVU363
	movabsq	$-5572340897628102899, %rcx
	cmpq	%rcx, %rax
	je	.L79
	.loc 18 423 9 is_stmt 1 view .LVU364
	.loc 18 423 31 is_stmt 0 view .LVU365
	movq	(%rdi), %rax
	.loc 18 423 26 view .LVU366
	call	*48(%rax)
.LVL96:
.L81:
	.loc 18 423 26 view .LVU367
.LBE236:
.LBE238:
	.loc 18 453 77 view .LVU368
	movzbl	%al, %eax
	salq	$32, %rax
	orq	%rbp, %rax
.LVL97:
	.loc 18 453 77 view .LVU369
.LBE240:
.LBE242:
.LBE244:
	.loc 18 834 1 view .LVU370
	movq	%rbx, %rdx
	addq	$8, %rsp
	.cfi_remember_state
	.cfi_def_cfa_offset 24
	popq	%rbx
	.cfi_def_cfa_offset 16
.LVL98:
	.loc 18 834 1 view .LVU371
	popq	%rbp
	.cfi_def_cfa_offset 8
.LVL99:
	.loc 18 834 1 view .LVU372
	ret
.LVL100:
.L79:
	.cfi_restore_state
.LBB245:
.LBB243:
.LBB241:
.LBB239:
.LBB237:
	.loc 18 419 9 is_stmt 1 view .LVU373
	.loc 18 419 22 is_stmt 0 view .LVU374
	testl	%esi, %esi
	setne	%al
	jmp	.L81
.LBE237:
.LBE239:
.LBE241:
.LBE243:
.LBE245:
	.cfi_endproc
.LFE32:
	.size	_ZNK5boost6system14error_category23default_error_conditionEi, .-_ZNK5boost6system14error_category23default_error_conditionEi
	.section	.rodata.str1.1
.LC4:
	.string	"system"
	.text
	.align 2
	.type	_ZNK5boost6system6detail21system_error_category4nameEv, @function
_ZNK5boost6system6detail21system_error_category4nameEv:
.LVL101:
.LFB33:
	.loc 18 308 18 is_stmt 1 view -0
	.cfi_startproc
	.loc 18 310 9 view .LVU376
	.loc 18 311 5 is_stmt 0 view .LVU377
	leaq	.LC4(%rip), %rax
	ret
	.cfi_endproc
.LFE33:
	.size	_ZNK5boost6system6detail21system_error_category4nameEv, .-_ZNK5boost6system6detail21system_error_category4nameEv
	.section	.rodata.str1.1
.LC5:
	.string	"generic"
	.text
	.align 2
	.type	_ZNK5boost6system6detail22generic_error_category4nameEv, @function
_ZNK5boost6system6detail22generic_error_category4nameEv:
.LVL102:
.LFB34:
	.loc 18 290 18 is_stmt 1 view -0
	.cfi_startproc
	.loc 18 292 9 view .LVU379
	.loc 18 293 5 is_stmt 0 view .LVU380
	leaq	.LC5(%rip), %rax
	ret
	.cfi_endproc
.LFE34:
	.size	_ZNK5boost6system6detail22generic_error_category4nameEv, .-_ZNK5boost6system6detail22generic_error_category4nameEv
	.type	_Z41__static_initialization_and_destruction_0ii.lto_priv.1, @function
_Z41__static_initialization_and_destruction_0ii.lto_priv.1:
.LVL103:
.LFB35:
	.file 24 "cpp/main.cpp"
	.loc 24 70 1 is_stmt 1 view -0
	.cfi_startproc
	.loc 24 70 1 is_stmt 0 view .LVU382
	cmpl	$1, %edi
	je	.L97
.L94:
	ret
.L97:
	.loc 24 70 1 discriminator 1 view .LVU383
	cmpl	$65535, %esi
	jne	.L94
	.loc 24 70 1 view .LVU384
	subq	$8, %rsp
	.cfi_def_cfa_offset 16
	.file 25 "/usr/include/c++/9/iostream"
	.loc 25 74 25 view .LVU385
	leaq	_ZStL8__ioinit.lto_priv.1(%rip), %rdi
.LVL104:
	.loc 25 74 25 view .LVU386
	call	_ZNSt8ios_base4InitC1Ev@PLT
.LVL105:
	.loc 25 74 25 view .LVU387
	leaq	__dso_handle(%rip), %rdx
	leaq	_ZStL8__ioinit.lto_priv.1(%rip), %rsi
	movq	_ZNSt8ios_base4InitD1Ev@GOTPCREL(%rip), %rdi
	call	__cxa_atexit@PLT
.LVL106:
	.file 26 "/usr/local/include/boost/asio/error.hpp"
	.loc 26 230 3 is_stmt 1 view .LVU388
	.loc 22 58 3 view .LVU389
	.loc 22 59 3 view .LVU390
	.loc 22 86 3 view .LVU391
	.loc 22 87 3 view .LVU392
	.loc 22 120 3 view .LVU393
	.loc 22 121 3 view .LVU394
	.file 27 "/usr/local/include/boost/asio/detail/call_stack.hpp"
	.loc 27 119 1 is_stmt 0 view .LVU395
	movq	_ZGVN5boost4asio6detail10call_stackINS1_14thread_contextENS1_16thread_info_baseEE4top_E@GOTPCREL(%rip), %rax
	cmpb	$0, (%rax)
	je	.L98
.L87:
	.loc 27 119 1 discriminator 3 view .LVU396
	movq	_ZGVN5boost4asio6detail10call_stackINS1_14strand_service11strand_implEhE4top_E@GOTPCREL(%rip), %rdx
	cmpb	$0, (%rdx)
	je	.L99
.L88:
	.file 28 "/usr/local/include/boost/asio/io_context.hpp"
	.loc 28 853 39 view .LVU397
	movq	_ZGVN5boost4asio6detail12service_baseINS1_14strand_serviceEE2idE@GOTPCREL(%rip), %rcx
	cmpb	$0, (%rcx)
	je	.L100
.L89:
	.loc 27 119 1 view .LVU398
	movq	_ZGVN5boost4asio6detail10call_stackINS1_23strand_executor_service11strand_implEhE4top_E@GOTPCREL(%rip), %rsi
	cmpb	$0, (%rsi)
	je	.L101
.L90:
	.file 29 "/usr/local/include/boost/asio/detail/posix_global.hpp"
	.loc 29 59 22 view .LVU399
	movq	_ZGVN5boost4asio6detail17posix_global_implINS0_14system_contextEE9instance_E@GOTPCREL(%rip), %rdi
	cmpb	$0, (%rdi)
	je	.L102
.L91:
	.loc 4 401 18 view .LVU400
	movq	_ZGVN5boost4asio6detail30execution_context_service_baseINS1_9schedulerEE2idE@GOTPCREL(%rip), %r8
	cmpb	$0, (%r8)
	je	.L103
.L92:
	.loc 4 401 18 discriminator 3 view .LVU401
	movq	_ZGVN5boost4asio6detail30execution_context_service_baseINS1_13epoll_reactorEE2idE@GOTPCREL(%rip), %r9
	cmpb	$0, (%r9)
	je	.L104
.L85:
	.loc 24 70 1 view .LVU402
	addq	$8, %rsp
	.cfi_remember_state
	.cfi_def_cfa_offset 8
	ret
.L98:
	.cfi_restore_state
	.loc 27 119 1 discriminator 1 view .LVU403
	movb	$1, (%rax)
.LVL107:
.LBB246:
.LBI246:
	.loc 5 39 7 is_stmt 1 discriminator 1 view .LVU404
.LBB247:
.LBI247:
	.file 30 "/usr/local/include/boost/asio/detail/keyword_tss_ptr.hpp"
	.loc 30 36 3 discriminator 1 view .LVU405
	.loc 30 36 3 is_stmt 0 discriminator 1 view .LVU406
.LBE247:
.LBE246:
	.loc 27 119 1 discriminator 1 view .LVU407
	leaq	__dso_handle(%rip), %rdx
	movq	_ZN5boost4asio6detail10call_stackINS1_14thread_contextENS1_16thread_info_baseEE4top_E@GOTPCREL(%rip), %rsi
	leaq	_ZN5boost4asio6detail7tss_ptrINS1_10call_stackINS1_14thread_contextENS1_16thread_info_baseEE7contextEED1Ev(%rip), %rdi
	call	__cxa_atexit@PLT
.LVL108:
	jmp	.L87
.L99:
	.loc 27 119 1 discriminator 4 view .LVU408
	movb	$1, (%rdx)
.LVL109:
.LBB248:
.LBI248:
	.loc 5 39 7 is_stmt 1 discriminator 4 view .LVU409
.LBB249:
.LBI249:
	.loc 30 36 3 discriminator 4 view .LVU410
	.loc 30 36 3 is_stmt 0 discriminator 4 view .LVU411
.LBE249:
.LBE248:
	.loc 27 119 1 discriminator 4 view .LVU412
	leaq	__dso_handle(%rip), %rdx
	movq	_ZN5boost4asio6detail10call_stackINS1_14strand_service11strand_implEhE4top_E@GOTPCREL(%rip), %rsi
	leaq	_ZN5boost4asio6detail7tss_ptrINS1_10call_stackINS1_14strand_service11strand_implEhE7contextEED1Ev(%rip), %rdi
	call	__cxa_atexit@PLT
.LVL110:
	jmp	.L88
.L100:
	.loc 28 853 39 discriminator 1 view .LVU413
	movb	$1, (%rcx)
.LVL111:
.LBB250:
.LBI250:
	.loc 4 380 7 is_stmt 1 discriminator 1 view .LVU414
	.loc 4 380 7 is_stmt 0 discriminator 1 view .LVU415
.LBE250:
	.loc 28 853 39 discriminator 1 view .LVU416
	leaq	__dso_handle(%rip), %rdx
	movq	_ZN5boost4asio6detail12service_baseINS1_14strand_serviceEE2idE@GOTPCREL(%rip), %rsi
	leaq	_ZN5boost4asio6detail10service_idINS1_14strand_serviceEED1Ev(%rip), %rdi
	call	__cxa_atexit@PLT
.LVL112:
	jmp	.L89
.L101:
	.loc 27 119 1 discriminator 5 view .LVU417
	movb	$1, (%rsi)
.LVL113:
.LBB251:
.LBI251:
	.loc 5 39 7 is_stmt 1 discriminator 5 view .LVU418
.LBB252:
.LBI252:
	.loc 30 36 3 discriminator 5 view .LVU419
	.loc 30 36 3 is_stmt 0 discriminator 5 view .LVU420
.LBE252:
.LBE251:
	.loc 27 119 1 discriminator 5 view .LVU421
	leaq	__dso_handle(%rip), %rdx
	movq	_ZN5boost4asio6detail10call_stackINS1_23strand_executor_service11strand_implEhE4top_E@GOTPCREL(%rip), %rsi
	leaq	_ZN5boost4asio6detail7tss_ptrINS1_10call_stackINS1_23strand_executor_service11strand_implEhE7contextEED1Ev(%rip), %rdi
	call	__cxa_atexit@PLT
.LVL114:
	jmp	.L90
.L102:
	.loc 29 59 22 discriminator 1 view .LVU422
	movb	$1, (%rdi)
	leaq	__dso_handle(%rip), %rdx
	movq	_ZN5boost4asio6detail17posix_global_implINS0_14system_contextEE9instance_E@GOTPCREL(%rip), %rsi
	leaq	_ZN5boost4asio6detail17posix_global_implINS0_14system_contextEED1Ev(%rip), %rdi
	call	__cxa_atexit@PLT
.LVL115:
	jmp	.L91
.L103:
	.loc 4 401 18 discriminator 1 view .LVU423
	movb	$1, (%r8)
.LVL116:
.LBB253:
.LBI253:
	.loc 4 380 7 is_stmt 1 discriminator 1 view .LVU424
	.loc 4 380 7 is_stmt 0 discriminator 1 view .LVU425
.LBE253:
	.loc 4 401 18 discriminator 1 view .LVU426
	leaq	__dso_handle(%rip), %rdx
	movq	_ZN5boost4asio6detail30execution_context_service_baseINS1_9schedulerEE2idE@GOTPCREL(%rip), %rsi
	leaq	_ZN5boost4asio6detail10service_idINS1_9schedulerEED1Ev(%rip), %rdi
	call	__cxa_atexit@PLT
.LVL117:
	jmp	.L92
.L104:
	.loc 4 401 18 discriminator 4 view .LVU427
	movb	$1, (%r9)
.LVL118:
.LBB254:
.LBI254:
	.loc 4 380 7 is_stmt 1 discriminator 4 view .LVU428
	.loc 4 380 7 is_stmt 0 discriminator 4 view .LVU429
.LBE254:
	.loc 4 401 18 discriminator 4 view .LVU430
	leaq	__dso_handle(%rip), %rdx
	movq	_ZN5boost4asio6detail30execution_context_service_baseINS1_13epoll_reactorEE2idE@GOTPCREL(%rip), %rsi
	leaq	_ZN5boost4asio6detail10service_idINS1_13epoll_reactorEED1Ev(%rip), %rdi
	call	__cxa_atexit@PLT
.LVL119:
	jmp	.L85
	.cfi_endproc
.LFE35:
	.size	_Z41__static_initialization_and_destruction_0ii.lto_priv.1, .-_Z41__static_initialization_and_destruction_0ii.lto_priv.1
	.type	_Z41__static_initialization_and_destruction_0ii.lto_priv.0, @function
_Z41__static_initialization_and_destruction_0ii.lto_priv.0:
.LVL120:
.LFB36:
	.file 31 "cpp/Client.cpp"
	.loc 31 259 1 is_stmt 1 view -0
	.cfi_startproc
	.loc 31 259 1 is_stmt 0 view .LVU432
	cmpl	$1, %edi
	je	.L118
.L115:
	ret
.L118:
	.loc 31 259 1 discriminator 1 view .LVU433
	cmpl	$65535, %esi
	jne	.L115
	.loc 31 259 1 view .LVU434
	subq	$8, %rsp
	.cfi_def_cfa_offset 16
	.loc 25 74 25 view .LVU435
	leaq	_ZStL8__ioinit.lto_priv.0(%rip), %rdi
.LVL121:
	.loc 25 74 25 view .LVU436
	call	_ZNSt8ios_base4InitC1Ev@PLT
.LVL122:
	.loc 25 74 25 view .LVU437
	leaq	__dso_handle(%rip), %rdx
	leaq	_ZStL8__ioinit.lto_priv.0(%rip), %rsi
	movq	_ZNSt8ios_base4InitD1Ev@GOTPCREL(%rip), %rdi
	call	__cxa_atexit@PLT
.LVL123:
	.loc 26 230 3 is_stmt 1 view .LVU438
	.loc 22 58 3 view .LVU439
	.loc 22 59 3 view .LVU440
	.loc 22 86 3 view .LVU441
	.loc 22 87 3 view .LVU442
	.loc 22 120 3 view .LVU443
	.loc 22 121 3 view .LVU444
	.loc 27 119 1 is_stmt 0 view .LVU445
	movq	_ZGVN5boost4asio6detail10call_stackINS1_14thread_contextENS1_16thread_info_baseEE4top_E@GOTPCREL(%rip), %rax
	cmpb	$0, (%rax)
	je	.L119
.L107:
	.loc 27 119 1 discriminator 3 view .LVU446
	movq	_ZGVN5boost4asio6detail10call_stackINS1_14strand_service11strand_implEhE4top_E@GOTPCREL(%rip), %rdx
	cmpb	$0, (%rdx)
	je	.L120
.L108:
	.loc 28 853 39 view .LVU447
	movq	_ZGVN5boost4asio6detail12service_baseINS1_14strand_serviceEE2idE@GOTPCREL(%rip), %rcx
	cmpb	$0, (%rcx)
	je	.L121
.L109:
	.loc 27 119 1 view .LVU448
	movq	_ZGVN5boost4asio6detail10call_stackINS1_23strand_executor_service11strand_implEhE4top_E@GOTPCREL(%rip), %rsi
	cmpb	$0, (%rsi)
	je	.L122
.L110:
	.loc 29 59 22 view .LVU449
	movq	_ZGVN5boost4asio6detail17posix_global_implINS0_14system_contextEE9instance_E@GOTPCREL(%rip), %rdi
	cmpb	$0, (%rdi)
	je	.L123
.L111:
	.loc 4 401 18 view .LVU450
	movq	_ZGVN5boost4asio6detail30execution_context_service_baseINS1_9schedulerEE2idE@GOTPCREL(%rip), %r8
	cmpb	$0, (%r8)
	je	.L124
.L112:
	.loc 4 401 18 discriminator 3 view .LVU451
	movq	_ZGVN5boost4asio6detail30execution_context_service_baseINS1_13epoll_reactorEE2idE@GOTPCREL(%rip), %r9
	cmpb	$0, (%r9)
	je	.L125
.L113:
	.loc 4 401 18 discriminator 6 view .LVU452
	cmpb	$0, _ZGVN5boost4asio6detail30execution_context_service_baseINS1_18signal_set_serviceEE2idE(%rip)
	je	.L126
.L105:
	.loc 31 259 1 view .LVU453
	addq	$8, %rsp
	.cfi_remember_state
	.cfi_def_cfa_offset 8
	ret
.L119:
	.cfi_restore_state
	.loc 27 119 1 discriminator 1 view .LVU454
	movb	$1, (%rax)
.LVL124:
.LBB255:
.LBI255:
	.loc 5 39 7 is_stmt 1 discriminator 1 view .LVU455
.LBB256:
.LBI256:
	.loc 30 36 3 discriminator 1 view .LVU456
	.loc 30 36 3 is_stmt 0 discriminator 1 view .LVU457
.LBE256:
.LBE255:
	.loc 27 119 1 discriminator 1 view .LVU458
	leaq	__dso_handle(%rip), %rdx
	movq	_ZN5boost4asio6detail10call_stackINS1_14thread_contextENS1_16thread_info_baseEE4top_E@GOTPCREL(%rip), %rsi
	leaq	_ZN5boost4asio6detail7tss_ptrINS1_10call_stackINS1_14thread_contextENS1_16thread_info_baseEE7contextEED1Ev(%rip), %rdi
	call	__cxa_atexit@PLT
.LVL125:
	jmp	.L107
.L120:
	.loc 27 119 1 discriminator 4 view .LVU459
	movb	$1, (%rdx)
.LVL126:
.LBB257:
.LBI257:
	.loc 5 39 7 is_stmt 1 discriminator 4 view .LVU460
.LBB258:
.LBI258:
	.loc 30 36 3 discriminator 4 view .LVU461
	.loc 30 36 3 is_stmt 0 discriminator 4 view .LVU462
.LBE258:
.LBE257:
	.loc 27 119 1 discriminator 4 view .LVU463
	leaq	__dso_handle(%rip), %rdx
	movq	_ZN5boost4asio6detail10call_stackINS1_14strand_service11strand_implEhE4top_E@GOTPCREL(%rip), %rsi
	leaq	_ZN5boost4asio6detail7tss_ptrINS1_10call_stackINS1_14strand_service11strand_implEhE7contextEED1Ev(%rip), %rdi
	call	__cxa_atexit@PLT
.LVL127:
	jmp	.L108
.L121:
	.loc 28 853 39 discriminator 1 view .LVU464
	movb	$1, (%rcx)
.LVL128:
.LBB259:
.LBI259:
	.loc 4 380 7 is_stmt 1 discriminator 1 view .LVU465
	.loc 4 380 7 is_stmt 0 discriminator 1 view .LVU466
.LBE259:
	.loc 28 853 39 discriminator 1 view .LVU467
	leaq	__dso_handle(%rip), %rdx
	movq	_ZN5boost4asio6detail12service_baseINS1_14strand_serviceEE2idE@GOTPCREL(%rip), %rsi
	leaq	_ZN5boost4asio6detail10service_idINS1_14strand_serviceEED1Ev(%rip), %rdi
	call	__cxa_atexit@PLT
.LVL129:
	jmp	.L109
.L122:
	.loc 27 119 1 discriminator 5 view .LVU468
	movb	$1, (%rsi)
.LVL130:
.LBB260:
.LBI260:
	.loc 5 39 7 is_stmt 1 discriminator 5 view .LVU469
.LBB261:
.LBI261:
	.loc 30 36 3 discriminator 5 view .LVU470
	.loc 30 36 3 is_stmt 0 discriminator 5 view .LVU471
.LBE261:
.LBE260:
	.loc 27 119 1 discriminator 5 view .LVU472
	leaq	__dso_handle(%rip), %rdx
	movq	_ZN5boost4asio6detail10call_stackINS1_23strand_executor_service11strand_implEhE4top_E@GOTPCREL(%rip), %rsi
	leaq	_ZN5boost4asio6detail7tss_ptrINS1_10call_stackINS1_23strand_executor_service11strand_implEhE7contextEED1Ev(%rip), %rdi
	call	__cxa_atexit@PLT
.LVL131:
	jmp	.L110
.L123:
	.loc 29 59 22 discriminator 1 view .LVU473
	movb	$1, (%rdi)
	leaq	__dso_handle(%rip), %rdx
	movq	_ZN5boost4asio6detail17posix_global_implINS0_14system_contextEE9instance_E@GOTPCREL(%rip), %rsi
	leaq	_ZN5boost4asio6detail17posix_global_implINS0_14system_contextEED1Ev(%rip), %rdi
	call	__cxa_atexit@PLT
.LVL132:
	jmp	.L111
.L124:
	.loc 4 401 18 discriminator 1 view .LVU474
	movb	$1, (%r8)
.LVL133:
.LBB262:
.LBI262:
	.loc 4 380 7 is_stmt 1 discriminator 1 view .LVU475
	.loc 4 380 7 is_stmt 0 discriminator 1 view .LVU476
.LBE262:
	.loc 4 401 18 discriminator 1 view .LVU477
	leaq	__dso_handle(%rip), %rdx
	movq	_ZN5boost4asio6detail30execution_context_service_baseINS1_9schedulerEE2idE@GOTPCREL(%rip), %rsi
	leaq	_ZN5boost4asio6detail10service_idINS1_9schedulerEED1Ev(%rip), %rdi
	call	__cxa_atexit@PLT
.LVL134:
	jmp	.L112
.L125:
	.loc 4 401 18 discriminator 4 view .LVU478
	movb	$1, (%r9)
.LVL135:
.LBB263:
.LBI263:
	.loc 4 380 7 is_stmt 1 discriminator 4 view .LVU479
	.loc 4 380 7 is_stmt 0 discriminator 4 view .LVU480
.LBE263:
	.loc 4 401 18 discriminator 4 view .LVU481
	leaq	__dso_handle(%rip), %rdx
	movq	_ZN5boost4asio6detail30execution_context_service_baseINS1_13epoll_reactorEE2idE@GOTPCREL(%rip), %rsi
	leaq	_ZN5boost4asio6detail10service_idINS1_13epoll_reactorEED1Ev(%rip), %rdi
	call	__cxa_atexit@PLT
.LVL136:
	jmp	.L113
.L126:
	.loc 4 401 18 discriminator 7 view .LVU482
	movb	$1, _ZGVN5boost4asio6detail30execution_context_service_baseINS1_18signal_set_serviceEE2idE(%rip)
.LVL137:
.LBB264:
.LBI264:
	.loc 4 380 7 is_stmt 1 discriminator 7 view .LVU483
	.loc 4 380 7 is_stmt 0 discriminator 7 view .LVU484
.LBE264:
	.loc 4 401 18 discriminator 7 view .LVU485
	leaq	__dso_handle(%rip), %rdx
	leaq	_ZN5boost4asio6detail30execution_context_service_baseINS1_18signal_set_serviceEE2idE(%rip), %rsi
	leaq	_ZN5boost4asio6detail10service_idINS1_18signal_set_serviceEED1Ev(%rip), %rdi
	call	__cxa_atexit@PLT
.LVL138:
	jmp	.L105
	.cfi_endproc
.LFE36:
	.size	_Z41__static_initialization_and_destruction_0ii.lto_priv.0, .-_Z41__static_initialization_and_destruction_0ii.lto_priv.0
	.align 2
	.type	_ZN5boost4asio6detail11executor_opINS0_8executor8functionESaIvENS1_19scheduler_operationEE3ptr5resetEv, @function
_ZN5boost4asio6detail11executor_opINS0_8executor8functionESaIvENS1_19scheduler_operationEE3ptr5resetEv:
.LVL139:
.LFB37:
	.file 32 "/usr/local/include/boost/asio/detail/executor_op.hpp"
	.loc 32 35 528 is_stmt 1 view -0
	.cfi_startproc
	.cfi_personality 0x9b,DW.ref.__gxx_personality_v0
	.cfi_lsda 0x1b,.LLSDA37
	.loc 32 35 528 is_stmt 0 view .LVU487
	pushq	%rbp
	.cfi_def_cfa_offset 16
	.cfi_offset 6, -16
	pushq	%rbx
	.cfi_def_cfa_offset 24
	.cfi_offset 3, -24
	subq	$8, %rsp
	.cfi_def_cfa_offset 32
	movq	%rdi, %rbx
	.loc 32 35 542 view .LVU488
	movq	16(%rdi), %rax
	.loc 32 35 538 view .LVU489
	testq	%rax, %rax
	je	.L128
.LVL140:
.LBB300:
.LBI300:
	.loc 32 32 7 is_stmt 1 discriminator 1 view .LVU490
.LBB301:
.LBI301:
	.loc 1 57 3 discriminator 1 view .LVU491
.LBB302:
	.loc 1 59 5 discriminator 1 view .LVU492
	.loc 1 59 9 is_stmt 0 discriminator 1 view .LVU493
	movq	24(%rax), %rdx
	.loc 1 59 5 discriminator 1 view .LVU494
	testq	%rdx, %rdx
	je	.L129
	.loc 1 60 7 is_stmt 1 view .LVU495
.LVL141:
.LBB303:
.LBI303:
	.file 33 "/usr/local/include/boost/asio/detail/executor_function.hpp"
	.loc 33 35 8 view .LVU496
.LBB304:
	.loc 33 37 5 view .LVU497
	.loc 33 37 10 is_stmt 0 view .LVU498
	movl	$0, %esi
	movq	%rdx, %rdi
.LVL142:
	.loc 33 37 10 view .LVU499
	call	*(%rdx)
.LVL143:
.L129:
	.loc 33 37 10 view .LVU500
.LBE304:
.LBE303:
.LBE302:
.LBE301:
.LBB305:
.LBI305:
	.loc 17 61 3 is_stmt 1 view .LVU501
	.loc 17 61 3 is_stmt 0 view .LVU502
.LBE305:
.LBE300:
	.loc 32 35 566 view .LVU503
	movq	$0, 16(%rbx)
.L128:
.LBB306:
	.loc 32 35 579 discriminator 3 view .LVU504
	movq	8(%rbx), %rbp
	.loc 32 35 575 discriminator 3 view .LVU505
	testq	%rbp, %rbp
	je	.L127
.LVL144:
.LBB307:
.LBB308:
.LBI308:
	.file 34 "/usr/local/include/boost/asio/detail/recycling_allocator.hpp"
	.loc 34 99 15 is_stmt 1 view .LVU506
.LBB309:
.LBI309:
	.loc 34 78 3 view .LVU507
	.loc 34 78 3 is_stmt 0 view .LVU508
.LBE309:
.LBE308:
.LBB310:
.LBI310:
	.loc 34 46 3 is_stmt 1 view .LVU509
	.loc 34 46 3 is_stmt 0 view .LVU510
.LBE310:
.LBB311:
.LBI311:
	.loc 34 58 8 is_stmt 1 view .LVU511
.LBB312:
.LBI312:
	.loc 27 106 17 view .LVU512
.LBB313:
.LBB314:
.LBI314:
	.loc 30 46 3 view .LVU513
.LBB315:
	.loc 30 48 12 is_stmt 0 view .LVU514
	data16	leaq	_ZN5boost4asio6detail15keyword_tss_ptrINS1_10call_stackINS1_14thread_contextENS1_16thread_info_baseEE7contextEE6value_E@tlsgd(%rip), %rdi
	.value	0x6666
	rex64
	call	__tls_get_addr@PLT
.LVL145:
	movq	(%rax), %rcx
.LVL146:
	.loc 30 48 12 view .LVU515
.LBE315:
.LBE314:
	.loc 27 109 17 view .LVU516
	testq	%rcx, %rcx
	je	.L131
	movq	8(%rcx), %rcx
.LVL147:
.L131:
	.loc 27 109 17 view .LVU517
.LBE313:
.LBE312:
.LBB316:
.LBI316:
	.file 35 "/usr/local/include/boost/asio/detail/thread_info_base.hpp"
	.loc 35 98 15 is_stmt 1 view .LVU518
.LBB317:
.LBB318:
	.loc 35 103 7 is_stmt 0 view .LVU519
	testq	%rcx, %rcx
	je	.L132
	.loc 35 103 23 view .LVU520
	cmpq	$0, (%rcx)
	jne	.L132
.LVL148:
.LBB319:
	.loc 35 106 16 view .LVU521
	movb	40(%rbp), %sil
	.loc 35 106 9 view .LVU522
	movb	%sil, 0(%rbp)
.LVL149:
	.loc 35 107 9 view .LVU523
	movq	%rbp, (%rcx)
.LVL150:
.L133:
	.loc 35 107 9 view .LVU524
.LBE319:
.LBE318:
.LBE317:
.LBE316:
.LBE311:
	.loc 32 35 1007 view .LVU525
	movq	$0, 8(%rbx)
.LVL151:
.L127:
	.loc 32 35 1007 view .LVU526
.LBE307:
.LBE306:
	.loc 32 35 1016 view .LVU527
	addq	$8, %rsp
	.cfi_remember_state
	.cfi_def_cfa_offset 24
	popq	%rbx
	.cfi_def_cfa_offset 16
.LVL152:
	.loc 32 35 1016 view .LVU528
	popq	%rbp
	.cfi_def_cfa_offset 8
	ret
.LVL153:
.L132:
	.cfi_restore_state
.LBB324:
.LBB323:
.LBB322:
.LBB321:
.LBB320:
	.loc 35 112 22 view .LVU529
	movq	%rbp, %rdi
	call	_ZdlPv@PLT
.LVL154:
	.loc 35 112 22 view .LVU530
	jmp	.L133
.LBE320:
.LBE321:
.LBE322:
.LBE323:
.LBE324:
	.cfi_endproc
.LFE37:
	.section	.gcc_except_table
.LLSDA37:
	.byte	0xff
	.byte	0xff
	.byte	0x1
	.uleb128 .LLSDACSE37-.LLSDACSB37
.LLSDACSB37:
.LLSDACSE37:
	.text
	.size	_ZN5boost4asio6detail11executor_opINS0_8executor8functionESaIvENS1_19scheduler_operationEE3ptr5resetEv, .-_ZN5boost4asio6detail11executor_opINS0_8executor8functionESaIvENS1_19scheduler_operationEE3ptr5resetEv
	.type	_ZN5boost4asio6detail11executor_opINS0_8executor8functionESaIvENS1_19scheduler_operationEE11do_completeEPvPS6_RKNS_6system10error_codeEm, @function
_ZN5boost4asio6detail11executor_opINS0_8executor8functionESaIvENS1_19scheduler_operationEE11do_completeEPvPS6_RKNS_6system10error_codeEm:
.LVL155:
.LFB40:
	.loc 32 45 15 is_stmt 1 view -0
	.cfi_startproc
	.cfi_personality 0x9b,DW.ref.__gxx_personality_v0
	.cfi_lsda 0x1b,.LLSDA40
	.loc 32 45 15 is_stmt 0 view .LVU532
	pushq	%r12
	.cfi_def_cfa_offset 16
	.cfi_offset 12, -16
	pushq	%rbp
	.cfi_def_cfa_offset 24
	.cfi_offset 6, -24
	pushq	%rbx
	.cfi_def_cfa_offset 32
	.cfi_offset 3, -32
	subq	$48, %rsp
	.cfi_def_cfa_offset 80
	movq	%rdi, %rbx
.LVL156:
	.loc 32 52 9 view .LVU533
	leaq	47(%rsp), %rax
	movq	%rax, 16(%rsp)
	movq	%rsi, 24(%rsp)
	movq	%rsi, 32(%rsp)
.LVL157:
.LBB404:
.LBI404:
	.loc 1 51 3 is_stmt 1 view .LVU534
.LBB405:
.LBB406:
	.loc 1 52 19 is_stmt 0 view .LVU535
	movq	24(%rsi), %rbp
	.loc 1 52 24 view .LVU536
	movq	%rbp, 8(%rsp)
	.loc 1 54 5 is_stmt 1 view .LVU537
	.loc 1 54 17 is_stmt 0 view .LVU538
	movq	$0, 24(%rsi)
.LVL158:
	.loc 1 54 17 view .LVU539
.LBE406:
.LBE405:
.LBE404:
.LBB407:
.LBI407:
	.loc 32 35 528 is_stmt 1 view .LVU540
.LBB408:
	.loc 32 35 538 is_stmt 0 view .LVU541
	testq	%rsi, %rsi
	je	.L136
.LVL159:
.LBB409:
.LBB410:
.LBB411:
	.loc 1 59 9 view .LVU542
	movl	$0, %edx
	.loc 1 59 5 view .LVU543
	testq	%rdx, %rdx
	je	.L137
.LVL160:
.LBB412:
.LBB413:
	.loc 33 37 10 view .LVU544
	movl	$0, %esi
.LVL161:
	.loc 33 37 10 view .LVU545
	movq	%rdx, %rdi
.LVL162:
	.loc 33 37 10 view .LVU546
	call	*(%rdx)
.LVL163:
.L137:
	.loc 33 37 10 view .LVU547
.LBE413:
.LBE412:
.LBE411:
.LBE410:
.LBE409:
	.loc 32 35 566 view .LVU548
	movq	$0, 32(%rsp)
.L136:
.LBB414:
	.loc 32 35 579 view .LVU549
	movq	24(%rsp), %r12
	.loc 32 35 575 view .LVU550
	testq	%r12, %r12
	je	.L138
.LVL164:
.LBB415:
.LBB416:
.LBI416:
	.loc 34 58 8 is_stmt 1 view .LVU551
.LBB417:
.LBI417:
	.loc 27 106 17 view .LVU552
.LBB418:
.LBB419:
.LBI419:
	.loc 30 46 3 view .LVU553
.LBB420:
	.loc 30 48 12 is_stmt 0 view .LVU554
	data16	leaq	_ZN5boost4asio6detail15keyword_tss_ptrINS1_10call_stackINS1_14thread_contextENS1_16thread_info_baseEE7contextEE6value_E@tlsgd(%rip), %rdi
	.value	0x6666
	rex64
	call	__tls_get_addr@PLT
.LVL165:
	movq	(%rax), %rcx
.LVL166:
	.loc 30 48 12 view .LVU555
.LBE420:
.LBE419:
	.loc 27 109 17 view .LVU556
	testq	%rcx, %rcx
	je	.L139
	movq	8(%rcx), %rcx
.LVL167:
.L139:
	.loc 27 109 17 view .LVU557
.LBE418:
.LBE417:
.LBB421:
.LBI421:
	.loc 35 98 15 is_stmt 1 view .LVU558
.LBB422:
.LBB423:
	.loc 35 103 7 is_stmt 0 view .LVU559
	testq	%rcx, %rcx
	je	.L140
	.loc 35 103 23 view .LVU560
	cmpq	$0, (%rcx)
	je	.L154
.L140:
	.loc 35 103 23 view .LVU561
.LBE423:
	.loc 35 112 22 view .LVU562
	movq	%r12, %rdi
	call	_ZdlPv@PLT
.LVL168:
.L141:
	.loc 35 112 22 view .LVU563
.LBE422:
.LBE421:
.LBE416:
	.loc 32 35 1007 view .LVU564
	movq	$0, 24(%rsp)
.LVL169:
.L138:
	.loc 32 35 1007 view .LVU565
.LBE415:
.LBE414:
.LBE408:
.LBE407:
.LBB432:
	.loc 32 66 5 view .LVU566
	testq	%rbx, %rbx
	je	.L142
.LVL170:
.LBB433:
.LBB434:
.LBI434:
	.file 36 "/usr/local/include/boost/asio/detail/std_fenced_block.hpp"
	.loc 36 39 12 is_stmt 1 view .LVU567
	.loc 36 39 12 is_stmt 0 view .LVU568
.LBE434:
.LBB435:
.LBI435:
	.loc 12 30 13 is_stmt 1 view .LVU569
.LBB436:
.LBI436:
	.loc 13 67 13 view .LVU570
.LBB437:
.LBI437:
	.loc 1 63 8 view .LVU571
.LBE437:
.LBE436:
.LBE435:
.LBE433:
.LBE432:
	.loc 1 65 5 view .LVU572
.LBB460:
.LBB455:
.LBB444:
.LBB443:
.LBB442:
.LBB438:
	testq	%rbp, %rbp
	je	.L143
.LBB439:
	.loc 1 67 7 view .LVU573
.LVL171:
	.loc 1 68 7 view .LVU574
	.loc 1 68 13 is_stmt 0 view .LVU575
	movq	$0, 8(%rsp)
	.loc 1 69 7 is_stmt 1 view .LVU576
.LVL172:
.LBB440:
.LBI440:
	.loc 33 30 8 view .LVU577
.LBB441:
	.loc 33 32 5 view .LVU578
	.loc 33 32 10 is_stmt 0 view .LVU579
	movl	$1, %esi
	movq	%rbp, %rdi
.LEHB2:
	call	*0(%rbp)
.LVL173:
.LEHE2:
	jmp	.L143
.LVL174:
.L154:
	.loc 33 32 10 view .LVU580
.LBE441:
.LBE440:
.LBE439:
.LBE438:
.LBE442:
.LBE443:
.LBE444:
.LBE455:
.LBE460:
.LBB461:
.LBB431:
.LBB430:
.LBB429:
.LBB428:
.LBB427:
.LBB426:
.LBB425:
.LBB424:
	.loc 35 106 16 view .LVU581
	movzbl	40(%r12), %esi
	.loc 35 106 9 view .LVU582
	movb	%sil, (%r12)
.LVL175:
	.loc 35 107 9 view .LVU583
	movq	%r12, (%rcx)
	jmp	.L141
.LVL176:
.L143:
	.loc 35 107 9 view .LVU584
.LBE424:
.LBE425:
.LBE426:
.LBE427:
.LBE428:
.LBE429:
.LBE430:
.LBE431:
.LBE461:
.LBB462:
.LBB456:
.LBB445:
.LBI445:
	.loc 36 50 3 is_stmt 1 view .LVU585
.LBE445:
.LBE456:
.LBE462:
	.loc 36 52 5 view .LVU586
.LBB463:
.LBB457:
.LBB449:
.LBB446:
.LBI446:
	.file 37 "/usr/include/c++/9/bits/atomic_base.h"
	.loc 37 120 3 view .LVU587
.LBB447:
	.loc 37 121 5 view .LVU588
	.loc 37 121 26 is_stmt 0 view .LVU589
.LVL177:
	.loc 37 121 26 view .LVU590
.LBE447:
.LBE446:
.LBB448:
.LBI448:
	.file 38 "/usr/local/include/boost/asio/detail/noncopyable.hpp"
	.loc 38 30 3 is_stmt 1 view .LVU591
.L142:
	.loc 38 30 3 is_stmt 0 view .LVU592
.LBE448:
.LBE449:
.LBE457:
.LBE463:
.LBB464:
.LBI464:
	.loc 1 57 3 is_stmt 1 view .LVU593
.LBB465:
	.loc 1 59 5 view .LVU594
	.loc 1 59 9 is_stmt 0 view .LVU595
	movq	8(%rsp), %r8
	.loc 1 59 5 view .LVU596
	testq	%r8, %r8
	je	.L144
	.loc 1 60 7 is_stmt 1 view .LVU597
.LVL178:
.LBB466:
.LBI466:
	.loc 33 35 8 view .LVU598
.LBB467:
	.loc 33 37 5 view .LVU599
	.loc 33 37 10 is_stmt 0 view .LVU600
	movl	$0, %esi
	movq	%r8, %rdi
	call	*(%r8)
.LVL179:
.L144:
	.loc 33 37 10 view .LVU601
.LBE467:
.LBE466:
.LBE465:
.LBE464:
.LBB468:
.LBI468:
	.loc 32 35 57 is_stmt 1 view .LVU602
.LBB469:
.LBI469:
	.loc 32 35 528 view .LVU603
.LBB470:
	.loc 32 35 542 is_stmt 0 view .LVU604
	movq	32(%rsp), %rdi
	.loc 32 35 538 view .LVU605
	testq	%rdi, %rdi
	je	.L145
.LVL180:
.LBB471:
.LBB472:
.LBB473:
	.loc 1 59 9 view .LVU606
	movq	24(%rdi), %r9
	.loc 1 59 5 view .LVU607
	testq	%r9, %r9
	je	.L146
.LVL181:
.LBB474:
.LBB475:
	.loc 33 37 10 view .LVU608
	movl	$0, %esi
	movq	%r9, %rdi
.LVL182:
	.loc 33 37 10 view .LVU609
	call	*(%r9)
.LVL183:
.L146:
	.loc 33 37 10 view .LVU610
.LBE475:
.LBE474:
.LBE473:
.LBE472:
.LBE471:
	.loc 32 35 566 view .LVU611
	movq	$0, 32(%rsp)
.L145:
.LBB476:
	.loc 32 35 579 view .LVU612
	movq	24(%rsp), %rbp
	.loc 32 35 575 view .LVU613
	testq	%rbp, %rbp
	je	.L135
.LVL184:
.LBB477:
.LBB478:
.LBI478:
	.loc 34 58 8 is_stmt 1 view .LVU614
.LBB479:
.LBI479:
	.loc 27 106 17 view .LVU615
.LBB480:
.LBB481:
.LBI481:
	.loc 30 46 3 view .LVU616
.LBB482:
	.loc 30 48 12 is_stmt 0 view .LVU617
	data16	leaq	_ZN5boost4asio6detail15keyword_tss_ptrINS1_10call_stackINS1_14thread_contextENS1_16thread_info_baseEE7contextEE6value_E@tlsgd(%rip), %rdi
	.value	0x6666
	rex64
	call	__tls_get_addr@PLT
.LVL185:
	movq	(%rax), %r10
.LVL186:
	.loc 30 48 12 view .LVU618
.LBE482:
.LBE481:
	.loc 27 109 17 view .LVU619
	testq	%r10, %r10
	je	.L148
	movq	8(%r10), %r10
.LVL187:
.L148:
	.loc 27 109 17 view .LVU620
.LBE480:
.LBE479:
.LBB483:
.LBI483:
	.loc 35 98 15 is_stmt 1 view .LVU621
.LBB484:
.LBB485:
	.loc 35 103 7 is_stmt 0 view .LVU622
	testq	%r10, %r10
	je	.L149
	.loc 35 103 23 view .LVU623
	cmpq	$0, (%r10)
	je	.L155
.L149:
	.loc 35 103 23 view .LVU624
.LBE485:
	.loc 35 112 22 view .LVU625
	movq	%rbp, %rdi
	call	_ZdlPv@PLT
.LVL188:
.L135:
	.loc 35 112 22 view .LVU626
.LBE484:
.LBE483:
.LBE478:
.LBE477:
.LBE476:
.LBE470:
.LBE469:
.LBE468:
	.loc 32 73 3 view .LVU627
	addq	$48, %rsp
	.cfi_remember_state
	.cfi_def_cfa_offset 32
	popq	%rbx
	.cfi_def_cfa_offset 24
.LVL189:
	.loc 32 73 3 view .LVU628
	popq	%rbp
	.cfi_def_cfa_offset 16
	popq	%r12
	.cfi_def_cfa_offset 8
	ret
.LVL190:
.L155:
	.cfi_restore_state
.LBB495:
.LBB494:
.LBB493:
.LBB492:
.LBB491:
.LBB490:
.LBB489:
.LBB488:
.LBB487:
.LBB486:
	.loc 35 106 16 view .LVU629
	movzbl	40(%rbp), %r11d
	.loc 35 106 9 view .LVU630
	movb	%r11b, 0(%rbp)
.LVL191:
	.loc 35 107 9 view .LVU631
	movq	%rbp, (%r10)
	jmp	.L135
.LVL192:
.L152:
	.loc 35 107 9 view .LVU632
	movq	%rax, %rbx
.LVL193:
	.loc 35 107 9 view .LVU633
.LBE486:
.LBE487:
.LBE488:
.LBE489:
.LBE490:
.LBE491:
.LBE492:
.LBE493:
.LBE494:
.LBE495:
.LBB496:
.LBB458:
.LBB450:
.LBI450:
	.loc 36 50 3 is_stmt 1 view .LVU634
.LBE450:
.LBE458:
.LBE496:
	.loc 36 52 5 view .LVU635
.LBB497:
.LBB459:
.LBB454:
.LBB451:
.LBI451:
	.loc 37 120 3 view .LVU636
.LBB452:
	.loc 37 121 5 view .LVU637
	.loc 37 121 26 is_stmt 0 view .LVU638
.LVL194:
	.loc 37 121 26 view .LVU639
.LBE452:
.LBE451:
.LBB453:
.LBI453:
	.loc 38 30 3 is_stmt 1 view .LVU640
	.loc 38 30 3 is_stmt 0 view .LVU641
.LBE453:
.LBE454:
.LBE459:
.LBE497:
.LBB498:
.LBI498:
	.loc 32 35 57 is_stmt 1 view .LVU642
.LBB499:
	.loc 32 35 66 is_stmt 0 view .LVU643
	leaq	16(%rsp), %rdi
.LVL195:
	.loc 32 35 66 view .LVU644
	call	_ZN5boost4asio6detail11executor_opINS0_8executor8functionESaIvENS1_19scheduler_operationEE3ptr5resetEv
.LVL196:
	.loc 32 35 66 view .LVU645
	movq	%rbx, %rdi
.LEHB3:
	call	_Unwind_Resume@PLT
.LVL197:
.LEHE3:
.LBE499:
.LBE498:
	.cfi_endproc
.LFE40:
	.section	.gcc_except_table
.LLSDA40:
	.byte	0xff
	.byte	0xff
	.byte	0x1
	.uleb128 .LLSDACSE40-.LLSDACSB40
.LLSDACSB40:
	.uleb128 .LEHB2-.LFB40
	.uleb128 .LEHE2-.LEHB2
	.uleb128 .L152-.LFB40
	.uleb128 0
	.uleb128 .LEHB3-.LFB40
	.uleb128 .LEHE3-.LEHB3
	.uleb128 0
	.uleb128 0
.LLSDACSE40:
	.text
	.size	_ZN5boost4asio6detail11executor_opINS0_8executor8functionESaIvENS1_19scheduler_operationEE11do_completeEPvPS6_RKNS_6system10error_codeEm, .-_ZN5boost4asio6detail11executor_opINS0_8executor8functionESaIvENS1_19scheduler_operationEE11do_completeEPvPS6_RKNS_6system10error_codeEm
	.align 2
	.type	_ZN5boost4asio6detail17executor_functionINS1_7binder2ISt5_BindIFM6ClientFvRKNS_6system10error_codeEiEPS5_St12_PlaceholderILi1EESD_ILi2EEEES7_iEESaIvEE3ptr5resetEv, @function
_ZN5boost4asio6detail17executor_functionINS1_7binder2ISt5_BindIFM6ClientFvRKNS_6system10error_codeEiEPS5_St12_PlaceholderILi1EESD_ILi2EEEES7_iEESaIvEE3ptr5resetEv:
.LVL198:
.LFB41:
	.loc 33 61 520 is_stmt 1 view -0
	.cfi_startproc
	.loc 33 61 520 is_stmt 0 view .LVU647
	pushq	%rbp
	.cfi_def_cfa_offset 16
	.cfi_offset 6, -16
	pushq	%rbx
	.cfi_def_cfa_offset 24
	.cfi_offset 3, -24
	subq	$8, %rsp
	.cfi_def_cfa_offset 32
	movq	%rdi, %rbx
	.loc 33 61 530 view .LVU648
	cmpq	$0, 16(%rdi)
	je	.L157
.LVL199:
.LBB527:
.LBI527:
	.loc 33 58 7 is_stmt 1 discriminator 1 view .LVU649
.LBB528:
.LBI528:
	.loc 33 49 3 discriminator 1 view .LVU650
	.loc 33 49 3 is_stmt 0 discriminator 1 view .LVU651
.LBE528:
.LBE527:
	.loc 33 61 564 discriminator 1 view .LVU652
	movq	$0, 16(%rdi)
.L157:
.LBB529:
	.loc 33 61 577 discriminator 3 view .LVU653
	movq	8(%rbx), %rbp
	.loc 33 61 573 discriminator 3 view .LVU654
	testq	%rbp, %rbp
	je	.L156
.LVL200:
.LBB530:
.LBB531:
.LBI531:
	.loc 34 99 15 is_stmt 1 view .LVU655
.LBB532:
.LBI532:
	.loc 34 78 3 view .LVU656
	.loc 34 78 3 is_stmt 0 view .LVU657
.LBE532:
.LBE531:
.LBB533:
.LBI533:
	.loc 34 46 3 is_stmt 1 view .LVU658
	.loc 34 46 3 is_stmt 0 view .LVU659
.LBE533:
.LBB534:
.LBI534:
	.loc 34 58 8 is_stmt 1 view .LVU660
.LBB535:
.LBI535:
	.loc 27 106 17 view .LVU661
.LBB536:
.LBB537:
.LBI537:
	.loc 30 46 3 view .LVU662
.LBB538:
	.loc 30 48 12 is_stmt 0 view .LVU663
	data16	leaq	_ZN5boost4asio6detail15keyword_tss_ptrINS1_10call_stackINS1_14thread_contextENS1_16thread_info_baseEE7contextEE6value_E@tlsgd(%rip), %rdi
	.value	0x6666
	rex64
	call	__tls_get_addr@PLT
.LVL201:
	.loc 30 48 12 view .LVU664
	movq	(%rax), %rax
.LVL202:
	.loc 30 48 12 view .LVU665
.LBE538:
.LBE537:
	.loc 27 109 17 view .LVU666
	testq	%rax, %rax
	je	.L159
	movq	8(%rax), %rax
.LVL203:
.L159:
	.loc 27 109 17 view .LVU667
.LBE536:
.LBE535:
.LBB539:
.LBI539:
	.loc 35 98 15 is_stmt 1 view .LVU668
.LBB540:
.LBB541:
	.loc 35 103 7 is_stmt 0 view .LVU669
	testq	%rax, %rax
	je	.L160
	.loc 35 103 23 view .LVU670
	cmpq	$0, 16(%rax)
	jne	.L160
.LVL204:
.LBB542:
	.loc 35 106 16 view .LVU671
	movb	64(%rbp), %dl
	.loc 35 106 9 view .LVU672
	movb	%dl, 0(%rbp)
.LVL205:
	.loc 35 107 9 view .LVU673
	movq	%rbp, 16(%rax)
.LVL206:
.L161:
	.loc 35 107 9 view .LVU674
.LBE542:
.LBE541:
.LBE540:
.LBE539:
.LBE534:
	.loc 33 61 991 view .LVU675
	movq	$0, 8(%rbx)
.LVL207:
.L156:
	.loc 33 61 991 view .LVU676
.LBE530:
.LBE529:
	.loc 33 61 1000 view .LVU677
	addq	$8, %rsp
	.cfi_remember_state
	.cfi_def_cfa_offset 24
	popq	%rbx
	.cfi_def_cfa_offset 16
.LVL208:
	.loc 33 61 1000 view .LVU678
	popq	%rbp
	.cfi_def_cfa_offset 8
	ret
.LVL209:
.L160:
	.cfi_restore_state
.LBB547:
.LBB546:
.LBB545:
.LBB544:
.LBB543:
	.loc 35 112 22 view .LVU679
	movq	%rbp, %rdi
	call	_ZdlPv@PLT
.LVL210:
	.loc 35 112 22 view .LVU680
	jmp	.L161
.LBE543:
.LBE544:
.LBE545:
.LBE546:
.LBE547:
	.cfi_endproc
.LFE41:
	.size	_ZN5boost4asio6detail17executor_functionINS1_7binder2ISt5_BindIFM6ClientFvRKNS_6system10error_codeEiEPS5_St12_PlaceholderILi1EESD_ILi2EEEES7_iEESaIvEE3ptr5resetEv, .-_ZN5boost4asio6detail17executor_functionINS1_7binder2ISt5_BindIFM6ClientFvRKNS_6system10error_codeEiEPS5_St12_PlaceholderILi1EESD_ILi2EEEES7_iEESaIvEE3ptr5resetEv
	.type	_ZN5boost4asio6detail17executor_functionINS1_7binder2ISt5_BindIFM6ClientFvRKNS_6system10error_codeEiEPS5_St12_PlaceholderILi1EESD_ILi2EEEES7_iEESaIvEE11do_completeEPNS1_22executor_function_baseEb, @function
_ZN5boost4asio6detail17executor_functionINS1_7binder2ISt5_BindIFM6ClientFvRKNS_6system10error_codeEiEPS5_St12_PlaceholderILi1EESD_ILi2EEEES7_iEESaIvEE11do_completeEPNS1_22executor_function_baseEb:
.LVL211:
.LFB44:
	.loc 33 72 15 is_stmt 1 view -0
	.cfi_startproc
	.cfi_personality 0x9b,DW.ref.__gcc_personality_v0
	.cfi_lsda 0x1b,.LLSDA44
	.loc 33 72 15 is_stmt 0 view .LVU682
	pushq	%rbp
	.cfi_def_cfa_offset 16
	.cfi_offset 6, -16
	pushq	%rbx
	.cfi_def_cfa_offset 24
	.cfi_offset 3, -24
	subq	$104, %rsp
	.cfi_def_cfa_offset 128
	movl	%esi, %ebx
.LVL212:
	.loc 33 77 9 view .LVU683
	leaq	79(%rsp), %rax
	movq	%rax, 48(%rsp)
	movq	%rdi, 56(%rsp)
	movq	%rdi, 64(%rsp)
.LVL213:
.LBB643:
.LBI643:
	.loc 8 154 3 is_stmt 1 view .LVU684
.LBB644:
.LBB645:
.LBB646:
.LBI646:
	.loc 9 472 7 view .LVU685
.LBB647:
.LBB648:
.LBI648:
	.loc 10 99 5 view .LVU686
	.loc 10 99 5 is_stmt 0 view .LVU687
.LBE648:
	.loc 9 473 78 view .LVU688
	movdqu	8(%rdi), %xmm0
	movups	%xmm0, (%rsp)
.LVL214:
.LBB649:
.LBI649:
	.loc 10 99 5 is_stmt 1 view .LVU689
	.loc 10 99 5 is_stmt 0 view .LVU690
.LBE649:
.LBB650:
.LBI650:
	.loc 11 642 17 is_stmt 1 view .LVU691
.LBB651:
.LBI651:
	.loc 11 227 7 view .LVU692
.LBB652:
.LBI652:
	.loc 11 201 7 view .LVU693
	.loc 11 201 7 is_stmt 0 view .LVU694
.LBE652:
.LBB653:
.LBI653:
	.loc 10 99 5 is_stmt 1 view .LVU695
	.loc 10 99 5 is_stmt 0 view .LVU696
.LBE653:
.LBB654:
.LBI654:
	.loc 11 227 7 is_stmt 1 view .LVU697
	.loc 11 227 7 is_stmt 0 view .LVU698
.LBE654:
.LBB655:
.LBI655:
	.loc 11 195 7 is_stmt 1 view .LVU699
	.loc 11 195 7 is_stmt 0 view .LVU700
.LBE655:
.LBB656:
.LBI656:
	.loc 10 74 5 is_stmt 1 view .LVU701
	.loc 10 74 5 is_stmt 0 view .LVU702
.LBE656:
.LBB657:
.LBI657:
	.loc 11 132 19 is_stmt 1 view .LVU703
.LBB658:
.LBB659:
.LBB660:
.LBI660:
	.loc 10 74 5 view .LVU704
	.loc 10 74 5 is_stmt 0 view .LVU705
.LBE660:
	.loc 11 133 42 view .LVU706
	movq	24(%rdi), %rdx
	movq	%rdx, 16(%rsp)
.LVL215:
	.loc 11 133 42 view .LVU707
.LBE659:
.LBE658:
.LBE657:
.LBE651:
.LBE650:
.LBE647:
.LBE646:
	.loc 8 157 45 view .LVU708
	movdqu	32(%rdi), %xmm1
	movups	%xmm1, 24(%rsp)
	.loc 8 157 39 view .LVU709
	movl	48(%rdi), %ecx
	.loc 8 157 45 view .LVU710
	movl	%ecx, 40(%rsp)
.LVL216:
	.loc 8 157 45 view .LVU711
.LBE645:
.LBE644:
.LBE643:
.LBB661:
.LBI661:
	.loc 33 61 520 is_stmt 1 view .LVU712
.LBB662:
	.loc 33 61 530 is_stmt 0 view .LVU713
	testq	%rdi, %rdi
	je	.L164
	.loc 33 61 564 view .LVU714
	movq	$0, 64(%rsp)
.L164:
.LBB663:
	.loc 33 61 577 view .LVU715
	movq	56(%rsp), %rbp
	.loc 33 61 573 view .LVU716
	testq	%rbp, %rbp
	je	.L165
.LVL217:
.LBB664:
.LBB665:
.LBI665:
	.loc 34 58 8 is_stmt 1 view .LVU717
.LBB666:
.LBI666:
	.loc 27 106 17 view .LVU718
.LBB667:
.LBB668:
.LBI668:
	.loc 30 46 3 view .LVU719
.LBB669:
	.loc 30 48 12 is_stmt 0 view .LVU720
	data16	leaq	_ZN5boost4asio6detail15keyword_tss_ptrINS1_10call_stackINS1_14thread_contextENS1_16thread_info_baseEE7contextEE6value_E@tlsgd(%rip), %rdi
	.value	0x6666
	rex64
	call	__tls_get_addr@PLT
.LVL218:
	.loc 30 48 12 view .LVU721
	movq	(%rax), %rsi
.LVL219:
	.loc 30 48 12 view .LVU722
.LBE669:
.LBE668:
	.loc 27 109 17 view .LVU723
	testq	%rsi, %rsi
	je	.L166
	movq	8(%rsi), %rsi
.LVL220:
.L166:
	.loc 27 109 17 view .LVU724
.LBE667:
.LBE666:
.LBB670:
.LBI670:
	.loc 35 98 15 is_stmt 1 view .LVU725
.LBB671:
.LBB672:
	.loc 35 103 7 is_stmt 0 view .LVU726
	testq	%rsi, %rsi
	je	.L167
	.loc 35 103 23 view .LVU727
	cmpq	$0, 16(%rsi)
	je	.L179
.L167:
	.loc 35 103 23 view .LVU728
.LBE672:
	.loc 35 112 22 view .LVU729
	movq	%rbp, %rdi
	call	_ZdlPv@PLT
.LVL221:
.L168:
	.loc 35 112 22 view .LVU730
.LBE671:
.LBE670:
.LBE665:
	.loc 33 61 991 view .LVU731
	movq	$0, 56(%rsp)
.LVL222:
.L165:
	.loc 33 61 991 view .LVU732
.LBE664:
.LBE663:
.LBE662:
.LBE661:
	.loc 33 89 5 view .LVU733
	testb	%bl, %bl
	je	.L169
.LVL223:
.LBB681:
.LBI681:
	.loc 8 162 8 is_stmt 1 view .LVU734
.LBB682:
.LBI682:
	.loc 9 480 2 view .LVU735
.LBB683:
.LBB684:
.LBI684:
	.loc 11 1482 5 view .LVU736
.LBB685:
.LBI685:
	.loc 11 945 19 view .LVU737
.LBB686:
.LBI686:
	.loc 11 210 17 view .LVU738
.LBB687:
.LBI687:
	.loc 11 343 17 view .LVU739
.LBB688:
.LBI688:
	.loc 11 125 17 view .LVU740
.LBB689:
	.loc 11 126 25 is_stmt 0 view .LVU741
	leaq	40(%rsp), %r8
.LVL224:
	.loc 11 126 25 view .LVU742
	movq	%r8, 80(%rsp)
.LVL225:
	.loc 11 126 25 view .LVU743
.LBE689:
.LBE688:
.LBE687:
.LBB690:
.LBI690:
	.loc 11 125 17 is_stmt 1 view .LVU744
.LBB691:
	.loc 11 126 25 is_stmt 0 view .LVU745
	leaq	24(%rsp), %rsi
.LVL226:
	.loc 11 126 25 view .LVU746
	movq	%rsi, 88(%rsp)
.LVL227:
	.loc 11 126 25 view .LVU747
.LBE691:
.LBE690:
.LBE686:
.LBE685:
.LBE684:
.LBB692:
.LBI692:
	.loc 9 398 2 is_stmt 1 view .LVU748
.LBB693:
.LBI693:
	.loc 9 345 2 view .LVU749
.LBB694:
.LBI694:
	.loc 11 1332 5 view .LVU750
.LBB695:
.LBI695:
	.loc 11 1320 5 view .LVU751
.LBB696:
.LBI696:
	.loc 11 1309 5 view .LVU752
.LBB697:
.LBI697:
	.loc 11 334 7 view .LVU753
.LBB698:
.LBI698:
	.loc 11 160 7 view .LVU754
	.loc 11 160 7 is_stmt 0 view .LVU755
.LBE698:
.LBE697:
.LBE696:
.LBE695:
.LBE694:
.LBE693:
.LBB699:
.LBI699:
	.loc 9 345 2 is_stmt 1 view .LVU756
.LBB700:
.LBI700:
	.loc 11 1332 5 view .LVU757
.LBB701:
.LBI701:
	.loc 11 1320 5 view .LVU758
.LBB702:
.LBI702:
	.loc 11 1309 5 view .LVU759
.LBB703:
.LBI703:
	.loc 11 195 7 view .LVU760
.LBB704:
.LBI704:
	.loc 11 160 7 view .LVU761
	.loc 11 160 7 is_stmt 0 view .LVU762
.LBE704:
.LBE703:
.LBE702:
.LBE701:
.LBE700:
.LBE699:
.LBB705:
.LBI705:
	.loc 14 89 5 is_stmt 1 view .LVU763
.LBB706:
.LBI706:
	.loc 14 70 5 view .LVU764
.LBB707:
	.loc 14 73 46 is_stmt 0 view .LVU765
	movq	16(%rsp), %rdi
	movq	(%rsp), %r11
	testb	$1, %r11b
	je	.L170
	movq	8(%rsp), %r9
	movq	(%rdi,%r9), %r10
	movq	-1(%r11,%r10), %r11
.L170:
	addq	8(%rsp), %rdi
	movl	(%r8), %edx
.LEHB4:
	call	*%r11
.LVL228:
.LEHE4:
	.loc 14 73 46 view .LVU766
	jmp	.L169
.LVL229:
.L179:
	.loc 14 73 46 view .LVU767
.LBE707:
.LBE706:
.LBE705:
.LBE692:
.LBE683:
.LBE682:
.LBE681:
.LBB708:
.LBB680:
.LBB679:
.LBB678:
.LBB677:
.LBB676:
.LBB675:
.LBB674:
.LBB673:
	.loc 35 106 16 view .LVU768
	movzbl	64(%rbp), %edi
	.loc 35 106 9 view .LVU769
	movb	%dil, 0(%rbp)
.LVL230:
	.loc 35 107 9 view .LVU770
	movq	%rbp, 16(%rsi)
	jmp	.L168
.LVL231:
.L169:
	.loc 35 107 9 view .LVU771
.LBE673:
.LBE674:
.LBE675:
.LBE676:
.LBE677:
.LBE678:
.LBE679:
.LBE680:
.LBE708:
.LBB709:
.LBI709:
	.loc 33 61 63 is_stmt 1 view .LVU772
.LBB710:
.LBI710:
	.loc 33 61 520 view .LVU773
.LBB711:
	.loc 33 61 530 is_stmt 0 view .LVU774
	cmpq	$0, 64(%rsp)
	je	.L171
	.loc 33 61 564 view .LVU775
	movq	$0, 64(%rsp)
.L171:
.LBB712:
	.loc 33 61 577 view .LVU776
	movq	56(%rsp), %rbp
	.loc 33 61 573 view .LVU777
	testq	%rbp, %rbp
	je	.L163
.LVL232:
.LBB713:
.LBB714:
.LBI714:
	.loc 34 58 8 is_stmt 1 view .LVU778
.LBB715:
.LBI715:
	.loc 27 106 17 view .LVU779
.LBB716:
.LBB717:
.LBI717:
	.loc 30 46 3 view .LVU780
.LBB718:
	.loc 30 48 12 is_stmt 0 view .LVU781
	data16	leaq	_ZN5boost4asio6detail15keyword_tss_ptrINS1_10call_stackINS1_14thread_contextENS1_16thread_info_baseEE7contextEE6value_E@tlsgd(%rip), %rdi
	.value	0x6666
	rex64
	call	__tls_get_addr@PLT
.LVL233:
	movq	(%rax), %rax
.LVL234:
	.loc 30 48 12 view .LVU782
.LBE718:
.LBE717:
	.loc 27 109 17 view .LVU783
	testq	%rax, %rax
	je	.L173
	movq	8(%rax), %rax
.LVL235:
.L173:
	.loc 27 109 17 view .LVU784
.LBE716:
.LBE715:
.LBB719:
.LBI719:
	.loc 35 98 15 is_stmt 1 view .LVU785
.LBB720:
.LBB721:
	.loc 35 103 7 is_stmt 0 view .LVU786
	testq	%rax, %rax
	je	.L174
	.loc 35 103 23 view .LVU787
	cmpq	$0, 16(%rax)
	je	.L180
.L174:
	.loc 35 103 23 view .LVU788
.LBE721:
	.loc 35 112 22 view .LVU789
	movq	%rbp, %rdi
	call	_ZdlPv@PLT
.LVL236:
.L163:
	.loc 35 112 22 view .LVU790
.LBE720:
.LBE719:
.LBE714:
.LBE713:
.LBE712:
.LBE711:
.LBE710:
.LBE709:
	.loc 33 93 3 view .LVU791
	addq	$104, %rsp
	.cfi_remember_state
	.cfi_def_cfa_offset 24
	popq	%rbx
	.cfi_def_cfa_offset 16
	popq	%rbp
	.cfi_def_cfa_offset 8
	ret
.LVL237:
.L180:
	.cfi_restore_state
.LBB731:
.LBB730:
.LBB729:
.LBB728:
.LBB727:
.LBB726:
.LBB725:
.LBB724:
.LBB723:
.LBB722:
	.loc 35 106 16 view .LVU792
	movzbl	64(%rbp), %edx
	.loc 35 106 9 view .LVU793
	movb	%dl, 0(%rbp)
.LVL238:
	.loc 35 107 9 view .LVU794
	movq	%rbp, 16(%rax)
	jmp	.L163
.LVL239:
.L177:
	.loc 35 107 9 view .LVU795
	movq	%rax, %rbx
.LVL240:
	.loc 35 107 9 view .LVU796
.LBE722:
.LBE723:
.LBE724:
.LBE725:
.LBE726:
.LBE727:
.LBE728:
.LBE729:
.LBE730:
.LBE731:
.LBB732:
.LBI732:
	.loc 33 61 63 is_stmt 1 view .LVU797
.LBB733:
	.loc 33 61 72 is_stmt 0 view .LVU798
	leaq	48(%rsp), %rdi
.LVL241:
	.loc 33 61 72 view .LVU799
	call	_ZN5boost4asio6detail17executor_functionINS1_7binder2ISt5_BindIFM6ClientFvRKNS_6system10error_codeEiEPS5_St12_PlaceholderILi1EESD_ILi2EEEES7_iEESaIvEE3ptr5resetEv
.LVL242:
	.loc 33 61 72 view .LVU800
	movq	%rbx, %rdi
.LEHB5:
	call	_Unwind_Resume@PLT
.LVL243:
.LEHE5:
.LBE733:
.LBE732:
	.cfi_endproc
.LFE44:
	.section	.gcc_except_table
.LLSDA44:
	.byte	0xff
	.byte	0xff
	.byte	0x1
	.uleb128 .LLSDACSE44-.LLSDACSB44
.LLSDACSB44:
	.uleb128 .LEHB4-.LFB44
	.uleb128 .LEHE4-.LEHB4
	.uleb128 .L177-.LFB44
	.uleb128 0
	.uleb128 .LEHB5-.LFB44
	.uleb128 .LEHE5-.LEHB5
	.uleb128 0
	.uleb128 0
.LLSDACSE44:
	.text
	.size	_ZN5boost4asio6detail17executor_functionINS1_7binder2ISt5_BindIFM6ClientFvRKNS_6system10error_codeEiEPS5_St12_PlaceholderILi1EESD_ILi2EEEES7_iEESaIvEE11do_completeEPNS1_22executor_function_baseEb, .-_ZN5boost4asio6detail17executor_functionINS1_7binder2ISt5_BindIFM6ClientFvRKNS_6system10error_codeEiEPS5_St12_PlaceholderILi1EESD_ILi2EEEES7_iEESaIvEE11do_completeEPNS1_22executor_function_baseEb
	.align 2
	.type	_ZN5boost4asio6detail14signal_handlerISt5_BindIFM6ClientFvRKNS_6system10error_codeEiEPS4_St12_PlaceholderILi1EESC_ILi2EEEENS1_18io_object_executorINS0_8executorEEEE3ptr5resetEv, @function
_ZN5boost4asio6detail14signal_handlerISt5_BindIFM6ClientFvRKNS_6system10error_codeEiEPS4_St12_PlaceholderILi1EESC_ILi2EEEENS1_18io_object_executorINS0_8executorEEEE3ptr5resetEv:
.LVL244:
.LFB45:
	.file 39 "/usr/local/include/boost/asio/detail/signal_handler.hpp"
	.loc 39 37 626 is_stmt 1 view -0
	.cfi_startproc
	.loc 39 37 626 is_stmt 0 view .LVU802
	pushq	%rbp
	.cfi_def_cfa_offset 16
	.cfi_offset 6, -16
	pushq	%rbx
	.cfi_def_cfa_offset 24
	.cfi_offset 3, -24
	subq	$8, %rsp
	.cfi_def_cfa_offset 32
	movq	%rdi, %rbx
	.loc 39 37 640 view .LVU803
	movq	16(%rdi), %rax
	.loc 39 37 636 view .LVU804
	testq	%rax, %rax
	je	.L182
.LVL245:
.LBB783:
.LBI783:
	.loc 39 34 7 is_stmt 1 discriminator 1 view .LVU805
.LBB784:
.LBI784:
	.file 40 "/usr/local/include/boost/asio/detail/io_object_executor.hpp"
	.loc 40 32 7 discriminator 1 view .LVU806
.LBB785:
.LBI785:
	.loc 2 84 3 discriminator 1 view .LVU807
.LBE785:
.LBE784:
.LBE783:
	.loc 2 86 5 discriminator 1 view .LVU808
.LBB792:
.LBB789:
.LBB788:
.LBB786:
.LBI786:
	.loc 2 321 8 discriminator 1 view .LVU809
.LBB787:
	.loc 2 323 5 discriminator 1 view .LVU810
	.loc 2 323 9 is_stmt 0 discriminator 1 view .LVU811
	movq	72(%rax), %rdi
.LVL246:
	.loc 2 323 5 discriminator 1 view .LVU812
	testq	%rdi, %rdi
	je	.L183
	.loc 2 324 7 is_stmt 1 view .LVU813
	.loc 2 324 22 is_stmt 0 view .LVU814
	movq	(%rdi), %rdx
	.loc 2 324 21 view .LVU815
	call	*8(%rdx)
.LVL247:
.L183:
	.loc 2 324 21 view .LVU816
.LBE787:
.LBE786:
.LBE788:
.LBE789:
.LBB790:
.LBI790:
	.file 41 "/usr/local/include/boost/asio/detail/signal_op.hpp"
	.loc 41 27 7 is_stmt 1 view .LVU817
.LBB791:
.LBI791:
	.loc 17 61 3 view .LVU818
	.loc 17 61 3 is_stmt 0 view .LVU819
.LBE791:
.LBE790:
.LBE792:
	.loc 39 37 667 view .LVU820
	movq	$0, 16(%rbx)
.L182:
.LBB793:
	.loc 39 37 680 discriminator 3 view .LVU821
	movq	8(%rbx), %rbp
	.loc 39 37 676 discriminator 3 view .LVU822
	testq	%rbp, %rbp
	je	.L181
.LVL248:
.LBB794:
.LBB795:
.LBI795:
	.file 42 "/usr/local/include/boost/asio/detail/handler_alloc_helpers.hpp"
	.loc 42 141 15 is_stmt 1 discriminator 4 view .LVU823
.LBB796:
.LBI796:
	.loc 42 110 12 discriminator 4 view .LVU824
	.loc 42 110 12 is_stmt 0 discriminator 4 view .LVU825
.LBE796:
.LBE795:
.LBB797:
.LBI797:
	.loc 42 78 3 is_stmt 1 discriminator 4 view .LVU826
	.loc 42 78 3 is_stmt 0 discriminator 4 view .LVU827
.LBE797:
.LBB798:
.LBI798:
	.loc 42 89 8 is_stmt 1 discriminator 4 view .LVU828
.LBB799:
.LBI799:
	.loc 42 44 13 discriminator 4 view .LVU829
.LBB800:
.LBI800:
	.file 43 "/usr/local/include/boost/asio/impl/handler_alloc_hook.ipp"
	.loc 43 38 6 discriminator 4 view .LVU830
.LBE800:
.LBE799:
.LBE798:
.LBE794:
.LBE793:
	.loc 43 41 3 discriminator 4 view .LVU831
.LBB827:
.LBB824:
.LBB821:
.LBB818:
.LBB815:
.LBB801:
.LBI801:
	.loc 27 106 17 discriminator 4 view .LVU832
.LBB802:
.LBB803:
.LBI803:
	.loc 30 46 3 discriminator 4 view .LVU833
.LBB804:
	.loc 30 48 12 is_stmt 0 discriminator 4 view .LVU834
	data16	leaq	_ZN5boost4asio6detail15keyword_tss_ptrINS1_10call_stackINS1_14thread_contextENS1_16thread_info_baseEE7contextEE6value_E@tlsgd(%rip), %rdi
	.value	0x6666
	rex64
	call	__tls_get_addr@PLT
.LVL249:
	movq	(%rax), %rcx
.LVL250:
	.loc 30 48 12 discriminator 4 view .LVU835
.LBE804:
.LBE803:
	.loc 27 109 17 discriminator 4 view .LVU836
	testq	%rcx, %rcx
	je	.L185
	.loc 27 109 17 view .LVU837
	movq	8(%rcx), %rcx
.LVL251:
.L185:
	.loc 27 109 17 view .LVU838
.LBE802:
.LBE801:
.LBB805:
.LBI805:
	.loc 35 64 15 is_stmt 1 view .LVU839
.LBE805:
.LBE815:
.LBE818:
.LBE821:
.LBE824:
.LBE827:
	.loc 35 67 5 view .LVU840
.LBB828:
.LBB825:
.LBB822:
.LBB819:
.LBB816:
.LBB813:
.LBB806:
.LBI806:
	.loc 35 98 15 view .LVU841
.LBB807:
.LBB808:
	.loc 35 103 7 is_stmt 0 view .LVU842
	testq	%rcx, %rcx
	je	.L186
	.loc 35 103 23 view .LVU843
	cmpq	$0, (%rcx)
	je	.L189
.L186:
	.loc 35 103 23 view .LVU844
.LBE808:
	.loc 35 112 22 view .LVU845
	movq	%rbp, %rdi
	call	_ZdlPv@PLT
.LVL252:
.L187:
	.loc 35 112 22 view .LVU846
.LBE807:
.LBE806:
.LBE813:
.LBE816:
.LBE819:
.LBE822:
	.loc 39 37 1184 view .LVU847
	movq	$0, 8(%rbx)
.LVL253:
.L181:
	.loc 39 37 1184 view .LVU848
.LBE825:
.LBE828:
	.loc 39 37 1193 view .LVU849
	addq	$8, %rsp
	.cfi_remember_state
	.cfi_def_cfa_offset 24
	popq	%rbx
	.cfi_def_cfa_offset 16
.LVL254:
	.loc 39 37 1193 view .LVU850
	popq	%rbp
	.cfi_def_cfa_offset 8
	ret
.LVL255:
.L189:
	.cfi_restore_state
.LBB829:
.LBB826:
.LBB823:
.LBB820:
.LBB817:
.LBB814:
.LBB812:
.LBB811:
.LBB810:
.LBB809:
	.loc 35 106 16 view .LVU851
	movzbl	88(%rbp), %esi
	.loc 35 106 9 view .LVU852
	movb	%sil, 0(%rbp)
.LVL256:
	.loc 35 107 9 view .LVU853
	movq	%rbp, (%rcx)
	jmp	.L187
.LBE809:
.LBE810:
.LBE811:
.LBE812:
.LBE814:
.LBE817:
.LBE820:
.LBE823:
.LBE826:
.LBE829:
	.cfi_endproc
.LFE45:
	.size	_ZN5boost4asio6detail14signal_handlerISt5_BindIFM6ClientFvRKNS_6system10error_codeEiEPS4_St12_PlaceholderILi1EESC_ILi2EEEENS1_18io_object_executorINS0_8executorEEEE3ptr5resetEv, .-_ZN5boost4asio6detail14signal_handlerISt5_BindIFM6ClientFvRKNS_6system10error_codeEiEPS4_St12_PlaceholderILi1EESC_ILi2EEEENS1_18io_object_executorINS0_8executorEEEE3ptr5resetEv
	.align 2
	.type	_ZNSt14_Fwd_list_baseIjSaIjEE14_M_erase_afterEPSt19_Fwd_list_node_baseS3_, @function
_ZNSt14_Fwd_list_baseIjSaIjEE14_M_erase_afterEPSt19_Fwd_list_node_baseS3_:
.LVL257:
.LFB48:
	.file 44 "/usr/include/c++/9/bits/forward_list.tcc"
	.loc 44 77 5 is_stmt 1 view -0
	.cfi_startproc
	.loc 44 77 5 is_stmt 0 view .LVU855
	pushq	%r12
	.cfi_def_cfa_offset 16
	.cfi_offset 12, -16
	pushq	%rbp
	.cfi_def_cfa_offset 24
	.cfi_offset 6, -24
	pushq	%rbx
	.cfi_def_cfa_offset 32
	.cfi_offset 3, -32
	movq	%rsi, %r12
	movq	%rdx, %rbp
	.loc 44 81 14 view .LVU856
	movq	(%rsi), %rdi
.LVL258:
.L192:
	.loc 44 82 21 is_stmt 1 view .LVU857
	cmpq	%rbp, %rdi
	je	.L191
.LVL259:
.LBB830:
	.loc 44 85 4 is_stmt 0 view .LVU858
	movq	(%rdi), %rbx
.LVL260:
.LBB831:
.LBI831:
	.file 45 "/usr/include/c++/9/bits/forward_list.h"
	.loc 45 378 7 is_stmt 1 view .LVU859
.LBB832:
.LBB833:
.LBI833:
	.file 46 "/usr/include/c++/9/bits/alloc_traits.h"
	.loc 46 469 7 view .LVU860
.LBB834:
.LBI834:
	.file 47 "/usr/include/c++/9/ext/new_allocator.h"
	.loc 47 119 7 view .LVU861
.LBB835:
	.loc 47 128 19 is_stmt 0 view .LVU862
	call	_ZdlPv@PLT
.LVL261:
	.loc 47 128 19 view .LVU863
.LBE835:
.LBE834:
.LBE833:
.LBE832:
.LBE831:
.LBE830:
	.loc 44 85 4 view .LVU864
	movq	%rbx, %rdi
	jmp	.L192
.LVL262:
.L191:
	.loc 44 91 7 view .LVU865
	movq	%rbp, (%r12)
	.loc 44 93 5 view .LVU866
	movq	%rbp, %rax
	popq	%rbx
	.cfi_def_cfa_offset 24
	popq	%rbp
	.cfi_def_cfa_offset 16
.LVL263:
	.loc 44 93 5 view .LVU867
	popq	%r12
	.cfi_def_cfa_offset 8
.LVL264:
	.loc 44 93 5 view .LVU868
	ret
	.cfi_endproc
.LFE48:
	.size	_ZNSt14_Fwd_list_baseIjSaIjEE14_M_erase_afterEPSt19_Fwd_list_node_baseS3_, .-_ZNSt14_Fwd_list_baseIjSaIjEE14_M_erase_afterEPSt19_Fwd_list_node_baseS3_
	.align 2
	.type	_ZN3vuu15CodepointFinderD2Ev, @function
_ZN3vuu15CodepointFinderD2Ev:
.LVL265:
.LFB49:
	.file 48 "/home/victor/include/vuu/CodepointFinder.hpp"
	.loc 48 16 8 is_stmt 1 view -0
	.cfi_startproc
	.loc 48 16 8 is_stmt 0 view .LVU870
	pushq	%rbx
	.cfi_def_cfa_offset 16
	.cfi_offset 3, -16
	movq	%rdi, %rbx
.LVL266:
.LBB851:
.LBI851:
	.file 49 "/usr/include/c++/9/bits/unique_ptr.h"
	.loc 49 286 7 is_stmt 1 view .LVU871
.LBB852:
.LBB853:
.LBI853:
	.loc 49 153 16 view .LVU872
	.loc 49 153 16 is_stmt 0 view .LVU873
.LBE853:
	.loc 49 291 12 view .LVU874
	movq	16(%rdi), %rdi
.LVL267:
	.loc 49 291 2 view .LVU875
	testq	%rdi, %rdi
	je	.L195
.LVL268:
.LBB854:
.LBI854:
	.loc 49 365 7 is_stmt 1 view .LVU876
	.loc 49 365 7 is_stmt 0 view .LVU877
.LBE854:
.LBB855:
.LBI855:
	.loc 10 99 5 is_stmt 1 view .LVU878
	.loc 10 99 5 is_stmt 0 view .LVU879
.LBE855:
.LBB856:
.LBI856:
	.loc 49 75 7 is_stmt 1 view .LVU880
.LBB857:
	.loc 49 81 2 is_stmt 0 view .LVU881
	movq	(%rdi), %rax
	call	*8(%rax)
.LVL269:
.L195:
	.loc 49 81 2 view .LVU882
.LBE857:
.LBE856:
.LBE852:
.LBE851:
.LBB858:
.LBI858:
	.loc 45 587 7 is_stmt 1 view .LVU883
.LBB859:
	.loc 45 588 9 is_stmt 0 view .LVU884
	leaq	8(%rbx), %rdi
.LVL270:
.LBB860:
.LBI860:
	.loc 45 342 7 is_stmt 1 view .LVU885
.LBB861:
	.loc 45 343 9 is_stmt 0 view .LVU886
	movl	$0, %edx
	movq	%rdi, %rsi
	call	_ZNSt14_Fwd_list_baseIjSaIjEE14_M_erase_afterEPSt19_Fwd_list_node_baseS3_
.LVL271:
.LBB862:
.LBI862:
	.loc 45 290 14 is_stmt 1 view .LVU887
.LBB863:
.LBI863:
	.file 50 "/usr/include/c++/9/bits/allocator.h"
	.loc 50 153 7 view .LVU888
	.loc 50 153 7 is_stmt 0 view .LVU889
.LBE863:
.LBE862:
.LBE861:
.LBE860:
.LBE859:
.LBE858:
	.loc 48 16 8 view .LVU890
	popq	%rbx
	.cfi_def_cfa_offset 8
.LVL272:
	.loc 48 16 8 view .LVU891
	ret
	.cfi_endproc
.LFE49:
	.size	_ZN3vuu15CodepointFinderD2Ev, .-_ZN3vuu15CodepointFinderD2Ev
	.set	_ZN3vuu15CodepointFinderD1Ev,_ZN3vuu15CodepointFinderD2Ev
	.align 2
	.type	_ZN5boost4asio6detail13epoll_reactor8shutdownEv, @function
_ZN5boost4asio6detail13epoll_reactor8shutdownEv:
.LVL273:
.LFB51:
	.file 51 "/usr/local/include/boost/asio/detail/impl/epoll_reactor.ipp"
	.loc 51 74 1 is_stmt 1 view -0
	.cfi_startproc
	.cfi_personality 0x9b,DW.ref.__gxx_personality_v0
	.cfi_lsda 0x1b,.LLSDA51
	.loc 51 74 1 is_stmt 0 view .LVU893
	pushq	%r12
	.cfi_def_cfa_offset 16
	.cfi_offset 12, -16
	pushq	%rbp
	.cfi_def_cfa_offset 24
	.cfi_offset 6, -24
	pushq	%rbx
	.cfi_def_cfa_offset 32
	.cfi_offset 3, -32
	subq	$80, %rsp
	.cfi_def_cfa_offset 112
	movq	%rdi, %rbx
	.loc 51 75 3 is_stmt 1 view .LVU894
	.loc 51 75 27 is_stmt 0 view .LVU895
	leaq	48(%rdi), %rbp
.LVL274:
.LBB948:
.LBI948:
	.file 52 "/usr/local/include/boost/asio/detail/conditionally_enabled_mutex.hpp"
	.loc 52 50 14 is_stmt 1 view .LVU896
.LBB949:
.LBB950:
.LBB951:
.LBI951:
	.loc 38 29 3 view .LVU897
	.loc 38 29 3 is_stmt 0 view .LVU898
.LBE951:
	.loc 52 53 7 is_stmt 1 view .LVU899
	cmpb	$0, 96(%rdi)
	jne	.L225
	.loc 52 59 9 view .LVU900
	.loc 52 59 17 is_stmt 0 view .LVU901
	movb	$0, 40(%rsp)
.LVL275:
.L199:
	.loc 52 59 17 view .LVU902
.LBE950:
.LBE949:
.LBE948:
	.loc 51 76 3 is_stmt 1 view .LVU903
	.loc 51 76 13 is_stmt 0 view .LVU904
	movb	$1, 128(%rbx)
	.loc 51 77 3 is_stmt 1 view .LVU905
.LVL276:
.LBB956:
.LBI956:
	.loc 52 80 10 view .LVU906
.LBB957:
	.loc 52 82 7 view .LVU907
	cmpb	$0, 40(%rsp)
	je	.L200
	.loc 52 84 9 view .LVU908
.LVL277:
.LBB958:
.LBI958:
	.loc 52 132 8 view .LVU909
.LBB959:
	.loc 52 134 5 view .LVU910
	cmpb	$0, 48(%rbp)
	jne	.L226
.L201:
.LVL278:
	.loc 52 134 5 is_stmt 0 view .LVU911
.LBE959:
.LBE958:
	.loc 52 85 9 is_stmt 1 view .LVU912
	.loc 52 85 17 is_stmt 0 view .LVU913
	movb	$0, 40(%rsp)
.L200:
.LVL279:
	.loc 52 85 17 view .LVU914
.LBE957:
.LBE956:
	.loc 51 79 3 is_stmt 1 view .LVU915
.LBB965:
.LBI965:
	.loc 16 69 3 view .LVU916
.LBB966:
.LBB967:
.LBB968:
.LBI968:
	.loc 38 29 3 view .LVU917
	.loc 38 29 3 is_stmt 0 view .LVU918
.LBE968:
	.loc 16 71 14 view .LVU919
	movq	$0, 16(%rsp)
	movq	$0, 24(%rsp)
	jmp	.L211
.LVL280:
.L225:
	.loc 16 71 14 view .LVU920
.LBE967:
.LBE966:
.LBE965:
.LBB969:
.LBB955:
.LBB954:
	.loc 52 55 9 is_stmt 1 view .LVU921
.LBB952:
.LBI952:
	.file 53 "/usr/local/include/boost/asio/detail/posix_mutex.hpp"
	.loc 53 50 8 view .LVU922
.LBB953:
	.loc 53 52 5 view .LVU923
	.loc 53 52 31 is_stmt 0 view .LVU924
	leaq	56(%rdi), %rdi
	call	pthread_mutex_lock@PLT
.LVL281:
	.loc 53 52 31 view .LVU925
.LBE953:
.LBE952:
	.loc 52 56 9 is_stmt 1 view .LVU926
	.loc 52 56 17 is_stmt 0 view .LVU927
	movb	$1, 40(%rsp)
	jmp	.L199
.LVL282:
.L226:
	.loc 52 56 17 view .LVU928
.LBE954:
.LBE955:
.LBE969:
.LBB970:
.LBB964:
.LBB963:
.LBB962:
	.loc 52 135 7 is_stmt 1 view .LVU929
.LBB960:
.LBI960:
	.loc 53 56 8 view .LVU930
.LBB961:
	.loc 53 58 5 view .LVU931
	.loc 53 58 33 is_stmt 0 view .LVU932
	leaq	8(%rbp), %rdi
.LVL283:
	.loc 53 58 33 view .LVU933
	call	pthread_mutex_unlock@PLT
.LVL284:
	.loc 53 58 33 view .LVU934
	jmp	.L201
.LVL285:
.L205:
	.loc 53 58 33 view .LVU935
.LBE961:
.LBE960:
.LBE962:
.LBE963:
.LBE964:
.LBE970:
.LBB971:
.LBB972:
.LBB973:
.LBB974:
	.loc 16 129 9 view .LVU936
	movq	%rsi, 16(%rsp)
.L206:
	.loc 16 130 7 view .LVU937
	movq	8(%rax), %r8
	movq	%r8, 24(%rsp)
	.loc 16 131 7 view .LVU938
	movq	$0, (%rax)
	.loc 16 132 7 view .LVU939
	movq	$0, 8(%rax)
.L204:
.LVL286:
	.loc 16 132 7 view .LVU940
.LBE974:
.LBE973:
	.loc 51 83 5 is_stmt 1 view .LVU941
	addl	$1, %edx
.LVL287:
.L207:
	.loc 51 83 23 discriminator 1 view .LVU942
	cmpl	$2, %edx
	jg	.L203
	.loc 51 84 7 view .LVU943
	.loc 51 84 34 is_stmt 0 view .LVU944
	movslq	%edx, %rax
	addq	$7, %rax
	salq	$4, %rax
	addq	%rcx, %rax
.LVL288:
.LBB978:
.LBI973:
	.loc 16 122 8 is_stmt 1 view .LVU945
.LBB977:
	.loc 16 124 20 is_stmt 0 view .LVU946
	movq	(%rax), %rsi
.LVL289:
	.loc 16 124 5 view .LVU947
	testq	%rsi, %rsi
	je	.L204
	.loc 16 126 11 view .LVU948
	movq	24(%rsp), %rdi
	.loc 16 126 7 view .LVU949
	testq	%rdi, %rdi
	je	.L205
.LVL290:
.LBB975:
.LBI975:
	.loc 16 39 15 is_stmt 1 view .LVU950
.LBB976:
	.loc 16 41 5 is_stmt 0 view .LVU951
	movq	%rsi, (%rdi)
	jmp	.L206
.LVL291:
.L203:
	.loc 16 41 5 view .LVU952
.LBE976:
.LBE975:
.LBE977:
.LBE978:
.LBE972:
	.loc 51 85 5 is_stmt 1 view .LVU953
	.loc 51 85 22 is_stmt 0 view .LVU954
	movb	$1, 163(%rcx)
	.loc 51 86 5 is_stmt 1 view .LVU955
.LVL292:
.LBB979:
.LBI979:
	.file 54 "/usr/local/include/boost/asio/detail/object_pool.hpp"
	.loc 54 126 8 view .LVU956
.LBB980:
	.loc 54 128 5 is_stmt 0 view .LVU957
	cmpq	192(%rbx), %rcx
	je	.L227
.L208:
	.loc 54 131 5 view .LVU958
	movq	32(%rcx), %r10
	testq	%r10, %r10
	je	.L209
	.loc 54 133 7 view .LVU959
	movq	24(%rcx), %r11
	movq	%r11, 24(%r10)
.L209:
	.loc 54 137 5 view .LVU960
	movq	24(%rcx), %r12
	testq	%r12, %r12
	je	.L210
	.loc 54 139 7 view .LVU961
	movq	32(%rcx), %rdx
.LVL293:
	.loc 54 139 7 view .LVU962
	movq	%rdx, 32(%r12)
.L210:
	.loc 54 143 35 view .LVU963
	movq	200(%rbx), %rax
	.loc 54 143 5 view .LVU964
	movq	%rax, 24(%rcx)
	.loc 54 144 5 view .LVU965
	movq	$0, 32(%rcx)
	.loc 54 145 5 view .LVU966
	movq	%rcx, 200(%rbx)
.LVL294:
.L211:
	.loc 54 145 5 view .LVU967
.LBE980:
.LBE979:
.LBE971:
	.loc 51 81 3 is_stmt 1 view .LVU968
.LBB985:
.LBB982:
.LBI982:
	.loc 54 83 11 view .LVU969
.LBB983:
	.loc 54 85 12 is_stmt 0 view .LVU970
	movq	192(%rbx), %rcx
.LVL295:
	.loc 54 85 12 view .LVU971
.LBE983:
.LBE982:
	.loc 51 81 66 view .LVU972
	testq	%rcx, %rcx
	je	.L202
.LBE985:
	.loc 51 83 14 view .LVU973
	movl	$0, %edx
	jmp	.L207
.LVL296:
.L227:
.LBB986:
.LBB984:
.LBB981:
	.loc 54 129 7 view .LVU974
	movq	24(%rcx), %r9
	movq	%r9, 192(%rbx)
	jmp	.L208
.LVL297:
.L202:
	.loc 54 129 7 view .LVU975
.LBE981:
.LBE984:
.LBE986:
	.loc 51 89 3 is_stmt 1 view .LVU976
.LBB987:
.LBI987:
	.file 55 "/usr/local/include/boost/asio/detail/impl/timer_queue_set.ipp"
	.loc 55 91 6 view .LVU977
.LBE987:
	.loc 55 93 3 view .LVU978
.LBB989:
.LBB988:
	.loc 55 93 26 is_stmt 0 view .LVU979
	movq	120(%rbx), %rbx
.LVL298:
	.loc 55 94 22 view .LVU980
	leaq	16(%rsp), %r12
.LVL299:
	.loc 55 94 22 view .LVU981
	jmp	.L213
.LVL300:
.L228:
	.loc 55 93 3 is_stmt 1 view .LVU982
	.loc 55 93 43 is_stmt 0 view .LVU983
	movq	8(%rbx), %rbx
.LVL301:
.L213:
	.loc 55 93 38 is_stmt 1 view .LVU984
	testq	%rbx, %rbx
	je	.L212
	.loc 55 94 5 view .LVU985
	.loc 55 94 26 is_stmt 0 view .LVU986
	movq	(%rbx), %rcx
	.loc 55 94 22 view .LVU987
	movq	%r12, %rsi
	movq	%rbx, %rdi
.LEHB6:
	call	*48(%rcx)
.LVL302:
.LEHE6:
	jmp	.L228
.L212:
.LVL303:
	.loc 55 94 22 view .LVU988
.LBE988:
.LBE989:
	.loc 51 91 3 is_stmt 1 view .LVU989
.LBB990:
.LBI990:
	.file 56 "/usr/local/include/boost/asio/detail/impl/scheduler.ipp"
	.loc 56 396 6 view .LVU990
.LBB991:
	.loc 56 399 3 view .LVU991
.LBB992:
.LBI992:
	.loc 16 69 3 view .LVU992
.LBB993:
.LBB994:
.LBB995:
.LBI995:
	.loc 38 29 3 view .LVU993
	.loc 38 29 3 is_stmt 0 view .LVU994
.LBE995:
	.loc 16 71 14 view .LVU995
	movq	$0, (%rsp)
.LVL304:
	.loc 16 71 14 view .LVU996
.LBE994:
.LBE993:
.LBE992:
	.loc 56 400 3 is_stmt 1 view .LVU997
.LBB996:
.LBI996:
	.loc 16 122 8 view .LVU998
.LBB997:
	.loc 16 124 20 is_stmt 0 view .LVU999
	movq	16(%rsp), %rsi
.LVL305:
	.loc 16 124 5 view .LVU1000
	testq	%rsi, %rsi
	je	.L214
	.loc 16 129 9 view .LVU1001
	movq	%rsi, (%rsp)
	.loc 16 131 7 view .LVU1002
	movq	$0, 16(%rsp)
	.loc 16 132 7 view .LVU1003
	movq	$0, 24(%rsp)
.L214:
.LVL306:
	.loc 16 132 7 view .LVU1004
.LBE997:
.LBE996:
.LBB998:
.LBI998:
	.loc 16 76 3 is_stmt 1 view .LVU1005
.LBB999:
.LBB1000:
.LBB1001:
.LBB1002:
.LBB1003:
	.loc 17 45 10 is_stmt 0 view .LVU1006
	leaq	64(%rsp), %r12
.LVL307:
.L216:
	.loc 17 45 10 view .LVU1007
.LBE1003:
.LBE1002:
.LBE1001:
	.loc 16 78 23 view .LVU1008
	movq	(%rsp), %rsi
.LVL308:
	.loc 16 78 5 view .LVU1009
	testq	%rsi, %rsi
	je	.L215
.LVL309:
.LBB1009:
.LBB1010:
.LBB1011:
.LBB1012:
	.loc 16 35 44 view .LVU1010
	movq	(%rsi), %rdi
.LVL310:
	.loc 16 35 44 view .LVU1011
.LBE1012:
.LBE1011:
	.loc 16 97 7 view .LVU1012
	movq	%rdi, (%rsp)
.LVL311:
.LBB1013:
.LBB1014:
	.loc 16 41 5 view .LVU1013
	movq	$0, (%rsi)
.LVL312:
	.loc 16 41 5 view .LVU1014
.LBE1014:
.LBE1013:
.LBE1010:
.LBE1009:
.LBB1015:
.LBB1008:
.LBB1007:
	.loc 17 45 5 view .LVU1015
	movq	8(%rsi), %r8
.LVL313:
.LBB1004:
.LBB1005:
.LBB1006:
	.loc 18 584 63 view .LVU1016
	movl	$0, 64(%rsp)
	movb	$0, 68(%rsp)
	movq	_ZN5boost6system6detail10cat_holderIvE24system_category_instanceE@GOTPCREL(%rip), %r9
	movq	%r9, 72(%rsp)
.LVL314:
	.loc 18 584 63 view .LVU1017
.LBE1006:
.LBE1005:
.LBE1004:
	.loc 17 45 10 view .LVU1018
	movl	$0, %ecx
	movq	%r12, %rdx
	movl	$0, %edi
	call	*%r8
.LVL315:
	.loc 17 45 10 view .LVU1019
	jmp	.L216
.LVL316:
.L215:
	.loc 17 45 10 view .LVU1020
.LBE1007:
.LBE1008:
.LBE1015:
.LBE1000:
.LBE999:
.LBE998:
.LBE991:
.LBE990:
.LBB1016:
.LBI1016:
	.loc 16 76 3 is_stmt 1 view .LVU1021
.LBB1017:
.LBB1018:
.LBB1019:
.LBB1020:
.LBB1021:
	.loc 17 45 10 is_stmt 0 view .LVU1022
	leaq	48(%rsp), %rbx
	jmp	.L219
.LVL317:
.L229:
	.loc 17 45 10 view .LVU1023
.LBE1021:
.LBE1020:
.LBE1019:
.LBB1027:
.LBB1028:
	.loc 16 99 9 view .LVU1024
	movq	$0, 24(%rsp)
.L218:
.LVL318:
.LBB1029:
.LBB1030:
	.loc 16 41 5 view .LVU1025
	movq	$0, (%rsi)
.LVL319:
	.loc 16 41 5 view .LVU1026
.LBE1030:
.LBE1029:
.LBE1028:
.LBE1027:
.LBB1034:
.LBB1026:
.LBB1025:
	.loc 17 45 5 view .LVU1027
	movq	8(%rsi), %r11
.LVL320:
.LBB1022:
.LBB1023:
.LBB1024:
	.loc 18 584 63 view .LVU1028
	movl	$0, 48(%rsp)
	movb	$0, 52(%rsp)
	movq	_ZN5boost6system6detail10cat_holderIvE24system_category_instanceE@GOTPCREL(%rip), %rdx
	movq	%rdx, 56(%rsp)
.LVL321:
	.loc 18 584 63 view .LVU1029
.LBE1024:
.LBE1023:
.LBE1022:
	.loc 17 45 10 view .LVU1030
	movl	$0, %ecx
	movq	%rbx, %rdx
	movl	$0, %edi
	call	*%r11
.LVL322:
.L219:
	.loc 17 45 10 view .LVU1031
.LBE1025:
.LBE1026:
.LBE1034:
	.loc 16 78 23 view .LVU1032
	movq	16(%rsp), %rsi
.LVL323:
	.loc 16 78 5 view .LVU1033
	testq	%rsi, %rsi
	je	.L217
.LVL324:
.LBB1035:
.LBB1033:
.LBB1031:
.LBB1032:
	.loc 16 35 44 view .LVU1034
	movq	(%rsi), %r10
.LVL325:
	.loc 16 35 44 view .LVU1035
.LBE1032:
.LBE1031:
	.loc 16 97 7 view .LVU1036
	movq	%r10, 16(%rsp)
	.loc 16 98 7 view .LVU1037
	testq	%r10, %r10
	jne	.L218
	jmp	.L229
.LVL326:
.L217:
	.loc 16 98 7 view .LVU1038
.LBE1033:
.LBE1035:
.LBE1018:
.LBE1017:
.LBE1016:
.LBB1036:
.LBI1036:
	.loc 52 63 5 is_stmt 1 view .LVU1039
.LBB1037:
	.loc 52 65 7 view .LVU1040
	cmpb	$0, 40(%rsp)
	jne	.L230
.LVL327:
.L197:
	.loc 52 65 7 is_stmt 0 view .LVU1041
.LBE1037:
.LBE1036:
	.loc 51 92 1 view .LVU1042
	addq	$80, %rsp
	.cfi_remember_state
	.cfi_def_cfa_offset 32
	popq	%rbx
	.cfi_def_cfa_offset 24
	popq	%rbp
	.cfi_def_cfa_offset 16
.LVL328:
	.loc 51 92 1 view .LVU1043
	popq	%r12
	.cfi_def_cfa_offset 8
	ret
.LVL329:
.L230:
	.cfi_restore_state
.LBB1042:
.LBB1041:
	.loc 52 66 9 is_stmt 1 view .LVU1044
.LBB1038:
.LBI1038:
	.loc 53 56 8 view .LVU1045
.LBB1039:
	.loc 53 58 5 view .LVU1046
	.loc 53 58 33 is_stmt 0 view .LVU1047
	leaq	8(%rbp), %rdi
.LVL330:
	.loc 53 58 33 view .LVU1048
	call	pthread_mutex_unlock@PLT
.LVL331:
	.loc 53 58 33 view .LVU1049
.LBE1039:
.LBE1038:
.LBB1040:
.LBI1040:
	.loc 38 30 3 is_stmt 1 view .LVU1050
	.loc 38 30 3 is_stmt 0 view .LVU1051
	jmp	.L197
.LVL332:
.L223:
	.loc 38 30 3 view .LVU1052
	movq	%rax, %rbx
.LVL333:
	.loc 38 30 3 view .LVU1053
.LBE1040:
.LBE1041:
.LBE1042:
	.loc 51 79 23 view .LVU1054
	leaq	16(%rsp), %rdi
	call	_ZN5boost4asio6detail8op_queueINS1_19scheduler_operationEED1Ev
.LVL334:
.LBB1043:
.LBI1043:
	.loc 52 63 5 is_stmt 1 view .LVU1055
.LBB1044:
	.loc 52 65 7 view .LVU1056
	cmpb	$0, 40(%rsp)
	je	.L222
	.loc 52 66 9 view .LVU1057
.LVL335:
.LBB1045:
.LBI1045:
	.loc 53 56 8 view .LVU1058
.LBB1046:
	.loc 53 58 5 view .LVU1059
	.loc 53 58 33 is_stmt 0 view .LVU1060
	leaq	8(%rbp), %rdi
.LVL336:
	.loc 53 58 33 view .LVU1061
	call	pthread_mutex_unlock@PLT
.LVL337:
.L222:
	.loc 53 58 33 view .LVU1062
.LBE1046:
.LBE1045:
.LBB1047:
.LBI1047:
	.loc 38 30 3 is_stmt 1 view .LVU1063
	.loc 38 30 3 is_stmt 0 view .LVU1064
	movq	%rbx, %rdi
.LEHB7:
	call	_Unwind_Resume@PLT
.LVL338:
.LEHE7:
.LBE1047:
.LBE1044:
.LBE1043:
	.cfi_endproc
.LFE51:
	.section	.gcc_except_table
.LLSDA51:
	.byte	0xff
	.byte	0xff
	.byte	0x1
	.uleb128 .LLSDACSE51-.LLSDACSB51
.LLSDACSB51:
	.uleb128 .LEHB6-.LFB51
	.uleb128 .LEHE6-.LEHB6
	.uleb128 .L223-.LFB51
	.uleb128 0
	.uleb128 .LEHB7-.LFB51
	.uleb128 .LEHE7-.LEHB7
	.uleb128 0
	.uleb128 0
.LLSDACSE51:
	.text
	.size	_ZN5boost4asio6detail13epoll_reactor8shutdownEv, .-_ZN5boost4asio6detail13epoll_reactor8shutdownEv
	.align 2
	.type	_ZN5boost4asio8executor4implINS0_10io_context13executor_typeESaIvEE15on_work_startedEv, @function
_ZN5boost4asio8executor4implINS0_10io_context13executor_typeESaIvEE15on_work_startedEv:
.LVL339:
.LFB52:
	.loc 1 167 8 is_stmt 1 view -0
	.cfi_startproc
.LBB1048:
.LBI1048:
	.loc 3 241 1 view .LVU1066
.LBB1049:
	.loc 3 243 3 view .LVU1067
	movq	24(%rdi), %rax
	.loc 3 243 15 is_stmt 0 view .LVU1068
	movq	8(%rax), %rdx
.LVL340:
.LBB1050:
.LBI1050:
	.file 57 "/usr/local/include/boost/asio/detail/scheduler.hpp"
	.loc 57 86 8 is_stmt 1 view .LVU1069
.LBE1050:
.LBE1049:
.LBE1048:
	.loc 57 88 5 view .LVU1070
.LBB1055:
.LBB1054:
.LBB1053:
.LBB1051:
.LBI1051:
	.loc 37 318 7 view .LVU1071
.LBB1052:
	.loc 37 319 36 is_stmt 0 view .LVU1072
	addq	$208, %rdx
.LVL341:
	.loc 37 319 34 view .LVU1073
	lock addq	$1, (%rdx)
.LVL342:
	.loc 37 319 34 view .LVU1074
.LBE1052:
.LBE1051:
.LBE1053:
.LBE1054:
.LBE1055:
	.loc 1 170 3 view .LVU1075
	ret
	.cfi_endproc
.LFE52:
	.size	_ZN5boost4asio8executor4implINS0_10io_context13executor_typeESaIvEE15on_work_startedEv, .-_ZN5boost4asio8executor4implINS0_10io_context13executor_typeESaIvEE15on_work_startedEv
	.align 2
	.type	_ZNK5boost4asio8executor4implINS0_10io_context13executor_typeESaIvEE5cloneEv, @function
_ZNK5boost4asio8executor4implINS0_10io_context13executor_typeESaIvEE5cloneEv:
.LVL343:
.LFB53:
	.loc 1 150 14 is_stmt 1 view -0
	.cfi_startproc
	.loc 1 150 14 is_stmt 0 view .LVU1077
	movq	%rdi, %rax
.LVL344:
.LBB1056:
.LBI1056:
	.loc 37 318 7 is_stmt 1 view .LVU1078
.LBB1057:
	.loc 37 319 36 is_stmt 0 view .LVU1079
	leaq	16(%rdi), %rdx
.LVL345:
	.loc 37 319 34 view .LVU1080
	lock addq	$1, (%rdx)
.LVL346:
	.loc 37 319 34 view .LVU1081
.LBE1057:
.LBE1056:
	.loc 1 154 3 view .LVU1082
	ret
	.cfi_endproc
.LFE53:
	.size	_ZNK5boost4asio8executor4implINS0_10io_context13executor_typeESaIvEE5cloneEv, .-_ZNK5boost4asio8executor4implINS0_10io_context13executor_typeESaIvEE5cloneEv
	.section	.rodata.str1.8,"aMS",@progbits,1
	.align 8
.LC6:
	.string	"bool boost::asio::detail::posix_event::maybe_unlock_and_signal_one(Lock&) [with Lock = boost::asio::detail::conditionally_enabled_mutex::scoped_lock]"
	.align 8
.LC7:
	.string	"/usr/local/include/boost/asio/detail/posix_event.hpp"
	.section	.rodata.str1.1
.LC8:
	.string	"lock.locked()"
	.text
	.align 2
	.type	_ZN5boost4asio6detail9scheduler26wake_one_thread_and_unlockERNS1_27conditionally_enabled_mutex11scoped_lockE, @function
_ZN5boost4asio6detail9scheduler26wake_one_thread_and_unlockERNS1_27conditionally_enabled_mutex11scoped_lockE:
.LVL347:
.LFB54:
	.loc 56 601 1 is_stmt 1 view -0
	.cfi_startproc
	.loc 56 601 1 is_stmt 0 view .LVU1084
	pushq	%r13
	.cfi_def_cfa_offset 16
	.cfi_offset 13, -16
	pushq	%r12
	.cfi_def_cfa_offset 24
	.cfi_offset 12, -24
	pushq	%rbp
	.cfi_def_cfa_offset 32
	.cfi_offset 6, -32
	pushq	%rbx
	.cfi_def_cfa_offset 40
	.cfi_offset 3, -40
	subq	$24, %rsp
	.cfi_def_cfa_offset 64
	movq	%rdi, %rbp
	movq	%rsi, %rbx
	.loc 56 602 3 is_stmt 1 view .LVU1085
.LVL348:
.LBB1092:
.LBI1092:
	.file 58 "/usr/local/include/boost/asio/detail/conditionally_enabled_event.hpp"
	.loc 58 69 8 view .LVU1086
.LBB1093:
	.loc 58 72 5 view .LVU1087
	.loc 58 72 14 is_stmt 0 view .LVU1088
	movq	(%rsi), %rax
	.loc 58 72 5 view .LVU1089
	cmpb	$0, 48(%rax)
	jne	.L244
.LVL349:
.L234:
	.loc 58 72 5 view .LVU1090
.LBE1093:
.LBE1092:
	.loc 56 604 5 is_stmt 1 view .LVU1091
	cmpb	$0, 200(%rbp)
	jne	.L240
	.loc 56 604 31 is_stmt 0 discriminator 1 view .LVU1092
	movq	168(%rbp), %rsi
	.loc 56 604 28 discriminator 1 view .LVU1093
	testq	%rsi, %rsi
	je	.L240
	.loc 56 606 7 is_stmt 1 view .LVU1094
	.loc 56 606 25 is_stmt 0 view .LVU1095
	movb	$1, 200(%rbp)
	.loc 56 607 7 is_stmt 1 view .LVU1096
.LVL350:
.LBB1112:
.LBI1112:
	.loc 51 568 6 view .LVU1097
.LBB1113:
	.loc 51 570 3 view .LVU1098
	.loc 51 571 3 view .LVU1099
	.loc 51 571 13 is_stmt 0 view .LVU1100
	movl	$-2147483639, 4(%rsp)
	.loc 51 572 3 is_stmt 1 view .LVU1101
	.loc 51 572 17 is_stmt 0 view .LVU1102
	leaq	104(%rsi), %rcx
	.loc 51 572 15 view .LVU1103
	movq	%rcx, 8(%rsp)
	.loc 51 573 3 is_stmt 1 view .LVU1104
.LVL351:
.LBB1114:
.LBI1114:
	.file 59 "/usr/local/include/boost/asio/detail/eventfd_select_interrupter.hpp"
	.loc 59 48 7 view .LVU1105
.LBB1115:
	.loc 59 50 5 view .LVU1106
	.loc 59 50 12 is_stmt 0 view .LVU1107
	movl	104(%rsi), %edx
.LVL352:
	.loc 59 50 12 view .LVU1108
.LBE1115:
.LBE1114:
	.loc 51 573 12 view .LVU1109
	leaq	4(%rsp), %rcx
	movl	112(%rsi), %edi
	movl	$3, %esi
.LVL353:
	.loc 51 573 12 view .LVU1110
	call	epoll_ctl@PLT
.LVL354:
.L240:
	.loc 51 573 12 view .LVU1111
.LBE1113:
.LBE1112:
	.loc 56 609 5 is_stmt 1 view .LVU1112
.LBB1116:
.LBI1116:
	.loc 52 80 10 view .LVU1113
.LBB1117:
	.loc 52 82 7 view .LVU1114
	cmpb	$0, 8(%rbx)
	je	.L233
	.loc 52 84 9 view .LVU1115
	movq	(%rbx), %rdi
.LVL355:
.LBB1118:
.LBI1118:
	.loc 52 132 8 view .LVU1116
.LBB1119:
	.loc 52 134 5 view .LVU1117
	cmpb	$0, 48(%rdi)
	jne	.L245
.LVL356:
.L241:
	.loc 52 134 5 is_stmt 0 view .LVU1118
.LBE1119:
.LBE1118:
	.loc 52 85 9 is_stmt 1 view .LVU1119
	.loc 52 85 17 is_stmt 0 view .LVU1120
	movb	$0, 8(%rbx)
.LVL357:
.L233:
	.loc 52 85 17 view .LVU1121
.LBE1117:
.LBE1116:
	.loc 56 611 1 view .LVU1122
	addq	$24, %rsp
	.cfi_remember_state
	.cfi_def_cfa_offset 40
	popq	%rbx
	.cfi_def_cfa_offset 32
.LVL358:
	.loc 56 611 1 view .LVU1123
	popq	%rbp
	.cfi_def_cfa_offset 24
.LVL359:
	.loc 56 611 1 view .LVU1124
	popq	%r12
	.cfi_def_cfa_offset 16
	popq	%r13
	.cfi_def_cfa_offset 8
	ret
.LVL360:
.L244:
	.cfi_restore_state
.LBB1125:
.LBB1110:
	.loc 58 73 7 is_stmt 1 view .LVU1125
	.loc 58 73 48 is_stmt 0 view .LVU1126
	leaq	112(%rdi), %r13
.LVL361:
.LBB1094:
.LBI1094:
	.file 60 "/usr/local/include/boost/asio/detail/posix_event.hpp"
	.loc 60 76 8 is_stmt 1 view .LVU1127
.LBB1095:
.LBB1096:
.LBI1096:
	.loc 52 90 10 view .LVU1128
.LBB1097:
	.loc 52 92 7 view .LVU1129
	.loc 52 92 14 is_stmt 0 view .LVU1130
	movzbl	8(%rsi), %r12d
.LVL362:
	.loc 52 92 14 view .LVU1131
.LBE1097:
.LBE1096:
	.loc 60 78 41 view .LVU1132
	testb	%r12b, %r12b
	je	.L246
	.loc 60 79 12 view .LVU1133
	movq	48(%r13), %rdx
	orq	$1, %rdx
	.loc 60 79 5 view .LVU1134
	movq	%rdx, 48(%r13)
	.loc 60 80 5 view .LVU1135
	cmpq	$1, %rdx
	ja	.L247
.LBE1095:
	.loc 60 86 12 view .LVU1136
	movl	$0, %r12d
.LVL363:
.L236:
	.loc 60 86 12 view .LVU1137
.LBE1094:
.LBE1110:
.LBE1125:
	.loc 56 602 3 view .LVU1138
	testb	%r12b, %r12b
	jne	.L233
	jmp	.L234
.LVL364:
.L246:
.LBB1126:
.LBB1111:
.LBB1109:
.LBB1108:
	.loc 60 78 68 view .LVU1139
	leaq	.LC6(%rip), %rcx
	movl	$78, %edx
	leaq	.LC7(%rip), %rsi
	leaq	.LC8(%rip), %rdi
.LVL365:
	.loc 60 78 68 view .LVU1140
	call	__assert_fail@PLT
.LVL366:
.L247:
.LBB1098:
.LBI1098:
	.loc 52 80 10 is_stmt 1 view .LVU1141
.LBB1099:
	.loc 52 82 7 view .LVU1142
	cmpb	$0, 8(%rsi)
	je	.L237
	.loc 52 84 9 view .LVU1143
	movq	(%rsi), %rdi
.LVL367:
.LBB1100:
.LBI1100:
	.loc 52 132 8 view .LVU1144
.LBB1101:
	.loc 52 134 5 view .LVU1145
	cmpb	$0, 48(%rdi)
	jne	.L248
.LVL368:
.L238:
	.loc 52 134 5 is_stmt 0 view .LVU1146
.LBE1101:
.LBE1100:
	.loc 52 85 9 is_stmt 1 view .LVU1147
	.loc 52 85 17 is_stmt 0 view .LVU1148
	movb	$0, 8(%rbx)
.L237:
.LVL369:
	.loc 52 85 17 view .LVU1149
.LBE1099:
.LBE1098:
	.loc 60 83 28 view .LVU1150
	movq	%r13, %rdi
	call	pthread_cond_signal@PLT
.LVL370:
	jmp	.L236
.LVL371:
.L248:
.LBB1107:
.LBB1106:
.LBB1105:
.LBB1104:
	.loc 52 135 7 is_stmt 1 view .LVU1151
.LBB1102:
.LBI1102:
	.loc 53 56 8 view .LVU1152
.LBB1103:
	.loc 53 58 5 view .LVU1153
	.loc 53 58 33 is_stmt 0 view .LVU1154
	addq	$8, %rdi
.LVL372:
	.loc 53 58 33 view .LVU1155
	call	pthread_mutex_unlock@PLT
.LVL373:
	.loc 53 58 33 view .LVU1156
	jmp	.L238
.LVL374:
.L245:
	.loc 53 58 33 view .LVU1157
.LBE1103:
.LBE1102:
.LBE1104:
.LBE1105:
.LBE1106:
.LBE1107:
.LBE1108:
.LBE1109:
.LBE1111:
.LBE1126:
.LBB1127:
.LBB1124:
.LBB1123:
.LBB1122:
	.loc 52 135 7 is_stmt 1 view .LVU1158
.LBB1120:
.LBI1120:
	.loc 53 56 8 view .LVU1159
.LBB1121:
	.loc 53 58 5 view .LVU1160
	.loc 53 58 33 is_stmt 0 view .LVU1161
	addq	$8, %rdi
.LVL375:
	.loc 53 58 33 view .LVU1162
	call	pthread_mutex_unlock@PLT
.LVL376:
	.loc 53 58 33 view .LVU1163
	jmp	.L241
.LBE1121:
.LBE1120:
.LBE1122:
.LBE1123:
.LBE1124:
.LBE1127:
	.cfi_endproc
.LFE54:
	.size	_ZN5boost4asio6detail9scheduler26wake_one_thread_and_unlockERNS1_27conditionally_enabled_mutex11scoped_lockE, .-_ZN5boost4asio6detail9scheduler26wake_one_thread_and_unlockERNS1_27conditionally_enabled_mutex11scoped_lockE
	.align 2
	.type	_ZN5boost4asio6detail13epoll_reactor16descriptor_state11do_completeEPvPNS1_19scheduler_operationERKNS_6system10error_codeEm, @function
_ZN5boost4asio6detail13epoll_reactor16descriptor_state11do_completeEPvPNS1_19scheduler_operationERKNS_6system10error_codeEm:
.LVL377:
.LFB57:
	.loc 51 769 1 is_stmt 1 view -0
	.cfi_startproc
	.cfi_personality 0x9b,DW.ref.__gxx_personality_v0
	.cfi_lsda 0x1b,.LLSDA57
	.loc 51 769 1 is_stmt 0 view .LVU1165
	pushq	%r15
	.cfi_def_cfa_offset 16
	.cfi_offset 15, -16
	pushq	%r14
	.cfi_def_cfa_offset 24
	.cfi_offset 14, -24
	pushq	%r13
	.cfi_def_cfa_offset 32
	.cfi_offset 13, -32
	pushq	%r12
	.cfi_def_cfa_offset 40
	.cfi_offset 12, -40
	pushq	%rbp
	.cfi_def_cfa_offset 48
	.cfi_offset 6, -48
	pushq	%rbx
	.cfi_def_cfa_offset 56
	.cfi_offset 3, -56
	subq	$136, %rsp
	.cfi_def_cfa_offset 192
	movq	%rdx, 8(%rsp)
	.loc 51 770 3 is_stmt 1 view .LVU1166
.LBB1360:
	testq	%rdi, %rdi
	je	.L249
	movq	%rdi, %r14
	movq	%rsi, %r12
.LBB1361:
	.loc 51 772 5 view .LVU1167
.LVL378:
	.loc 51 773 5 view .LVU1168
	.loc 51 773 14 is_stmt 0 view .LVU1169
	movl	%ecx, 16(%rsp)
.LVL379:
	.loc 51 774 5 is_stmt 1 view .LVU1170
.LBB1362:
.LBB1363:
.LBI1363:
	.loc 51 727 12 view .LVU1171
.LBB1364:
	.loc 51 729 3 view .LVU1172
.LBB1365:
.LBI1365:
	.loc 52 125 8 view .LVU1173
.LBB1366:
	.loc 52 127 5 view .LVU1174
	cmpb	$0, 88(%rsi)
	jne	.L327
.LVL380:
.L251:
	.loc 52 127 5 is_stmt 0 view .LVU1175
.LBE1366:
.LBE1365:
	.loc 51 730 3 is_stmt 1 view .LVU1176
	.loc 51 730 55 is_stmt 0 view .LVU1177
	movq	96(%r12), %rax
.LVL381:
.LBB1370:
.LBI1370:
	.loc 51 690 12 is_stmt 1 view .LVU1178
.LBB1371:
.LBB1372:
	.loc 51 691 31 is_stmt 0 view .LVU1179
	movq	%rax, 64(%rsp)
.LVL382:
.LBB1373:
.LBI1373:
	.loc 16 69 3 is_stmt 1 view .LVU1180
.LBB1374:
.LBB1375:
.LBB1376:
.LBI1376:
	.loc 38 29 3 view .LVU1181
	.loc 38 29 3 is_stmt 0 view .LVU1182
.LBE1376:
	.loc 16 71 14 view .LVU1183
	movq	$0, 72(%rsp)
	movq	$0, 80(%rsp)
.LVL383:
	.loc 16 71 14 view .LVU1184
.LBE1375:
.LBE1374:
.LBE1373:
	.loc 51 691 31 view .LVU1185
	movq	$0, 88(%rsp)
.LVL384:
	.loc 51 691 31 view .LVU1186
.LBE1372:
.LBE1371:
.LBE1370:
	.loc 51 731 3 is_stmt 1 view .LVU1187
	.loc 51 731 38 is_stmt 0 view .LVU1188
	leaq	40(%r12), %rdx
	movq	%rdx, 24(%rsp)
.LVL385:
.LBB1377:
.LBI1377:
	.loc 52 43 5 is_stmt 1 view .LVU1189
.LBB1378:
.LBB1379:
.LBI1379:
	.loc 38 29 3 view .LVU1190
	.loc 38 29 3 is_stmt 0 view .LVU1191
.LBE1379:
	.loc 52 45 19 view .LVU1192
	movzbl	88(%r12), %ecx
	movb	%cl, 23(%rsp)
.LVL386:
	.loc 52 45 19 view .LVU1193
.LBE1378:
.LBE1377:
	.loc 51 735 3 is_stmt 1 view .LVU1194
	.loc 51 736 3 view .LVU1195
	.loc 51 736 3 is_stmt 0 view .LVU1196
.LBE1364:
	.loc 51 736 12 view .LVU1197
	movl	$2, %r13d
.LBB1681:
.LBB1380:
.LBB1381:
	.loc 51 738 25 view .LVU1198
	leaq	_ZZN5boost4asio6detail13epoll_reactor16descriptor_state10perform_ioEjE4flag(%rip), %r15
	jmp	.L259
.LVL387:
.L327:
	.loc 51 738 25 view .LVU1199
.LBE1381:
.LBE1380:
.LBB1415:
.LBB1369:
	.loc 52 128 7 is_stmt 1 view .LVU1200
.LBB1367:
.LBI1367:
	.loc 53 50 8 view .LVU1201
.LBB1368:
	.loc 53 52 5 view .LVU1202
	.loc 53 52 31 is_stmt 0 view .LVU1203
	leaq	48(%rsi), %rdi
.LVL388:
	.loc 53 52 31 view .LVU1204
	call	pthread_mutex_lock@PLT
.LVL389:
	.loc 53 52 31 view .LVU1205
	jmp	.L251
.LVL390:
.L330:
	.loc 53 52 31 view .LVU1206
.LBE1368:
.LBE1367:
.LBE1369:
.LBE1415:
.LBB1416:
.LBB1413:
.LBB1382:
.LBB1383:
.LBB1384:
	.loc 51 743 9 view .LVU1207
	testl	%eax, %eax
	je	.L253
	.loc 51 745 11 is_stmt 1 view .LVU1208
.LVL391:
.LBB1385:
.LBI1385:
	.loc 16 92 8 view .LVU1209
.LBB1386:
	.loc 16 94 9 is_stmt 0 view .LVU1210
	movq	0(%rbp), %rdi
	.loc 16 94 5 view .LVU1211
	testq	%rdi, %rdi
	je	.L254
.LVL392:
.LBB1387:
.LBB1388:
.LBI1388:
	.loc 16 33 21 is_stmt 1 view .LVU1212
.LBB1389:
	.loc 16 35 44 is_stmt 0 view .LVU1213
	movq	(%rdi), %r8
.LVL393:
	.loc 16 35 44 view .LVU1214
.LBE1389:
.LBE1388:
	.loc 16 97 7 view .LVU1215
	movq	%r8, 0(%rbp)
	.loc 16 98 7 view .LVU1216
	testq	%r8, %r8
	je	.L328
.L255:
.LVL394:
.LBB1390:
.LBI1390:
	.loc 16 39 15 is_stmt 1 view .LVU1217
.LBB1391:
	.loc 16 41 5 is_stmt 0 view .LVU1218
	movq	$0, (%rdi)
.LVL395:
.L254:
	.loc 16 41 5 view .LVU1219
.LBE1391:
.LBE1390:
.LBE1387:
.LBE1386:
.LBE1385:
	.loc 51 746 11 is_stmt 1 view .LVU1220
.LBB1394:
.LBI1394:
	.loc 16 105 8 view .LVU1221
.LBB1395:
.LBB1396:
.LBI1396:
	.loc 16 39 15 view .LVU1222
.LBB1397:
	.loc 16 41 5 is_stmt 0 view .LVU1223
	movq	$0, (%rbx)
.LVL396:
	.loc 16 41 5 view .LVU1224
.LBE1397:
.LBE1396:
	.loc 16 108 9 view .LVU1225
	movq	80(%rsp), %r9
	.loc 16 108 5 view .LVU1226
	testq	%r9, %r9
	je	.L256
.LVL397:
.LBB1398:
.LBI1398:
	.loc 16 39 15 is_stmt 1 view .LVU1227
.LBB1399:
	.loc 16 41 5 is_stmt 0 view .LVU1228
	movq	%rbx, (%r9)
.LVL398:
	.loc 16 41 5 view .LVU1229
.LBE1399:
.LBE1398:
	.loc 16 111 7 view .LVU1230
	movq	%rbx, 80(%rsp)
.L257:
.LVL399:
	.loc 16 111 7 view .LVU1231
.LBE1395:
.LBE1394:
	.loc 51 747 11 is_stmt 1 view .LVU1232
	cmpl	$2, %eax
	je	.L329
.LVL400:
.L258:
	.loc 51 747 11 is_stmt 0 view .LVU1233
.LBE1384:
.LBE1383:
	.loc 51 741 7 is_stmt 1 view .LVU1234
.LBB1410:
.LBB1405:
.LBI1405:
	.loc 16 86 14 view .LVU1235
.LBB1406:
	.loc 16 88 12 is_stmt 0 view .LVU1236
	movq	0(%rbp), %rbx
.LVL401:
	.loc 16 88 12 view .LVU1237
.LBE1406:
.LBE1405:
	.loc 51 741 50 view .LVU1238
	testq	%rbx, %rbx
	je	.L253
	.loc 51 743 9 is_stmt 1 view .LVU1239
.LVL402:
.LBB1408:
.LBB1401:
.LBI1401:
	.file 61 "/usr/local/include/boost/asio/detail/reactor_op.hpp"
	.loc 61 42 10 view .LVU1240
.LBB1402:
	.loc 61 44 5 view .LVU1241
	.loc 61 44 25 is_stmt 0 view .LVU1242
	movq	%rbx, %rdi
.LEHB8:
	call	*48(%rbx)
.LVL403:
.LEHE8:
	jmp	.L330
.LVL404:
.L328:
	.loc 61 44 25 view .LVU1243
.LBE1402:
.LBE1401:
.LBB1403:
.LBB1393:
.LBB1392:
	.loc 16 99 9 view .LVU1244
	movq	$0, 8(%rbp)
	jmp	.L255
.LVL405:
.L256:
	.loc 16 99 9 view .LVU1245
.LBE1392:
.LBE1393:
.LBE1403:
.LBB1404:
.LBB1400:
	.loc 16 115 7 view .LVU1246
	movq	%rbx, 80(%rsp)
	movq	%rbx, 72(%rsp)
	jmp	.L257
.LVL406:
.L329:
	.loc 16 115 7 view .LVU1247
.LBE1400:
.LBE1404:
	.loc 51 749 13 is_stmt 1 view .LVU1248
	.loc 51 749 33 is_stmt 0 view .LVU1249
	movslq	%r13d, %r10
	movb	$0, 160(%r12,%r10)
	.loc 51 750 13 is_stmt 1 view .LVU1250
.LVL407:
.L253:
	.loc 51 750 13 is_stmt 0 view .LVU1251
.LBE1408:
.LBE1410:
.LBE1382:
.LBE1413:
	.loc 51 736 3 is_stmt 1 view .LVU1252
	subl	$1, %r13d
.LVL408:
.L259:
	.loc 51 736 31 view .LVU1253
	testl	%r13d, %r13d
	js	.L252
.LBE1416:
.LBE1681:
.LBE1363:
.LBE1362:
.LBE1361:
.LBE1360:
	.loc 51 738 5 view .LVU1254
.LBB1708:
.LBB1702:
.LBB1696:
.LBB1688:
.LBB1682:
.LBB1417:
.LBB1414:
	.loc 51 738 25 is_stmt 0 view .LVU1255
	movslq	%r13d, %rbx
	movl	(%r15,%rbx,4), %esi
	.loc 51 738 38 view .LVU1256
	orl	$24, %esi
	.loc 51 738 5 view .LVU1257
	testl	%esi, 16(%rsp)
	je	.L253
.LBB1412:
	.loc 51 740 7 is_stmt 1 view .LVU1258
	.loc 51 740 27 is_stmt 0 view .LVU1259
	movslq	%r13d, %rbp
	movb	$1, 160(%r12,%rbp)
.LBB1411:
.LBB1409:
.LBB1407:
	.loc 16 88 12 view .LVU1260
	addq	$7, %rbp
	salq	$4, %rbp
	addq	%r12, %rbp
	jmp	.L258
.L252:
	.loc 16 88 12 view .LVU1261
.LBE1407:
.LBE1409:
.LBE1411:
.LBE1412:
.LBE1414:
.LBE1417:
	.loc 51 761 3 is_stmt 1 view .LVU1262
.LVL409:
.LBB1418:
.LBI1418:
	.loc 16 86 14 view .LVU1263
.LBB1419:
	.loc 16 88 12 is_stmt 0 view .LVU1264
	movq	72(%rsp), %rsi
.LVL410:
	.loc 16 88 12 view .LVU1265
.LBE1419:
.LBE1418:
	.loc 51 761 24 view .LVU1266
	movq	%rsi, 88(%rsp)
	.loc 51 762 3 is_stmt 1 view .LVU1267
.LVL411:
.LBB1420:
.LBI1420:
	.loc 16 92 8 view .LVU1268
.LBB1421:
	.loc 16 94 5 is_stmt 0 view .LVU1269
	testq	%rsi, %rsi
	je	.L260
.LVL412:
.LBB1422:
.LBB1423:
.LBI1423:
	.loc 16 33 21 is_stmt 1 view .LVU1270
.LBB1424:
	.loc 16 35 44 is_stmt 0 view .LVU1271
	movq	(%rsi), %r11
.LVL413:
	.loc 16 35 44 view .LVU1272
.LBE1424:
.LBE1423:
	.loc 16 97 7 view .LVU1273
	movq	%r11, 72(%rsp)
	.loc 16 98 7 view .LVU1274
	testq	%r11, %r11
	je	.L331
.L261:
.LVL414:
.LBB1425:
.LBI1425:
	.loc 16 39 15 is_stmt 1 view .LVU1275
.LBB1426:
	.loc 16 41 5 is_stmt 0 view .LVU1276
	movq	$0, (%rsi)
.LVL415:
.L260:
	.loc 16 41 5 view .LVU1277
.LBE1426:
.LBE1425:
.LBE1422:
.LBE1421:
.LBE1420:
	.loc 51 763 3 is_stmt 1 view .LVU1278
	.loc 51 763 21 is_stmt 0 view .LVU1279
	movq	88(%rsp), %r15
.LVL416:
.LBB1429:
.LBI1429:
	.loc 52 63 5 is_stmt 1 view .LVU1280
.LBB1430:
	.loc 52 65 7 view .LVU1281
	cmpb	$0, 23(%rsp)
	jne	.L332
.L262:
.LVL417:
.LBB1431:
.LBI1431:
	.loc 38 30 3 view .LVU1282
	.loc 38 30 3 is_stmt 0 view .LVU1283
.LBE1431:
.LBE1430:
.LBE1429:
.LBB1435:
.LBI1435:
	.loc 51 695 3 is_stmt 1 view .LVU1284
.LBB1436:
	.loc 51 697 5 view .LVU1285
	cmpq	$0, 88(%rsp)
	je	.L263
	.loc 51 700 7 view .LVU1286
.LVL418:
.LBB1437:
.LBI1437:
	.loc 16 137 8 view .LVU1287
	.loc 16 137 8 is_stmt 0 view .LVU1288
.LBE1437:
	.loc 51 700 7 view .LVU1289
	cmpq	$0, 72(%rsp)
	je	.L264
	.loc 51 701 9 is_stmt 1 view .LVU1290
	movq	64(%rsp), %rbx
	.loc 51 701 19 is_stmt 0 view .LVU1291
	movq	40(%rbx), %rbp
.LVL419:
.LBB1438:
.LBI1438:
	.loc 56 365 6 is_stmt 1 view .LVU1292
.LBE1438:
.LBE1436:
.LBE1435:
.LBE1682:
.LBE1688:
.LBE1696:
.LBE1702:
.LBE1708:
	.loc 56 368 3 view .LVU1293
.LBB1709:
.LBB1703:
.LBB1697:
.LBB1689:
.LBB1683:
.LBB1554:
.LBB1551:
.LBB1524:
.LBB1439:
.LBB1440:
.LBI1440:
	.loc 16 137 8 view .LVU1294
.LBB1441:
	.loc 16 139 12 is_stmt 0 view .LVU1295
	movq	72(%rsp), %r13
.LVL420:
	.loc 16 139 12 view .LVU1296
.LBE1441:
.LBE1440:
	.loc 56 368 3 view .LVU1297
	je	.L264
.LBB1442:
	.loc 56 371 5 is_stmt 1 view .LVU1298
.LBB1443:
	cmpb	$0, 40(%rbp)
	je	.L266
.LBE1443:
.LBE1442:
.LBE1439:
.LBE1524:
.LBE1551:
.LBE1554:
.LBE1683:
.LBE1689:
.LBE1697:
.LBE1703:
.LBE1709:
	.loc 56 373 7 view .LVU1299
.LVL421:
.LBB1710:
.LBB1704:
.LBB1698:
.LBB1690:
.LBB1684:
.LBB1555:
.LBB1552:
.LBB1525:
.LBB1522:
.LBB1520:
.LBB1458:
.LBB1444:
.LBB1445:
.LBI1445:
	.loc 27 93 17 view .LVU1300
.LBB1446:
.LBB1447:
.LBI1447:
	.loc 30 46 3 view .LVU1301
.LBB1448:
	.loc 30 48 12 is_stmt 0 view .LVU1302
	data16	leaq	_ZN5boost4asio6detail15keyword_tss_ptrINS1_10call_stackINS1_14thread_contextENS1_16thread_info_baseEE7contextEE6value_E@tlsgd(%rip), %rdi
	.value	0x6666
	rex64
	call	__tls_get_addr@PLT
.LVL422:
	movq	(%rax), %rdi
.LVL423:
	.loc 30 48 12 view .LVU1303
	jmp	.L269
.LVL424:
.L331:
	.loc 30 48 12 view .LVU1304
.LBE1448:
.LBE1447:
.LBE1446:
.LBE1445:
.LBE1444:
.LBE1458:
.LBE1520:
.LBE1522:
.LBE1525:
.LBE1552:
.LBE1555:
.LBB1556:
.LBB1428:
.LBB1427:
	.loc 16 99 9 view .LVU1305
	movq	$0, 80(%rsp)
	jmp	.L261
.LVL425:
.L332:
	.loc 16 99 9 view .LVU1306
.LBE1427:
.LBE1428:
.LBE1556:
.LBB1557:
.LBB1434:
	.loc 52 66 9 is_stmt 1 view .LVU1307
.LBB1432:
.LBI1432:
	.loc 53 56 8 view .LVU1308
.LBB1433:
	.loc 53 58 5 view .LVU1309
	.loc 53 58 33 is_stmt 0 view .LVU1310
	movq	24(%rsp), %rdi
	addq	$8, %rdi
.LVL426:
	.loc 53 58 33 view .LVU1311
	call	pthread_mutex_unlock@PLT
.LVL427:
	.loc 53 58 33 view .LVU1312
	jmp	.L262
.LVL428:
.L268:
	.loc 53 58 33 view .LVU1313
.LBE1433:
.LBE1432:
.LBE1434:
.LBE1557:
.LBB1558:
.LBB1553:
.LBB1526:
.LBB1523:
.LBB1521:
.LBB1459:
.LBB1457:
.LBB1450:
.LBB1449:
	.loc 27 100 7 view .LVU1314
	movq	16(%rdi), %rdi
.LVL429:
.L269:
	.loc 27 96 5 is_stmt 1 view .LVU1315
	testq	%rdi, %rdi
	je	.L267
	.loc 27 98 7 is_stmt 0 view .LVU1316
	cmpq	(%rdi), %rbp
	jne	.L268
	.loc 27 99 22 view .LVU1317
	movq	8(%rdi), %rdi
.LVL430:
.L267:
	.loc 27 99 22 view .LVU1318
.LBE1449:
.LBE1450:
	.loc 56 373 7 view .LVU1319
	testq	%rdi, %rdi
	je	.L266
	.loc 56 375 9 is_stmt 1 view .LVU1320
.LVL431:
.LBB1451:
.LBI1451:
	.loc 16 122 8 view .LVU1321
.LBB1452:
	.loc 16 126 11 is_stmt 0 view .LVU1322
	movq	32(%rdi), %r8
	.loc 16 126 7 view .LVU1323
	testq	%r8, %r8
	je	.L270
.LVL432:
.LBB1453:
.LBI1453:
	.loc 16 39 15 is_stmt 1 view .LVU1324
.LBB1454:
	.loc 16 41 5 is_stmt 0 view .LVU1325
	movq	%r13, (%r8)
.LVL433:
.L271:
	.loc 16 41 5 view .LVU1326
.LBE1454:
.LBE1453:
	.loc 16 130 7 view .LVU1327
	movq	80(%rsp), %r9
	movq	%r9, 32(%rdi)
	.loc 16 131 7 view .LVU1328
	movq	$0, 72(%rsp)
.LVL434:
	.loc 16 131 7 view .LVU1329
.LBE1452:
.LBE1451:
	.loc 56 376 9 is_stmt 1 view .LVU1330
	jmp	.L264
.LVL435:
.L270:
.LBB1456:
.LBB1455:
	.loc 16 129 9 is_stmt 0 view .LVU1331
	movq	%r13, 24(%rdi)
	jmp	.L271
.LVL436:
.L266:
	.loc 16 129 9 view .LVU1332
.LBE1455:
.LBE1456:
.LBE1457:
.LBE1459:
	.loc 56 381 5 is_stmt 1 view .LVU1333
	.loc 56 381 29 is_stmt 0 view .LVU1334
	leaq	48(%rbp), %r8
.LVL437:
.LBB1460:
.LBI1460:
	.loc 52 50 14 is_stmt 1 view .LVU1335
.LBB1461:
.LBB1462:
.LBB1463:
.LBI1463:
	.loc 38 29 3 view .LVU1336
	.loc 38 29 3 is_stmt 0 view .LVU1337
.LBE1463:
	.loc 52 51 17 view .LVU1338
	movq	%r8, 48(%rsp)
	.loc 52 53 7 is_stmt 1 view .LVU1339
	cmpb	$0, 96(%rbp)
	jne	.L333
	.loc 52 59 9 view .LVU1340
	.loc 52 59 17 is_stmt 0 view .LVU1341
	movb	$0, 56(%rsp)
.LVL438:
.L273:
	.loc 52 59 17 view .LVU1342
.LBE1462:
.LBE1461:
.LBE1460:
	.loc 56 382 5 is_stmt 1 view .LVU1343
.LBB1468:
.LBI1468:
	.loc 16 122 8 view .LVU1344
.LBB1469:
	.loc 16 124 20 is_stmt 0 view .LVU1345
	movq	72(%rsp), %r9
.LVL439:
	.loc 16 124 5 view .LVU1346
	testq	%r9, %r9
	je	.L274
	.loc 16 126 11 view .LVU1347
	movq	224(%rbp), %r10
	.loc 16 126 7 view .LVU1348
	testq	%r10, %r10
	je	.L275
.LVL440:
.LBB1470:
.LBI1470:
	.loc 16 39 15 is_stmt 1 view .LVU1349
.LBB1471:
	.loc 16 41 5 is_stmt 0 view .LVU1350
	movq	%r9, (%r10)
.LVL441:
.L276:
	.loc 16 41 5 view .LVU1351
.LBE1471:
.LBE1470:
	.loc 16 130 7 view .LVU1352
	movq	80(%rsp), %rsi
	movq	%rsi, 224(%rbp)
	.loc 16 131 7 view .LVU1353
	movq	$0, 72(%rsp)
.L274:
.LVL442:
	.loc 16 131 7 view .LVU1354
.LBE1469:
.LBE1468:
	.loc 56 383 5 is_stmt 1 view .LVU1355
.LBB1473:
.LBI1473:
	.loc 56 599 6 view .LVU1356
.LBB1474:
.LBB1475:
.LBB1476:
	.loc 58 72 5 is_stmt 0 view .LVU1357
	movq	48(%rsp), %r11
	cmpb	$0, 48(%r11)
	jne	.L334
.LVL443:
.L277:
	.loc 58 72 5 view .LVU1358
.LBE1476:
.LBE1475:
	.loc 56 604 5 view .LVU1359
	cmpb	$0, 200(%rbp)
	jne	.L283
	.loc 56 604 31 view .LVU1360
	movq	168(%rbp), %r13
	.loc 56 604 28 view .LVU1361
	testq	%r13, %r13
	je	.L283
	.loc 56 606 25 view .LVU1362
	movb	$1, 200(%rbp)
.LVL444:
.LBB1495:
.LBB1496:
	.loc 51 571 13 view .LVU1363
	movl	$-2147483639, 36(%rsp)
	.loc 51 572 17 view .LVU1364
	leaq	104(%r13), %rcx
	.loc 51 572 15 view .LVU1365
	movq	%rcx, 40(%rsp)
.LVL445:
.LBB1497:
.LBB1498:
	.loc 59 50 12 view .LVU1366
	movl	104(%r13), %edx
.LVL446:
	.loc 59 50 12 view .LVU1367
.LBE1498:
.LBE1497:
	.loc 51 573 12 view .LVU1368
	leaq	36(%rsp), %rcx
	movl	112(%r13), %edi
	movl	$3, %esi
	call	epoll_ctl@PLT
.LVL447:
.L283:
	.loc 51 573 12 view .LVU1369
.LBE1496:
.LBE1495:
.LBB1499:
.LBB1500:
	.loc 52 82 7 view .LVU1370
	cmpb	$0, 56(%rsp)
	je	.L282
	.loc 52 84 9 view .LVU1371
	movq	48(%rsp), %rbp
.LVL448:
.LBB1501:
.LBB1502:
	.loc 52 134 5 view .LVU1372
	cmpb	$0, 48(%rbp)
	jne	.L335
.L284:
.LVL449:
	.loc 52 134 5 view .LVU1373
.LBE1502:
.LBE1501:
	.loc 52 85 17 view .LVU1374
	movb	$0, 56(%rsp)
.LVL450:
.L282:
	.loc 52 85 17 view .LVU1375
.LBE1500:
.LBE1499:
.LBE1474:
.LBE1473:
.LBB1512:
.LBI1512:
	.loc 52 63 5 is_stmt 1 view .LVU1376
.LBB1513:
	.loc 52 65 7 view .LVU1377
	cmpb	$0, 56(%rsp)
	je	.L264
	.loc 52 66 9 view .LVU1378
.LVL451:
.LBB1514:
.LBI1514:
	.loc 53 56 8 view .LVU1379
.LBB1515:
	.loc 53 58 5 view .LVU1380
	.loc 53 58 33 is_stmt 0 view .LVU1381
	movq	48(%rsp), %rdi
	leaq	8(%rdi), %rdi
.LVL452:
	.loc 53 58 33 view .LVU1382
	call	pthread_mutex_unlock@PLT
.LVL453:
	.loc 53 58 33 view .LVU1383
.LBE1515:
.LBE1514:
.LBB1516:
.LBI1516:
	.loc 38 30 3 is_stmt 1 view .LVU1384
	.loc 38 30 3 is_stmt 0 view .LVU1385
	jmp	.L264
.LVL454:
.L333:
	.loc 38 30 3 view .LVU1386
.LBE1516:
.LBE1513:
.LBE1512:
.LBB1517:
.LBB1467:
.LBB1466:
	.loc 52 55 9 is_stmt 1 view .LVU1387
.LBB1464:
.LBI1464:
	.loc 53 50 8 view .LVU1388
.LBB1465:
	.loc 53 52 5 view .LVU1389
	.loc 53 52 31 is_stmt 0 view .LVU1390
	leaq	56(%rbp), %rdi
	call	pthread_mutex_lock@PLT
.LVL455:
	.loc 53 52 31 view .LVU1391
.LBE1465:
.LBE1464:
	.loc 52 56 9 is_stmt 1 view .LVU1392
	.loc 52 56 17 is_stmt 0 view .LVU1393
	movb	$1, 56(%rsp)
	jmp	.L273
.LVL456:
.L275:
	.loc 52 56 17 view .LVU1394
.LBE1466:
.LBE1467:
.LBE1517:
.LBB1518:
.LBB1472:
	.loc 16 129 9 view .LVU1395
	movq	%r9, 216(%rbp)
	jmp	.L276
.LVL457:
.L334:
	.loc 16 129 9 view .LVU1396
.LBE1472:
.LBE1518:
.LBB1519:
.LBB1511:
.LBB1508:
.LBB1493:
	.loc 58 73 48 view .LVU1397
	leaq	112(%rbp), %rbx
.LVL458:
.LBB1477:
.LBI1477:
	.loc 60 76 8 is_stmt 1 view .LVU1398
.LBB1478:
.LBB1479:
.LBI1479:
	.loc 52 90 10 view .LVU1399
.LBB1480:
	.loc 52 92 7 view .LVU1400
	.loc 52 92 14 is_stmt 0 view .LVU1401
	movzbl	56(%rsp), %r12d
.LVL459:
	.loc 52 92 14 view .LVU1402
.LBE1480:
.LBE1479:
	.loc 60 78 41 view .LVU1403
	testb	%r12b, %r12b
	je	.L336
	.loc 60 79 12 view .LVU1404
	movq	48(%rbx), %rax
	orq	$1, %rax
	.loc 60 79 5 view .LVU1405
	movq	%rax, 48(%rbx)
	.loc 60 80 5 view .LVU1406
	cmpq	$1, %rax
	ja	.L337
.LBE1478:
	.loc 60 86 12 view .LVU1407
	movl	$0, %r12d
.L279:
.LVL460:
	.loc 60 86 12 view .LVU1408
.LBE1477:
.LBE1493:
.LBE1508:
	.loc 56 602 3 view .LVU1409
	testb	%r12b, %r12b
	jne	.L282
	jmp	.L277
.LVL461:
.L336:
.LBB1509:
.LBB1494:
.LBB1492:
.LBB1491:
	.loc 60 78 68 view .LVU1410
	leaq	.LC6(%rip), %rcx
	movl	$78, %edx
	leaq	.LC7(%rip), %rsi
	leaq	.LC8(%rip), %rdi
	call	__assert_fail@PLT
.LVL462:
.L337:
.LBB1481:
.LBI1481:
	.loc 52 80 10 is_stmt 1 view .LVU1411
.LBB1482:
	.loc 52 82 7 view .LVU1412
	cmpb	$0, 56(%rsp)
	je	.L280
	.loc 52 84 9 view .LVU1413
	movq	48(%rsp), %rdx
.LVL463:
.LBB1483:
.LBI1483:
	.loc 52 132 8 view .LVU1414
.LBB1484:
	.loc 52 134 5 view .LVU1415
	cmpb	$0, 48(%rdx)
	jne	.L338
.LVL464:
.L281:
	.loc 52 134 5 is_stmt 0 view .LVU1416
.LBE1484:
.LBE1483:
	.loc 52 85 9 is_stmt 1 view .LVU1417
	.loc 52 85 17 is_stmt 0 view .LVU1418
	movb	$0, 56(%rsp)
.L280:
.LVL465:
	.loc 52 85 17 view .LVU1419
.LBE1482:
.LBE1481:
	.loc 60 83 28 view .LVU1420
	movq	%rbx, %rdi
	call	pthread_cond_signal@PLT
.LVL466:
	jmp	.L279
.LVL467:
.L338:
.LBB1490:
.LBB1489:
.LBB1488:
.LBB1487:
	.loc 52 135 7 is_stmt 1 view .LVU1421
.LBB1485:
.LBI1485:
	.loc 53 56 8 view .LVU1422
.LBB1486:
	.loc 53 58 5 view .LVU1423
	.loc 53 58 33 is_stmt 0 view .LVU1424
	leaq	8(%rdx), %rdi
.LVL468:
	.loc 53 58 33 view .LVU1425
	call	pthread_mutex_unlock@PLT
.LVL469:
	.loc 53 58 33 view .LVU1426
	jmp	.L281
.LVL470:
.L335:
	.loc 53 58 33 view .LVU1427
.LBE1486:
.LBE1485:
.LBE1487:
.LBE1488:
.LBE1489:
.LBE1490:
.LBE1491:
.LBE1492:
.LBE1494:
.LBE1509:
.LBB1510:
.LBB1507:
.LBB1506:
.LBB1505:
.LBB1503:
.LBB1504:
	leaq	8(%rbp), %rdi
.LVL471:
	.loc 53 58 33 view .LVU1428
	call	pthread_mutex_unlock@PLT
.LVL472:
	.loc 53 58 33 view .LVU1429
	jmp	.L284
.LVL473:
.L263:
	.loc 53 58 33 view .LVU1430
.LBE1504:
.LBE1503:
.LBE1505:
.LBE1506:
.LBE1507:
.LBE1510:
.LBE1511:
.LBE1519:
.LBE1521:
.LBE1523:
.LBE1526:
	.loc 51 712 7 is_stmt 1 view .LVU1431
	movq	64(%rsp), %r12
.LVL474:
	.loc 51 712 17 is_stmt 0 view .LVU1432
	movq	40(%r12), %rbp
.LVL475:
.LBB1527:
.LBI1527:
	.loc 56 318 6 is_stmt 1 view .LVU1433
.LBB1528:
	.loc 56 320 3 view .LVU1434
.LBB1529:
.LBI1529:
	.loc 27 93 17 view .LVU1435
.LBB1530:
.LBB1531:
.LBI1531:
	.loc 30 46 3 view .LVU1436
.LBB1532:
	.loc 30 48 12 is_stmt 0 view .LVU1437
	data16	leaq	_ZN5boost4asio6detail15keyword_tss_ptrINS1_10call_stackINS1_14thread_contextENS1_16thread_info_baseEE7contextEE6value_E@tlsgd(%rip), %rdi
	.value	0x6666
	rex64
	call	__tls_get_addr@PLT
.LVL476:
	movq	(%rax), %rax
.LVL477:
.L288:
	.loc 30 48 12 view .LVU1438
.LBE1532:
.LBE1531:
	.loc 27 96 5 is_stmt 1 view .LVU1439
	testq	%rax, %rax
	je	.L286
	.loc 27 98 7 is_stmt 0 view .LVU1440
	cmpq	(%rax), %rbp
	je	.L339
	.loc 27 100 7 view .LVU1441
	movq	16(%rax), %rax
.LVL478:
	.loc 27 100 7 view .LVU1442
	jmp	.L288
.L339:
	.loc 27 99 22 view .LVU1443
	movq	8(%rax), %rax
.LVL479:
.L286:
	.loc 27 99 22 view .LVU1444
.LBE1530:
.LBE1529:
	.loc 56 321 3 is_stmt 1 view .LVU1445
	movq	40(%rax), %rdx
	leaq	1(%rdx), %rcx
	movq	%rcx, 40(%rax)
.LVL480:
.L264:
	.loc 56 321 3 is_stmt 0 view .LVU1446
.LBE1528:
.LBE1527:
.LBB1533:
.LBI1533:
	.loc 16 76 3 is_stmt 1 view .LVU1447
.LBB1534:
.LBB1535:
.LBB1536:
.LBB1537:
.LBB1538:
	.loc 17 45 10 is_stmt 0 view .LVU1448
	leaq	96(%rsp), %rbx
	jmp	.L290
.LVL481:
.L340:
	.loc 17 45 10 view .LVU1449
.LBE1538:
.LBE1537:
.LBE1536:
.LBB1544:
.LBB1545:
.LBB1546:
.LBB1547:
	.loc 16 35 44 view .LVU1450
	movq	(%rsi), %r10
.LVL482:
	.loc 16 35 44 view .LVU1451
.LBE1547:
.LBE1546:
	.loc 16 97 7 view .LVU1452
	movq	%r10, 72(%rsp)
.LVL483:
.LBB1548:
.LBB1549:
	.loc 16 41 5 view .LVU1453
	movq	$0, (%rsi)
.LVL484:
	.loc 16 41 5 view .LVU1454
.LBE1549:
.LBE1548:
.LBE1545:
.LBE1544:
.LBB1550:
.LBB1543:
.LBB1542:
	.loc 17 45 5 view .LVU1455
	movq	8(%rsi), %r11
.LVL485:
.LBB1539:
.LBB1540:
.LBB1541:
	.loc 18 584 63 view .LVU1456
	movl	$0, 96(%rsp)
	movb	$0, 100(%rsp)
	movq	_ZN5boost6system6detail10cat_holderIvE24system_category_instanceE@GOTPCREL(%rip), %rax
	movq	%rax, 104(%rsp)
.LVL486:
	.loc 18 584 63 view .LVU1457
.LBE1541:
.LBE1540:
.LBE1539:
	.loc 17 45 10 view .LVU1458
	movl	$0, %ecx
	movq	%rbx, %rdx
	movl	$0, %edi
	call	*%r11
.LVL487:
.L290:
	.loc 17 45 10 view .LVU1459
.LBE1542:
.LBE1543:
.LBE1550:
	.loc 16 78 23 view .LVU1460
	movq	72(%rsp), %rsi
.LVL488:
	.loc 16 78 5 view .LVU1461
	testq	%rsi, %rsi
	jne	.L340
.LVL489:
	.loc 16 78 5 view .LVU1462
.LBE1535:
.LBE1534:
.LBE1533:
.LBE1553:
.LBE1558:
.LBE1684:
.LBE1690:
	.loc 51 774 5 view .LVU1463
	testq	%r15, %r15
	je	.L249
	.loc 51 776 7 is_stmt 1 view .LVU1464
.LVL490:
.LBB1691:
.LBI1691:
	.loc 17 37 8 view .LVU1465
.LBB1692:
	.loc 17 40 5 view .LVU1466
	.loc 17 40 10 is_stmt 0 view .LVU1467
	movl	$0, %ecx
	movq	8(%rsp), %rdx
	movq	%r15, %rsi
	movq	%r14, %rdi
.LEHB9:
	call	*8(%r15)
.LVL491:
.LEHE9:
.L249:
	.loc 17 40 10 view .LVU1468
.LBE1692:
.LBE1691:
.LBE1698:
.LBE1704:
.LBE1710:
	.loc 51 779 1 view .LVU1469
	addq	$136, %rsp
	.cfi_remember_state
	.cfi_def_cfa_offset 56
	popq	%rbx
	.cfi_def_cfa_offset 48
	popq	%rbp
	.cfi_def_cfa_offset 40
	popq	%r12
	.cfi_def_cfa_offset 32
	popq	%r13
	.cfi_def_cfa_offset 24
	popq	%r14
	.cfi_def_cfa_offset 16
	popq	%r15
	.cfi_def_cfa_offset 8
	ret
.LVL492:
.L324:
	.cfi_restore_state
	.loc 51 779 1 view .LVU1470
	movq	%rax, %r14
.LVL493:
.LBB1711:
.LBB1705:
.LBB1699:
.LBB1693:
.LBB1685:
.LBB1559:
.LBI1559:
	.loc 52 63 5 is_stmt 1 view .LVU1471
.LBB1560:
	.loc 52 65 7 view .LVU1472
	cmpb	$0, 23(%rsp)
	je	.L293
	.loc 52 66 9 view .LVU1473
.LVL494:
.LBB1561:
.LBI1561:
	.loc 53 56 8 view .LVU1474
.LBB1562:
	.loc 53 58 5 view .LVU1475
	.loc 53 58 33 is_stmt 0 view .LVU1476
	movq	24(%rsp), %rdi
	addq	$8, %rdi
.LVL495:
	.loc 53 58 33 view .LVU1477
	call	pthread_mutex_unlock@PLT
.LVL496:
.L293:
	.loc 53 58 33 view .LVU1478
.LBE1562:
.LBE1561:
.LBB1563:
.LBI1563:
	.loc 38 30 3 is_stmt 1 view .LVU1479
	.loc 38 30 3 is_stmt 0 view .LVU1480
.LBE1563:
.LBE1560:
.LBE1559:
.LBB1564:
.LBI1564:
	.loc 51 695 3 is_stmt 1 view .LVU1481
.LBB1565:
	.loc 51 697 5 view .LVU1482
	cmpq	$0, 88(%rsp)
	je	.L294
	.loc 51 700 7 view .LVU1483
.LVL497:
.LBB1566:
.LBI1566:
	.loc 16 137 8 view .LVU1484
	.loc 16 137 8 is_stmt 0 view .LVU1485
.LBE1566:
	.loc 51 700 7 view .LVU1486
	cmpq	$0, 72(%rsp)
	je	.L295
	.loc 51 701 9 is_stmt 1 view .LVU1487
	movq	64(%rsp), %r13
.LVL498:
	.loc 51 701 19 is_stmt 0 view .LVU1488
	movq	40(%r13), %r15
.LVL499:
.LBB1567:
.LBI1567:
	.loc 56 365 6 is_stmt 1 view .LVU1489
.LBE1567:
.LBE1565:
.LBE1564:
.LBE1685:
.LBE1693:
.LBE1699:
.LBE1705:
.LBE1711:
	.loc 56 368 3 view .LVU1490
.LBB1712:
.LBB1706:
.LBB1700:
.LBB1694:
.LBB1686:
.LBB1679:
.LBB1677:
.LBB1648:
.LBB1568:
.LBB1569:
.LBI1569:
	.loc 16 137 8 view .LVU1491
.LBB1570:
	.loc 16 139 12 is_stmt 0 view .LVU1492
	movq	72(%rsp), %rbp
.LVL500:
	.loc 16 139 12 view .LVU1493
.LBE1570:
.LBE1569:
	.loc 56 368 3 view .LVU1494
	je	.L295
.LBB1571:
	.loc 56 371 5 is_stmt 1 view .LVU1495
.LBB1572:
	cmpb	$0, 40(%r15)
	je	.L297
.LBE1572:
.LBE1571:
.LBE1568:
.LBE1648:
.LBE1677:
.LBE1679:
.LBE1686:
.LBE1694:
.LBE1700:
.LBE1706:
.LBE1712:
	.loc 56 373 7 view .LVU1496
.LVL501:
.LBB1713:
.LBB1707:
.LBB1701:
.LBB1695:
.LBB1687:
.LBB1680:
.LBB1678:
.LBB1649:
.LBB1646:
.LBB1644:
.LBB1587:
.LBB1573:
.LBB1574:
.LBI1574:
	.loc 27 93 17 view .LVU1497
.LBB1575:
.LBB1576:
.LBI1576:
	.loc 30 46 3 view .LVU1498
.LBB1577:
	.loc 30 48 12 is_stmt 0 view .LVU1499
	data16	leaq	_ZN5boost4asio6detail15keyword_tss_ptrINS1_10call_stackINS1_14thread_contextENS1_16thread_info_baseEE7contextEE6value_E@tlsgd(%rip), %rdi
	.value	0x6666
	rex64
	call	__tls_get_addr@PLT
.LVL502:
	movq	(%rax), %rsi
.LVL503:
.L300:
	.loc 30 48 12 view .LVU1500
.LBE1577:
.LBE1576:
	.loc 27 96 5 is_stmt 1 view .LVU1501
	testq	%rsi, %rsi
	je	.L298
	.loc 27 98 7 is_stmt 0 view .LVU1502
	cmpq	(%rsi), %r15
	jne	.L299
	.loc 27 99 22 view .LVU1503
	movq	8(%rsi), %rsi
.LVL504:
.L298:
	.loc 27 99 22 view .LVU1504
.LBE1575:
.LBE1574:
	.loc 56 373 7 view .LVU1505
	testq	%rsi, %rsi
	je	.L297
	.loc 56 375 9 is_stmt 1 view .LVU1506
.LVL505:
.LBB1579:
.LBI1579:
	.loc 16 122 8 view .LVU1507
.LBB1580:
	.loc 16 126 11 is_stmt 0 view .LVU1508
	movq	32(%rsi), %rbx
.LVL506:
	.loc 16 126 7 view .LVU1509
	testq	%rbx, %rbx
	je	.L301
.LVL507:
.LBB1581:
.LBI1581:
	.loc 16 39 15 is_stmt 1 view .LVU1510
.LBB1582:
	.loc 16 41 5 is_stmt 0 view .LVU1511
	movq	%rbp, (%rbx)
.LVL508:
.L302:
	.loc 16 41 5 view .LVU1512
.LBE1582:
.LBE1581:
	.loc 16 130 7 view .LVU1513
	movq	80(%rsp), %rdi
	movq	%rdi, 32(%rsi)
	.loc 16 131 7 view .LVU1514
	movq	$0, 72(%rsp)
.LVL509:
	.loc 16 131 7 view .LVU1515
.LBE1580:
.LBE1579:
	.loc 56 376 9 is_stmt 1 view .LVU1516
.L295:
	.loc 56 376 9 is_stmt 0 view .LVU1517
.LBE1573:
.LBE1587:
.LBE1644:
.LBE1646:
.LBE1649:
.LBB1650:
.LBI1650:
	.loc 16 76 3 is_stmt 1 view .LVU1518
.LBB1651:
.LBB1652:
.LBB1653:
.LBB1654:
.LBB1655:
	.loc 17 45 10 is_stmt 0 view .LVU1519
	leaq	112(%rsp), %r13
.L321:
.LBE1655:
.LBE1654:
.LBE1653:
	.loc 16 78 23 view .LVU1520
	movq	72(%rsp), %rsi
.LVL510:
	.loc 16 78 5 view .LVU1521
	testq	%rsi, %rsi
	je	.L320
.LVL511:
.LBB1661:
.LBB1662:
.LBB1663:
.LBB1664:
	.loc 16 35 44 view .LVU1522
	movq	(%rsi), %r8
.LVL512:
	.loc 16 35 44 view .LVU1523
.LBE1664:
.LBE1663:
	.loc 16 97 7 view .LVU1524
	movq	%r8, 72(%rsp)
.LVL513:
.LBB1665:
.LBB1666:
	.loc 16 41 5 view .LVU1525
	movq	$0, (%rsi)
.LVL514:
	.loc 16 41 5 view .LVU1526
.LBE1666:
.LBE1665:
.LBE1662:
.LBE1661:
.LBB1667:
.LBB1660:
.LBB1659:
	.loc 17 45 5 view .LVU1527
	movq	8(%rsi), %r9
.LVL515:
.LBB1656:
.LBB1657:
.LBB1658:
	.loc 18 584 63 view .LVU1528
	movl	$0, 112(%rsp)
	movb	$0, 116(%rsp)
	movq	_ZN5boost6system6detail10cat_holderIvE24system_category_instanceE@GOTPCREL(%rip), %r10
	movq	%r10, 120(%rsp)
.LVL516:
	.loc 18 584 63 view .LVU1529
.LBE1658:
.LBE1657:
.LBE1656:
	.loc 17 45 10 view .LVU1530
	movl	$0, %ecx
	movq	%r13, %rdx
	movl	$0, %edi
	call	*%r9
.LVL517:
	.loc 17 45 10 view .LVU1531
	jmp	.L321
.LVL518:
.L299:
	.loc 17 45 10 view .LVU1532
.LBE1659:
.LBE1660:
.LBE1667:
.LBE1652:
.LBE1651:
.LBE1650:
.LBB1668:
.LBB1647:
.LBB1645:
.LBB1588:
.LBB1586:
.LBB1584:
.LBB1578:
	.loc 27 100 7 view .LVU1533
	movq	16(%rsi), %rsi
.LVL519:
	.loc 27 100 7 view .LVU1534
	jmp	.L300
.LVL520:
.L301:
	.loc 27 100 7 view .LVU1535
.LBE1578:
.LBE1584:
.LBB1585:
.LBB1583:
	.loc 16 129 9 view .LVU1536
	movq	%rbp, 24(%rsi)
	jmp	.L302
.LVL521:
.L297:
	.loc 16 129 9 view .LVU1537
.LBE1583:
.LBE1585:
.LBE1586:
.LBE1588:
	.loc 56 381 5 is_stmt 1 view .LVU1538
	.loc 56 381 29 is_stmt 0 view .LVU1539
	leaq	48(%r15), %rbx
.LVL522:
.LBB1589:
.LBI1589:
	.loc 52 50 14 is_stmt 1 view .LVU1540
.LBB1590:
.LBB1591:
.LBB1592:
.LBI1592:
	.loc 38 29 3 view .LVU1541
	.loc 38 29 3 is_stmt 0 view .LVU1542
.LBE1592:
	.loc 52 51 17 view .LVU1543
	movq	%rbx, 48(%rsp)
	.loc 52 53 7 is_stmt 1 view .LVU1544
	cmpb	$0, 96(%r15)
	je	.L303
	.loc 52 55 9 view .LVU1545
.LVL523:
.LBB1593:
.LBI1593:
	.loc 53 50 8 view .LVU1546
.LBB1594:
	.loc 53 52 5 view .LVU1547
	.loc 53 52 31 is_stmt 0 view .LVU1548
	leaq	56(%r15), %rdi
	call	pthread_mutex_lock@PLT
.LVL524:
	.loc 53 52 31 view .LVU1549
.LBE1594:
.LBE1593:
	.loc 52 56 9 is_stmt 1 view .LVU1550
	.loc 52 56 17 is_stmt 0 view .LVU1551
	movb	$1, 56(%rsp)
.L304:
.LVL525:
	.loc 52 56 17 view .LVU1552
.LBE1591:
.LBE1590:
.LBE1589:
	.loc 56 382 5 is_stmt 1 view .LVU1553
.LBB1597:
.LBI1597:
	.loc 16 122 8 view .LVU1554
.LBB1598:
	.loc 16 124 20 is_stmt 0 view .LVU1555
	movq	72(%rsp), %rdi
.LVL526:
	.loc 16 124 5 view .LVU1556
	testq	%rdi, %rdi
	je	.L305
	.loc 16 126 11 view .LVU1557
	movq	224(%r15), %r8
	.loc 16 126 7 view .LVU1558
	testq	%r8, %r8
	je	.L306
.LVL527:
.LBB1599:
.LBI1599:
	.loc 16 39 15 is_stmt 1 view .LVU1559
.LBB1600:
	.loc 16 41 5 is_stmt 0 view .LVU1560
	movq	%rdi, (%r8)
.LVL528:
.L307:
	.loc 16 41 5 view .LVU1561
.LBE1600:
.LBE1599:
	.loc 16 130 7 view .LVU1562
	movq	80(%rsp), %r9
	movq	%r9, 224(%r15)
	.loc 16 131 7 view .LVU1563
	movq	$0, 72(%rsp)
.L305:
.LVL529:
	.loc 16 131 7 view .LVU1564
.LBE1598:
.LBE1597:
	.loc 56 383 5 is_stmt 1 view .LVU1565
.LBB1602:
.LBI1602:
	.loc 56 599 6 view .LVU1566
.LBB1603:
.LBB1604:
.LBB1605:
	.loc 58 72 5 is_stmt 0 view .LVU1567
	movq	48(%rsp), %r10
	cmpb	$0, 48(%r10)
	je	.L308
	.loc 58 73 48 view .LVU1568
	leaq	112(%r15), %r13
.LVL530:
.LBB1606:
.LBI1606:
	.loc 60 76 8 is_stmt 1 view .LVU1569
.LBB1607:
.LBB1608:
.LBI1608:
	.loc 52 90 10 view .LVU1570
.LBB1609:
	.loc 52 92 7 view .LVU1571
	.loc 52 92 14 is_stmt 0 view .LVU1572
	movzbl	56(%rsp), %r12d
.LVL531:
	.loc 52 92 14 view .LVU1573
.LBE1609:
.LBE1608:
	.loc 60 78 41 view .LVU1574
	testb	%r12b, %r12b
	jne	.L309
	.loc 60 78 68 view .LVU1575
	leaq	.LC6(%rip), %rcx
	movl	$78, %edx
	leaq	.LC7(%rip), %rsi
	leaq	.LC8(%rip), %rdi
	call	__assert_fail@PLT
.LVL532:
.L303:
	.loc 60 78 68 view .LVU1576
.LBE1607:
.LBE1606:
.LBE1605:
.LBE1604:
.LBE1603:
.LBE1602:
.LBB1635:
.LBB1596:
.LBB1595:
	.loc 52 59 9 is_stmt 1 view .LVU1577
	.loc 52 59 17 is_stmt 0 view .LVU1578
	movb	$0, 56(%rsp)
	jmp	.L304
.LVL533:
.L306:
	.loc 52 59 17 view .LVU1579
.LBE1595:
.LBE1596:
.LBE1635:
.LBB1636:
.LBB1601:
	.loc 16 129 9 view .LVU1580
	movq	%rdi, 216(%r15)
	jmp	.L307
.LVL534:
.L309:
	.loc 16 129 9 view .LVU1581
.LBE1601:
.LBE1636:
.LBB1637:
.LBB1633:
.LBB1621:
.LBB1619:
.LBB1617:
.LBB1616:
	.loc 60 79 12 view .LVU1582
	movq	48(%r13), %r11
	orq	$1, %r11
	.loc 60 79 5 view .LVU1583
	movq	%r11, 48(%r13)
	.loc 60 80 5 view .LVU1584
	cmpq	$1, %r11
	jbe	.L323
.LVL535:
.LBB1610:
.LBI1610:
	.loc 52 80 10 is_stmt 1 view .LVU1585
.LBB1611:
	.loc 52 82 7 view .LVU1586
	cmpb	$0, 56(%rsp)
	je	.L311
	.loc 52 84 9 view .LVU1587
	movq	48(%rsp), %rax
.LVL536:
.LBB1612:
.LBI1612:
	.loc 52 132 8 view .LVU1588
.LBB1613:
	.loc 52 134 5 view .LVU1589
	cmpb	$0, 48(%rax)
	je	.L312
	.loc 52 135 7 view .LVU1590
.LVL537:
.LBB1614:
.LBI1614:
	.loc 53 56 8 view .LVU1591
.LBB1615:
	.loc 53 58 5 view .LVU1592
	.loc 53 58 33 is_stmt 0 view .LVU1593
	leaq	8(%rax), %rdi
.LVL538:
	.loc 53 58 33 view .LVU1594
	call	pthread_mutex_unlock@PLT
.LVL539:
.L312:
	.loc 53 58 33 view .LVU1595
.LBE1615:
.LBE1614:
.LBE1613:
.LBE1612:
	.loc 52 85 9 is_stmt 1 view .LVU1596
	.loc 52 85 17 is_stmt 0 view .LVU1597
	movb	$0, 56(%rsp)
.L311:
.LVL540:
	.loc 52 85 17 view .LVU1598
.LBE1611:
.LBE1610:
	.loc 60 83 28 view .LVU1599
	movq	%r13, %rdi
	call	pthread_cond_signal@PLT
.LVL541:
.L310:
	.loc 60 83 28 view .LVU1600
.LBE1616:
.LBE1617:
.LBE1619:
.LBE1621:
	.loc 56 602 3 view .LVU1601
	testb	%r12b, %r12b
	jne	.L313
.L308:
	.loc 56 604 5 view .LVU1602
	cmpb	$0, 200(%r15)
	jne	.L314
	.loc 56 604 31 view .LVU1603
	movq	168(%r15), %rbp
	.loc 56 604 28 view .LVU1604
	testq	%rbp, %rbp
	je	.L314
	.loc 56 606 25 view .LVU1605
	movb	$1, 200(%r15)
.LVL542:
.LBB1622:
.LBB1623:
	.loc 51 571 13 view .LVU1606
	movl	$-2147483639, 36(%rsp)
	.loc 51 572 17 view .LVU1607
	leaq	104(%rbp), %rdx
	.loc 51 572 15 view .LVU1608
	movq	%rdx, 40(%rsp)
.LVL543:
.LBB1624:
.LBB1625:
	.loc 59 50 12 view .LVU1609
	movl	104(%rbp), %edx
.LVL544:
	.loc 59 50 12 view .LVU1610
.LBE1625:
.LBE1624:
	.loc 51 573 12 view .LVU1611
	leaq	36(%rsp), %rcx
	movl	112(%rbp), %edi
	movl	$3, %esi
	call	epoll_ctl@PLT
.LVL545:
.L314:
	.loc 51 573 12 view .LVU1612
.LBE1623:
.LBE1622:
.LBB1626:
.LBB1627:
	.loc 52 82 7 view .LVU1613
	cmpb	$0, 56(%rsp)
	je	.L313
	.loc 52 84 9 view .LVU1614
	movq	48(%rsp), %rcx
.LVL546:
.LBB1628:
.LBB1629:
	.loc 52 134 5 view .LVU1615
	cmpb	$0, 48(%rcx)
	je	.L315
.LVL547:
.LBB1630:
.LBB1631:
	.loc 53 58 33 view .LVU1616
	leaq	8(%rcx), %rdi
.LVL548:
	.loc 53 58 33 view .LVU1617
	call	pthread_mutex_unlock@PLT
.LVL549:
.L315:
	.loc 53 58 33 view .LVU1618
.LBE1631:
.LBE1630:
.LBE1629:
.LBE1628:
	.loc 52 85 17 view .LVU1619
	movb	$0, 56(%rsp)
.LVL550:
.L313:
	.loc 52 85 17 view .LVU1620
.LBE1627:
.LBE1626:
.LBE1633:
.LBE1637:
.LBB1638:
.LBI1638:
	.loc 52 63 5 is_stmt 1 view .LVU1621
.LBB1639:
	.loc 52 65 7 view .LVU1622
	cmpb	$0, 56(%rsp)
	je	.L295
	.loc 52 66 9 view .LVU1623
.LVL551:
.LBB1640:
.LBI1640:
	.loc 53 56 8 view .LVU1624
.LBB1641:
	.loc 53 58 5 view .LVU1625
	.loc 53 58 33 is_stmt 0 view .LVU1626
	movq	48(%rsp), %r15
.LVL552:
	.loc 53 58 33 view .LVU1627
	leaq	8(%r15), %rdi
.LVL553:
	.loc 53 58 33 view .LVU1628
	call	pthread_mutex_unlock@PLT
.LVL554:
	.loc 53 58 33 view .LVU1629
.LBE1641:
.LBE1640:
.LBB1642:
.LBI1642:
	.loc 38 30 3 is_stmt 1 view .LVU1630
	.loc 38 30 3 is_stmt 0 view .LVU1631
	jmp	.L295
.LVL555:
.L323:
	.loc 38 30 3 view .LVU1632
.LBE1642:
.LBE1639:
.LBE1638:
.LBB1643:
.LBB1634:
.LBB1632:
.LBB1620:
.LBB1618:
	.loc 60 86 12 view .LVU1633
	movl	$0, %r12d
	jmp	.L310
.LVL556:
.L294:
	.loc 60 86 12 view .LVU1634
.LBE1618:
.LBE1620:
.LBE1632:
.LBE1634:
.LBE1643:
.LBE1645:
.LBE1647:
.LBE1668:
	.loc 51 712 7 is_stmt 1 view .LVU1635
	movq	64(%rsp), %r11
	.loc 51 712 17 is_stmt 0 view .LVU1636
	movq	40(%r11), %r12
.LVL557:
.LBB1669:
.LBI1669:
	.loc 56 318 6 is_stmt 1 view .LVU1637
.LBB1670:
	.loc 56 320 3 view .LVU1638
.LBB1671:
.LBI1671:
	.loc 27 93 17 view .LVU1639
.LBB1672:
.LBB1673:
.LBI1673:
	.loc 30 46 3 view .LVU1640
.LBB1674:
	.loc 30 48 12 is_stmt 0 view .LVU1641
	data16	leaq	_ZN5boost4asio6detail15keyword_tss_ptrINS1_10call_stackINS1_14thread_contextENS1_16thread_info_baseEE7contextEE6value_E@tlsgd(%rip), %rdi
	.value	0x6666
	rex64
	call	__tls_get_addr@PLT
.LVL558:
	movq	(%rax), %rax
.LVL559:
.L319:
	.loc 30 48 12 view .LVU1642
.LBE1674:
.LBE1673:
	.loc 27 96 5 is_stmt 1 view .LVU1643
	testq	%rax, %rax
	je	.L317
	.loc 27 98 7 is_stmt 0 view .LVU1644
	cmpq	(%rax), %r12
	jne	.L318
	.loc 27 99 22 view .LVU1645
	movq	8(%rax), %rax
.LVL560:
.L317:
	.loc 27 99 22 view .LVU1646
.LBE1672:
.LBE1671:
	.loc 56 321 3 is_stmt 1 view .LVU1647
	movq	40(%rax), %rdx
	leaq	1(%rdx), %rcx
	movq	%rcx, 40(%rax)
	jmp	.L295
.LVL561:
.L318:
.LBB1676:
.LBB1675:
	.loc 27 100 7 is_stmt 0 view .LVU1648
	movq	16(%rax), %rax
.LVL562:
	.loc 27 100 7 view .LVU1649
	jmp	.L319
.LVL563:
.L320:
	.loc 27 100 7 view .LVU1650
	movq	%r14, %rdi
.LEHB10:
	call	_Unwind_Resume@PLT
.LVL564:
.LEHE10:
.LBE1675:
.LBE1676:
.LBE1670:
.LBE1669:
.LBE1678:
.LBE1680:
.LBE1687:
.LBE1695:
.LBE1701:
.LBE1707:
.LBE1713:
	.cfi_endproc
.LFE57:
	.section	.gcc_except_table
.LLSDA57:
	.byte	0xff
	.byte	0xff
	.byte	0x1
	.uleb128 .LLSDACSE57-.LLSDACSB57
.LLSDACSB57:
	.uleb128 .LEHB8-.LFB57
	.uleb128 .LEHE8-.LEHB8
	.uleb128 .L324-.LFB57
	.uleb128 0
	.uleb128 .LEHB9-.LFB57
	.uleb128 .LEHE9-.LEHB9
	.uleb128 0
	.uleb128 0
	.uleb128 .LEHB10-.LFB57
	.uleb128 .LEHE10-.LEHB10
	.uleb128 0
	.uleb128 0
.LLSDACSE57:
	.text
	.size	_ZN5boost4asio6detail13epoll_reactor16descriptor_state11do_completeEPvPNS1_19scheduler_operationERKNS_6system10error_codeEm, .-_ZN5boost4asio6detail13epoll_reactor16descriptor_state11do_completeEPvPNS1_19scheduler_operationERKNS_6system10error_codeEm
	.type	_ZN5boost4asio6detail16thread_info_base8allocateINS2_11default_tagEEEPvT_PS2_m, @function
_ZN5boost4asio6detail16thread_info_base8allocateINS2_11default_tagEEEPvT_PS2_m:
.LVL565:
.LFB61:
	.loc 35 71 16 is_stmt 1 view -0
	.cfi_startproc
	.loc 35 71 16 is_stmt 0 view .LVU1652
	pushq	%r12
	.cfi_def_cfa_offset 16
	.cfi_offset 12, -16
	pushq	%rbp
	.cfi_def_cfa_offset 24
	.cfi_offset 6, -24
	pushq	%rbx
	.cfi_def_cfa_offset 32
	.cfi_offset 3, -32
	movq	%rsi, %rbx
	.loc 35 74 45 is_stmt 1 view .LVU1653
	leaq	3(%rsi), %rbp
	.loc 35 74 17 view .LVU1654
	movq	%rbp, %r12
	shrq	$2, %r12
.LVL566:
.LBB1716:
	.loc 35 76 5 view .LVU1655
	testq	%rdi, %rdi
	je	.L342
	.loc 35 76 53 discriminator 1 view .LVU1656
	movq	(%rdi), %rax
	.loc 35 76 21 discriminator 1 view .LVU1657
	testq	%rax, %rax
	je	.L342
.LVL567:
.LBB1717:
	.loc 35 79 7 view .LVU1658
	movq	$0, (%rdi)
.LVL568:
	.loc 35 82 11 view .LVU1659
	movzbl	(%rax), %edx
	movzbl	%dl, %ecx
	.loc 35 82 7 view .LVU1660
	cmpq	%r12, %rcx
	jb	.L343
	.loc 35 84 9 view .LVU1661
	movb	%dl, (%rax,%rsi)
	jmp	.L341
.L343:
	.loc 35 88 24 view .LVU1662
	movq	%rax, %rdi
.LVL569:
	.loc 35 88 24 is_stmt 0 view .LVU1663
	call	_ZdlPv@PLT
.LVL570:
.L342:
	.loc 35 88 24 view .LVU1664
.LBE1717:
.LBE1716:
	.loc 35 91 49 is_stmt 1 view .LVU1665
	movq	%rbp, %rdi
	andq	$-4, %rdi
	.loc 35 91 41 view .LVU1666
	addq	$1, %rdi
	call	_Znwm@PLT
.LVL571:
	.loc 35 93 5 view .LVU1667
	cmpq	$1023, %rbp
	jbe	.L345
	movl	$0, %r12d
.LVL572:
.L345:
	.loc 35 93 5 is_stmt 0 discriminator 4 view .LVU1668
	movb	%r12b, (%rax,%rbx)
.LVL573:
.L341:
	.loc 35 95 3 is_stmt 1 view .LVU1669
	popq	%rbx
	.cfi_def_cfa_offset 24
.LVL574:
	.loc 35 95 3 is_stmt 0 view .LVU1670
	popq	%rbp
	.cfi_def_cfa_offset 16
.LVL575:
	.loc 35 95 3 view .LVU1671
	popq	%r12
	.cfi_def_cfa_offset 8
	ret
	.cfi_endproc
.LFE61:
	.size	_ZN5boost4asio6detail16thread_info_base8allocateINS2_11default_tagEEEPvT_PS2_m, .-_ZN5boost4asio6detail16thread_info_base8allocateINS2_11default_tagEEEPvT_PS2_m
	.align 2
	.type	_ZNK5boost4asio10io_context13executor_type5deferINS0_8executor8functionESaIvEEEvOT_RKT0_, @function
_ZNK5boost4asio10io_context13executor_type5deferINS0_8executor8functionESaIvEEEvOT_RKT0_:
.LVL576:
.LFB63:
	.loc 3 300 6 is_stmt 1 view -0
	.cfi_startproc
	.cfi_personality 0x9b,DW.ref.__gxx_personality_v0
	.loc 3 300 6 is_stmt 0 view .LVU1673
	pushq	%r12
	.cfi_def_cfa_offset 16
	.cfi_offset 12, -16
	pushq	%rbp
	.cfi_def_cfa_offset 24
	.cfi_offset 6, -24
	pushq	%rbx
	.cfi_def_cfa_offset 32
	.cfi_offset 3, -32
	subq	$64, %rsp
	.cfi_def_cfa_offset 96
	movq	%rdi, %r12
	movq	%rsi, %rbp
.LVL577:
.LBB1827:
.LBI1827:
	.loc 32 35 97 is_stmt 1 view .LVU1674
.LBB1828:
.LBB1829:
.LBI1829:
	.loc 34 99 15 view .LVU1675
.LBB1830:
.LBI1830:
	.loc 34 78 3 view .LVU1676
	.loc 34 78 3 is_stmt 0 view .LVU1677
.LBE1830:
.LBE1829:
.LBB1831:
.LBI1831:
	.loc 34 46 3 is_stmt 1 view .LVU1678
	.loc 34 46 3 is_stmt 0 view .LVU1679
.LBE1831:
.LBB1832:
.LBI1832:
	.loc 34 50 6 is_stmt 1 view .LVU1680
.LBB1833:
.LBB1834:
.LBI1834:
	.loc 27 106 17 view .LVU1681
.LBB1835:
.LBB1836:
.LBI1836:
	.loc 30 46 3 view .LVU1682
.LBB1837:
	.loc 30 48 12 is_stmt 0 view .LVU1683
	data16	leaq	_ZN5boost4asio6detail15keyword_tss_ptrINS1_10call_stackINS1_14thread_contextENS1_16thread_info_baseEE7contextEE6value_E@tlsgd(%rip), %rdi
	.value	0x6666
	rex64
	call	__tls_get_addr@PLT
.LVL578:
	.loc 30 48 12 view .LVU1684
	movq	(%rax), %rax
.LVL579:
	.loc 30 48 12 view .LVU1685
.LBE1837:
.LBE1836:
	.loc 27 109 17 view .LVU1686
	testq	%rax, %rax
	je	.L349
	movq	8(%rax), %rax
.LVL580:
.L349:
	.loc 27 109 17 view .LVU1687
.LBE1835:
.LBE1834:
.LBB1838:
.LBI1838:
	.loc 35 71 16 is_stmt 1 view .LVU1688
.LBB1839:
.LBB1840:
	.loc 35 76 5 is_stmt 0 view .LVU1689
	testq	%rax, %rax
	je	.L350
	.loc 35 76 53 view .LVU1690
	movq	(%rax), %rbx
	.loc 35 76 21 view .LVU1691
	testq	%rbx, %rbx
	je	.L350
.LVL581:
.LBB1841:
	.loc 35 79 7 view .LVU1692
	movq	$0, (%rax)
.LVL582:
	.loc 35 82 11 view .LVU1693
	movzbl	(%rbx), %edx
	.loc 35 82 7 view .LVU1694
	cmpb	$9, %dl
	jbe	.L351
	.loc 35 84 9 view .LVU1695
	movb	%dl, 40(%rbx)
	jmp	.L352
.L351:
	.loc 35 88 24 view .LVU1696
	movq	%rbx, %rdi
	call	_ZdlPv@PLT
.LVL583:
.L350:
	.loc 35 88 24 view .LVU1697
.LBE1841:
.LBE1840:
	.loc 35 91 41 view .LVU1698
	movl	$41, %edi
	call	_Znwm@PLT
.LVL584:
	movq	%rax, %rbx
.LVL585:
	.loc 35 93 5 view .LVU1699
	movb	$10, 40(%rax)
.LVL586:
.L352:
	.loc 35 93 5 view .LVU1700
.LBE1839:
.LBE1838:
.LBE1833:
.LBE1832:
.LBE1828:
.LBE1827:
	.file 62 "/usr/include/c++/9/new"
	.loc 62 174 3 is_stmt 1 view .LVU1701
.LBB1842:
.LBI1842:
	.loc 32 38 3 view .LVU1702
.LBB1843:
.LBB1844:
.LBI1844:
	.loc 17 53 3 view .LVU1703
.LBB1845:
	.loc 17 56 21 is_stmt 0 view .LVU1704
	movq	$0, (%rbx)
	leaq	_ZN5boost4asio6detail11executor_opINS0_8executor8functionESaIvENS1_19scheduler_operationEE11do_completeEPvPS6_RKNS_6system10error_codeEm(%rip), %rcx
	movq	%rcx, 8(%rbx)
	movl	$0, 16(%rbx)
.LVL587:
	.loc 17 56 21 view .LVU1705
.LBE1845:
.LBE1844:
.LBB1846:
.LBI1846:
	.loc 1 51 3 is_stmt 1 view .LVU1706
.LBB1847:
	.loc 1 52 19 is_stmt 0 view .LVU1707
	movq	0(%rbp), %rsi
	.loc 1 52 24 view .LVU1708
	movq	%rsi, 24(%rbx)
	.loc 1 54 5 is_stmt 1 view .LVU1709
	.loc 1 54 17 is_stmt 0 view .LVU1710
	movq	$0, 0(%rbp)
.LVL588:
	.loc 1 54 17 view .LVU1711
.LBE1847:
.LBE1846:
.LBE1843:
.LBE1842:
	.loc 3 313 3 view .LVU1712
	movq	(%r12), %rdi
	.loc 3 313 15 view .LVU1713
	movq	8(%rdi), %rbp
.LVL589:
.LBB1848:
.LBI1848:
	.loc 56 324 6 is_stmt 1 view .LVU1714
.LBB1849:
	.loc 56 328 3 view .LVU1715
.LBE1849:
.LBE1848:
	.loc 56 330 5 view .LVU1716
.LBB1933:
.LBB1930:
.LBB1850:
.LBB1851:
.LBI1851:
	.loc 27 93 17 view .LVU1717
.LBB1852:
.LBB1853:
.LBI1853:
	.loc 30 46 3 view .LVU1718
.LBB1854:
	.loc 30 48 12 is_stmt 0 view .LVU1719
	data16	leaq	_ZN5boost4asio6detail15keyword_tss_ptrINS1_10call_stackINS1_14thread_contextENS1_16thread_info_baseEE7contextEE6value_E@tlsgd(%rip), %rdi
	.value	0x6666
	rex64
	call	__tls_get_addr@PLT
.LVL590:
	movq	(%rax), %r8
.LVL591:
.L355:
	.loc 30 48 12 view .LVU1720
.LBE1854:
.LBE1853:
	.loc 27 96 5 is_stmt 1 view .LVU1721
	testq	%r8, %r8
	je	.L353
	.loc 27 98 7 is_stmt 0 view .LVU1722
	cmpq	(%r8), %rbp
	je	.L381
	.loc 27 100 7 view .LVU1723
	movq	16(%r8), %r8
.LVL592:
	.loc 27 100 7 view .LVU1724
	jmp	.L355
.L381:
	.loc 27 99 22 view .LVU1725
	movq	8(%r8), %r8
.LVL593:
.L353:
	.loc 27 99 22 view .LVU1726
.LBE1852:
.LBE1851:
	.loc 56 330 5 view .LVU1727
	testq	%r8, %r8
	je	.L356
	.loc 56 332 7 is_stmt 1 view .LVU1728
	movq	40(%r8), %rbp
.LVL594:
	.loc 56 332 7 is_stmt 0 view .LVU1729
	leaq	1(%rbp), %r9
	movq	%r9, 40(%r8)
	.loc 56 333 7 is_stmt 1 view .LVU1730
.LVL595:
.LBB1855:
.LBI1855:
	.loc 16 105 8 view .LVU1731
.LBB1856:
.LBB1857:
.LBI1857:
	.loc 16 39 15 view .LVU1732
.LBB1858:
	.loc 16 41 5 is_stmt 0 view .LVU1733
	movq	$0, (%rbx)
.LVL596:
	.loc 16 41 5 view .LVU1734
.LBE1858:
.LBE1857:
	.loc 16 108 9 view .LVU1735
	movq	32(%r8), %r10
	.loc 16 108 5 view .LVU1736
	testq	%r10, %r10
	je	.L357
.LVL597:
.LBB1859:
.LBI1859:
	.loc 16 39 15 is_stmt 1 view .LVU1737
.LBB1860:
	.loc 16 41 5 is_stmt 0 view .LVU1738
	movq	%rbx, (%r10)
.LVL598:
	.loc 16 41 5 view .LVU1739
.LBE1860:
.LBE1859:
	.loc 16 111 7 view .LVU1740
	movq	%rbx, 32(%r8)
.LVL599:
.L359:
	.loc 16 111 7 view .LVU1741
.LBE1856:
.LBE1855:
.LBE1850:
.LBE1930:
.LBE1933:
	.loc 3 314 3 view .LVU1742
	movq	$0, 48(%rsp)
	movq	$0, 40(%rsp)
.LVL600:
.LBB1934:
.LBI1934:
	.loc 32 35 57 is_stmt 1 view .LVU1743
.LBB1935:
.LBI1935:
	.loc 32 35 528 view .LVU1744
.LBB1936:
.LBB1937:
	.loc 32 35 579 is_stmt 0 view .LVU1745
	movl	$0, %r12d
	.loc 32 35 575 view .LVU1746
	testq	%r12, %r12
	je	.L348
.LVL601:
.LBB1938:
.LBB1939:
.LBI1939:
	.loc 34 58 8 is_stmt 1 view .LVU1747
.LBB1940:
.LBI1940:
	.loc 27 106 17 view .LVU1748
.LBB1941:
.LBB1942:
.LBI1942:
	.loc 30 46 3 view .LVU1749
.LBB1943:
	.loc 30 48 12 is_stmt 0 view .LVU1750
	data16	leaq	_ZN5boost4asio6detail15keyword_tss_ptrINS1_10call_stackINS1_14thread_contextENS1_16thread_info_baseEE7contextEE6value_E@tlsgd(%rip), %rdi
	.value	0x6666
	rex64
	call	__tls_get_addr@PLT
.LVL602:
	movq	(%rax), %r8
.LVL603:
	.loc 30 48 12 view .LVU1751
.LBE1943:
.LBE1942:
	.loc 27 109 17 view .LVU1752
	testq	%r8, %r8
	je	.L376
	movq	8(%r8), %r8
.LVL604:
.L376:
	.loc 27 109 17 view .LVU1753
.LBE1941:
.LBE1940:
.LBB1944:
.LBI1944:
	.loc 35 98 15 is_stmt 1 view .LVU1754
.LBB1945:
.LBB1946:
	.loc 35 103 7 is_stmt 0 view .LVU1755
	testq	%r8, %r8
	je	.L377
	.loc 35 103 23 view .LVU1756
	cmpq	$0, (%r8)
	je	.L382
.L377:
	.loc 35 103 23 view .LVU1757
.LBE1946:
	.loc 35 112 22 view .LVU1758
	movq	%r12, %rdi
	call	_ZdlPv@PLT
.LVL605:
.L348:
	.loc 35 112 22 view .LVU1759
.LBE1945:
.LBE1944:
.LBE1939:
.LBE1938:
.LBE1937:
.LBE1936:
.LBE1935:
.LBE1934:
	.loc 3 315 1 view .LVU1760
	addq	$64, %rsp
	.cfi_remember_state
	.cfi_def_cfa_offset 32
	popq	%rbx
	.cfi_def_cfa_offset 24
	popq	%rbp
	.cfi_def_cfa_offset 16
	popq	%r12
	.cfi_def_cfa_offset 8
	ret
.LVL606:
.L357:
	.cfi_restore_state
.LBB1956:
.LBB1931:
.LBB1863:
.LBB1862:
.LBB1861:
	.loc 16 115 7 view .LVU1761
	movq	%rbx, 32(%r8)
	movq	%rbx, 24(%r8)
.LVL607:
	.loc 16 115 7 view .LVU1762
.LBE1861:
.LBE1862:
	.loc 56 334 7 is_stmt 1 view .LVU1763
	jmp	.L359
.LVL608:
.L356:
	.loc 56 334 7 is_stmt 0 view .LVU1764
.LBE1863:
	.loc 56 341 3 is_stmt 1 view .LVU1765
.LBB1864:
.LBI1864:
	.loc 57 86 8 view .LVU1766
.LBE1864:
.LBE1931:
.LBE1956:
	.loc 57 88 5 view .LVU1767
.LBB1957:
.LBB1932:
.LBB1867:
.LBB1865:
.LBI1865:
	.loc 37 318 7 view .LVU1768
.LBB1866:
	.loc 37 319 36 is_stmt 0 view .LVU1769
	leaq	208(%rbp), %r9
.LVL609:
	.loc 37 319 34 view .LVU1770
	lock addq	$1, (%r9)
.LVL610:
	.loc 37 319 34 view .LVU1771
.LBE1866:
.LBE1865:
.LBE1867:
	.loc 56 342 3 is_stmt 1 view .LVU1772
	.loc 56 342 27 is_stmt 0 view .LVU1773
	leaq	48(%rbp), %r10
.LVL611:
.LBB1868:
.LBI1868:
	.loc 52 50 14 is_stmt 1 view .LVU1774
.LBB1869:
.LBB1870:
.LBB1871:
.LBI1871:
	.loc 38 29 3 view .LVU1775
	.loc 38 29 3 is_stmt 0 view .LVU1776
.LBE1871:
	.loc 52 51 17 view .LVU1777
	movq	%r10, 16(%rsp)
	.loc 52 53 7 is_stmt 1 view .LVU1778
	cmpb	$0, 96(%rbp)
	jne	.L383
	.loc 52 59 9 view .LVU1779
	.loc 52 59 17 is_stmt 0 view .LVU1780
	movb	$0, 24(%rsp)
.LVL612:
.L361:
	.loc 52 59 17 view .LVU1781
.LBE1870:
.LBE1869:
.LBE1868:
	.loc 56 343 3 is_stmt 1 view .LVU1782
.LBB1876:
.LBI1876:
	.loc 16 105 8 view .LVU1783
.LBB1877:
.LBB1878:
.LBI1878:
	.loc 16 39 15 view .LVU1784
.LBB1879:
	.loc 16 41 5 is_stmt 0 view .LVU1785
	movq	$0, (%rbx)
.LVL613:
	.loc 16 41 5 view .LVU1786
.LBE1879:
.LBE1878:
	.loc 16 108 9 view .LVU1787
	movq	224(%rbp), %r11
	.loc 16 108 5 view .LVU1788
	testq	%r11, %r11
	je	.L362
.LVL614:
.LBB1880:
.LBI1880:
	.loc 16 39 15 is_stmt 1 view .LVU1789
.LBB1881:
	.loc 16 41 5 is_stmt 0 view .LVU1790
	movq	%rbx, (%r11)
.LVL615:
	.loc 16 41 5 view .LVU1791
.LBE1881:
.LBE1880:
	.loc 16 111 7 view .LVU1792
	movq	%rbx, 224(%rbp)
.L363:
.LVL616:
	.loc 16 111 7 view .LVU1793
.LBE1877:
.LBE1876:
	.loc 56 344 3 is_stmt 1 view .LVU1794
.LBB1883:
.LBI1883:
	.loc 56 599 6 view .LVU1795
.LBB1884:
.LBB1885:
.LBB1886:
	.loc 58 72 5 is_stmt 0 view .LVU1796
	movq	16(%rsp), %r12
.LVL617:
	.loc 58 72 5 view .LVU1797
	cmpb	$0, 48(%r12)
	jne	.L384
.LVL618:
.L364:
	.loc 58 72 5 view .LVU1798
.LBE1886:
.LBE1885:
	.loc 56 604 5 view .LVU1799
	cmpb	$0, 200(%rbp)
	jne	.L370
	.loc 56 604 31 view .LVU1800
	movq	168(%rbp), %rsi
	.loc 56 604 28 view .LVU1801
	testq	%rsi, %rsi
	je	.L370
	.loc 56 606 25 view .LVU1802
	movb	$1, 200(%rbp)
.LVL619:
.LBB1905:
.LBB1906:
	.loc 51 571 13 view .LVU1803
	movl	$-2147483639, 4(%rsp)
	.loc 51 572 17 view .LVU1804
	leaq	104(%rsi), %rcx
	.loc 51 572 15 view .LVU1805
	movq	%rcx, 8(%rsp)
.LVL620:
.LBB1907:
.LBB1908:
	.loc 59 50 12 view .LVU1806
	movl	104(%rsi), %edx
.LVL621:
	.loc 59 50 12 view .LVU1807
.LBE1908:
.LBE1907:
	.loc 51 573 12 view .LVU1808
	leaq	4(%rsp), %rcx
	movl	112(%rsi), %edi
	movl	$3, %esi
.LVL622:
	.loc 51 573 12 view .LVU1809
	call	epoll_ctl@PLT
.LVL623:
.L370:
	.loc 51 573 12 view .LVU1810
.LBE1906:
.LBE1905:
.LBB1909:
.LBB1910:
	.loc 52 82 7 view .LVU1811
	cmpb	$0, 24(%rsp)
	je	.L369
	.loc 52 84 9 view .LVU1812
	movq	16(%rsp), %rdi
.LVL624:
.LBB1911:
.LBB1912:
	.loc 52 134 5 view .LVU1813
	cmpb	$0, 48(%rdi)
	jne	.L385
.LVL625:
.L371:
	.loc 52 134 5 view .LVU1814
.LBE1912:
.LBE1911:
	.loc 52 85 17 view .LVU1815
	movb	$0, 24(%rsp)
.LVL626:
.L369:
	.loc 52 85 17 view .LVU1816
.LBE1910:
.LBE1909:
.LBE1884:
.LBE1883:
.LBB1922:
.LBI1922:
	.loc 52 63 5 is_stmt 1 view .LVU1817
.LBB1923:
	.loc 52 65 7 view .LVU1818
	cmpb	$0, 24(%rsp)
	je	.L359
	.loc 52 66 9 view .LVU1819
.LVL627:
.LBB1924:
.LBI1924:
	.loc 53 56 8 view .LVU1820
.LBB1925:
	.loc 53 58 5 view .LVU1821
	.loc 53 58 33 is_stmt 0 view .LVU1822
	movq	16(%rsp), %rdi
	leaq	8(%rdi), %rdi
.LVL628:
	.loc 53 58 33 view .LVU1823
	call	pthread_mutex_unlock@PLT
.LVL629:
	.loc 53 58 33 view .LVU1824
.LBE1925:
.LBE1924:
.LBB1926:
.LBI1926:
	.loc 38 30 3 is_stmt 1 view .LVU1825
	.loc 38 30 3 is_stmt 0 view .LVU1826
	jmp	.L359
.LVL630:
.L383:
	.loc 38 30 3 view .LVU1827
.LBE1926:
.LBE1923:
.LBE1922:
.LBB1927:
.LBB1875:
.LBB1874:
	.loc 52 55 9 is_stmt 1 view .LVU1828
.LBB1872:
.LBI1872:
	.loc 53 50 8 view .LVU1829
.LBB1873:
	.loc 53 52 5 view .LVU1830
	.loc 53 52 31 is_stmt 0 view .LVU1831
	leaq	56(%rbp), %rdi
	call	pthread_mutex_lock@PLT
.LVL631:
	.loc 53 52 31 view .LVU1832
.LBE1873:
.LBE1872:
	.loc 52 56 9 is_stmt 1 view .LVU1833
	.loc 52 56 17 is_stmt 0 view .LVU1834
	movb	$1, 24(%rsp)
	jmp	.L361
.LVL632:
.L362:
	.loc 52 56 17 view .LVU1835
.LBE1874:
.LBE1875:
.LBE1927:
.LBB1928:
.LBB1882:
	.loc 16 115 7 view .LVU1836
	movq	%rbx, 224(%rbp)
	movq	%rbx, 216(%rbp)
	jmp	.L363
.LVL633:
.L384:
	.loc 16 115 7 view .LVU1837
.LBE1882:
.LBE1928:
.LBB1929:
.LBB1921:
.LBB1918:
.LBB1903:
	.loc 58 73 48 view .LVU1838
	leaq	112(%rbp), %r12
.LVL634:
.LBB1887:
.LBI1887:
	.loc 60 76 8 is_stmt 1 view .LVU1839
.LBB1888:
.LBB1889:
.LBI1889:
	.loc 52 90 10 view .LVU1840
.LBB1890:
	.loc 52 92 7 view .LVU1841
	.loc 52 92 14 is_stmt 0 view .LVU1842
	movzbl	24(%rsp), %ebx
.LVL635:
	.loc 52 92 14 view .LVU1843
.LBE1890:
.LBE1889:
	.loc 60 78 41 view .LVU1844
	testb	%bl, %bl
	je	.L386
	.loc 60 79 12 view .LVU1845
	movq	48(%r12), %rax
	orq	$1, %rax
	.loc 60 79 5 view .LVU1846
	movq	%rax, 48(%r12)
	.loc 60 80 5 view .LVU1847
	cmpq	$1, %rax
	ja	.L387
.LBE1888:
	.loc 60 86 12 view .LVU1848
	movl	$0, %ebx
.L366:
.LVL636:
	.loc 60 86 12 view .LVU1849
.LBE1887:
.LBE1903:
.LBE1918:
	.loc 56 602 3 view .LVU1850
	testb	%bl, %bl
	jne	.L369
	jmp	.L364
.LVL637:
.L386:
.LBB1919:
.LBB1904:
.LBB1902:
.LBB1901:
	.loc 60 78 68 view .LVU1851
	leaq	.LC6(%rip), %rcx
	movl	$78, %edx
	leaq	.LC7(%rip), %rsi
	leaq	.LC8(%rip), %rdi
	call	__assert_fail@PLT
.LVL638:
.L387:
.LBB1891:
.LBI1891:
	.loc 52 80 10 is_stmt 1 view .LVU1852
.LBB1892:
	.loc 52 82 7 view .LVU1853
	cmpb	$0, 24(%rsp)
	je	.L367
	.loc 52 84 9 view .LVU1854
	movq	16(%rsp), %rdx
.LVL639:
.LBB1893:
.LBI1893:
	.loc 52 132 8 view .LVU1855
.LBB1894:
	.loc 52 134 5 view .LVU1856
	cmpb	$0, 48(%rdx)
	jne	.L388
.LVL640:
.L368:
	.loc 52 134 5 is_stmt 0 view .LVU1857
.LBE1894:
.LBE1893:
	.loc 52 85 9 is_stmt 1 view .LVU1858
	.loc 52 85 17 is_stmt 0 view .LVU1859
	movb	$0, 24(%rsp)
.L367:
.LVL641:
	.loc 52 85 17 view .LVU1860
.LBE1892:
.LBE1891:
	.loc 60 83 28 view .LVU1861
	movq	%r12, %rdi
	call	pthread_cond_signal@PLT
.LVL642:
	jmp	.L366
.LVL643:
.L388:
.LBB1900:
.LBB1899:
.LBB1898:
.LBB1897:
	.loc 52 135 7 is_stmt 1 view .LVU1862
.LBB1895:
.LBI1895:
	.loc 53 56 8 view .LVU1863
.LBB1896:
	.loc 53 58 5 view .LVU1864
	.loc 53 58 33 is_stmt 0 view .LVU1865
	leaq	8(%rdx), %rdi
.LVL644:
	.loc 53 58 33 view .LVU1866
	call	pthread_mutex_unlock@PLT
.LVL645:
	.loc 53 58 33 view .LVU1867
	jmp	.L368
.LVL646:
.L385:
	.loc 53 58 33 view .LVU1868
.LBE1896:
.LBE1895:
.LBE1897:
.LBE1898:
.LBE1899:
.LBE1900:
.LBE1901:
.LBE1902:
.LBE1904:
.LBE1919:
.LBB1920:
.LBB1917:
.LBB1916:
.LBB1915:
.LBB1913:
.LBB1914:
	addq	$8, %rdi
.LVL647:
	.loc 53 58 33 view .LVU1869
	call	pthread_mutex_unlock@PLT
.LVL648:
	.loc 53 58 33 view .LVU1870
	jmp	.L371
.LVL649:
.L382:
	.loc 53 58 33 view .LVU1871
.LBE1914:
.LBE1913:
.LBE1915:
.LBE1916:
.LBE1917:
.LBE1920:
.LBE1921:
.LBE1929:
.LBE1932:
.LBE1957:
.LBB1958:
.LBB1955:
.LBB1954:
.LBB1953:
.LBB1952:
.LBB1951:
.LBB1950:
.LBB1949:
.LBB1948:
.LBB1947:
	.loc 35 106 16 view .LVU1872
	movzbl	40(%r12), %r11d
	.loc 35 106 9 view .LVU1873
	movb	%r11b, (%r12)
.LVL650:
	.loc 35 107 9 view .LVU1874
	movq	%r12, (%r8)
	jmp	.L348
.LBE1947:
.LBE1948:
.LBE1949:
.LBE1950:
.LBE1951:
.LBE1952:
.LBE1953:
.LBE1954:
.LBE1955:
.LBE1958:
	.cfi_endproc
.LFE63:
	.size	_ZNK5boost4asio10io_context13executor_type5deferINS0_8executor8functionESaIvEEEvOT_RKT0_, .-_ZNK5boost4asio10io_context13executor_type5deferINS0_8executor8functionESaIvEEEvOT_RKT0_
	.align 2
	.type	_ZN5boost4asio8executor4implINS0_10io_context13executor_typeESaIvEE5deferEONS1_8functionE, @function
_ZN5boost4asio8executor4implINS0_10io_context13executor_typeESaIvEE5deferEONS1_8functionE:
.LVL651:
.LFB65:
	.loc 1 192 8 is_stmt 1 view -0
	.cfi_startproc
	.loc 1 192 8 is_stmt 0 view .LVU1876
	subq	$8, %rsp
	.cfi_def_cfa_offset 16
	.loc 1 194 49 is_stmt 1 view .LVU1877
	leaq	32(%rdi), %rdx
	.loc 1 194 5 view .LVU1878
	addq	$24, %rdi
.LVL652:
	.loc 1 194 5 is_stmt 0 view .LVU1879
	call	_ZNK5boost4asio10io_context13executor_type5deferINS0_8executor8functionESaIvEEEvOT_RKT0_
.LVL653:
	.loc 1 195 3 is_stmt 1 view .LVU1880
	addq	$8, %rsp
	.cfi_def_cfa_offset 8
	ret
	.cfi_endproc
.LFE65:
	.size	_ZN5boost4asio8executor4implINS0_10io_context13executor_typeESaIvEE5deferEONS1_8functionE, .-_ZN5boost4asio8executor4implINS0_10io_context13executor_typeESaIvEE5deferEONS1_8functionE
	.align 2
	.type	_ZNK5boost4asio10io_context13executor_type4postINS0_8executor8functionESaIvEEEvOT_RKT0_, @function
_ZNK5boost4asio10io_context13executor_type4postINS0_8executor8functionESaIvEEEvOT_RKT0_:
.LVL654:
.LFB66:
	.loc 3 282 6 view -0
	.cfi_startproc
	.cfi_personality 0x9b,DW.ref.__gxx_personality_v0
	.loc 3 282 6 is_stmt 0 view .LVU1882
	pushq	%r12
	.cfi_def_cfa_offset 16
	.cfi_offset 12, -16
	pushq	%rbp
	.cfi_def_cfa_offset 24
	.cfi_offset 6, -24
	pushq	%rbx
	.cfi_def_cfa_offset 32
	.cfi_offset 3, -32
	subq	$64, %rsp
	.cfi_def_cfa_offset 96
	movq	%rdi, %r12
	movq	%rsi, %rbp
.LVL655:
.LBB2068:
.LBI2068:
	.loc 32 35 97 is_stmt 1 view .LVU1883
.LBB2069:
.LBB2070:
.LBI2070:
	.loc 34 99 15 view .LVU1884
.LBB2071:
.LBI2071:
	.loc 34 78 3 view .LVU1885
	.loc 34 78 3 is_stmt 0 view .LVU1886
.LBE2071:
.LBE2070:
.LBB2072:
.LBI2072:
	.loc 34 46 3 is_stmt 1 view .LVU1887
	.loc 34 46 3 is_stmt 0 view .LVU1888
.LBE2072:
.LBB2073:
.LBI2073:
	.loc 34 50 6 is_stmt 1 view .LVU1889
.LBB2074:
.LBB2075:
.LBI2075:
	.loc 27 106 17 view .LVU1890
.LBB2076:
.LBB2077:
.LBI2077:
	.loc 30 46 3 view .LVU1891
.LBB2078:
	.loc 30 48 12 is_stmt 0 view .LVU1892
	data16	leaq	_ZN5boost4asio6detail15keyword_tss_ptrINS1_10call_stackINS1_14thread_contextENS1_16thread_info_baseEE7contextEE6value_E@tlsgd(%rip), %rdi
	.value	0x6666
	rex64
	call	__tls_get_addr@PLT
.LVL656:
	.loc 30 48 12 view .LVU1893
	movq	(%rax), %rax
.LVL657:
	.loc 30 48 12 view .LVU1894
.LBE2078:
.LBE2077:
	.loc 27 109 17 view .LVU1895
	testq	%rax, %rax
	je	.L392
	movq	8(%rax), %rax
.LVL658:
.L392:
	.loc 27 109 17 view .LVU1896
.LBE2076:
.LBE2075:
.LBB2079:
.LBI2079:
	.loc 35 71 16 is_stmt 1 view .LVU1897
.LBB2080:
.LBB2081:
	.loc 35 76 5 is_stmt 0 view .LVU1898
	testq	%rax, %rax
	je	.L393
	.loc 35 76 53 view .LVU1899
	movq	(%rax), %rbx
	.loc 35 76 21 view .LVU1900
	testq	%rbx, %rbx
	je	.L393
.LVL659:
.LBB2082:
	.loc 35 79 7 view .LVU1901
	movq	$0, (%rax)
.LVL660:
	.loc 35 82 11 view .LVU1902
	movzbl	(%rbx), %edx
	.loc 35 82 7 view .LVU1903
	cmpb	$9, %dl
	jbe	.L394
	.loc 35 84 9 view .LVU1904
	movb	%dl, 40(%rbx)
	jmp	.L395
.L394:
	.loc 35 88 24 view .LVU1905
	movq	%rbx, %rdi
	call	_ZdlPv@PLT
.LVL661:
.L393:
	.loc 35 88 24 view .LVU1906
.LBE2082:
.LBE2081:
	.loc 35 91 41 view .LVU1907
	movl	$41, %edi
	call	_Znwm@PLT
.LVL662:
	movq	%rax, %rbx
.LVL663:
	.loc 35 93 5 view .LVU1908
	movb	$10, 40(%rax)
.LVL664:
.L395:
	.loc 35 93 5 view .LVU1909
.LBE2080:
.LBE2079:
.LBE2074:
.LBE2073:
.LBE2069:
.LBE2068:
	.loc 62 174 3 is_stmt 1 view .LVU1910
.LBB2083:
.LBI2083:
	.loc 32 38 3 view .LVU1911
.LBB2084:
.LBB2085:
.LBI2085:
	.loc 17 53 3 view .LVU1912
.LBB2086:
	.loc 17 56 21 is_stmt 0 view .LVU1913
	movq	$0, (%rbx)
	leaq	_ZN5boost4asio6detail11executor_opINS0_8executor8functionESaIvENS1_19scheduler_operationEE11do_completeEPvPS6_RKNS_6system10error_codeEm(%rip), %rcx
	movq	%rcx, 8(%rbx)
	movl	$0, 16(%rbx)
.LVL665:
	.loc 17 56 21 view .LVU1914
.LBE2086:
.LBE2085:
.LBB2087:
.LBI2087:
	.loc 1 51 3 is_stmt 1 view .LVU1915
.LBB2088:
	.loc 1 52 19 is_stmt 0 view .LVU1916
	movq	0(%rbp), %rsi
	.loc 1 52 24 view .LVU1917
	movq	%rsi, 24(%rbx)
	.loc 1 54 5 is_stmt 1 view .LVU1918
	.loc 1 54 17 is_stmt 0 view .LVU1919
	movq	$0, 0(%rbp)
.LVL666:
	.loc 1 54 17 view .LVU1920
.LBE2088:
.LBE2087:
.LBE2084:
.LBE2083:
	.loc 3 295 3 view .LVU1921
	movq	(%r12), %rdi
	.loc 3 295 15 view .LVU1922
	movq	8(%rdi), %rbp
.LVL667:
.LBB2089:
.LBI2089:
	.loc 56 324 6 is_stmt 1 view .LVU1923
.LBB2090:
	.loc 56 328 3 view .LVU1924
.LBB2091:
	cmpb	$0, 40(%rbp)
	je	.L396
.LBE2091:
.LBE2090:
.LBE2089:
	.loc 56 330 5 view .LVU1925
.LVL668:
.LBB2175:
.LBB2172:
.LBB2103:
.LBB2092:
.LBB2093:
.LBI2093:
	.loc 27 93 17 view .LVU1926
.LBB2094:
.LBB2095:
.LBI2095:
	.loc 30 46 3 view .LVU1927
.LBB2096:
	.loc 30 48 12 is_stmt 0 view .LVU1928
	data16	leaq	_ZN5boost4asio6detail15keyword_tss_ptrINS1_10call_stackINS1_14thread_contextENS1_16thread_info_baseEE7contextEE6value_E@tlsgd(%rip), %rdi
	.value	0x6666
	rex64
	call	__tls_get_addr@PLT
.LVL669:
	movq	(%rax), %r8
.LVL670:
.L399:
	.loc 30 48 12 view .LVU1929
.LBE2096:
.LBE2095:
	.loc 27 96 5 is_stmt 1 view .LVU1930
	testq	%r8, %r8
	je	.L397
	.loc 27 98 7 is_stmt 0 view .LVU1931
	cmpq	(%r8), %rbp
	je	.L424
	.loc 27 100 7 view .LVU1932
	movq	16(%r8), %r8
.LVL671:
	.loc 27 100 7 view .LVU1933
	jmp	.L399
.L424:
	.loc 27 99 22 view .LVU1934
	movq	8(%r8), %r8
.LVL672:
.L397:
	.loc 27 99 22 view .LVU1935
.LBE2094:
.LBE2093:
	.loc 56 330 5 view .LVU1936
	testq	%r8, %r8
	je	.L396
	.loc 56 332 7 is_stmt 1 view .LVU1937
	movq	40(%r8), %rdi
	leaq	1(%rdi), %rbp
.LVL673:
	.loc 56 332 7 is_stmt 0 view .LVU1938
	movq	%rbp, 40(%r8)
	.loc 56 333 7 is_stmt 1 view .LVU1939
.LVL674:
.LBB2097:
.LBI2097:
	.loc 16 105 8 view .LVU1940
.LBB2098:
.LBB2099:
.LBI2099:
	.loc 16 39 15 view .LVU1941
.LBB2100:
	.loc 16 41 5 is_stmt 0 view .LVU1942
	movq	$0, (%rbx)
.LVL675:
	.loc 16 41 5 view .LVU1943
.LBE2100:
.LBE2099:
	.loc 16 108 9 view .LVU1944
	movq	32(%r8), %r9
	.loc 16 108 5 view .LVU1945
	testq	%r9, %r9
	je	.L400
.LVL676:
.LBB2101:
.LBI2101:
	.loc 16 39 15 is_stmt 1 view .LVU1946
.LBB2102:
	.loc 16 41 5 is_stmt 0 view .LVU1947
	movq	%rbx, (%r9)
.LVL677:
	.loc 16 41 5 view .LVU1948
.LBE2102:
.LBE2101:
	.loc 16 111 7 view .LVU1949
	movq	%rbx, 32(%r8)
	jmp	.L402
.L400:
	.loc 16 115 7 view .LVU1950
	movq	%rbx, 32(%r8)
	movq	%rbx, 24(%r8)
.LVL678:
	.loc 16 115 7 view .LVU1951
.LBE2098:
.LBE2097:
	.loc 56 334 7 is_stmt 1 view .LVU1952
	jmp	.L402
.LVL679:
.L396:
	.loc 56 334 7 is_stmt 0 view .LVU1953
.LBE2092:
.LBE2103:
	.loc 56 341 3 is_stmt 1 view .LVU1954
.LBB2104:
.LBI2104:
	.loc 57 86 8 view .LVU1955
.LBE2104:
.LBE2172:
.LBE2175:
	.loc 57 88 5 view .LVU1956
.LBB2176:
.LBB2173:
.LBB2107:
.LBB2105:
.LBI2105:
	.loc 37 318 7 view .LVU1957
.LBB2106:
	.loc 37 319 36 is_stmt 0 view .LVU1958
	leaq	208(%rbp), %r9
.LVL680:
	.loc 37 319 34 view .LVU1959
	lock addq	$1, (%r9)
.LVL681:
	.loc 37 319 34 view .LVU1960
.LBE2106:
.LBE2105:
.LBE2107:
	.loc 56 342 3 is_stmt 1 view .LVU1961
	.loc 56 342 27 is_stmt 0 view .LVU1962
	leaq	48(%rbp), %r10
.LVL682:
.LBB2108:
.LBI2108:
	.loc 52 50 14 is_stmt 1 view .LVU1963
.LBB2109:
.LBB2110:
.LBB2111:
.LBI2111:
	.loc 38 29 3 view .LVU1964
	.loc 38 29 3 is_stmt 0 view .LVU1965
.LBE2111:
	.loc 52 51 17 view .LVU1966
	movq	%r10, 16(%rsp)
	.loc 52 53 7 is_stmt 1 view .LVU1967
	cmpb	$0, 96(%rbp)
	jne	.L425
	.loc 52 59 9 view .LVU1968
	.loc 52 59 17 is_stmt 0 view .LVU1969
	movb	$0, 24(%rsp)
.LVL683:
.L404:
	.loc 52 59 17 view .LVU1970
.LBE2110:
.LBE2109:
.LBE2108:
	.loc 56 343 3 is_stmt 1 view .LVU1971
.LBB2116:
.LBI2116:
	.loc 16 105 8 view .LVU1972
.LBB2117:
.LBB2118:
.LBI2118:
	.loc 16 39 15 view .LVU1973
.LBB2119:
	.loc 16 41 5 is_stmt 0 view .LVU1974
	movq	$0, (%rbx)
.LVL684:
	.loc 16 41 5 view .LVU1975
.LBE2119:
.LBE2118:
	.loc 16 108 9 view .LVU1976
	movq	224(%rbp), %r11
	.loc 16 108 5 view .LVU1977
	testq	%r11, %r11
	je	.L405
.LVL685:
.LBB2120:
.LBI2120:
	.loc 16 39 15 is_stmt 1 view .LVU1978
.LBB2121:
	.loc 16 41 5 is_stmt 0 view .LVU1979
	movq	%rbx, (%r11)
.LVL686:
	.loc 16 41 5 view .LVU1980
.LBE2121:
.LBE2120:
	.loc 16 111 7 view .LVU1981
	movq	%rbx, 224(%rbp)
.L406:
.LVL687:
	.loc 16 111 7 view .LVU1982
.LBE2117:
.LBE2116:
	.loc 56 344 3 is_stmt 1 view .LVU1983
.LBB2123:
.LBI2123:
	.loc 56 599 6 view .LVU1984
.LBB2124:
.LBB2125:
.LBB2126:
	.loc 58 72 5 is_stmt 0 view .LVU1985
	movq	16(%rsp), %r12
.LVL688:
	.loc 58 72 5 view .LVU1986
	cmpb	$0, 48(%r12)
	jne	.L426
.LVL689:
.L407:
	.loc 58 72 5 view .LVU1987
.LBE2126:
.LBE2125:
	.loc 56 604 5 view .LVU1988
	cmpb	$0, 200(%rbp)
	jne	.L413
	.loc 56 604 31 view .LVU1989
	movq	168(%rbp), %rsi
	.loc 56 604 28 view .LVU1990
	testq	%rsi, %rsi
	je	.L413
	.loc 56 606 25 view .LVU1991
	movb	$1, 200(%rbp)
.LVL690:
.LBB2145:
.LBB2146:
	.loc 51 571 13 view .LVU1992
	movl	$-2147483639, 4(%rsp)
	.loc 51 572 17 view .LVU1993
	leaq	104(%rsi), %rdx
	.loc 51 572 15 view .LVU1994
	movq	%rdx, 8(%rsp)
.LVL691:
.LBB2147:
.LBB2148:
	.loc 59 50 12 view .LVU1995
	movl	104(%rsi), %edx
.LVL692:
	.loc 59 50 12 view .LVU1996
.LBE2148:
.LBE2147:
	.loc 51 573 12 view .LVU1997
	leaq	4(%rsp), %rcx
	movl	112(%rsi), %edi
	movl	$3, %esi
.LVL693:
	.loc 51 573 12 view .LVU1998
	call	epoll_ctl@PLT
.LVL694:
.L413:
	.loc 51 573 12 view .LVU1999
.LBE2146:
.LBE2145:
.LBB2149:
.LBB2150:
	.loc 52 82 7 view .LVU2000
	cmpb	$0, 24(%rsp)
	je	.L412
	.loc 52 84 9 view .LVU2001
	movq	16(%rsp), %rdi
.LVL695:
.LBB2151:
.LBB2152:
	.loc 52 134 5 view .LVU2002
	cmpb	$0, 48(%rdi)
	jne	.L427
.LVL696:
.L414:
	.loc 52 134 5 view .LVU2003
.LBE2152:
.LBE2151:
	.loc 52 85 17 view .LVU2004
	movb	$0, 24(%rsp)
.LVL697:
.L412:
	.loc 52 85 17 view .LVU2005
.LBE2150:
.LBE2149:
.LBE2124:
.LBE2123:
.LBB2162:
.LBI2162:
	.loc 52 63 5 is_stmt 1 view .LVU2006
.LBB2163:
	.loc 52 65 7 view .LVU2007
	cmpb	$0, 24(%rsp)
	jne	.L428
.LVL698:
.L402:
	.loc 52 65 7 is_stmt 0 view .LVU2008
.LBE2163:
.LBE2162:
.LBE2173:
.LBE2176:
	.loc 3 296 3 view .LVU2009
	movq	$0, 48(%rsp)
	movq	$0, 40(%rsp)
.LVL699:
.LBB2177:
.LBI2177:
	.loc 32 35 57 is_stmt 1 view .LVU2010
.LBB2178:
.LBI2178:
	.loc 32 35 528 view .LVU2011
.LBB2179:
.LBB2180:
	.loc 32 35 579 is_stmt 0 view .LVU2012
	movl	$0, %r12d
	.loc 32 35 575 view .LVU2013
	testq	%r12, %r12
	je	.L391
.LVL700:
.LBB2181:
.LBB2182:
.LBI2182:
	.loc 34 58 8 is_stmt 1 view .LVU2014
.LBB2183:
.LBI2183:
	.loc 27 106 17 view .LVU2015
.LBB2184:
.LBB2185:
.LBI2185:
	.loc 30 46 3 view .LVU2016
.LBB2186:
	.loc 30 48 12 is_stmt 0 view .LVU2017
	data16	leaq	_ZN5boost4asio6detail15keyword_tss_ptrINS1_10call_stackINS1_14thread_contextENS1_16thread_info_baseEE7contextEE6value_E@tlsgd(%rip), %rdi
	.value	0x6666
	rex64
	call	__tls_get_addr@PLT
.LVL701:
	movq	(%rax), %r8
.LVL702:
	.loc 30 48 12 view .LVU2018
.LBE2186:
.LBE2185:
	.loc 27 109 17 view .LVU2019
	testq	%r8, %r8
	je	.L419
	movq	8(%r8), %r8
.LVL703:
.L419:
	.loc 27 109 17 view .LVU2020
.LBE2184:
.LBE2183:
.LBB2187:
.LBI2187:
	.loc 35 98 15 is_stmt 1 view .LVU2021
.LBB2188:
.LBB2189:
	.loc 35 103 7 is_stmt 0 view .LVU2022
	testq	%r8, %r8
	je	.L420
	.loc 35 103 23 view .LVU2023
	cmpq	$0, (%r8)
	je	.L429
.L420:
	.loc 35 103 23 view .LVU2024
.LBE2189:
	.loc 35 112 22 view .LVU2025
	movq	%r12, %rdi
	call	_ZdlPv@PLT
.LVL704:
.L391:
	.loc 35 112 22 view .LVU2026
.LBE2188:
.LBE2187:
.LBE2182:
.LBE2181:
.LBE2180:
.LBE2179:
.LBE2178:
.LBE2177:
	.loc 3 297 1 view .LVU2027
	addq	$64, %rsp
	.cfi_remember_state
	.cfi_def_cfa_offset 32
	popq	%rbx
	.cfi_def_cfa_offset 24
	popq	%rbp
	.cfi_def_cfa_offset 16
	popq	%r12
	.cfi_def_cfa_offset 8
	ret
.LVL705:
.L425:
	.cfi_restore_state
.LBB2199:
.LBB2174:
.LBB2168:
.LBB2115:
.LBB2114:
	.loc 52 55 9 is_stmt 1 view .LVU2028
.LBB2112:
.LBI2112:
	.loc 53 50 8 view .LVU2029
.LBB2113:
	.loc 53 52 5 view .LVU2030
	.loc 53 52 31 is_stmt 0 view .LVU2031
	leaq	56(%rbp), %rdi
	call	pthread_mutex_lock@PLT
.LVL706:
	.loc 53 52 31 view .LVU2032
.LBE2113:
.LBE2112:
	.loc 52 56 9 is_stmt 1 view .LVU2033
	.loc 52 56 17 is_stmt 0 view .LVU2034
	movb	$1, 24(%rsp)
	jmp	.L404
.LVL707:
.L405:
	.loc 52 56 17 view .LVU2035
.LBE2114:
.LBE2115:
.LBE2168:
.LBB2169:
.LBB2122:
	.loc 16 115 7 view .LVU2036
	movq	%rbx, 224(%rbp)
	movq	%rbx, 216(%rbp)
	jmp	.L406
.LVL708:
.L426:
	.loc 16 115 7 view .LVU2037
.LBE2122:
.LBE2169:
.LBB2170:
.LBB2161:
.LBB2158:
.LBB2143:
	.loc 58 73 48 view .LVU2038
	leaq	112(%rbp), %r12
.LVL709:
.LBB2127:
.LBI2127:
	.loc 60 76 8 is_stmt 1 view .LVU2039
.LBB2128:
.LBB2129:
.LBI2129:
	.loc 52 90 10 view .LVU2040
.LBB2130:
	.loc 52 92 7 view .LVU2041
	.loc 52 92 14 is_stmt 0 view .LVU2042
	movzbl	24(%rsp), %ebx
.LVL710:
	.loc 52 92 14 view .LVU2043
.LBE2130:
.LBE2129:
	.loc 60 78 41 view .LVU2044
	testb	%bl, %bl
	je	.L430
	.loc 60 79 12 view .LVU2045
	movq	48(%r12), %rax
	orq	$1, %rax
	.loc 60 79 5 view .LVU2046
	movq	%rax, 48(%r12)
	.loc 60 80 5 view .LVU2047
	cmpq	$1, %rax
	ja	.L431
.LBE2128:
	.loc 60 86 12 view .LVU2048
	movl	$0, %ebx
.L409:
.LVL711:
	.loc 60 86 12 view .LVU2049
.LBE2127:
.LBE2143:
.LBE2158:
	.loc 56 602 3 view .LVU2050
	testb	%bl, %bl
	jne	.L412
	jmp	.L407
.LVL712:
.L430:
.LBB2159:
.LBB2144:
.LBB2142:
.LBB2141:
	.loc 60 78 68 view .LVU2051
	leaq	.LC6(%rip), %rcx
	movl	$78, %edx
	leaq	.LC7(%rip), %rsi
	leaq	.LC8(%rip), %rdi
	call	__assert_fail@PLT
.LVL713:
.L431:
.LBB2131:
.LBI2131:
	.loc 52 80 10 is_stmt 1 view .LVU2052
.LBB2132:
	.loc 52 82 7 view .LVU2053
	cmpb	$0, 24(%rsp)
	je	.L410
	.loc 52 84 9 view .LVU2054
	movq	16(%rsp), %rdi
.LVL714:
.LBB2133:
.LBI2133:
	.loc 52 132 8 view .LVU2055
.LBB2134:
	.loc 52 134 5 view .LVU2056
	cmpb	$0, 48(%rdi)
	jne	.L432
.LVL715:
.L411:
	.loc 52 134 5 is_stmt 0 view .LVU2057
.LBE2134:
.LBE2133:
	.loc 52 85 9 is_stmt 1 view .LVU2058
	.loc 52 85 17 is_stmt 0 view .LVU2059
	movb	$0, 24(%rsp)
.L410:
.LVL716:
	.loc 52 85 17 view .LVU2060
.LBE2132:
.LBE2131:
	.loc 60 83 28 view .LVU2061
	movq	%r12, %rdi
	call	pthread_cond_signal@PLT
.LVL717:
	jmp	.L409
.LVL718:
.L432:
.LBB2140:
.LBB2139:
.LBB2138:
.LBB2137:
	.loc 52 135 7 is_stmt 1 view .LVU2062
.LBB2135:
.LBI2135:
	.loc 53 56 8 view .LVU2063
.LBB2136:
	.loc 53 58 5 view .LVU2064
	.loc 53 58 33 is_stmt 0 view .LVU2065
	addq	$8, %rdi
.LVL719:
	.loc 53 58 33 view .LVU2066
	call	pthread_mutex_unlock@PLT
.LVL720:
	.loc 53 58 33 view .LVU2067
	jmp	.L411
.LVL721:
.L427:
	.loc 53 58 33 view .LVU2068
.LBE2136:
.LBE2135:
.LBE2137:
.LBE2138:
.LBE2139:
.LBE2140:
.LBE2141:
.LBE2142:
.LBE2144:
.LBE2159:
.LBB2160:
.LBB2157:
.LBB2156:
.LBB2155:
.LBB2153:
.LBB2154:
	addq	$8, %rdi
.LVL722:
	.loc 53 58 33 view .LVU2069
	call	pthread_mutex_unlock@PLT
.LVL723:
	.loc 53 58 33 view .LVU2070
	jmp	.L414
.LVL724:
.L428:
	.loc 53 58 33 view .LVU2071
.LBE2154:
.LBE2153:
.LBE2155:
.LBE2156:
.LBE2157:
.LBE2160:
.LBE2161:
.LBE2170:
.LBB2171:
.LBB2167:
	.loc 52 66 9 is_stmt 1 view .LVU2072
.LBB2164:
.LBI2164:
	.loc 53 56 8 view .LVU2073
.LBB2165:
	.loc 53 58 5 view .LVU2074
	.loc 53 58 33 is_stmt 0 view .LVU2075
	movq	16(%rsp), %rcx
	leaq	8(%rcx), %rdi
.LVL725:
	.loc 53 58 33 view .LVU2076
	call	pthread_mutex_unlock@PLT
.LVL726:
	.loc 53 58 33 view .LVU2077
.LBE2165:
.LBE2164:
.LBB2166:
.LBI2166:
	.loc 38 30 3 is_stmt 1 view .LVU2078
	.loc 38 30 3 is_stmt 0 view .LVU2079
	jmp	.L402
.LVL727:
.L429:
	.loc 38 30 3 view .LVU2080
.LBE2166:
.LBE2167:
.LBE2171:
.LBE2174:
.LBE2199:
.LBB2200:
.LBB2198:
.LBB2197:
.LBB2196:
.LBB2195:
.LBB2194:
.LBB2193:
.LBB2192:
.LBB2191:
.LBB2190:
	.loc 35 106 16 view .LVU2081
	movzbl	40(%r12), %r10d
	.loc 35 106 9 view .LVU2082
	movb	%r10b, (%r12)
.LVL728:
	.loc 35 107 9 view .LVU2083
	movq	%r12, (%r8)
	jmp	.L391
.LBE2190:
.LBE2191:
.LBE2192:
.LBE2193:
.LBE2194:
.LBE2195:
.LBE2196:
.LBE2197:
.LBE2198:
.LBE2200:
	.cfi_endproc
.LFE66:
	.size	_ZNK5boost4asio10io_context13executor_type4postINS0_8executor8functionESaIvEEEvOT_RKT0_, .-_ZNK5boost4asio10io_context13executor_type4postINS0_8executor8functionESaIvEEEvOT_RKT0_
	.align 2
	.type	_ZN5boost4asio8executor4implINS0_10io_context13executor_typeESaIvEE4postEONS1_8functionE, @function
_ZN5boost4asio8executor4implINS0_10io_context13executor_typeESaIvEE4postEONS1_8functionE:
.LVL729:
.LFB67:
	.loc 1 187 8 is_stmt 1 view -0
	.cfi_startproc
	.loc 1 187 8 is_stmt 0 view .LVU2085
	subq	$8, %rsp
	.cfi_def_cfa_offset 16
	.loc 1 189 48 is_stmt 1 view .LVU2086
	leaq	32(%rdi), %rdx
	.loc 1 189 5 view .LVU2087
	addq	$24, %rdi
.LVL730:
	.loc 1 189 5 is_stmt 0 view .LVU2088
	call	_ZNK5boost4asio10io_context13executor_type4postINS0_8executor8functionESaIvEEEvOT_RKT0_
.LVL731:
	.loc 1 190 3 is_stmt 1 view .LVU2089
	addq	$8, %rsp
	.cfi_def_cfa_offset 8
	ret
	.cfi_endproc
.LFE67:
	.size	_ZN5boost4asio8executor4implINS0_10io_context13executor_typeESaIvEE4postEONS1_8functionE, .-_ZN5boost4asio8executor4implINS0_10io_context13executor_typeESaIvEE4postEONS1_8functionE
	.align 2
	.type	_ZNK5boost4asio10io_context13executor_type8dispatchINS0_8executor8functionESaIvEEEvOT_RKT0_, @function
_ZNK5boost4asio10io_context13executor_type8dispatchINS0_8executor8functionESaIvEEEvOT_RKT0_:
.LVL732:
.LFB68:
	.loc 3 253 6 view -0
	.cfi_startproc
	.cfi_personality 0x9b,DW.ref.__gxx_personality_v0
	.cfi_lsda 0x1b,.LLSDA68
	.loc 3 253 6 is_stmt 0 view .LVU2091
	pushq	%r12
	.cfi_def_cfa_offset 16
	.cfi_offset 12, -16
	pushq	%rbp
	.cfi_def_cfa_offset 24
	.cfi_offset 6, -24
	pushq	%rbx
	.cfi_def_cfa_offset 32
	.cfi_offset 3, -32
	subq	$64, %rsp
	.cfi_def_cfa_offset 96
	movq	%rdi, %r12
	movq	%rsi, %rbp
.LBB2341:
	.loc 3 259 7 view .LVU2092
	movq	(%rdi), %rax
	.loc 3 259 19 view .LVU2093
	movq	8(%rax), %rbx
.LVL733:
.LBB2342:
.LBI2342:
	.loc 57 103 8 is_stmt 1 view .LVU2094
.LBE2342:
.LBE2341:
	.loc 57 105 5 view .LVU2095
.LBB2389:
.LBB2349:
.LBB2343:
.LBI2343:
	.loc 27 93 17 view .LVU2096
.LBB2344:
.LBB2345:
.LBI2345:
	.loc 30 46 3 view .LVU2097
.LBB2346:
	.loc 30 48 12 is_stmt 0 view .LVU2098
	data16	leaq	_ZN5boost4asio6detail15keyword_tss_ptrINS1_10call_stackINS1_14thread_contextENS1_16thread_info_baseEE7contextEE6value_E@tlsgd(%rip), %rdi
	.value	0x6666
	rex64
	call	__tls_get_addr@PLT
.LVL734:
	.loc 30 48 12 view .LVU2099
	movq	(%rax), %rdx
.LVL735:
	.loc 30 48 12 view .LVU2100
.LBE2346:
.LBE2345:
.LBE2344:
.LBE2343:
.LBE2349:
.LBE2389:
	.loc 27 95 14 view .LVU2101
	movq	%rdx, %rcx
.LVL736:
.L438:
.LBB2390:
.LBB2350:
.LBB2348:
.LBB2347:
	.loc 27 96 5 is_stmt 1 view .LVU2102
	testq	%rcx, %rcx
	je	.L436
	.loc 27 98 7 is_stmt 0 view .LVU2103
	cmpq	(%rcx), %rbx
	je	.L477
	.loc 27 100 7 view .LVU2104
	movq	16(%rcx), %rcx
.LVL737:
	.loc 27 100 7 view .LVU2105
	jmp	.L438
.L477:
	.loc 27 99 22 view .LVU2106
	movq	8(%rcx), %rcx
.LVL738:
.L436:
	.loc 27 99 22 view .LVU2107
.LBE2347:
.LBE2348:
.LBE2350:
	.loc 3 259 3 view .LVU2108
	testq	%rcx, %rcx
	je	.L439
.LVL739:
.LBB2351:
.LBB2352:
.LBI2352:
	.loc 1 51 3 is_stmt 1 view .LVU2109
.LBB2353:
.LBB2354:
	.loc 1 52 19 is_stmt 0 view .LVU2110
	movq	0(%rbp), %rbx
	.loc 1 52 24 view .LVU2111
	movq	%rbx, 16(%rsp)
	.loc 1 54 5 is_stmt 1 view .LVU2112
	.loc 1 54 17 is_stmt 0 view .LVU2113
	movq	$0, 0(%rbp)
.LVL740:
	.loc 1 54 17 view .LVU2114
.LBE2354:
.LBE2353:
.LBE2352:
.LBB2355:
.LBI2355:
	.loc 36 44 12 is_stmt 1 view .LVU2115
.LBB2356:
.LBI2356:
	.loc 38 29 3 view .LVU2116
	.loc 38 29 3 is_stmt 0 view .LVU2117
.LBE2356:
.LBE2355:
.LBE2351:
.LBE2390:
	.loc 36 46 5 is_stmt 1 view .LVU2118
.LBB2391:
.LBB2384:
.LBB2359:
.LBB2357:
.LBI2357:
	.loc 37 120 3 view .LVU2119
.LBB2358:
	.loc 37 121 5 view .LVU2120
	.loc 37 121 26 is_stmt 0 view .LVU2121
.LVL741:
	.loc 37 121 26 view .LVU2122
.LBE2358:
.LBE2357:
.LBE2359:
.LBB2360:
.LBI2360:
	.loc 12 30 13 is_stmt 1 view .LVU2123
.LBB2361:
.LBI2361:
	.loc 13 67 13 view .LVU2124
.LBB2362:
.LBI2362:
	.loc 1 63 8 view .LVU2125
.LBE2362:
.LBE2361:
.LBE2360:
.LBE2384:
.LBE2391:
	.loc 1 65 5 view .LVU2126
.LBB2392:
.LBB2385:
.LBB2369:
.LBB2368:
.LBB2367:
.LBB2363:
	testq	%rbx, %rbx
	je	.L440
.LBB2364:
	.loc 1 67 7 view .LVU2127
.LVL742:
	.loc 1 68 7 view .LVU2128
	.loc 1 68 13 is_stmt 0 view .LVU2129
	movq	$0, 16(%rsp)
	.loc 1 69 7 is_stmt 1 view .LVU2130
.LVL743:
.LBB2365:
.LBI2365:
	.loc 33 30 8 view .LVU2131
.LBB2366:
	.loc 33 32 5 view .LVU2132
	.loc 33 32 10 is_stmt 0 view .LVU2133
	movl	$1, %esi
	movq	%rbx, %rdi
.LEHB11:
	call	*(%rbx)
.LVL744:
.LEHE11:
.L440:
	.loc 33 32 10 view .LVU2134
.LBE2366:
.LBE2365:
.LBE2364:
.LBE2363:
.LBE2367:
.LBE2368:
.LBE2369:
.LBB2370:
.LBI2370:
	.loc 36 50 3 is_stmt 1 view .LVU2135
.LBE2370:
.LBE2385:
.LBE2392:
	.loc 36 52 5 view .LVU2136
.LBB2393:
.LBB2386:
.LBB2374:
.LBB2371:
.LBI2371:
	.loc 37 120 3 view .LVU2137
.LBB2372:
	.loc 37 121 5 view .LVU2138
	.loc 37 121 26 is_stmt 0 view .LVU2139
.LVL745:
	.loc 37 121 26 view .LVU2140
.LBE2372:
.LBE2371:
.LBB2373:
.LBI2373:
	.loc 38 30 3 is_stmt 1 view .LVU2141
	.loc 38 30 3 is_stmt 0 view .LVU2142
.LBE2373:
.LBE2374:
.LBB2375:
.LBI2375:
	.loc 1 57 3 is_stmt 1 view .LVU2143
.LBB2376:
	.loc 1 59 5 view .LVU2144
	.loc 1 59 9 is_stmt 0 view .LVU2145
	movq	16(%rsp), %r8
	.loc 1 59 5 view .LVU2146
	testq	%r8, %r8
	je	.L435
	.loc 1 60 7 is_stmt 1 view .LVU2147
.LVL746:
.LBB2377:
.LBI2377:
	.loc 33 35 8 view .LVU2148
.LBB2378:
	.loc 33 37 5 view .LVU2149
	.loc 33 37 10 is_stmt 0 view .LVU2150
	movl	$0, %esi
	movq	%r8, %rdi
	call	*(%r8)
.LVL747:
.L435:
	.loc 33 37 10 view .LVU2151
.LBE2378:
.LBE2377:
.LBE2376:
.LBE2375:
.LBE2386:
.LBE2393:
	.loc 3 279 1 view .LVU2152
	addq	$64, %rsp
	.cfi_remember_state
	.cfi_def_cfa_offset 32
	popq	%rbx
	.cfi_def_cfa_offset 24
	popq	%rbp
	.cfi_def_cfa_offset 16
	popq	%r12
	.cfi_def_cfa_offset 8
	ret
.LVL748:
.L439:
	.cfi_restore_state
.LBB2394:
.LBI2394:
	.loc 32 35 97 is_stmt 1 view .LVU2153
.LBB2395:
.LBB2396:
.LBI2396:
	.loc 34 99 15 view .LVU2154
.LBB2397:
.LBI2397:
	.loc 34 78 3 view .LVU2155
	.loc 34 78 3 is_stmt 0 view .LVU2156
.LBE2397:
.LBE2396:
.LBB2398:
.LBI2398:
	.loc 34 46 3 is_stmt 1 view .LVU2157
	.loc 34 46 3 is_stmt 0 view .LVU2158
.LBE2398:
.LBB2399:
.LBI2399:
	.loc 34 50 6 is_stmt 1 view .LVU2159
.LBB2400:
.LBB2401:
.LBI2401:
	.loc 27 106 17 view .LVU2160
.LBB2402:
	.loc 27 109 17 is_stmt 0 view .LVU2161
	testq	%rdx, %rdx
	je	.L443
	movq	8(%rdx), %rdx
.LVL749:
.L443:
	.loc 27 109 17 view .LVU2162
.LBE2402:
.LBE2401:
.LBB2403:
.LBI2403:
	.loc 35 71 16 is_stmt 1 view .LVU2163
.LBB2404:
.LBB2405:
	.loc 35 76 5 is_stmt 0 view .LVU2164
	testq	%rdx, %rdx
	je	.L444
	.loc 35 76 53 view .LVU2165
	movq	(%rdx), %rbx
	.loc 35 76 21 view .LVU2166
	testq	%rbx, %rbx
	je	.L444
.LVL750:
.LBB2406:
	.loc 35 79 7 view .LVU2167
	movq	$0, (%rdx)
.LVL751:
	.loc 35 82 11 view .LVU2168
	movzbl	(%rbx), %esi
	.loc 35 82 7 view .LVU2169
	cmpb	$9, %sil
	jbe	.L445
	.loc 35 84 9 view .LVU2170
	movb	%sil, 40(%rbx)
	jmp	.L446
.L445:
	.loc 35 88 24 view .LVU2171
	movq	%rbx, %rdi
	call	_ZdlPv@PLT
.LVL752:
.L444:
	.loc 35 88 24 view .LVU2172
.LBE2406:
.LBE2405:
	.loc 35 91 41 view .LVU2173
	movl	$41, %edi
.LEHB12:
	call	_Znwm@PLT
.LVL753:
	movq	%rax, %rbx
.LVL754:
	.loc 35 93 5 view .LVU2174
	movb	$10, 40(%rax)
.LVL755:
.L446:
	.loc 35 93 5 view .LVU2175
.LBE2404:
.LBE2403:
.LBE2400:
.LBE2399:
.LBE2395:
.LBE2394:
	.loc 62 174 3 is_stmt 1 view .LVU2176
.LBB2407:
.LBI2407:
	.loc 32 38 3 view .LVU2177
.LBB2408:
.LBB2409:
.LBI2409:
	.loc 17 53 3 view .LVU2178
.LBB2410:
	.loc 17 56 21 is_stmt 0 view .LVU2179
	movq	$0, (%rbx)
	leaq	_ZN5boost4asio6detail11executor_opINS0_8executor8functionESaIvENS1_19scheduler_operationEE11do_completeEPvPS6_RKNS_6system10error_codeEm(%rip), %rdi
	movq	%rdi, 8(%rbx)
	movl	$0, 16(%rbx)
.LVL756:
	.loc 17 56 21 view .LVU2180
.LBE2410:
.LBE2409:
.LBB2411:
.LBI2411:
	.loc 1 51 3 is_stmt 1 view .LVU2181
.LBB2412:
	.loc 1 52 19 is_stmt 0 view .LVU2182
	movq	0(%rbp), %r8
	.loc 1 52 24 view .LVU2183
	movq	%r8, 24(%rbx)
	.loc 1 54 5 is_stmt 1 view .LVU2184
	.loc 1 54 17 is_stmt 0 view .LVU2185
	movq	$0, 0(%rbp)
.LVL757:
	.loc 1 54 17 view .LVU2186
.LBE2412:
.LBE2411:
.LBE2408:
.LBE2407:
	.loc 3 277 3 view .LVU2187
	movq	(%r12), %r9
	.loc 3 277 15 view .LVU2188
	movq	8(%r9), %rbp
.LVL758:
.LBB2413:
.LBI2413:
	.loc 56 324 6 is_stmt 1 view .LVU2189
.LBB2414:
	.loc 56 328 3 view .LVU2190
.LBB2415:
	cmpb	$0, 40(%rbp)
	je	.L447
.LBE2415:
.LBE2414:
.LBE2413:
	.loc 56 330 5 view .LVU2191
.LVL759:
.LBB2499:
.LBB2496:
.LBB2427:
.LBB2416:
.LBB2417:
.LBI2417:
	.loc 27 93 17 view .LVU2192
.LBB2418:
.LBB2419:
.LBI2419:
	.loc 30 46 3 view .LVU2193
.LBB2420:
	.loc 30 48 12 is_stmt 0 view .LVU2194
	data16	leaq	_ZN5boost4asio6detail15keyword_tss_ptrINS1_10call_stackINS1_14thread_contextENS1_16thread_info_baseEE7contextEE6value_E@tlsgd(%rip), %rdi
	.value	0x6666
	rex64
	call	__tls_get_addr@PLT
.LVL760:
	movq	(%rax), %r10
.LVL761:
.L450:
	.loc 30 48 12 view .LVU2195
.LBE2420:
.LBE2419:
	.loc 27 96 5 is_stmt 1 view .LVU2196
	testq	%r10, %r10
	je	.L448
	.loc 27 98 7 is_stmt 0 view .LVU2197
	cmpq	(%r10), %rbp
	je	.L478
	.loc 27 100 7 view .LVU2198
	movq	16(%r10), %r10
.LVL762:
	.loc 27 100 7 view .LVU2199
	jmp	.L450
.L478:
	.loc 27 99 22 view .LVU2200
	movq	8(%r10), %r10
.LVL763:
.L448:
	.loc 27 99 22 view .LVU2201
.LBE2418:
.LBE2417:
	.loc 56 330 5 view .LVU2202
	testq	%r10, %r10
	je	.L447
	.loc 56 332 7 is_stmt 1 view .LVU2203
	movq	40(%r10), %r11
	leaq	1(%r11), %rax
	movq	%rax, 40(%r10)
	.loc 56 333 7 view .LVU2204
.LVL764:
.LBB2421:
.LBI2421:
	.loc 16 105 8 view .LVU2205
.LBB2422:
.LBB2423:
.LBI2423:
	.loc 16 39 15 view .LVU2206
.LBB2424:
	.loc 16 41 5 is_stmt 0 view .LVU2207
	movq	$0, (%rbx)
.LVL765:
	.loc 16 41 5 view .LVU2208
.LBE2424:
.LBE2423:
	.loc 16 108 9 view .LVU2209
	movq	32(%r10), %rcx
	.loc 16 108 5 view .LVU2210
	testq	%rcx, %rcx
	je	.L451
.LVL766:
.LBB2425:
.LBI2425:
	.loc 16 39 15 is_stmt 1 view .LVU2211
.LBB2426:
	.loc 16 41 5 is_stmt 0 view .LVU2212
	movq	%rbx, (%rcx)
.LVL767:
	.loc 16 41 5 view .LVU2213
.LBE2426:
.LBE2425:
	.loc 16 111 7 view .LVU2214
	movq	%rbx, 32(%r10)
	jmp	.L453
.L451:
	.loc 16 115 7 view .LVU2215
	movq	%rbx, 32(%r10)
	movq	%rbx, 24(%r10)
.LVL768:
	.loc 16 115 7 view .LVU2216
.LBE2422:
.LBE2421:
	.loc 56 334 7 is_stmt 1 view .LVU2217
	jmp	.L453
.LVL769:
.L447:
	.loc 56 334 7 is_stmt 0 view .LVU2218
.LBE2416:
.LBE2427:
	.loc 56 341 3 is_stmt 1 view .LVU2219
.LBB2428:
.LBI2428:
	.loc 57 86 8 view .LVU2220
.LBE2428:
.LBE2496:
.LBE2499:
	.loc 57 88 5 view .LVU2221
.LBB2500:
.LBB2497:
.LBB2431:
.LBB2429:
.LBI2429:
	.loc 37 318 7 view .LVU2222
.LBB2430:
	.loc 37 319 36 is_stmt 0 view .LVU2223
	leaq	208(%rbp), %r11
.LVL770:
	.loc 37 319 34 view .LVU2224
	lock addq	$1, (%r11)
.LVL771:
	.loc 37 319 34 view .LVU2225
.LBE2430:
.LBE2429:
.LBE2431:
	.loc 56 342 3 is_stmt 1 view .LVU2226
	.loc 56 342 27 is_stmt 0 view .LVU2227
	leaq	48(%rbp), %r12
.LVL772:
.LBB2432:
.LBI2432:
	.loc 52 50 14 is_stmt 1 view .LVU2228
.LBB2433:
.LBB2434:
.LBB2435:
.LBI2435:
	.loc 38 29 3 view .LVU2229
	.loc 38 29 3 is_stmt 0 view .LVU2230
.LBE2435:
	.loc 52 51 17 view .LVU2231
	movq	%r12, 16(%rsp)
	.loc 52 53 7 is_stmt 1 view .LVU2232
	cmpb	$0, 96(%rbp)
	jne	.L479
	.loc 52 59 9 view .LVU2233
	.loc 52 59 17 is_stmt 0 view .LVU2234
	movb	$0, 24(%rsp)
.L455:
.LVL773:
	.loc 52 59 17 view .LVU2235
.LBE2434:
.LBE2433:
.LBE2432:
	.loc 56 343 3 is_stmt 1 view .LVU2236
.LBB2440:
.LBI2440:
	.loc 16 105 8 view .LVU2237
.LBB2441:
.LBB2442:
.LBI2442:
	.loc 16 39 15 view .LVU2238
.LBB2443:
	.loc 16 41 5 is_stmt 0 view .LVU2239
	movq	$0, (%rbx)
.LVL774:
	.loc 16 41 5 view .LVU2240
.LBE2443:
.LBE2442:
	.loc 16 108 9 view .LVU2241
	movq	224(%rbp), %rax
	.loc 16 108 5 view .LVU2242
	testq	%rax, %rax
	je	.L456
.LVL775:
.LBB2444:
.LBI2444:
	.loc 16 39 15 is_stmt 1 view .LVU2243
.LBB2445:
	.loc 16 41 5 is_stmt 0 view .LVU2244
	movq	%rbx, (%rax)
.LVL776:
	.loc 16 41 5 view .LVU2245
.LBE2445:
.LBE2444:
	.loc 16 111 7 view .LVU2246
	movq	%rbx, 224(%rbp)
.L457:
.LVL777:
	.loc 16 111 7 view .LVU2247
.LBE2441:
.LBE2440:
	.loc 56 344 3 is_stmt 1 view .LVU2248
.LBB2447:
.LBI2447:
	.loc 56 599 6 view .LVU2249
.LBB2448:
.LBB2449:
.LBB2450:
	.loc 58 72 5 is_stmt 0 view .LVU2250
	movq	16(%rsp), %rcx
	cmpb	$0, 48(%rcx)
	jne	.L480
.LVL778:
.L458:
	.loc 58 72 5 view .LVU2251
.LBE2450:
.LBE2449:
	.loc 56 604 5 view .LVU2252
	cmpb	$0, 200(%rbp)
	jne	.L464
	.loc 56 604 31 view .LVU2253
	movq	168(%rbp), %rdi
	.loc 56 604 28 view .LVU2254
	testq	%rdi, %rdi
	je	.L464
	.loc 56 606 25 view .LVU2255
	movb	$1, 200(%rbp)
.LVL779:
.LBB2469:
.LBB2470:
	.loc 51 571 13 view .LVU2256
	movl	$-2147483639, 4(%rsp)
	.loc 51 572 17 view .LVU2257
	leaq	104(%rdi), %r8
	.loc 51 572 15 view .LVU2258
	movq	%r8, 8(%rsp)
.LVL780:
.LBB2471:
.LBB2472:
	.loc 59 50 12 view .LVU2259
	movl	104(%rdi), %edx
.LVL781:
	.loc 59 50 12 view .LVU2260
.LBE2472:
.LBE2471:
	.loc 51 573 12 view .LVU2261
	leaq	4(%rsp), %rcx
	movl	112(%rdi), %edi
.LVL782:
	.loc 51 573 12 view .LVU2262
	movl	$3, %esi
	call	epoll_ctl@PLT
.LVL783:
.L464:
	.loc 51 573 12 view .LVU2263
.LBE2470:
.LBE2469:
.LBB2473:
.LBB2474:
	.loc 52 82 7 view .LVU2264
	cmpb	$0, 24(%rsp)
	je	.L463
	.loc 52 84 9 view .LVU2265
	movq	16(%rsp), %r9
.LVL784:
.LBB2475:
.LBB2476:
	.loc 52 134 5 view .LVU2266
	cmpb	$0, 48(%r9)
	jne	.L481
.LVL785:
.L465:
	.loc 52 134 5 view .LVU2267
.LBE2476:
.LBE2475:
	.loc 52 85 17 view .LVU2268
	movb	$0, 24(%rsp)
.LVL786:
.L463:
	.loc 52 85 17 view .LVU2269
.LBE2474:
.LBE2473:
.LBE2448:
.LBE2447:
.LBB2486:
.LBI2486:
	.loc 52 63 5 is_stmt 1 view .LVU2270
.LBB2487:
	.loc 52 65 7 view .LVU2271
	cmpb	$0, 24(%rsp)
	jne	.L482
.LVL787:
.L453:
	.loc 52 65 7 is_stmt 0 view .LVU2272
.LBE2487:
.LBE2486:
.LBE2497:
.LBE2500:
	.loc 3 278 3 view .LVU2273
	movq	$0, 48(%rsp)
	movq	$0, 40(%rsp)
.LVL788:
.LBB2501:
.LBI2501:
	.loc 32 35 57 is_stmt 1 view .LVU2274
.LBB2502:
.LBI2502:
	.loc 32 35 528 view .LVU2275
.LBB2503:
.LBB2504:
	.loc 32 35 579 is_stmt 0 view .LVU2276
	movl	$0, %r12d
	.loc 32 35 575 view .LVU2277
	testq	%r12, %r12
	je	.L435
.LVL789:
.LBB2505:
.LBB2506:
.LBI2506:
	.loc 34 58 8 is_stmt 1 view .LVU2278
.LBB2507:
.LBI2507:
	.loc 27 106 17 view .LVU2279
.LBB2508:
.LBB2509:
.LBI2509:
	.loc 30 46 3 view .LVU2280
.LBB2510:
	.loc 30 48 12 is_stmt 0 view .LVU2281
	data16	leaq	_ZN5boost4asio6detail15keyword_tss_ptrINS1_10call_stackINS1_14thread_contextENS1_16thread_info_baseEE7contextEE6value_E@tlsgd(%rip), %rdi
	.value	0x6666
	rex64
	call	__tls_get_addr@PLT
.LVL790:
	movq	(%rax), %r10
.LVL791:
	.loc 30 48 12 view .LVU2282
.LBE2510:
.LBE2509:
	.loc 27 109 17 view .LVU2283
	testq	%r10, %r10
	je	.L470
	movq	8(%r10), %r10
.LVL792:
.L470:
	.loc 27 109 17 view .LVU2284
.LBE2508:
.LBE2507:
.LBB2511:
.LBI2511:
	.loc 35 98 15 is_stmt 1 view .LVU2285
.LBB2512:
.LBB2513:
	.loc 35 103 7 is_stmt 0 view .LVU2286
	testq	%r10, %r10
	je	.L471
	.loc 35 103 23 view .LVU2287
	cmpq	$0, (%r10)
	je	.L483
.L471:
	.loc 35 103 23 view .LVU2288
.LBE2513:
	.loc 35 112 22 view .LVU2289
	movq	%r12, %rdi
	call	_ZdlPv@PLT
.LVL793:
	.loc 35 112 22 view .LVU2290
	jmp	.L435
.LVL794:
.L479:
	.loc 35 112 22 view .LVU2291
.LBE2512:
.LBE2511:
.LBE2506:
.LBE2505:
.LBE2504:
.LBE2503:
.LBE2502:
.LBE2501:
.LBB2523:
.LBB2498:
.LBB2492:
.LBB2439:
.LBB2438:
	.loc 52 55 9 is_stmt 1 view .LVU2292
.LBB2436:
.LBI2436:
	.loc 53 50 8 view .LVU2293
.LBB2437:
	.loc 53 52 5 view .LVU2294
	.loc 53 52 31 is_stmt 0 view .LVU2295
	leaq	56(%rbp), %rdi
	call	pthread_mutex_lock@PLT
.LVL795:
	.loc 53 52 31 view .LVU2296
.LBE2437:
.LBE2436:
	.loc 52 56 9 is_stmt 1 view .LVU2297
	.loc 52 56 17 is_stmt 0 view .LVU2298
	movb	$1, 24(%rsp)
	jmp	.L455
.LVL796:
.L456:
	.loc 52 56 17 view .LVU2299
.LBE2438:
.LBE2439:
.LBE2492:
.LBB2493:
.LBB2446:
	.loc 16 115 7 view .LVU2300
	movq	%rbx, 224(%rbp)
	movq	%rbx, 216(%rbp)
	jmp	.L457
.LVL797:
.L480:
	.loc 16 115 7 view .LVU2301
.LBE2446:
.LBE2493:
.LBB2494:
.LBB2485:
.LBB2482:
.LBB2467:
	.loc 58 73 48 view .LVU2302
	leaq	112(%rbp), %r12
.LVL798:
.LBB2451:
.LBI2451:
	.loc 60 76 8 is_stmt 1 view .LVU2303
.LBB2452:
.LBB2453:
.LBI2453:
	.loc 52 90 10 view .LVU2304
.LBB2454:
	.loc 52 92 7 view .LVU2305
	.loc 52 92 14 is_stmt 0 view .LVU2306
	movzbl	24(%rsp), %ebx
.LVL799:
	.loc 52 92 14 view .LVU2307
.LBE2454:
.LBE2453:
	.loc 60 78 41 view .LVU2308
	testb	%bl, %bl
	je	.L484
	.loc 60 79 12 view .LVU2309
	movq	48(%r12), %rdx
	orq	$1, %rdx
	.loc 60 79 5 view .LVU2310
	movq	%rdx, 48(%r12)
	.loc 60 80 5 view .LVU2311
	cmpq	$1, %rdx
	ja	.L485
.LBE2452:
	.loc 60 86 12 view .LVU2312
	movl	$0, %ebx
.L460:
.LVL800:
	.loc 60 86 12 view .LVU2313
.LBE2451:
.LBE2467:
.LBE2482:
	.loc 56 602 3 view .LVU2314
	testb	%bl, %bl
	jne	.L463
	jmp	.L458
.LVL801:
.L484:
.LBB2483:
.LBB2468:
.LBB2466:
.LBB2465:
	.loc 60 78 68 view .LVU2315
	leaq	.LC6(%rip), %rcx
	movl	$78, %edx
	leaq	.LC7(%rip), %rsi
	leaq	.LC8(%rip), %rdi
	call	__assert_fail@PLT
.LVL802:
.L485:
.LBB2455:
.LBI2455:
	.loc 52 80 10 is_stmt 1 view .LVU2316
.LBB2456:
	.loc 52 82 7 view .LVU2317
	cmpb	$0, 24(%rsp)
	je	.L461
	.loc 52 84 9 view .LVU2318
	movq	16(%rsp), %rsi
.LVL803:
.LBB2457:
.LBI2457:
	.loc 52 132 8 view .LVU2319
.LBB2458:
	.loc 52 134 5 view .LVU2320
	cmpb	$0, 48(%rsi)
	jne	.L486
.LVL804:
.L462:
	.loc 52 134 5 is_stmt 0 view .LVU2321
.LBE2458:
.LBE2457:
	.loc 52 85 9 is_stmt 1 view .LVU2322
	.loc 52 85 17 is_stmt 0 view .LVU2323
	movb	$0, 24(%rsp)
.L461:
.LVL805:
	.loc 52 85 17 view .LVU2324
.LBE2456:
.LBE2455:
	.loc 60 83 28 view .LVU2325
	movq	%r12, %rdi
	call	pthread_cond_signal@PLT
.LVL806:
	jmp	.L460
.LVL807:
.L486:
.LBB2464:
.LBB2463:
.LBB2462:
.LBB2461:
	.loc 52 135 7 is_stmt 1 view .LVU2326
.LBB2459:
.LBI2459:
	.loc 53 56 8 view .LVU2327
.LBB2460:
	.loc 53 58 5 view .LVU2328
	.loc 53 58 33 is_stmt 0 view .LVU2329
	leaq	8(%rsi), %rdi
.LVL808:
	.loc 53 58 33 view .LVU2330
	call	pthread_mutex_unlock@PLT
.LVL809:
	.loc 53 58 33 view .LVU2331
	jmp	.L462
.LVL810:
.L481:
	.loc 53 58 33 view .LVU2332
.LBE2460:
.LBE2459:
.LBE2461:
.LBE2462:
.LBE2463:
.LBE2464:
.LBE2465:
.LBE2466:
.LBE2468:
.LBE2483:
.LBB2484:
.LBB2481:
.LBB2480:
.LBB2479:
.LBB2477:
.LBB2478:
	leaq	8(%r9), %rdi
.LVL811:
	.loc 53 58 33 view .LVU2333
	call	pthread_mutex_unlock@PLT
.LVL812:
	.loc 53 58 33 view .LVU2334
	jmp	.L465
.LVL813:
.L482:
	.loc 53 58 33 view .LVU2335
.LBE2478:
.LBE2477:
.LBE2479:
.LBE2480:
.LBE2481:
.LBE2484:
.LBE2485:
.LBE2494:
.LBB2495:
.LBB2491:
	.loc 52 66 9 is_stmt 1 view .LVU2336
.LBB2488:
.LBI2488:
	.loc 53 56 8 view .LVU2337
.LBB2489:
	.loc 53 58 5 view .LVU2338
	.loc 53 58 33 is_stmt 0 view .LVU2339
	movq	16(%rsp), %rbp
.LVL814:
	.loc 53 58 33 view .LVU2340
	leaq	8(%rbp), %rdi
.LVL815:
	.loc 53 58 33 view .LVU2341
	call	pthread_mutex_unlock@PLT
.LVL816:
	.loc 53 58 33 view .LVU2342
.LBE2489:
.LBE2488:
.LBB2490:
.LBI2490:
	.loc 38 30 3 is_stmt 1 view .LVU2343
	.loc 38 30 3 is_stmt 0 view .LVU2344
	jmp	.L453
.LVL817:
.L483:
	.loc 38 30 3 view .LVU2345
.LBE2490:
.LBE2491:
.LBE2495:
.LBE2498:
.LBE2523:
.LBB2524:
.LBB2522:
.LBB2521:
.LBB2520:
.LBB2519:
.LBB2518:
.LBB2517:
.LBB2516:
.LBB2515:
.LBB2514:
	.loc 35 106 16 view .LVU2346
	movzbl	40(%r12), %edx
	.loc 35 106 9 view .LVU2347
	movb	%dl, (%r12)
.LVL818:
	.loc 35 107 9 view .LVU2348
	movq	%r12, (%r10)
	jmp	.L435
.LVL819:
.L475:
	.loc 35 107 9 view .LVU2349
	movq	%rax, %rdi
.LVL820:
	.loc 35 107 9 view .LVU2350
.LBE2514:
.LBE2515:
.LBE2516:
.LBE2517:
.LBE2518:
.LBE2519:
.LBE2520:
.LBE2521:
.LBE2522:
.LBE2524:
.LBB2525:
.LBB2387:
.LBB2379:
.LBI2379:
	.loc 36 50 3 is_stmt 1 view .LVU2351
.LBE2379:
.LBE2387:
.LBE2525:
	.loc 36 52 5 view .LVU2352
.LBB2526:
.LBB2388:
.LBB2383:
.LBB2380:
.LBI2380:
	.loc 37 120 3 view .LVU2353
.LBB2381:
	.loc 37 121 5 view .LVU2354
	.loc 37 121 26 is_stmt 0 view .LVU2355
.LVL821:
	.loc 37 121 26 view .LVU2356
.LBE2381:
.LBE2380:
.LBB2382:
.LBI2382:
	.loc 38 30 3 is_stmt 1 view .LVU2357
	.loc 38 30 3 is_stmt 0 view .LVU2358
	call	_Unwind_Resume@PLT
.LVL822:
.LEHE12:
.LBE2382:
.LBE2383:
.LBE2388:
.LBE2526:
	.cfi_endproc
.LFE68:
	.section	.gcc_except_table
.LLSDA68:
	.byte	0xff
	.byte	0xff
	.byte	0x1
	.uleb128 .LLSDACSE68-.LLSDACSB68
.LLSDACSB68:
	.uleb128 .LEHB11-.LFB68
	.uleb128 .LEHE11-.LEHB11
	.uleb128 .L475-.LFB68
	.uleb128 0
	.uleb128 .LEHB12-.LFB68
	.uleb128 .LEHE12-.LEHB12
	.uleb128 0
	.uleb128 0
.LLSDACSE68:
	.text
	.size	_ZNK5boost4asio10io_context13executor_type8dispatchINS0_8executor8functionESaIvEEEvOT_RKT0_, .-_ZNK5boost4asio10io_context13executor_type8dispatchINS0_8executor8functionESaIvEEEvOT_RKT0_
	.align 2
	.type	_ZN5boost4asio8executor4implINS0_10io_context13executor_typeESaIvEE8dispatchEONS1_8functionE, @function
_ZN5boost4asio8executor4implINS0_10io_context13executor_typeESaIvEE8dispatchEONS1_8functionE:
.LVL823:
.LFB69:
	.loc 1 182 8 is_stmt 1 view -0
	.cfi_startproc
	.loc 1 182 8 is_stmt 0 view .LVU2360
	subq	$8, %rsp
	.cfi_def_cfa_offset 16
	.loc 1 184 52 is_stmt 1 view .LVU2361
	leaq	32(%rdi), %rdx
	.loc 1 184 5 view .LVU2362
	addq	$24, %rdi
.LVL824:
	.loc 1 184 5 is_stmt 0 view .LVU2363
	call	_ZNK5boost4asio10io_context13executor_type8dispatchINS0_8executor8functionESaIvEEEvOT_RKT0_
.LVL825:
	.loc 1 185 3 is_stmt 1 view .LVU2364
	addq	$8, %rsp
	.cfi_def_cfa_offset 8
	ret
	.cfi_endproc
.LFE69:
	.size	_ZN5boost4asio8executor4implINS0_10io_context13executor_typeESaIvEE8dispatchEONS1_8functionE, .-_ZN5boost4asio8executor4implINS0_10io_context13executor_typeESaIvEE8dispatchEONS1_8functionE
	.align 2
	.type	_ZN5boost4asio8executorC2INS0_10io_context13executor_typeEEET_, @function
_ZN5boost4asio8executorC2INS0_10io_context13executor_typeEEET_:
.LVL826:
.LFB70:
	.loc 1 332 1 view -0
	.cfi_startproc
	.loc 1 332 1 is_stmt 0 view .LVU2366
	pushq	%rbp
	.cfi_def_cfa_offset 16
	.cfi_offset 6, -16
	pushq	%rbx
	.cfi_def_cfa_offset 24
	.cfi_offset 3, -24
	subq	$8, %rsp
	.cfi_def_cfa_offset 32
	movq	%rdi, %rbx
	movq	%rsi, %rbp
.LVL827:
.LBB2527:
.LBB2528:
.LBI2528:
	.loc 1 134 21 is_stmt 1 view .LVU2367
.LBB2529:
.LBB2530:
.LBI2530:
	.loc 1 231 14 view .LVU2368
.LBB2531:
.LBI2531:
	.loc 50 151 2 view .LVU2369
.LBB2532:
.LBI2532:
	.loc 47 80 7 view .LVU2370
	.loc 47 80 7 is_stmt 0 view .LVU2371
.LBE2532:
.LBE2531:
.LBB2533:
.LBI2533:
	.loc 47 102 7 is_stmt 1 view .LVU2372
.LBB2534:
	.loc 47 114 41 is_stmt 0 view .LVU2373
	movl	$40, %edi
.LVL828:
	.loc 47 114 41 view .LVU2374
	call	_Znwm@PLT
.LVL829:
	.loc 47 114 41 view .LVU2375
.LBE2534:
.LBE2533:
.LBE2530:
.LBE2529:
.LBE2528:
.LBE2527:
	.loc 62 174 3 is_stmt 1 view .LVU2376
.LBB2546:
.LBB2545:
.LBB2544:
.LBB2535:
.LBI2535:
	.loc 1 142 3 view .LVU2377
.LBB2536:
.LBB2537:
.LBI2537:
	.loc 2 295 5 view .LVU2378
.LBB2538:
	.loc 2 295 65 is_stmt 0 view .LVU2379
	movb	$0, 8(%rax)
.LVL830:
	.loc 2 295 65 view .LVU2380
.LBE2538:
.LBE2537:
	.loc 1 146 19 view .LVU2381
	leaq	16+_ZTVN5boost4asio8executor4implINS0_10io_context13executor_typeESaIvEEE(%rip), %rdx
	movq	%rdx, (%rax)
.LVL831:
.LBB2539:
.LBI2539:
	.file 63 "/usr/include/c++/9/atomic"
	.loc 63 805 17 is_stmt 1 view .LVU2382
.LBB2540:
.LBI2540:
	.loc 37 279 17 view .LVU2383
.LBB2541:
	.loc 37 279 67 is_stmt 0 view .LVU2384
	movq	$1, 16(%rax)
.LVL832:
	.loc 37 279 67 view .LVU2385
.LBE2541:
.LBE2540:
.LBE2539:
	.loc 1 146 19 view .LVU2386
	movq	%rbp, 24(%rax)
.LVL833:
	.loc 1 146 19 view .LVU2387
.LBE2536:
.LBE2535:
.LBB2542:
.LBI2542:
	.loc 1 237 5 is_stmt 1 view .LVU2388
.LBB2543:
.LBI2543:
	.loc 50 153 7 view .LVU2389
	.loc 50 153 7 is_stmt 0 view .LVU2390
.LBE2543:
.LBE2542:
.LBE2544:
.LBE2545:
	.loc 1 333 59 view .LVU2391
	movq	%rax, (%rbx)
.LBE2546:
	.loc 1 335 1 view .LVU2392
	addq	$8, %rsp
	.cfi_def_cfa_offset 24
	popq	%rbx
	.cfi_def_cfa_offset 16
.LVL834:
	.loc 1 335 1 view .LVU2393
	popq	%rbp
	.cfi_def_cfa_offset 8
.LVL835:
	.loc 1 335 1 view .LVU2394
	ret
	.cfi_endproc
.LFE70:
	.size	_ZN5boost4asio8executorC2INS0_10io_context13executor_typeEEET_, .-_ZN5boost4asio8executorC2INS0_10io_context13executor_typeEEET_
	.set	_ZN5boost4asio8executorC1INS0_10io_context13executor_typeEEET_,_ZN5boost4asio8executorC2INS0_10io_context13executor_typeEEET_
	.align 2
	.type	_ZN5boost4asio6detail12posix_thread4funcINS1_9scheduler15thread_functionEED0Ev, @function
_ZN5boost4asio6detail12posix_thread4funcINS1_9scheduler15thread_functionEED0Ev:
.LVL836:
.LFB71:
	.loc 6 75 9 is_stmt 1 view -0
	.cfi_startproc
	.loc 6 75 9 is_stmt 0 view .LVU2396
	subq	$8, %rsp
	.cfi_def_cfa_offset 16
.LVL837:
.LBB2547:
.LBI2547:
	.loc 6 75 9 is_stmt 1 view .LVU2397
.LBB2548:
.LBI2548:
	.loc 6 64 13 view .LVU2398
	.loc 6 64 13 is_stmt 0 view .LVU2399
.LBE2548:
.LBE2547:
	.loc 6 75 9 view .LVU2400
	movl	$16, %esi
	call	_ZdlPvm@PLT
.LVL838:
	.loc 6 75 9 view .LVU2401
	addq	$8, %rsp
	.cfi_def_cfa_offset 8
	ret
	.cfi_endproc
.LFE71:
	.size	_ZN5boost4asio6detail12posix_thread4funcINS1_9scheduler15thread_functionEED0Ev, .-_ZN5boost4asio6detail12posix_thread4funcINS1_9scheduler15thread_functionEED0Ev
	.align 2
	.type	_ZN5boost4asio8executor4implINS0_10io_context13executor_typeESaIvEED0Ev, @function
_ZN5boost4asio8executor4implINS0_10io_context13executor_typeESaIvEED0Ev:
.LVL839:
.LFB72:
	.loc 1 128 17 is_stmt 1 view -0
	.cfi_startproc
	.loc 1 128 17 is_stmt 0 view .LVU2403
	subq	$8, %rsp
	.cfi_def_cfa_offset 16
.LVL840:
.LBB2549:
.LBI2549:
	.loc 1 128 17 is_stmt 1 view .LVU2404
.LBB2550:
.LBI2550:
	.loc 2 296 13 view .LVU2405
	.loc 2 296 13 is_stmt 0 view .LVU2406
.LBE2550:
.LBE2549:
	.loc 1 128 17 view .LVU2407
	movl	$40, %esi
	call	_ZdlPvm@PLT
.LVL841:
	.loc 1 128 17 view .LVU2408
	addq	$8, %rsp
	.cfi_def_cfa_offset 8
	ret
	.cfi_endproc
.LFE72:
	.size	_ZN5boost4asio8executor4implINS0_10io_context13executor_typeESaIvEED0Ev, .-_ZN5boost4asio8executor4implINS0_10io_context13executor_typeESaIvEED0Ev
	.type	_ZN5boost4asio6detail18signal_set_service12pipe_read_op11do_completeEPvPNS1_19scheduler_operationERKNS_6system10error_codeEm, @function
_ZN5boost4asio6detail18signal_set_service12pipe_read_op11do_completeEPvPNS1_19scheduler_operationERKNS_6system10error_codeEm:
.LVL842:
.LFB73:
	.file 64 "/usr/local/include/boost/asio/detail/impl/signal_set_service.ipp"
	.loc 64 110 15 is_stmt 1 view -0
	.cfi_startproc
	.loc 64 114 5 view .LVU2410
	.loc 64 115 5 view .LVU2411
	.loc 64 115 13 is_stmt 0 view .LVU2412
	testq	%rsi, %rsi
	je	.L498
	.loc 64 110 15 view .LVU2413
	subq	$8, %rsp
	.cfi_def_cfa_offset 16
	movq	%rsi, %rdi
.LVL843:
.LBB2551:
.LBI2551:
	.loc 64 89 27 is_stmt 1 view .LVU2414
.LBB2552:
.LBI2552:
	.loc 61 27 7 view .LVU2415
.LBB2553:
.LBI2553:
	.loc 17 61 3 view .LVU2416
	.loc 17 61 3 is_stmt 0 view .LVU2417
.LBE2553:
.LBE2552:
.LBE2551:
	.loc 64 115 12 view .LVU2418
	movl	$56, %esi
.LVL844:
	.loc 64 115 12 view .LVU2419
	call	_ZdlPvm@PLT
.LVL845:
	.loc 64 116 3 view .LVU2420
	addq	$8, %rsp
	.cfi_def_cfa_offset 8
	ret
.LVL846:
.L498:
	.loc 64 116 3 view .LVU2421
	ret
	.cfi_endproc
.LFE73:
	.size	_ZN5boost4asio6detail18signal_set_service12pipe_read_op11do_completeEPvPNS1_19scheduler_operationERKNS_6system10error_codeEm, .-_ZN5boost4asio6detail18signal_set_service12pipe_read_op11do_completeEPvPNS1_19scheduler_operationERKNS_6system10error_codeEm
	.align 2
	.type	_ZN5boost4asio17execution_contextD2Ev, @function
_ZN5boost4asio17execution_contextD2Ev:
.LVL847:
.LFB74:
	.loc 21 32 1 is_stmt 1 view -0
	.cfi_startproc
	.cfi_personality 0x9b,DW.ref.__gxx_personality_v0
	.cfi_lsda 0x1b,.LLSDA74
	.loc 21 32 1 is_stmt 0 view .LVU2423
	pushq	%r12
	.cfi_def_cfa_offset 16
	.cfi_offset 12, -16
	pushq	%rbp
	.cfi_def_cfa_offset 24
	.cfi_offset 6, -24
	pushq	%rbx
	.cfi_def_cfa_offset 32
	.cfi_offset 3, -32
	movq	%rdi, %r12
.LBB2573:
	.loc 21 34 3 is_stmt 1 view .LVU2424
.LVL848:
.LBB2574:
.LBI2574:
	.loc 21 39 6 view .LVU2425
.LBB2575:
	.loc 21 41 3 view .LVU2426
	movq	(%rdi), %rax
.LVL849:
.LBB2576:
.LBI2576:
	.file 65 "/usr/local/include/boost/asio/detail/impl/service_registry.ipp"
	.loc 65 39 6 view .LVU2427
.LBB2577:
	.loc 65 41 3 view .LVU2428
	.loc 65 41 31 is_stmt 0 view .LVU2429
	movq	56(%rax), %rbx
.LVL850:
.L503:
	.loc 65 42 3 is_stmt 1 view .LVU2430
	.loc 65 42 10 view .LVU2431
	testq	%rbx, %rbx
	je	.L502
	.loc 65 44 5 view .LVU2432
	.loc 65 44 23 is_stmt 0 view .LVU2433
	movq	(%rbx), %rdx
	.loc 65 44 22 view .LVU2434
	movq	%rbx, %rdi
	call	*16(%rdx)
.LVL851:
	.loc 65 45 5 is_stmt 1 view .LVU2435
	.loc 65 45 13 is_stmt 0 view .LVU2436
	movq	32(%rbx), %rbx
.LVL852:
	.loc 65 45 13 view .LVU2437
	jmp	.L503
.L502:
.LVL853:
	.loc 65 45 13 view .LVU2438
.LBE2577:
.LBE2576:
.LBE2575:
.LBE2574:
	.loc 21 35 3 is_stmt 1 view .LVU2439
.LBB2578:
.LBI2578:
	.loc 21 44 6 view .LVU2440
.LBB2579:
	.loc 21 46 3 view .LVU2441
	movq	(%r12), %rbx
.LVL854:
.LBB2580:
.LBI2580:
	.loc 65 49 6 view .LVU2442
.L505:
.LBB2581:
	.loc 65 51 3 view .LVU2443
	.loc 65 51 10 view .LVU2444
	movq	56(%rbx), %rdi
	testq	%rdi, %rdi
	je	.L504
.LBB2582:
	.loc 65 53 5 view .LVU2445
	.loc 65 53 33 is_stmt 0 view .LVU2446
	movq	32(%rdi), %rbp
.LVL855:
	.loc 65 54 5 is_stmt 1 view .LVU2447
.LBB2583:
.LBI2583:
	.loc 65 108 6 view .LVU2448
.LBB2584:
	.loc 65 110 3 view .LVU2449
	.loc 65 110 10 is_stmt 0 view .LVU2450
	movq	(%rdi), %rcx
	call	*8(%rcx)
.LVL856:
	.loc 65 110 10 view .LVU2451
.LBE2584:
.LBE2583:
	.loc 65 55 5 is_stmt 1 view .LVU2452
	.loc 65 55 20 is_stmt 0 view .LVU2453
	movq	%rbp, 56(%rbx)
	jmp	.L505
.LVL857:
.L504:
	.loc 65 55 20 view .LVU2454
.LBE2582:
.LBE2581:
.LBE2580:
.LBE2579:
.LBE2578:
	.loc 21 36 3 is_stmt 1 view .LVU2455
	.loc 21 36 10 is_stmt 0 view .LVU2456
	movq	(%r12), %r12
.LVL858:
	.loc 21 36 27 view .LVU2457
	testq	%r12, %r12
	je	.L501
.LVL859:
.LBB2585:
.LBI2585:
	.loc 65 35 1 is_stmt 1 view .LVU2458
.LBB2586:
.LBI2586:
	.loc 53 44 3 view .LVU2459
.LBB2587:
	.loc 53 46 5 view .LVU2460
	.loc 53 46 28 is_stmt 0 view .LVU2461
	leaq	8(%r12), %rdi
.LVL860:
	.loc 53 46 28 view .LVU2462
	call	pthread_mutex_destroy@PLT
.LVL861:
.LBB2588:
.LBI2588:
	.loc 38 30 3 is_stmt 1 view .LVU2463
	.loc 38 30 3 is_stmt 0 view .LVU2464
.LBE2588:
.LBE2587:
.LBE2586:
.LBB2589:
.LBI2589:
	.loc 38 30 3 is_stmt 1 view .LVU2465
	.loc 38 30 3 is_stmt 0 view .LVU2466
.LBE2589:
.LBE2585:
	.loc 21 36 10 view .LVU2467
	movl	$64, %esi
	movq	%r12, %rdi
	call	_ZdlPvm@PLT
.LVL862:
.LBB2590:
.LBI2590:
	.loc 38 30 3 is_stmt 1 view .LVU2468
.L501:
	.loc 38 30 3 is_stmt 0 view .LVU2469
.LBE2590:
.LBE2573:
	.loc 21 37 1 view .LVU2470
	popq	%rbx
	.cfi_def_cfa_offset 24
	popq	%rbp
	.cfi_def_cfa_offset 16
	popq	%r12
	.cfi_def_cfa_offset 8
	ret
	.cfi_endproc
.LFE74:
	.section	.gcc_except_table
.LLSDA74:
	.byte	0xff
	.byte	0xff
	.byte	0x1
	.uleb128 .LLSDACSE74-.LLSDACSB74
.LLSDACSB74:
.LLSDACSE74:
	.text
	.size	_ZN5boost4asio17execution_contextD2Ev, .-_ZN5boost4asio17execution_contextD2Ev
	.section	.rodata.str1.8
	.align 8
.LC9:
	.string	"void boost::asio::detail::posix_event::signal_all(Lock&) [with Lock = boost::asio::detail::conditionally_enabled_mutex::scoped_lock]"
	.text
	.align 2
	.type	_ZN5boost4asio6detail9scheduler8shutdownEv, @function
_ZN5boost4asio6detail9scheduler8shutdownEv:
.LVL863:
.LFB76:
	.loc 56 145 1 is_stmt 1 view -0
	.cfi_startproc
	.cfi_personality 0x9b,DW.ref.__gcc_personality_v0
	.cfi_lsda 0x1b,.LLSDA76
	.loc 56 145 1 is_stmt 0 view .LVU2472
	pushq	%rbp
	.cfi_def_cfa_offset 16
	.cfi_offset 6, -16
	pushq	%rbx
	.cfi_def_cfa_offset 24
	.cfi_offset 3, -24
	subq	$56, %rsp
	.cfi_def_cfa_offset 80
	movq	%rdi, %rbx
	.loc 56 146 3 is_stmt 1 view .LVU2473
	.loc 56 146 27 is_stmt 0 view .LVU2474
	leaq	48(%rdi), %rax
.LVL864:
.LBB2644:
.LBI2644:
	.loc 52 50 14 is_stmt 1 view .LVU2475
.LBB2645:
.LBB2646:
.LBB2647:
.LBI2647:
	.loc 38 29 3 view .LVU2476
	.loc 38 29 3 is_stmt 0 view .LVU2477
.LBE2647:
	.loc 52 51 17 view .LVU2478
	movq	%rax, 16(%rsp)
	.loc 52 53 7 is_stmt 1 view .LVU2479
	cmpb	$0, 96(%rdi)
	jne	.L531
	.loc 52 59 9 view .LVU2480
	.loc 52 59 17 is_stmt 0 view .LVU2481
	movb	$0, 24(%rsp)
.LVL865:
.L510:
	.loc 52 59 17 view .LVU2482
.LBE2646:
.LBE2645:
.LBE2644:
	.loc 56 147 3 is_stmt 1 view .LVU2483
	.loc 56 147 13 is_stmt 0 view .LVU2484
	movb	$1, 233(%rbx)
	.loc 56 148 3 is_stmt 1 view .LVU2485
	cmpq	$0, 240(%rbx)
	je	.L511
	.loc 56 149 5 view .LVU2486
.LVL866:
.LBB2652:
.LBI2652:
	.loc 56 586 6 view .LVU2487
.LBB2653:
	.loc 56 589 3 view .LVU2488
	.loc 56 589 12 is_stmt 0 view .LVU2489
	movb	$1, 232(%rbx)
	.loc 56 590 3 is_stmt 1 view .LVU2490
.LVL867:
.LBB2654:
.LBI2654:
	.loc 58 54 8 view .LVU2491
.LBB2655:
	.loc 58 56 5 view .LVU2492
	movq	16(%rsp), %rdx
	cmpb	$0, 48(%rdx)
	jne	.L532
.L512:
.LVL868:
	.loc 58 56 5 is_stmt 0 view .LVU2493
.LBE2655:
.LBE2654:
	.loc 56 592 3 is_stmt 1 view .LVU2494
	cmpb	$0, 200(%rbx)
	jne	.L511
	.loc 56 592 29 is_stmt 0 view .LVU2495
	movq	168(%rbx), %rsi
	.loc 56 592 26 view .LVU2496
	testq	%rsi, %rsi
	je	.L511
	.loc 56 594 5 is_stmt 1 view .LVU2497
	.loc 56 594 23 is_stmt 0 view .LVU2498
	movb	$1, 200(%rbx)
	.loc 56 595 5 is_stmt 1 view .LVU2499
.LVL869:
.LBB2661:
.LBI2661:
	.loc 51 568 6 view .LVU2500
.LBB2662:
	.loc 51 570 3 view .LVU2501
	.loc 51 571 3 view .LVU2502
	.loc 51 571 13 is_stmt 0 view .LVU2503
	movl	$-2147483639, 4(%rsp)
	.loc 51 572 3 is_stmt 1 view .LVU2504
	.loc 51 572 17 is_stmt 0 view .LVU2505
	leaq	104(%rsi), %rdi
	.loc 51 572 15 view .LVU2506
	movq	%rdi, 8(%rsp)
	.loc 51 573 3 is_stmt 1 view .LVU2507
.LVL870:
.LBB2663:
.LBI2663:
	.loc 59 48 7 view .LVU2508
.LBB2664:
	.loc 59 50 5 view .LVU2509
	.loc 59 50 12 is_stmt 0 view .LVU2510
	movl	104(%rsi), %edx
.LVL871:
	.loc 59 50 12 view .LVU2511
.LBE2664:
.LBE2663:
	.loc 51 573 12 view .LVU2512
	leaq	4(%rsp), %rcx
	movl	112(%rsi), %edi
	movl	$3, %esi
.LVL872:
	.loc 51 573 12 view .LVU2513
	call	epoll_ctl@PLT
.LVL873:
.L511:
	.loc 51 573 12 view .LVU2514
.LBE2662:
.LBE2661:
.LBE2653:
.LBE2652:
	.loc 56 150 3 is_stmt 1 view .LVU2515
.LBB2667:
.LBI2667:
	.loc 52 80 10 view .LVU2516
.LBB2668:
	.loc 52 82 7 view .LVU2517
	cmpb	$0, 24(%rsp)
	je	.L515
	.loc 52 84 9 view .LVU2518
	movq	16(%rsp), %rbp
.LVL874:
.LBB2669:
.LBI2669:
	.loc 52 132 8 view .LVU2519
.LBB2670:
	.loc 52 134 5 view .LVU2520
	cmpb	$0, 48(%rbp)
	jne	.L533
.L516:
.LVL875:
	.loc 52 134 5 is_stmt 0 view .LVU2521
.LBE2670:
.LBE2669:
	.loc 52 85 9 is_stmt 1 view .LVU2522
	.loc 52 85 17 is_stmt 0 view .LVU2523
	movb	$0, 24(%rsp)
.L515:
.LVL876:
	.loc 52 85 17 view .LVU2524
.LBE2668:
.LBE2667:
	.loc 56 153 3 is_stmt 1 view .LVU2525
	.loc 56 153 7 is_stmt 0 view .LVU2526
	movq	240(%rbx), %rbp
	.loc 56 153 3 view .LVU2527
	testq	%rbp, %rbp
	je	.L517
	.loc 56 155 5 is_stmt 1 view .LVU2528
.LVL877:
.LBB2676:
.LBI2676:
	.loc 20 38 6 view .LVU2529
.LBB2677:
	.loc 20 40 3 view .LVU2530
	cmpb	$0, 8(%rbp)
	je	.L534
.L518:
.LVL878:
	.loc 20 40 3 is_stmt 0 view .LVU2531
.LBE2677:
.LBE2676:
	.loc 56 156 5 is_stmt 1 view .LVU2532
	.loc 56 156 12 is_stmt 0 view .LVU2533
	movq	240(%rbx), %rbp
	.loc 56 156 19 view .LVU2534
	testq	%rbp, %rbp
	je	.L519
.LVL879:
.LBB2679:
.LBI2679:
	.loc 20 32 1 is_stmt 1 view .LVU2535
.LBB2680:
	.loc 20 34 3 view .LVU2536
	cmpb	$0, 8(%rbp)
	je	.L535
.L520:
.LVL880:
.LBB2681:
.LBI2681:
	.loc 38 30 3 view .LVU2537
	.loc 38 30 3 is_stmt 0 view .LVU2538
.LBE2681:
.LBE2680:
.LBE2679:
	.loc 56 156 12 view .LVU2539
	movl	$16, %esi
	movq	%rbp, %rdi
	call	_ZdlPvm@PLT
.LVL881:
.L519:
	.loc 56 157 5 is_stmt 1 view .LVU2540
	.loc 56 157 13 is_stmt 0 view .LVU2541
	movq	$0, 240(%rbx)
.L517:
.LBB2683:
	.loc 56 165 11 view .LVU2542
	leaq	176(%rbx), %rbp
	jmp	.L523
.LVL882:
.L531:
	.loc 56 165 11 view .LVU2543
.LBE2683:
.LBB2697:
.LBB2651:
.LBB2650:
	.loc 52 55 9 is_stmt 1 view .LVU2544
.LBB2648:
.LBI2648:
	.loc 53 50 8 view .LVU2545
.LBB2649:
	.loc 53 52 5 view .LVU2546
	.loc 53 52 31 is_stmt 0 view .LVU2547
	leaq	56(%rdi), %rdi
	call	pthread_mutex_lock@PLT
.LVL883:
	.loc 53 52 31 view .LVU2548
.LBE2649:
.LBE2648:
	.loc 52 56 9 is_stmt 1 view .LVU2549
	.loc 52 56 17 is_stmt 0 view .LVU2550
	movb	$1, 24(%rsp)
	jmp	.L510
.LVL884:
.L532:
	.loc 52 56 17 view .LVU2551
.LBE2650:
.LBE2651:
.LBE2697:
.LBB2698:
.LBB2666:
.LBB2665:
.LBB2660:
	.loc 58 57 7 is_stmt 1 view .LVU2552
	.loc 58 57 24 is_stmt 0 view .LVU2553
	leaq	112(%rbx), %rdi
.LVL885:
.LBB2656:
.LBI2656:
	.loc 60 54 8 is_stmt 1 view .LVU2554
.LBB2657:
.LBB2658:
.LBI2658:
	.loc 52 90 10 view .LVU2555
.LBB2659:
	.loc 52 92 7 view .LVU2556
	.loc 52 92 7 is_stmt 0 view .LVU2557
.LBE2659:
.LBE2658:
	.loc 60 56 41 view .LVU2558
	cmpb	$0, 24(%rsp)
	je	.L536
	.loc 60 58 12 view .LVU2559
	movq	48(%rdi), %rcx
	orq	$1, %rcx
	.loc 60 58 5 view .LVU2560
	movq	%rcx, 48(%rdi)
	.loc 60 59 29 view .LVU2561
	call	pthread_cond_broadcast@PLT
.LVL886:
	.loc 60 59 29 view .LVU2562
	jmp	.L512
.LVL887:
.L536:
	.loc 60 56 68 view .LVU2563
	leaq	.LC9(%rip), %rcx
	movl	$56, %edx
	leaq	.LC7(%rip), %rsi
	leaq	.LC8(%rip), %rdi
.LVL888:
	.loc 60 56 68 view .LVU2564
	call	__assert_fail@PLT
.LVL889:
.L533:
	.loc 60 56 68 view .LVU2565
.LBE2657:
.LBE2656:
.LBE2660:
.LBE2665:
.LBE2666:
.LBE2698:
.LBB2699:
.LBB2675:
.LBB2674:
.LBB2673:
	.loc 52 135 7 is_stmt 1 view .LVU2566
.LBB2671:
.LBI2671:
	.loc 53 56 8 view .LVU2567
.LBB2672:
	.loc 53 58 5 view .LVU2568
	.loc 53 58 33 is_stmt 0 view .LVU2569
	leaq	8(%rbp), %rdi
.LVL890:
	.loc 53 58 33 view .LVU2570
	call	pthread_mutex_unlock@PLT
.LVL891:
	.loc 53 58 33 view .LVU2571
	jmp	.L516
.LVL892:
.L534:
	.loc 53 58 33 view .LVU2572
.LBE2672:
.LBE2671:
.LBE2673:
.LBE2674:
.LBE2675:
.LBE2699:
.LBB2700:
.LBB2678:
	.loc 20 42 5 is_stmt 1 view .LVU2573
	.loc 20 42 19 is_stmt 0 view .LVU2574
	movl	$0, %esi
	movq	0(%rbp), %rdi
.LEHB13:
	call	pthread_join@PLT
.LVL893:
	.loc 20 43 5 is_stmt 1 view .LVU2575
	.loc 20 43 13 is_stmt 0 view .LVU2576
	movb	$1, 8(%rbp)
	jmp	.L518
.LVL894:
.L535:
	.loc 20 43 13 view .LVU2577
.LBE2678:
.LBE2700:
.LBB2701:
.LBB2682:
	.loc 20 35 5 is_stmt 1 view .LVU2578
	.loc 20 35 21 is_stmt 0 view .LVU2579
	movq	0(%rbp), %rdi
	call	pthread_detach@PLT
.LVL895:
	jmp	.L520
.LVL896:
.L538:
	.loc 20 35 21 view .LVU2580
.LBE2682:
.LBE2701:
.LBB2702:
.LBB2684:
.LBB2685:
	.loc 16 99 9 view .LVU2581
	movq	$0, 224(%rbx)
.L522:
.LVL897:
.LBB2686:
.LBI2686:
	.loc 16 39 15 is_stmt 1 view .LVU2582
.LBB2687:
	.loc 16 41 5 is_stmt 0 view .LVU2583
	movq	$0, (%rsi)
.LVL898:
	.loc 16 41 5 view .LVU2584
.LBE2687:
.LBE2686:
.LBE2685:
.LBE2684:
	.loc 56 165 5 is_stmt 1 view .LVU2585
	cmpq	%rsi, %rbp
	jne	.L537
.LVL899:
.L523:
	.loc 56 165 5 is_stmt 0 view .LVU2586
.LBE2702:
	.loc 56 161 3 is_stmt 1 view .LVU2587
	.loc 56 161 10 view .LVU2588
.LBB2703:
.LBI2703:
	.loc 16 137 8 view .LVU2589
.LBB2704:
	.loc 16 139 12 is_stmt 0 view .LVU2590
	movq	216(%rbx), %rsi
.LVL900:
	.loc 16 139 12 view .LVU2591
.LBE2704:
.LBE2703:
	.loc 56 161 10 view .LVU2592
	testq	%rsi, %rsi
	je	.L521
.LBB2705:
	.loc 56 163 5 is_stmt 1 view .LVU2593
.LVL901:
	.loc 56 164 5 view .LVU2594
.LBB2691:
.LBI2684:
	.loc 16 92 8 view .LVU2595
.LBB2690:
.LBB2688:
.LBI2688:
	.loc 16 33 21 view .LVU2596
.LBB2689:
	.loc 16 35 44 is_stmt 0 view .LVU2597
	movq	(%rsi), %r9
.LVL902:
	.loc 16 35 44 view .LVU2598
.LBE2689:
.LBE2688:
	.loc 16 97 7 view .LVU2599
	movq	%r9, 216(%rbx)
	.loc 16 98 7 view .LVU2600
	testq	%r9, %r9
	jne	.L522
	jmp	.L538
.LVL903:
.L537:
	.loc 16 98 7 view .LVU2601
.LBE2690:
.LBE2691:
	.loc 56 166 7 is_stmt 1 view .LVU2602
.LBB2692:
.LBI2692:
	.loc 17 43 8 view .LVU2603
.LBB2693:
	.loc 17 45 5 view .LVU2604
	movq	8(%rsi), %r10
.LVL904:
.LBB2694:
.LBI2694:
	.loc 18 583 15 view .LVU2605
.LBB2695:
.LBB2696:
	.loc 18 584 63 is_stmt 0 view .LVU2606
	movl	$0, 32(%rsp)
	movb	$0, 36(%rsp)
	movq	_ZN5boost6system6detail10cat_holderIvE24system_category_instanceE@GOTPCREL(%rip), %r11
	movq	%r11, 40(%rsp)
.LVL905:
	.loc 18 584 63 view .LVU2607
.LBE2696:
.LBE2695:
.LBE2694:
	.loc 17 45 10 view .LVU2608
	leaq	32(%rsp), %rdx
	movl	$0, %ecx
	movl	$0, %edi
	call	*%r10
.LVL906:
.LEHE13:
	.loc 17 45 10 view .LVU2609
	jmp	.L523
.L521:
	.loc 17 45 10 view .LVU2610
.LBE2693:
.LBE2692:
.LBE2705:
	.loc 56 170 3 is_stmt 1 view .LVU2611
	.loc 56 170 9 is_stmt 0 view .LVU2612
	movq	$0, 168(%rbx)
.LVL907:
.LBB2706:
.LBI2706:
	.loc 52 63 5 is_stmt 1 view .LVU2613
.LBB2707:
	.loc 52 65 7 view .LVU2614
	cmpb	$0, 24(%rsp)
	jne	.L539
.LVL908:
.L508:
	.loc 52 65 7 is_stmt 0 view .LVU2615
.LBE2707:
.LBE2706:
	.loc 56 171 1 view .LVU2616
	addq	$56, %rsp
	.cfi_remember_state
	.cfi_def_cfa_offset 24
	popq	%rbx
	.cfi_def_cfa_offset 16
.LVL909:
	.loc 56 171 1 view .LVU2617
	popq	%rbp
	.cfi_def_cfa_offset 8
.LVL910:
	.loc 56 171 1 view .LVU2618
	ret
.LVL911:
.L539:
	.cfi_restore_state
.LBB2712:
.LBB2711:
	.loc 52 66 9 is_stmt 1 view .LVU2619
.LBB2708:
.LBI2708:
	.loc 53 56 8 view .LVU2620
.LBB2709:
	.loc 53 58 5 view .LVU2621
	.loc 53 58 33 is_stmt 0 view .LVU2622
	movq	16(%rsp), %r8
	leaq	8(%r8), %rdi
.LVL912:
	.loc 53 58 33 view .LVU2623
	call	pthread_mutex_unlock@PLT
.LVL913:
	.loc 53 58 33 view .LVU2624
.LBE2709:
.LBE2708:
.LBB2710:
.LBI2710:
	.loc 38 30 3 is_stmt 1 view .LVU2625
	.loc 38 30 3 is_stmt 0 view .LVU2626
	jmp	.L508
.L528:
	.loc 38 30 3 view .LVU2627
	movq	%rax, %rbx
.LVL914:
	.loc 38 30 3 view .LVU2628
.LBE2710:
.LBE2711:
.LBE2712:
.LBB2713:
.LBI2713:
	.loc 52 63 5 is_stmt 1 view .LVU2629
.LBB2714:
	.loc 52 65 7 view .LVU2630
	cmpb	$0, 24(%rsp)
	je	.L527
	.loc 52 66 9 view .LVU2631
.LVL915:
.LBB2715:
.LBI2715:
	.loc 53 56 8 view .LVU2632
.LBB2716:
	.loc 53 58 5 view .LVU2633
	.loc 53 58 33 is_stmt 0 view .LVU2634
	movq	16(%rsp), %rax
	leaq	8(%rax), %rdi
.LVL916:
	.loc 53 58 33 view .LVU2635
	call	pthread_mutex_unlock@PLT
.LVL917:
.L527:
	.loc 53 58 33 view .LVU2636
.LBE2716:
.LBE2715:
.LBB2717:
.LBI2717:
	.loc 38 30 3 is_stmt 1 view .LVU2637
	.loc 38 30 3 is_stmt 0 view .LVU2638
	movq	%rbx, %rdi
.LEHB14:
	call	_Unwind_Resume@PLT
.LVL918:
.LEHE14:
.LBE2717:
.LBE2714:
.LBE2713:
	.cfi_endproc
.LFE76:
	.section	.gcc_except_table
.LLSDA76:
	.byte	0xff
	.byte	0xff
	.byte	0x1
	.uleb128 .LLSDACSE76-.LLSDACSB76
.LLSDACSB76:
	.uleb128 .LEHB13-.LFB76
	.uleb128 .LEHE13-.LEHB13
	.uleb128 .L528-.LFB76
	.uleb128 0
	.uleb128 .LEHB14-.LFB76
	.uleb128 .LEHE14-.LEHB14
	.uleb128 0
	.uleb128 0
.LLSDACSE76:
	.text
	.size	_ZN5boost4asio6detail9scheduler8shutdownEv, .-_ZN5boost4asio6detail9scheduler8shutdownEv
	.align 2
	.type	_ZN5boost4asio6detail17posix_global_implINS0_14system_contextEED2Ev, @function
_ZN5boost4asio6detail17posix_global_implINS0_14system_contextEED2Ev:
.LVL919:
.LFB79:
	.loc 29 41 3 is_stmt 1 view -0
	.cfi_startproc
	.cfi_personality 0x9b,DW.ref.__gxx_personality_v0
	.cfi_lsda 0x1b,.LLSDA79
	.loc 29 41 3 is_stmt 0 view .LVU2640
	pushq	%r12
	.cfi_def_cfa_offset 16
	.cfi_offset 12, -16
	pushq	%rbp
	.cfi_def_cfa_offset 24
	.cfi_offset 6, -24
	pushq	%rbx
	.cfi_def_cfa_offset 32
	.cfi_offset 3, -32
	subq	$32, %rsp
	.cfi_def_cfa_offset 64
.LBB2819:
	.loc 29 43 12 is_stmt 1 view .LVU2641
	movq	_ZN5boost4asio6detail17posix_global_implINS0_14system_contextEE11static_ptr_E@GOTPCREL(%rip), %rax
	movq	(%rax), %rbp
	.loc 29 43 5 view .LVU2642
	testq	%rbp, %rbp
	je	.L540
.LVL920:
.LBB2820:
.LBB2821:
	.file 66 "/usr/local/include/boost/asio/impl/system_context.ipp"
	.loc 66 49 3 view .LVU2643
	movq	8(%rbp), %rbx
.LVL921:
.LBB2822:
.LBB2823:
.LBB2824:
.LBB2825:
	.loc 37 327 36 view .LVU2644
	leaq	208(%rbx), %rcx
.LVL922:
	.loc 37 327 34 view .LVU2645
	movq	$-1, %rdx
	lock xaddq	%rdx, (%rcx)
.LVL923:
	.loc 37 327 34 is_stmt 0 view .LVU2646
.LBE2825:
.LBE2824:
	.loc 57 98 5 is_stmt 1 view .LVU2647
	cmpq	$1, %rdx
	je	.L573
.LVL924:
.L542:
	.loc 57 98 5 is_stmt 0 view .LVU2648
.LBE2823:
.LBE2822:
	.loc 66 50 3 is_stmt 1 view .LVU2649
	movq	8(%rbp), %r12
.LVL925:
.LBB2855:
.LBB2856:
	.loc 56 302 27 view .LVU2650
	leaq	48(%r12), %rax
.LVL926:
.LBB2857:
.LBB2858:
.LBB2859:
	.loc 52 51 17 view .LVU2651
	movq	%rax, 16(%rsp)
	.loc 52 53 7 view .LVU2652
	cmpb	$0, 96(%r12)
	jne	.L574
	.loc 52 59 17 view .LVU2653
	movb	$0, 24(%rsp)
.LVL927:
.L550:
	.loc 52 59 17 is_stmt 0 view .LVU2654
.LBE2859:
.LBE2858:
.LBE2857:
.LBB2864:
.LBB2865:
	.loc 56 589 12 is_stmt 1 view .LVU2655
	movb	$1, 232(%r12)
.LVL928:
.LBB2866:
.LBB2867:
	.loc 58 56 5 view .LVU2656
	movq	16(%rsp), %rbx
	cmpb	$0, 48(%rbx)
	jne	.L575
.L551:
.LVL929:
	.loc 58 56 5 is_stmt 0 view .LVU2657
.LBE2867:
.LBE2866:
	.loc 56 592 3 is_stmt 1 view .LVU2658
	cmpb	$0, 200(%r12)
	jne	.L553
	.loc 56 592 29 view .LVU2659
	movq	168(%r12), %rsi
	.loc 56 592 26 view .LVU2660
	testq	%rsi, %rsi
	je	.L553
	.loc 56 594 23 view .LVU2661
	movb	$1, 200(%r12)
.LVL930:
.LBB2871:
.LBB2872:
	.loc 51 571 13 view .LVU2662
	movl	$-2147483639, 4(%rsp)
	.loc 51 572 17 view .LVU2663
	leaq	104(%rsi), %rdx
	.loc 51 572 15 view .LVU2664
	movq	%rdx, 8(%rsp)
.LVL931:
.LBB2873:
.LBB2874:
	.loc 59 50 12 view .LVU2665
	movl	104(%rsi), %edx
.LVL932:
	.loc 59 50 12 is_stmt 0 view .LVU2666
.LBE2874:
.LBE2873:
	.loc 51 573 12 is_stmt 1 view .LVU2667
	leaq	4(%rsp), %rcx
	movl	112(%rsi), %edi
	movl	$3, %esi
.LVL933:
	.loc 51 573 12 is_stmt 0 view .LVU2668
	call	epoll_ctl@PLT
.LVL934:
.L553:
	.loc 51 573 12 view .LVU2669
.LBE2872:
.LBE2871:
.LBE2865:
.LBE2864:
.LBB2877:
.LBB2878:
	.loc 52 65 7 is_stmt 1 view .LVU2670
	cmpb	$0, 24(%rsp)
	jne	.L576
.L554:
.LVL935:
	.loc 52 65 7 is_stmt 0 view .LVU2671
.LBE2878:
.LBE2877:
.LBE2856:
.LBE2855:
	.loc 66 51 16 is_stmt 1 view .LVU2672
	leaq	16(%rbp), %rbx
.LVL936:
	.loc 66 51 16 is_stmt 0 view .LVU2673
	jmp	.L557
.LVL937:
.L573:
.LBB2886:
.LBB2854:
.LBB2826:
.LBB2827:
	.loc 56 302 27 is_stmt 1 view .LVU2674
	leaq	48(%rbx), %rsi
.LVL938:
.LBB2828:
.LBB2829:
.LBB2830:
	.loc 52 51 17 view .LVU2675
	movq	%rsi, 16(%rsp)
	.loc 52 53 7 view .LVU2676
	cmpb	$0, 96(%rbx)
	jne	.L577
	.loc 52 59 17 view .LVU2677
	movb	$0, 24(%rsp)
.LVL939:
.L544:
	.loc 52 59 17 is_stmt 0 view .LVU2678
.LBE2830:
.LBE2829:
.LBE2828:
.LBB2835:
.LBB2836:
	.loc 56 589 12 is_stmt 1 view .LVU2679
	movb	$1, 232(%rbx)
.LVL940:
.LBB2837:
.LBB2838:
	.loc 58 56 5 view .LVU2680
	movq	16(%rsp), %rdi
	cmpb	$0, 48(%rdi)
	jne	.L578
.L545:
.LVL941:
	.loc 58 56 5 is_stmt 0 view .LVU2681
.LBE2838:
.LBE2837:
	.loc 56 592 3 is_stmt 1 view .LVU2682
	cmpb	$0, 200(%rbx)
	jne	.L547
	.loc 56 592 29 view .LVU2683
	movq	168(%rbx), %r9
	.loc 56 592 26 view .LVU2684
	testq	%r9, %r9
	je	.L547
	.loc 56 594 23 view .LVU2685
	movb	$1, 200(%rbx)
.LVL942:
.LBB2842:
.LBB2843:
	.loc 51 571 13 view .LVU2686
	movl	$-2147483639, 4(%rsp)
	.loc 51 572 17 view .LVU2687
	leaq	104(%r9), %r10
	.loc 51 572 15 view .LVU2688
	movq	%r10, 8(%rsp)
.LVL943:
.LBB2844:
.LBB2845:
	.loc 59 50 12 view .LVU2689
	movl	104(%r9), %edx
.LVL944:
	.loc 59 50 12 is_stmt 0 view .LVU2690
.LBE2845:
.LBE2844:
	.loc 51 573 12 is_stmt 1 view .LVU2691
	leaq	4(%rsp), %rcx
	movl	112(%r9), %edi
	movl	$3, %esi
	call	epoll_ctl@PLT
.LVL945:
.L547:
	.loc 51 573 12 is_stmt 0 view .LVU2692
.LBE2843:
.LBE2842:
.LBE2836:
.LBE2835:
.LBB2848:
.LBB2849:
	.loc 52 65 7 is_stmt 1 view .LVU2693
	cmpb	$0, 24(%rsp)
	je	.L542
.LVL946:
.LBB2850:
.LBB2851:
	.loc 53 58 33 view .LVU2694
	movq	16(%rsp), %r11
	leaq	8(%r11), %rdi
.LVL947:
	.loc 53 58 33 is_stmt 0 view .LVU2695
	call	pthread_mutex_unlock@PLT
.LVL948:
	.loc 53 58 33 view .LVU2696
	jmp	.L542
.LVL949:
.L577:
	.loc 53 58 33 view .LVU2697
.LBE2851:
.LBE2850:
.LBE2849:
.LBE2848:
.LBB2852:
.LBB2834:
.LBB2833:
.LBB2831:
.LBB2832:
	.loc 53 52 31 is_stmt 1 view .LVU2698
	leaq	56(%rbx), %rdi
.LVL950:
	.loc 53 52 31 is_stmt 0 view .LVU2699
	call	pthread_mutex_lock@PLT
.LVL951:
	.loc 53 52 31 view .LVU2700
.LBE2832:
.LBE2831:
	.loc 52 56 17 is_stmt 1 view .LVU2701
	movb	$1, 24(%rsp)
	jmp	.L544
.LVL952:
.L578:
	.loc 52 56 17 is_stmt 0 view .LVU2702
.LBE2833:
.LBE2834:
.LBE2852:
.LBB2853:
.LBB2847:
.LBB2846:
.LBB2841:
	.loc 58 57 24 is_stmt 1 view .LVU2703
	leaq	112(%rbx), %rdi
.LVL953:
.LBB2839:
.LBB2840:
	.loc 60 56 41 view .LVU2704
	cmpb	$0, 24(%rsp)
	je	.L579
	.loc 60 58 12 view .LVU2705
	movq	48(%rdi), %r8
	orq	$1, %r8
	.loc 60 58 5 view .LVU2706
	movq	%r8, 48(%rdi)
	.loc 60 59 29 view .LVU2707
	call	pthread_cond_broadcast@PLT
.LVL954:
	.loc 60 59 29 is_stmt 0 view .LVU2708
	jmp	.L545
.LVL955:
.L579:
	.loc 60 56 68 is_stmt 1 view .LVU2709
	leaq	.LC9(%rip), %rcx
	movl	$56, %edx
	leaq	.LC7(%rip), %rsi
	leaq	.LC8(%rip), %rdi
.LVL956:
	.loc 60 56 68 is_stmt 0 view .LVU2710
	call	__assert_fail@PLT
.LVL957:
.L574:
	.loc 60 56 68 view .LVU2711
.LBE2840:
.LBE2839:
.LBE2841:
.LBE2846:
.LBE2847:
.LBE2853:
.LBE2827:
.LBE2826:
.LBE2854:
.LBE2886:
.LBB2887:
.LBB2885:
.LBB2882:
.LBB2863:
.LBB2862:
.LBB2860:
.LBB2861:
	.loc 53 52 31 is_stmt 1 view .LVU2712
	leaq	56(%r12), %rdi
	call	pthread_mutex_lock@PLT
.LVL958:
	.loc 53 52 31 is_stmt 0 view .LVU2713
.LBE2861:
.LBE2860:
	.loc 52 56 17 is_stmt 1 view .LVU2714
	movb	$1, 24(%rsp)
	jmp	.L550
.LVL959:
.L575:
	.loc 52 56 17 is_stmt 0 view .LVU2715
.LBE2862:
.LBE2863:
.LBE2882:
.LBB2883:
.LBB2876:
.LBB2875:
.LBB2870:
	.loc 58 57 24 is_stmt 1 view .LVU2716
	leaq	112(%r12), %rdi
.LVL960:
.LBB2868:
.LBB2869:
	.loc 60 56 41 view .LVU2717
	cmpb	$0, 24(%rsp)
	je	.L580
	.loc 60 58 12 view .LVU2718
	movq	48(%rdi), %rcx
	orq	$1, %rcx
	.loc 60 58 5 view .LVU2719
	movq	%rcx, 48(%rdi)
	.loc 60 59 29 view .LVU2720
	call	pthread_cond_broadcast@PLT
.LVL961:
	.loc 60 59 29 is_stmt 0 view .LVU2721
	jmp	.L551
.LVL962:
.L580:
	.loc 60 56 68 is_stmt 1 view .LVU2722
	leaq	.LC9(%rip), %rcx
	movl	$56, %edx
	leaq	.LC7(%rip), %rsi
	leaq	.LC8(%rip), %rdi
.LVL963:
	.loc 60 56 68 is_stmt 0 view .LVU2723
	call	__assert_fail@PLT
.LVL964:
.L576:
	.loc 60 56 68 view .LVU2724
.LBE2869:
.LBE2868:
.LBE2870:
.LBE2875:
.LBE2876:
.LBE2883:
.LBB2884:
.LBB2881:
.LBB2879:
.LBB2880:
	.loc 53 58 33 is_stmt 1 view .LVU2725
	movq	16(%rsp), %rdi
	leaq	8(%rdi), %rdi
.LVL965:
	.loc 53 58 33 is_stmt 0 view .LVU2726
	call	pthread_mutex_unlock@PLT
.LVL966:
	.loc 53 58 33 view .LVU2727
	jmp	.L554
.LVL967:
.L582:
	.loc 53 58 33 view .LVU2728
.LBE2880:
.LBE2879:
.LBE2881:
.LBE2884:
.LBE2885:
.LBE2887:
.LBB2888:
.LBB2889:
.LBB2890:
.LBB2891:
.LBB2892:
	.loc 20 42 19 is_stmt 1 view .LVU2729
	movl	$0, %esi
	movq	(%r12), %rdi
	call	pthread_join@PLT
.LVL968:
	.loc 20 43 13 view .LVU2730
	movb	$1, 8(%r12)
.L556:
.LVL969:
	.loc 20 43 13 is_stmt 0 view .LVU2731
.LBE2892:
.LBE2891:
	.file 67 "/usr/local/include/boost/asio/detail/thread_group.hpp"
	.loc 67 62 13 is_stmt 1 view .LVU2732
	movq	(%rbx), %r12
.LVL970:
	.loc 67 63 24 view .LVU2733
	movq	16(%r12), %r8
	.loc 67 63 14 view .LVU2734
	movq	%r8, (%rbx)
	.loc 67 64 17 view .LVU2735
	testq	%r12, %r12
	jne	.L581
.LVL971:
.L557:
	.loc 67 64 17 is_stmt 0 view .LVU2736
.LBE2890:
	.loc 67 59 12 is_stmt 1 view .LVU2737
	movq	(%rbx), %r12
	testq	%r12, %r12
	je	.L562
.LVL972:
.LBB2901:
.LBB2894:
.LBB2893:
	.loc 20 40 3 view .LVU2738
	cmpb	$0, 8(%r12)
	jne	.L556
	jmp	.L582
.LVL973:
.L581:
	.loc 20 40 3 is_stmt 0 view .LVU2739
.LBE2893:
.LBE2894:
.LBB2895:
.LBB2896:
.LBB2897:
	.loc 20 34 3 is_stmt 1 view .LVU2740
	cmpb	$0, 8(%r12)
	je	.L583
.L558:
.LVL974:
	.loc 20 34 3 is_stmt 0 view .LVU2741
.LBE2897:
.LBE2896:
.LBE2895:
	.loc 67 64 14 is_stmt 1 view .LVU2742
	movl	$24, %esi
	movq	%r12, %rdi
	call	_ZdlPvm@PLT
.LVL975:
	jmp	.L557
.LVL976:
.L583:
.LBB2900:
.LBB2899:
.LBB2898:
	.loc 20 35 21 view .LVU2743
	movq	(%r12), %rdi
	call	pthread_detach@PLT
.LVL977:
	jmp	.L558
.LVL978:
.L585:
	.loc 20 35 21 is_stmt 0 view .LVU2744
.LBE2898:
.LBE2899:
.LBE2900:
.LBE2901:
.LBE2889:
.LBE2888:
.LBB2902:
.LBB2903:
.LBB2904:
.LBB2905:
.LBB2906:
.LBB2907:
	.loc 20 42 19 is_stmt 1 view .LVU2745
	movl	$0, %esi
	movq	(%r12), %rdi
	call	pthread_join@PLT
.LVL979:
	.loc 20 43 13 view .LVU2746
	movb	$1, 8(%r12)
.L561:
.LVL980:
	.loc 20 43 13 is_stmt 0 view .LVU2747
.LBE2907:
.LBE2906:
	.loc 67 62 13 is_stmt 1 view .LVU2748
	movq	(%rbx), %r12
.LVL981:
	.loc 67 63 24 view .LVU2749
	movq	16(%r12), %r9
	.loc 67 63 14 view .LVU2750
	movq	%r9, (%rbx)
	.loc 67 64 17 view .LVU2751
	testq	%r12, %r12
	jne	.L584
.LVL982:
.L562:
	.loc 67 64 17 is_stmt 0 view .LVU2752
.LBE2905:
	.loc 67 59 12 is_stmt 1 view .LVU2753
	movq	(%rbx), %r12
	testq	%r12, %r12
	je	.L560
.LVL983:
.LBB2916:
.LBB2909:
.LBB2908:
	.loc 20 40 3 view .LVU2754
	cmpb	$0, 8(%r12)
	jne	.L561
	jmp	.L585
.LVL984:
.L584:
	.loc 20 40 3 is_stmt 0 view .LVU2755
.LBE2908:
.LBE2909:
.LBB2910:
.LBB2911:
.LBB2912:
	.loc 20 34 3 is_stmt 1 view .LVU2756
	cmpb	$0, 8(%r12)
	je	.L586
.L563:
.LVL985:
	.loc 20 34 3 is_stmt 0 view .LVU2757
.LBE2912:
.LBE2911:
.LBE2910:
	.loc 67 64 14 is_stmt 1 view .LVU2758
	movl	$24, %esi
	movq	%r12, %rdi
	call	_ZdlPvm@PLT
.LVL986:
	jmp	.L562
.LVL987:
.L586:
.LBB2915:
.LBB2914:
.LBB2913:
	.loc 20 35 21 view .LVU2759
	movq	(%r12), %rdi
	call	pthread_detach@PLT
.LVL988:
	jmp	.L563
.LVL989:
.L560:
	.loc 20 35 21 is_stmt 0 view .LVU2760
.LBE2913:
.LBE2914:
.LBE2915:
.LBE2916:
.LBE2904:
.LBE2903:
.LBE2902:
.LBB2917:
.LBB2918:
.LBB2919:
.LBB2920:
	.loc 21 41 3 is_stmt 1 view .LVU2761
	movq	0(%rbp), %r10
.LVL990:
.LBB2921:
.LBB2922:
	.loc 65 41 31 view .LVU2762
	movq	56(%r10), %rbx
.LVL991:
.L565:
	.loc 65 42 10 view .LVU2763
	testq	%rbx, %rbx
	je	.L564
	.loc 65 44 23 view .LVU2764
	movq	(%rbx), %r11
	.loc 65 44 22 view .LVU2765
	movq	%rbx, %rdi
	call	*16(%r11)
.LVL992:
	.loc 65 45 13 view .LVU2766
	movq	32(%rbx), %rbx
.LVL993:
	.loc 65 45 13 is_stmt 0 view .LVU2767
	jmp	.L565
.L564:
.LVL994:
	.loc 65 45 13 view .LVU2768
.LBE2922:
.LBE2921:
.LBE2920:
.LBE2919:
.LBB2923:
.LBB2924:
	.loc 21 46 3 is_stmt 1 view .LVU2769
	movq	0(%rbp), %rbx
.LVL995:
.L567:
.LBB2925:
.LBB2926:
	.loc 65 51 10 view .LVU2770
	movq	56(%rbx), %rdi
	testq	%rdi, %rdi
	je	.L566
.LBB2927:
	.loc 65 53 33 view .LVU2771
	movq	32(%rdi), %r12
.LVL996:
.LBB2928:
.LBB2929:
	.loc 65 110 10 view .LVU2772
	movq	(%rdi), %rax
	call	*8(%rax)
.LVL997:
	.loc 65 110 10 is_stmt 0 view .LVU2773
.LBE2929:
.LBE2928:
	.loc 65 55 20 is_stmt 1 view .LVU2774
	movq	%r12, 56(%rbx)
	jmp	.L567
.LVL998:
.L566:
	.loc 65 55 20 is_stmt 0 view .LVU2775
.LBE2927:
.LBE2926:
.LBE2925:
.LBE2924:
.LBE2923:
	.loc 21 36 10 is_stmt 1 view .LVU2776
	movq	0(%rbp), %rbx
	.loc 21 36 27 view .LVU2777
	testq	%rbx, %rbx
	je	.L568
.LVL999:
.LBB2930:
.LBB2931:
.LBB2932:
	.loc 53 46 28 view .LVU2778
	leaq	8(%rbx), %rdi
.LVL1000:
	.loc 53 46 28 is_stmt 0 view .LVU2779
	call	pthread_mutex_destroy@PLT
.LVL1001:
	.loc 53 46 28 view .LVU2780
.LBE2932:
.LBE2931:
.LBE2930:
	.loc 21 36 10 is_stmt 1 view .LVU2781
	movl	$64, %esi
	movq	%rbx, %rdi
	call	_ZdlPvm@PLT
.LVL1002:
.L568:
	.loc 21 36 10 is_stmt 0 view .LVU2782
.LBE2918:
.LBE2917:
.LBE2821:
.LBE2820:
	.loc 29 43 5 is_stmt 1 view .LVU2783
	movl	$24, %esi
	movq	%rbp, %rdi
	call	_ZdlPvm@PLT
.LVL1003:
.L540:
.LBE2819:
	.loc 29 44 3 view .LVU2784
	addq	$32, %rsp
	.cfi_def_cfa_offset 32
	popq	%rbx
	.cfi_def_cfa_offset 24
	popq	%rbp
	.cfi_def_cfa_offset 16
	popq	%r12
	.cfi_def_cfa_offset 8
	ret
	.cfi_endproc
.LFE79:
	.section	.gcc_except_table
.LLSDA79:
	.byte	0xff
	.byte	0xff
	.byte	0x1
	.uleb128 .LLSDACSE79-.LLSDACSB79
.LLSDACSB79:
.LLSDACSE79:
	.text
	.size	_ZN5boost4asio6detail17posix_global_implINS0_14system_contextEED2Ev, .-_ZN5boost4asio6detail17posix_global_implINS0_14system_contextEED2Ev
	.set	_ZN5boost4asio6detail17posix_global_implINS0_14system_contextEED1Ev,_ZN5boost4asio6detail17posix_global_implINS0_14system_contextEED2Ev
	.align 2
	.type	_ZN5boost4asio8executor4implINS0_10io_context13executor_typeESaIvEE16on_work_finishedEv, @function
_ZN5boost4asio8executor4implINS0_10io_context13executor_typeESaIvEE16on_work_finishedEv:
.LVL1004:
.LFB84:
	.loc 1 172 8 view -0
	.cfi_startproc
	.loc 1 172 8 is_stmt 0 view .LVU2786
	pushq	%rbx
	.cfi_def_cfa_offset 16
	.cfi_offset 3, -16
	subq	$32, %rsp
	.cfi_def_cfa_offset 48
.LVL1005:
.LBB2964:
.LBI2964:
	.loc 3 247 1 is_stmt 1 view .LVU2787
.LBB2965:
	.loc 3 249 3 view .LVU2788
	movq	24(%rdi), %rax
	.loc 3 249 15 is_stmt 0 view .LVU2789
	movq	8(%rax), %rbx
.LVL1006:
.LBB2966:
.LBI2966:
	.loc 57 96 8 is_stmt 1 view .LVU2790
.LBB2967:
	.loc 57 98 5 view .LVU2791
.LBB2968:
.LBI2968:
	.loc 37 326 7 view .LVU2792
.LBB2969:
	.loc 37 327 36 is_stmt 0 view .LVU2793
	leaq	208(%rbx), %rcx
.LVL1007:
	.loc 37 327 34 view .LVU2794
	movq	$-1, %rdx
	lock xaddq	%rdx, (%rcx)
.LVL1008:
	.loc 37 327 34 view .LVU2795
.LBE2969:
.LBE2968:
	.loc 57 98 5 view .LVU2796
	cmpq	$1, %rdx
	je	.L596
.LVL1009:
.L587:
	.loc 57 98 5 view .LVU2797
.LBE2967:
.LBE2966:
.LBE2965:
.LBE2964:
	.loc 1 175 3 view .LVU2798
	addq	$32, %rsp
	.cfi_remember_state
	.cfi_def_cfa_offset 16
	popq	%rbx
	.cfi_def_cfa_offset 8
	ret
.LVL1010:
.L596:
	.cfi_restore_state
.LBB3005:
.LBB3004:
.LBB3003:
.LBB3002:
	.loc 57 99 7 is_stmt 1 view .LVU2799
.LBB2970:
.LBI2970:
	.loc 56 300 6 view .LVU2800
.LBB2971:
	.loc 56 302 3 view .LVU2801
	.loc 56 302 27 is_stmt 0 view .LVU2802
	leaq	48(%rbx), %rsi
.LVL1011:
.LBB2972:
.LBI2972:
	.loc 52 50 14 is_stmt 1 view .LVU2803
.LBB2973:
.LBB2974:
.LBB2975:
.LBI2975:
	.loc 38 29 3 view .LVU2804
	.loc 38 29 3 is_stmt 0 view .LVU2805
.LBE2975:
	.loc 52 51 17 view .LVU2806
	movq	%rsi, 16(%rsp)
	.loc 52 53 7 is_stmt 1 view .LVU2807
	cmpb	$0, 96(%rbx)
	jne	.L597
	.loc 52 59 9 view .LVU2808
	.loc 52 59 17 is_stmt 0 view .LVU2809
	movb	$0, 24(%rsp)
.LVL1012:
.L590:
	.loc 52 59 17 view .LVU2810
.LBE2974:
.LBE2973:
.LBE2972:
	.loc 56 303 3 is_stmt 1 view .LVU2811
.LBB2980:
.LBI2980:
	.loc 56 586 6 view .LVU2812
.LBB2981:
	.loc 56 589 3 view .LVU2813
	.loc 56 589 12 is_stmt 0 view .LVU2814
	movb	$1, 232(%rbx)
	.loc 56 590 3 is_stmt 1 view .LVU2815
.LVL1013:
.LBB2982:
.LBI2982:
	.loc 58 54 8 view .LVU2816
.LBB2983:
	.loc 58 56 5 view .LVU2817
	movq	16(%rsp), %rdi
	cmpb	$0, 48(%rdi)
	jne	.L598
.L591:
.LVL1014:
	.loc 58 56 5 is_stmt 0 view .LVU2818
.LBE2983:
.LBE2982:
	.loc 56 592 3 is_stmt 1 view .LVU2819
	cmpb	$0, 200(%rbx)
	jne	.L593
	.loc 56 592 29 is_stmt 0 view .LVU2820
	movq	168(%rbx), %r9
	.loc 56 592 26 view .LVU2821
	testq	%r9, %r9
	je	.L593
	.loc 56 594 5 is_stmt 1 view .LVU2822
	.loc 56 594 23 is_stmt 0 view .LVU2823
	movb	$1, 200(%rbx)
	.loc 56 595 5 is_stmt 1 view .LVU2824
.LVL1015:
.LBB2989:
.LBI2989:
	.loc 51 568 6 view .LVU2825
.LBB2990:
	.loc 51 570 3 view .LVU2826
	.loc 51 571 3 view .LVU2827
	.loc 51 571 13 is_stmt 0 view .LVU2828
	movl	$-2147483639, 4(%rsp)
	.loc 51 572 3 is_stmt 1 view .LVU2829
	.loc 51 572 17 is_stmt 0 view .LVU2830
	leaq	104(%r9), %r10
	.loc 51 572 15 view .LVU2831
	movq	%r10, 8(%rsp)
	.loc 51 573 3 is_stmt 1 view .LVU2832
.LVL1016:
.LBB2991:
.LBI2991:
	.loc 59 48 7 view .LVU2833
.LBB2992:
	.loc 59 50 5 view .LVU2834
	.loc 59 50 12 is_stmt 0 view .LVU2835
	movl	104(%r9), %edx
.LVL1017:
	.loc 59 50 12 view .LVU2836
.LBE2992:
.LBE2991:
	.loc 51 573 12 view .LVU2837
	leaq	4(%rsp), %rcx
	movl	112(%r9), %edi
	movl	$3, %esi
	call	epoll_ctl@PLT
.LVL1018:
.L593:
	.loc 51 573 12 view .LVU2838
.LBE2990:
.LBE2989:
.LBE2981:
.LBE2980:
.LBB2995:
.LBI2995:
	.loc 52 63 5 is_stmt 1 view .LVU2839
.LBB2996:
	.loc 52 65 7 view .LVU2840
	cmpb	$0, 24(%rsp)
	je	.L587
	.loc 52 66 9 view .LVU2841
.LVL1019:
.LBB2997:
.LBI2997:
	.loc 53 56 8 view .LVU2842
.LBB2998:
	.loc 53 58 5 view .LVU2843
	.loc 53 58 33 is_stmt 0 view .LVU2844
	movq	16(%rsp), %r11
	leaq	8(%r11), %rdi
.LVL1020:
	.loc 53 58 33 view .LVU2845
	call	pthread_mutex_unlock@PLT
.LVL1021:
	.loc 53 58 33 view .LVU2846
.LBE2998:
.LBE2997:
.LBB2999:
.LBI2999:
	.loc 38 30 3 is_stmt 1 view .LVU2847
	.loc 38 30 3 is_stmt 0 view .LVU2848
	jmp	.L587
.LVL1022:
.L597:
	.loc 38 30 3 view .LVU2849
.LBE2999:
.LBE2996:
.LBE2995:
.LBB3000:
.LBB2979:
.LBB2978:
	.loc 52 55 9 is_stmt 1 view .LVU2850
.LBB2976:
.LBI2976:
	.loc 53 50 8 view .LVU2851
.LBB2977:
	.loc 53 52 5 view .LVU2852
	.loc 53 52 31 is_stmt 0 view .LVU2853
	leaq	56(%rbx), %rdi
.LVL1023:
	.loc 53 52 31 view .LVU2854
	call	pthread_mutex_lock@PLT
.LVL1024:
	.loc 53 52 31 view .LVU2855
.LBE2977:
.LBE2976:
	.loc 52 56 9 is_stmt 1 view .LVU2856
	.loc 52 56 17 is_stmt 0 view .LVU2857
	movb	$1, 24(%rsp)
	jmp	.L590
.LVL1025:
.L598:
	.loc 52 56 17 view .LVU2858
.LBE2978:
.LBE2979:
.LBE3000:
.LBB3001:
.LBB2994:
.LBB2993:
.LBB2988:
	.loc 58 57 7 is_stmt 1 view .LVU2859
	.loc 58 57 24 is_stmt 0 view .LVU2860
	leaq	112(%rbx), %rdi
.LVL1026:
.LBB2984:
.LBI2984:
	.loc 60 54 8 is_stmt 1 view .LVU2861
.LBB2985:
.LBB2986:
.LBI2986:
	.loc 52 90 10 view .LVU2862
.LBB2987:
	.loc 52 92 7 view .LVU2863
	.loc 52 92 7 is_stmt 0 view .LVU2864
.LBE2987:
.LBE2986:
	.loc 60 56 41 view .LVU2865
	cmpb	$0, 24(%rsp)
	je	.L599
	.loc 60 58 12 view .LVU2866
	movq	48(%rdi), %r8
	orq	$1, %r8
	.loc 60 58 5 view .LVU2867
	movq	%r8, 48(%rdi)
	.loc 60 59 29 view .LVU2868
	call	pthread_cond_broadcast@PLT
.LVL1027:
	.loc 60 59 29 view .LVU2869
	jmp	.L591
.LVL1028:
.L599:
	.loc 60 56 68 view .LVU2870
	leaq	.LC9(%rip), %rcx
	movl	$56, %edx
	leaq	.LC7(%rip), %rsi
	leaq	.LC8(%rip), %rdi
.LVL1029:
	.loc 60 56 68 view .LVU2871
	call	__assert_fail@PLT
.LVL1030:
.LBE2985:
.LBE2984:
.LBE2988:
.LBE2993:
.LBE2994:
.LBE3001:
.LBE2971:
.LBE2970:
.LBE3002:
.LBE3003:
.LBE3004:
.LBE3005:
	.cfi_endproc
.LFE84:
	.size	_ZN5boost4asio8executor4implINS0_10io_context13executor_typeESaIvEE16on_work_finishedEv, .-_ZN5boost4asio8executor4implINS0_10io_context13executor_typeESaIvEE16on_work_finishedEv
	.align 2
	.type	_ZN5boost4asio8executor4implINS0_10io_context13executor_typeESaIvEE7destroyEv, @function
_ZN5boost4asio8executor4implINS0_10io_context13executor_typeESaIvEE7destroyEv:
.LVL1031:
.LFB85:
	.loc 1 156 8 is_stmt 1 view -0
	.cfi_startproc
.LBB3006:
.LBB3007:
.LBI3007:
	.loc 37 326 7 view .LVU2873
.LBB3008:
	.loc 37 327 36 is_stmt 0 view .LVU2874
	leaq	16(%rdi), %rax
	.loc 37 327 34 view .LVU2875
	movq	$-1, %rdx
	lock xaddq	%rdx, (%rax)
.LVL1032:
	.loc 37 327 34 view .LVU2876
.LBE3008:
.LBE3007:
	.loc 1 158 5 view .LVU2877
	cmpq	$1, %rdx
	jne	.L603
.LBE3006:
	.loc 1 156 8 view .LVU2878
	pushq	%rbx
	.cfi_def_cfa_offset 16
	.cfi_offset 3, -16
	movq	%rdi, %rbx
.LVL1033:
.LBB3014:
.LBB3009:
.LBB3010:
.LBI3010:
	.loc 50 151 2 is_stmt 1 view .LVU2879
.LBB3011:
.LBI3011:
	.loc 47 80 7 view .LVU2880
	.loc 47 80 7 is_stmt 0 view .LVU2881
.LBE3011:
.LBE3010:
	.loc 1 162 7 view .LVU2882
	movq	(%rdi), %rcx
	call	*96(%rcx)
.LVL1034:
.LBB3012:
.LBI3012:
	.loc 47 119 7 is_stmt 1 view .LVU2883
.LBB3013:
	.loc 47 128 19 is_stmt 0 view .LVU2884
	movq	%rbx, %rdi
	call	_ZdlPv@PLT
.LVL1035:
	.loc 47 128 19 view .LVU2885
.LBE3013:
.LBE3012:
.LBE3009:
.LBE3014:
	.loc 1 165 3 view .LVU2886
	popq	%rbx
	.cfi_def_cfa_offset 8
.LVL1036:
	.loc 1 165 3 view .LVU2887
	ret
.LVL1037:
.L603:
	.cfi_restore 3
	.loc 1 165 3 view .LVU2888
	ret
	.cfi_endproc
.LFE85:
	.size	_ZN5boost4asio8executor4implINS0_10io_context13executor_typeESaIvEE7destroyEv, .-_ZN5boost4asio8executor4implINS0_10io_context13executor_typeESaIvEE7destroyEv
	.type	_ZN5boost15throw_exceptionINS_4asio12bad_executorEEEvRKT_, @function
_ZN5boost15throw_exceptionINS_4asio12bad_executorEEEvRKT_:
.LVL1038:
.LFB86:
	.file 68 "/usr/local/include/boost/throw_exception.hpp"
	.loc 68 162 55 is_stmt 1 view -0
	.cfi_startproc
	.loc 68 162 55 is_stmt 0 view .LVU2890
	subq	$8, %rsp
	.cfi_def_cfa_offset 16
	.loc 68 165 28 view .LVU2891
	movl	$56, %edi
.LVL1039:
	.loc 68 165 28 view .LVU2892
	call	__cxa_allocate_exception@PLT
.LVL1040:
	movq	%rax, %rdi
.LVL1041:
.LBB3015:
.LBI3015:
	.loc 68 129 14 is_stmt 1 view .LVU2893
.LBB3016:
.LBB3017:
.LBI3017:
	.file 69 "/usr/local/include/boost/exception/exception.hpp"
	.loc 69 399 9 view .LVU2894
	.loc 69 399 9 is_stmt 0 view .LVU2895
.LBE3017:
.LBB3018:
.LBI3018:
	.loc 2 31 7 is_stmt 1 view .LVU2896
.LBB3019:
.LBI3019:
	.file 70 "/usr/include/c++/9/bits/exception.h"
	.loc 70 66 5 view .LVU2897
	.loc 70 66 5 is_stmt 0 view .LVU2898
.LBE3019:
.LBE3018:
.LBB3020:
.LBI3020:
	.loc 69 232 9 is_stmt 1 view .LVU2899
.LBB3021:
.LBB3022:
.LBI3022:
	.loc 69 44 13 view .LVU2900
.LBB3023:
	.loc 69 45 22 is_stmt 0 view .LVU2901
	movq	$0, 24(%rax)
.LVL1042:
	.loc 69 45 22 view .LVU2902
.LBE3023:
.LBE3022:
	.loc 69 235 27 view .LVU2903
	movq	$0, 32(%rax)
	movq	$0, 40(%rax)
	movl	$-1, 48(%rax)
.LVL1043:
	.loc 69 235 27 view .LVU2904
.LBE3021:
.LBE3020:
	.loc 68 129 46 view .LVU2905
	leaq	16+_ZTVN5boost10wrapexceptINS_4asio12bad_executorEEE(%rip), %rax
.LVL1044:
	.loc 68 129 46 view .LVU2906
	movq	%rax, (%rdi)
	leaq	48(%rax), %rdx
	movq	%rdx, 8(%rdi)
	leaq	40(%rdx), %rcx
	movq	%rcx, 16(%rdi)
.LVL1045:
.LBB3024:
.LBI3024:
	.loc 68 118 10 is_stmt 1 view .LVU2907
	.loc 68 118 10 is_stmt 0 view .LVU2908
.LBE3024:
.LBE3016:
.LBE3015:
	.loc 68 165 28 view .LVU2909
	leaq	_ZN5boost10wrapexceptINS_4asio12bad_executorEED1Ev(%rip), %rdx
	leaq	_ZTIN5boost10wrapexceptINS_4asio12bad_executorEEE(%rip), %rsi
	call	__cxa_throw@PLT
.LVL1046:
	.cfi_endproc
.LFE86:
	.size	_ZN5boost15throw_exceptionINS_4asio12bad_executorEEEvRKT_, .-_ZN5boost15throw_exceptionINS_4asio12bad_executorEEEvRKT_
	.align 2
	.type	_ZN5boost6system12system_errorD2Ev, @function
_ZN5boost6system12system_errorD2Ev:
.LVL1047:
.LFB87:
	.file 71 "/usr/local/include/boost/system/system_error.hpp"
	.loc 71 47 15 is_stmt 1 view -0
	.cfi_startproc
	.loc 71 47 15 is_stmt 0 view .LVU2911
	pushq	%rbx
	.cfi_def_cfa_offset 16
	.cfi_offset 3, -16
	subq	$16, %rsp
	.cfi_def_cfa_offset 32
	movq	%rdi, %rbx
.LBB3061:
	.loc 71 47 40 view .LVU2912
	leaq	16+_ZTVN5boost6system12system_errorE(%rip), %rax
	movq	%rax, (%rdi)
.LVL1048:
.LBB3062:
.LBI3062:
	.file 72 "/usr/include/c++/9/bits/basic_string.h"
	.loc 72 3705 7 is_stmt 1 view .LVU2913
.LBB3063:
.LBB3064:
.LBI3064:
	.loc 72 3366 7 view .LVU2914
.LBB3065:
.LBB3066:
.LBI3066:
	.loc 72 3358 7 view .LVU2915
	.loc 72 3358 7 is_stmt 0 view .LVU2916
.LBE3066:
	.loc 72 3367 59 view .LVU2917
	movq	32(%rdi), %rdx
	leaq	-24(%rdx), %rdi
.LVL1049:
	.loc 72 3367 59 view .LVU2918
.LBE3065:
.LBE3064:
.LBB3067:
.LBI3067:
	.loc 72 5229 7 is_stmt 1 view .LVU2919
.LBB3068:
.LBI3068:
	.loc 50 141 7 view .LVU2920
.LBB3069:
.LBI3069:
	.loc 47 83 7 view .LVU2921
	.loc 47 83 7 is_stmt 0 view .LVU2922
.LBE3069:
.LBE3068:
.LBE3067:
.LBB3070:
.LBI3070:
	.loc 72 3295 2 is_stmt 1 view .LVU2923
.LBB3071:
.LBB3072:
.LBI3072:
	.loc 72 3218 9 view .LVU2924
	.loc 72 3218 9 is_stmt 0 view .LVU2925
.LBE3072:
	.loc 72 3298 4 view .LVU2926
	cmpq	_ZNSs4_Rep20_S_empty_rep_storageE@GOTPCREL(%rip), %rdi
	jne	.L613
.LVL1050:
.L609:
	.loc 72 3298 4 view .LVU2927
.LBE3071:
.LBE3070:
.LBB3086:
.LBI3086:
	.loc 50 153 7 is_stmt 1 view .LVU2928
	.loc 50 153 7 is_stmt 0 view .LVU2929
.LBE3086:
.LBB3087:
.LBI3087:
	.loc 72 3338 14 is_stmt 1 view .LVU2930
.LBB3088:
.LBI3088:
	.loc 50 153 7 view .LVU2931
	.loc 50 153 7 is_stmt 0 view .LVU2932
.LBE3088:
.LBE3087:
.LBE3063:
.LBE3062:
	.loc 71 47 40 view .LVU2933
	movq	%rbx, %rdi
	call	_ZNSt13runtime_errorD2Ev@PLT
.LVL1051:
.LBE3061:
	.loc 71 47 41 view .LVU2934
	addq	$16, %rsp
	.cfi_remember_state
	.cfi_def_cfa_offset 16
	popq	%rbx
	.cfi_def_cfa_offset 8
.LVL1052:
	.loc 71 47 41 view .LVU2935
	ret
.LVL1053:
.L613:
	.cfi_restore_state
.LBB3095:
.LBB3093:
.LBB3091:
.LBB3089:
.LBB3084:
	.loc 72 3311 50 view .LVU2936
	leaq	16(%rdi), %rcx
.LVL1054:
.LBB3073:
.LBI3073:
	.file 73 "/usr/include/c++/9/ext/atomicity.h"
	.loc 73 78 3 is_stmt 1 view .LVU2937
.LBB3074:
	.loc 73 81 5 view .LVU2938
.LBB3075:
.LBI3075:
	.file 74 "/usr/include/c++/9/x86_64-suse-linux/bits/gthr-default.h"
	.loc 74 248 1 view .LVU2939
.LBE3075:
.LBE3074:
.LBE3073:
.LBE3084:
.LBE3089:
.LBE3091:
.LBE3093:
.LBE3095:
	.loc 74 250 3 view .LVU2940
	.loc 74 252 3 view .LVU2941
.LBB3096:
.LBB3094:
.LBB3092:
.LBB3090:
.LBB3085:
.LBB3082:
.LBB3080:
	.loc 73 81 5 is_stmt 0 view .LVU2942
	cmpq	$0, _ZL28__gthrw___pthread_key_createPjPFvPvE@GOTPCREL(%rip)
	je	.L610
	.loc 73 82 7 is_stmt 1 view .LVU2943
.LVL1055:
.LBB3076:
.LBI3076:
	.loc 73 48 3 view .LVU2944
.LBB3077:
	.loc 73 49 5 view .LVU2945
	.loc 73 49 46 is_stmt 0 view .LVU2946
	movl	$-1, %esi
	lock xaddl	%esi, (%rcx)
.LVL1056:
.L611:
	.loc 73 49 46 view .LVU2947
.LBE3077:
.LBE3076:
.LBE3080:
.LBE3082:
	.loc 72 3311 8 view .LVU2948
	testl	%esi, %esi
	jg	.L609
	.loc 72 3315 5 view .LVU2949
	leaq	15(%rsp), %rsi
.LVL1057:
	.loc 72 3315 5 view .LVU2950
	call	_ZNSs4_Rep10_M_destroyERKSaIcE@PLT
.LVL1058:
	.loc 72 3315 5 view .LVU2951
	jmp	.L609
.LVL1059:
.L610:
.LBB3083:
.LBB3081:
	.loc 73 84 7 is_stmt 1 view .LVU2952
.LBB3078:
.LBI3078:
	.loc 73 65 3 view .LVU2953
.LBB3079:
	.loc 73 67 5 view .LVU2954
	.loc 73 67 18 is_stmt 0 view .LVU2955
	movl	16(%rdi), %esi
.LVL1060:
	.loc 73 68 5 is_stmt 1 view .LVU2956
	.loc 73 68 12 is_stmt 0 view .LVU2957
	leal	-1(%rsi), %r8d
	movl	%r8d, 16(%rdi)
	.loc 73 69 5 is_stmt 1 view .LVU2958
.LVL1061:
	.loc 73 69 5 is_stmt 0 view .LVU2959
	jmp	.L611
.LBE3079:
.LBE3078:
.LBE3081:
.LBE3083:
.LBE3085:
.LBE3090:
.LBE3092:
.LBE3094:
.LBE3096:
	.cfi_endproc
.LFE87:
	.size	_ZN5boost6system12system_errorD2Ev, .-_ZN5boost6system12system_errorD2Ev
	.set	_ZN5boost6system12system_errorD1Ev,_ZN5boost6system12system_errorD2Ev
	.align 2
	.type	_ZN5boost10wrapexceptINS_6system12system_errorEED2Ev, @function
_ZN5boost10wrapexceptINS_6system12system_errorEED2Ev:
.LVL1062:
.LFB90:
	.loc 68 103 69 is_stmt 1 view -0
	.cfi_startproc
	.cfi_personality 0x9b,DW.ref.__gxx_personality_v0
	.cfi_lsda 0x1b,.LLSDA90
	.loc 68 103 69 is_stmt 0 view .LVU2961
	pushq	%rbp
	.cfi_def_cfa_offset 16
	.cfi_offset 6, -16
	pushq	%rbx
	.cfi_def_cfa_offset 24
	.cfi_offset 3, -24
	subq	$24, %rsp
	.cfi_def_cfa_offset 48
	movq	%rdi, %rbx
.LBB3136:
	.loc 68 103 69 view .LVU2962
	leaq	16+_ZTVN5boost10wrapexceptINS_6system12system_errorEEE(%rip), %rax
	movq	%rax, (%rdi)
	leaq	48(%rax), %rdx
	movq	%rdx, 8(%rdi)
.LVL1063:
.LBB3137:
.LBI3137:
	.loc 69 295 5 is_stmt 1 view .LVU2963
.LBB3138:
	.loc 69 296 18 is_stmt 0 view .LVU2964
	leaq	16+_ZTVN5boost9exceptionE(%rip), %rcx
	movq	%rcx, 48(%rdi)
.LVL1064:
.LBB3139:
.LBI3139:
	.loc 69 49 13 is_stmt 1 view .LVU2965
.LBB3140:
.LBI3140:
	.loc 69 93 13 view .LVU2966
.LBB3141:
	.loc 69 95 21 is_stmt 0 view .LVU2967
	movq	56(%rdi), %rdi
.LVL1065:
	.loc 69 95 25 view .LVU2968
	testq	%rdi, %rdi
	je	.L615
	movq	(%rdi), %rbp
	call	*32(%rbp)
.LVL1066:
.L615:
	.loc 69 95 25 view .LVU2969
.LBE3141:
.LBE3140:
.LBE3139:
.LBE3138:
.LBE3137:
	.loc 68 103 69 view .LVU2970
	leaq	8(%rbx), %rbp
.LVL1067:
.LBB3142:
.LBI3142:
	.loc 71 47 15 is_stmt 1 view .LVU2971
.LBB3143:
	.loc 71 47 40 is_stmt 0 view .LVU2972
	leaq	16+_ZTVN5boost6system12system_errorE(%rip), %rsi
	movq	%rsi, 8(%rbx)
.LVL1068:
.LBB3144:
.LBB3145:
.LBB3146:
.LBB3147:
	.loc 72 3367 59 view .LVU2973
	movq	32(%rbp), %rdi
	leaq	-24(%rdi), %rdi
.LVL1069:
	.loc 72 3367 59 view .LVU2974
.LBE3147:
.LBE3146:
.LBB3148:
.LBI3148:
	.loc 72 3295 2 is_stmt 1 view .LVU2975
.LBB3149:
.LBB3150:
.LBI3150:
	.loc 72 3218 9 view .LVU2976
	.loc 72 3218 9 is_stmt 0 view .LVU2977
.LBE3150:
	.loc 72 3298 4 view .LVU2978
	cmpq	_ZNSs4_Rep20_S_empty_rep_storageE@GOTPCREL(%rip), %rdi
	jne	.L620
.LVL1070:
.L616:
	.loc 72 3298 4 view .LVU2979
.LBE3149:
.LBE3148:
.LBE3145:
.LBE3144:
	.loc 71 47 40 view .LVU2980
	movq	%rbp, %rdi
	call	_ZNSt13runtime_errorD2Ev@PLT
.LVL1071:
	.loc 71 47 40 view .LVU2981
.LBE3143:
.LBE3142:
.LBB3172:
.LBI3172:
	.loc 69 407 13 is_stmt 1 view .LVU2982
	.loc 69 407 13 is_stmt 0 view .LVU2983
.LBE3172:
.LBE3136:
	.loc 68 103 69 view .LVU2984
	addq	$24, %rsp
	.cfi_remember_state
	.cfi_def_cfa_offset 24
	popq	%rbx
	.cfi_def_cfa_offset 16
.LVL1072:
	.loc 68 103 69 view .LVU2985
	popq	%rbp
	.cfi_def_cfa_offset 8
.LVL1073:
	.loc 68 103 69 view .LVU2986
	ret
.LVL1074:
.L620:
	.cfi_restore_state
.LBB3175:
.LBB3173:
.LBB3170:
.LBB3168:
.LBB3166:
.LBB3164:
.LBB3162:
	.loc 72 3311 50 view .LVU2987
	leaq	16(%rdi), %r8
.LVL1075:
.LBB3151:
.LBI3151:
	.loc 73 78 3 is_stmt 1 view .LVU2988
.LBB3152:
	.loc 73 81 5 view .LVU2989
.LBB3153:
.LBI3153:
	.loc 74 248 1 view .LVU2990
.LBE3153:
.LBE3152:
.LBE3151:
.LBE3162:
.LBE3164:
.LBE3166:
.LBE3168:
.LBE3170:
.LBE3173:
.LBE3175:
	.loc 74 250 3 view .LVU2991
	.loc 74 252 3 view .LVU2992
.LBB3176:
.LBB3174:
.LBB3171:
.LBB3169:
.LBB3167:
.LBB3165:
.LBB3163:
.LBB3160:
.LBB3158:
	.loc 73 81 5 is_stmt 0 view .LVU2993
	cmpq	$0, _ZL28__gthrw___pthread_key_createPjPFvPvE@GOTPCREL(%rip)
	je	.L617
	.loc 73 82 7 is_stmt 1 view .LVU2994
.LVL1076:
.LBB3154:
.LBI3154:
	.loc 73 48 3 view .LVU2995
.LBB3155:
	.loc 73 49 5 view .LVU2996
	.loc 73 49 46 is_stmt 0 view .LVU2997
	movl	$-1, %r9d
	lock xaddl	%r9d, (%r8)
.LVL1077:
.L618:
	.loc 73 49 46 view .LVU2998
.LBE3155:
.LBE3154:
.LBE3158:
.LBE3160:
	.loc 72 3311 8 view .LVU2999
	testl	%r9d, %r9d
	jg	.L616
	.loc 72 3315 5 view .LVU3000
	leaq	15(%rsp), %rsi
.LVL1078:
	.loc 72 3315 5 view .LVU3001
	call	_ZNSs4_Rep10_M_destroyERKSaIcE@PLT
.LVL1079:
	.loc 72 3315 5 view .LVU3002
	jmp	.L616
.LVL1080:
.L617:
.LBB3161:
.LBB3159:
	.loc 73 84 7 is_stmt 1 view .LVU3003
.LBB3156:
.LBI3156:
	.loc 73 65 3 view .LVU3004
.LBB3157:
	.loc 73 67 5 view .LVU3005
	.loc 73 67 18 is_stmt 0 view .LVU3006
	movl	16(%rdi), %r9d
.LVL1081:
	.loc 73 68 5 is_stmt 1 view .LVU3007
	.loc 73 68 12 is_stmt 0 view .LVU3008
	leal	-1(%r9), %r10d
	movl	%r10d, 16(%rdi)
	.loc 73 69 5 is_stmt 1 view .LVU3009
.LVL1082:
	.loc 73 69 5 is_stmt 0 view .LVU3010
	jmp	.L618
.LBE3157:
.LBE3156:
.LBE3159:
.LBE3161:
.LBE3163:
.LBE3165:
.LBE3167:
.LBE3169:
.LBE3171:
.LBE3174:
.LBE3176:
	.cfi_endproc
.LFE90:
	.section	.gcc_except_table
.LLSDA90:
	.byte	0xff
	.byte	0xff
	.byte	0x1
	.uleb128 .LLSDACSE90-.LLSDACSB90
.LLSDACSB90:
.LLSDACSE90:
	.text
	.size	_ZN5boost10wrapexceptINS_6system12system_errorEED2Ev, .-_ZN5boost10wrapexceptINS_6system12system_errorEED2Ev
	.set	_ZN5boost10wrapexceptINS_6system12system_errorEED1Ev,_ZN5boost10wrapexceptINS_6system12system_errorEED2Ev
	.type	_ZThn8_N5boost10wrapexceptINS_6system12system_errorEED0Ev, @function
_ZThn8_N5boost10wrapexceptINS_6system12system_errorEED0Ev:
.LFB92:
	.cfi_startproc
