	.file	"<artificial>"
	.text
.Ltext0:
	.type	boost_asio_detail_posix_thread_function, @function
boost_asio_detail_posix_thread_function:
.LVL0:
.LFB0:
	.file 1 "/usr/local/include/boost/asio/detail/impl/posix_thread.ipp"
	.loc 1 71 1 view -0
	.cfi_startproc
	.cfi_personality 0x9b,DW.ref.__gcc_personality_v0
	.cfi_lsda 0x1b,.LLSDA0
	.loc 1 71 1 is_stmt 0 view .LVU1
	pushq	%rbp
	.cfi_def_cfa_offset 16
	.cfi_offset 6, -16
	pushq	%rbx
	.cfi_def_cfa_offset 24
	.cfi_offset 3, -24
	subq	$8, %rsp
	.cfi_def_cfa_offset 32
	movq	%rdi, %rbx
	.loc 1 72 3 is_stmt 1 view .LVU2
	.loc 1 74 3 view .LVU3
	.loc 1 74 17 is_stmt 0 view .LVU4
	movq	(%rdi), %rax
.LEHB0:
	.loc 1 74 16 view .LVU5
	call	*16(%rax)
.LVL1:
.LEHE0:
	.loc 1 75 3 is_stmt 1 view .LVU6
.LBB2:
.LBI2:
	.file 2 "/usr/local/include/boost/asio/detail/posix_thread.hpp"
	.loc 2 71 5 view .LVU7
.LBB3:
	.loc 2 71 29 view .LVU8
	.loc 2 71 39 is_stmt 0 view .LVU9
	testq	%rbx, %rbx
	je	.L6
	.loc 2 71 36 view .LVU10
	movq	(%rbx), %rdx
	movq	%rbx, %rdi
	call	*8(%rdx)
.LVL2:
.L6:
	.loc 2 71 36 view .LVU11
.LBE3:
.LBE2:
	.loc 1 76 1 view .LVU12
	movl	$0, %eax
	addq	$8, %rsp
	.cfi_remember_state
	.cfi_def_cfa_offset 24
	popq	%rbx
	.cfi_def_cfa_offset 16
.LVL3:
	.loc 1 76 1 view .LVU13
	popq	%rbp
	.cfi_def_cfa_offset 8
	ret
.LVL4:
.L5:
	.cfi_restore_state
	.loc 1 76 1 view .LVU14
	movq	%rax, %rbp
.LVL5:
.LBB4:
.LBI4:
	.loc 2 71 5 is_stmt 1 view .LVU15
.LBB5:
	.loc 2 71 29 view .LVU16
	.loc 2 71 39 is_stmt 0 view .LVU17
	testq	%rbx, %rbx
	je	.L4
	.loc 2 71 36 view .LVU18
	movq	(%rbx), %rcx
	movq	%rbx, %rdi
	call	*8(%rcx)
.LVL6:
.L4:
	.loc 2 71 36 view .LVU19
	movq	%rbp, %rdi
.LEHB1:
	call	_Unwind_Resume@PLT
.LVL7:
.LEHE1:
.LBE5:
.LBE4:
	.cfi_endproc
.LFE0:
	.globl	__gcc_personality_v0
	.section	.gcc_except_table,"a",@progbits
.LLSDA0:
	.byte	0xff
	.byte	0xff
	.byte	0x1
	.uleb128 .LLSDACSE0-.LLSDACSB0
.LLSDACSB0:
	.uleb128 .LEHB0-.LFB0
	.uleb128 .LEHE0-.LEHB0
	.uleb128 .L5-.LFB0
	.uleb128 0
	.uleb128 .LEHB1-.LFB0
	.uleb128 .LEHE1-.LEHB1
	.uleb128 0
	.uleb128 0
.LLSDACSE0:
	.text
	.size	boost_asio_detail_posix_thread_function, .-boost_asio_detail_posix_thread_function
	.align 2
	.globl	_ZN5boost4asio17execution_context7service11notify_forkENS1_10fork_eventE
	.hidden	_ZN5boost4asio17execution_context7service11notify_forkENS1_10fork_eventE
	.type	_ZN5boost4asio17execution_context7service11notify_forkENS1_10fork_eventE, @function
_ZN5boost4asio17execution_context7service11notify_forkENS1_10fork_eventE:
.LVL8:
.LFB1:
	.file 3 "/usr/local/include/boost/asio/impl/execution_context.ipp"
	.loc 3 66 1 is_stmt 1 view -0
	.cfi_startproc
	.loc 3 67 1 view .LVU21
	ret
	.cfi_endproc
.LFE1:
	.size	_ZN5boost4asio17execution_context7service11notify_forkENS1_10fork_eventE, .-_ZN5boost4asio17execution_context7service11notify_forkENS1_10fork_eventE
	.section	.rodata.str1.1,"aMS",@progbits,1
.LC0:
	.string	"asio.misc"
	.text
	.align 2
	.globl	_ZNK5boost4asio5error6detail13misc_category4nameEv
	.hidden	_ZNK5boost4asio5error6detail13misc_category4nameEv
	.type	_ZNK5boost4asio5error6detail13misc_category4nameEv, @function
_ZNK5boost4asio5error6detail13misc_category4nameEv:
.LVL9:
.LFB2:
	.file 4 "/usr/local/include/boost/asio/impl/error.ipp"
	.loc 4 97 15 view -0
	.cfi_startproc
	.loc 4 99 5 view .LVU23
	.loc 4 100 3 is_stmt 0 view .LVU24
	leaq	.LC0(%rip), %rax
	ret
	.cfi_endproc
.LFE2:
	.size	_ZNK5boost4asio5error6detail13misc_category4nameEv, .-_ZNK5boost4asio5error6detail13misc_category4nameEv
	.section	.rodata.str1.1
.LC1:
	.string	"asio.addrinfo"
	.text
	.align 2
	.globl	_ZNK5boost4asio5error6detail17addrinfo_category4nameEv
	.hidden	_ZNK5boost4asio5error6detail17addrinfo_category4nameEv
	.type	_ZNK5boost4asio5error6detail17addrinfo_category4nameEv, @function
_ZNK5boost4asio5error6detail17addrinfo_category4nameEv:
.LVL10:
.LFB3:
	.loc 4 67 15 is_stmt 1 view -0
	.cfi_startproc
	.loc 4 69 5 view .LVU26
	.loc 4 70 3 is_stmt 0 view .LVU27
	leaq	.LC1(%rip), %rax
	ret
	.cfi_endproc
.LFE3:
	.size	_ZNK5boost4asio5error6detail17addrinfo_category4nameEv, .-_ZNK5boost4asio5error6detail17addrinfo_category4nameEv
	.section	.rodata.str1.1
.LC2:
	.string	"asio.netdb"
	.text
	.align 2
	.globl	_ZNK5boost4asio5error6detail14netdb_category4nameEv
	.hidden	_ZNK5boost4asio5error6detail14netdb_category4nameEv
	.type	_ZNK5boost4asio5error6detail14netdb_category4nameEv, @function
_ZNK5boost4asio5error6detail14netdb_category4nameEv:
.LVL11:
.LFB4:
	.loc 4 35 15 is_stmt 1 view -0
	.cfi_startproc
	.loc 4 37 5 view .LVU29
	.loc 4 38 3 is_stmt 0 view .LVU30
	leaq	.LC2(%rip), %rax
	ret
	.cfi_endproc
.LFE4:
	.size	_ZNK5boost4asio5error6detail14netdb_category4nameEv, .-_ZNK5boost4asio5error6detail14netdb_category4nameEv
	.align 2
	.globl	_ZNK5boost6system6detail21system_error_category23default_error_conditionEi
	.hidden	_ZNK5boost6system6detail21system_error_category23default_error_conditionEi
	.type	_ZNK5boost6system6detail21system_error_category23default_error_conditionEi, @function
_ZNK5boost6system6detail21system_error_category23default_error_conditionEi:
.LVL12:
.LFB5:
	.file 5 "/usr/local/include/boost/system/error_code.hpp"
	.loc 5 943 1 is_stmt 1 view -0
	.cfi_startproc
	.loc 5 944 5 view .LVU32
.LBB21:
.LBI21:
	.file 6 "/usr/local/include/boost/system/detail/system_category_posix.hpp"
	.loc 6 116 24 view .LVU33
.LBB22:
	.loc 6 118 5 view .LVU34
.LBB23:
.LBI23:
	.loc 6 19 13 view .LVU35
.LBB24:
	.loc 6 21 5 view .LVU36
	.loc 6 23 5 view .LVU37
	.loc 6 106 5 view .LVU38
	.loc 6 108 5 view .LVU39
	.loc 6 108 5 is_stmt 0 view .LVU40
.LBE24:
.LBE23:
.LBE22:
	.loc 6 108 14 view .LVU41
	movl	$0, %eax
.LBB48:
.LBB27:
.LBB26:
.LBB25:
	.loc 6 110 26 view .LVU42
	leaq	_ZZN5boost6system6detail16is_generic_valueEiE3gen(%rip), %rdx
.LVL13:
	.loc 6 108 23 is_stmt 1 view .LVU43
	.loc 6 110 9 view .LVU44
	.loc 6 110 26 is_stmt 0 view .LVU45
	movslq	%eax, %rcx
	.loc 6 110 9 view .LVU46
	cmpl	(%rdx,%rcx,4), %esi
	je	.L18
	.loc 6 108 5 is_stmt 1 view .LVU47
	leal	1(%rax), %edi
.LVL14:
	.loc 6 108 23 view .LVU48
	.loc 6 110 9 view .LVU49
	cmpl	4(%rdx), %esi
	je	.L18
	.loc 6 108 5 view .LVU50
	addl	$1, %edi
.LVL15:
.L14:
	.loc 6 108 23 view .LVU51
	cmpl	$78, %edi
	jg	.L17
	.loc 6 110 9 view .LVU52
	.loc 6 110 26 is_stmt 0 view .LVU53
	movslq	%edi, %r8
	.loc 6 110 9 view .LVU54
	cmpl	(%rdx,%r8,4), %esi
	je	.L18
	.loc 6 108 5 is_stmt 1 view .LVU55
	addl	$1, %edi
	.loc 6 108 23 view .LVU56
	.loc 6 110 9 view .LVU57
	.loc 6 110 26 is_stmt 0 view .LVU58
	movslq	%edi, %r9
	.loc 6 110 9 view .LVU59
	cmpl	(%rdx,%r9,4), %esi
	je	.L18
	.loc 6 108 5 is_stmt 1 view .LVU60
	leal	1(%rdi), %r10d
	.loc 6 108 23 view .LVU61
	.loc 6 110 9 view .LVU62
	.loc 6 110 26 is_stmt 0 view .LVU63
	movslq	%r10d, %r11
	.loc 6 110 9 view .LVU64
	cmpl	(%rdx,%r11,4), %esi
	je	.L18
	.loc 6 108 5 is_stmt 1 view .LVU65
	leal	2(%rdi), %eax
	.loc 6 108 23 view .LVU66
	.loc 6 110 9 view .LVU67
	.loc 6 110 26 is_stmt 0 view .LVU68
	movslq	%eax, %rcx
	.loc 6 110 9 view .LVU69
	cmpl	(%rdx,%rcx,4), %esi
	je	.L18
	.loc 6 108 5 is_stmt 1 view .LVU70
	leal	3(%rdi), %r8d
	.loc 6 108 23 view .LVU71
	.loc 6 110 9 view .LVU72
	.loc 6 110 26 is_stmt 0 view .LVU73
	movslq	%r8d, %r9
	.loc 6 110 9 view .LVU74
	cmpl	(%rdx,%r9,4), %esi
	je	.L18
	.loc 6 108 5 is_stmt 1 view .LVU75
	leal	4(%rdi), %r10d
	.loc 6 108 23 view .LVU76
	.loc 6 110 9 view .LVU77
	.loc 6 110 26 is_stmt 0 view .LVU78
	movslq	%r10d, %r11
	.loc 6 110 9 view .LVU79
	cmpl	(%rdx,%r11,4), %esi
	je	.L18
	.loc 6 108 5 is_stmt 1 view .LVU80
	leal	5(%rdi), %eax
	.loc 6 108 23 view .LVU81
	.loc 6 110 9 view .LVU82
	.loc 6 110 26 is_stmt 0 view .LVU83
	movslq	%eax, %rcx
	.loc 6 110 9 view .LVU84
	cmpl	(%rdx,%rcx,4), %esi
	je	.L18
	.loc 6 108 5 is_stmt 1 view .LVU85
	leal	6(%rdi), %r8d
	.loc 6 108 23 view .LVU86
	.loc 6 110 9 view .LVU87
	.loc 6 110 26 is_stmt 0 view .LVU88
	movslq	%r8d, %r9
	.loc 6 110 9 view .LVU89
	cmpl	(%rdx,%r9,4), %esi
	je	.L18
	.loc 6 108 5 is_stmt 1 view .LVU90
	leal	7(%rdi), %r10d
	.loc 6 108 23 view .LVU91
	.loc 6 110 9 view .LVU92
	.loc 6 110 26 is_stmt 0 view .LVU93
	movslq	%r10d, %r11
	.loc 6 110 9 view .LVU94
	cmpl	(%rdx,%r11,4), %esi
	je	.L18
	.loc 6 108 5 is_stmt 1 view .LVU95
	leal	8(%rdi), %eax
	.loc 6 108 23 view .LVU96
	.loc 6 110 9 view .LVU97
	.loc 6 110 26 is_stmt 0 view .LVU98
	movslq	%eax, %rcx
	.loc 6 110 9 view .LVU99
	cmpl	(%rdx,%rcx,4), %esi
	je	.L18
	.loc 6 108 5 is_stmt 1 view .LVU100
	leal	9(%rdi), %r8d
	.loc 6 108 23 view .LVU101
	.loc 6 110 9 view .LVU102
	.loc 6 110 26 is_stmt 0 view .LVU103
	movslq	%r8d, %r9
	.loc 6 110 9 view .LVU104
	cmpl	(%rdx,%r9,4), %esi
	je	.L18
	.loc 6 108 5 is_stmt 1 view .LVU105
	addl	$10, %edi
	jmp	.L14
.L17:
	.loc 6 108 5 is_stmt 0 view .LVU106
.LBE25:
.LBE26:
.LBE27:
.LBE48:
	.loc 6 113 12 view .LVU107
	movl	$0, %edx
	jmp	.L13
.L18:
	.loc 6 110 37 view .LVU108
	movl	$1, %edx
.L13:
.LVL16:
.LBB49:
	.loc 6 118 5 view .LVU109
	testb	%dl, %dl
	je	.L15
	.loc 6 120 9 is_stmt 1 view .LVU110
.LVL17:
.LBB28:
.LBI28:
	.loc 5 452 15 view .LVU111
.LBB29:
.LBB30:
.LBB31:
.LBI31:
	.loc 5 415 23 view .LVU112
.LBB32:
	.loc 5 417 5 view .LVU113
	.loc 5 417 5 is_stmt 0 view .LVU114
.LBE32:
.LBE31:
.LBE30:
.LBE29:
.LBE28:
.LBE49:
.LBE21:
	.loc 5 235 9 is_stmt 1 view .LVU115
	.loc 5 235 9 view .LVU116
.LBB52:
.LBB50:
.LBB37:
.LBB36:
.LBB35:
.LBB34:
.LBB33:
	.loc 5 419 9 view .LVU117
	.loc 5 419 22 is_stmt 0 view .LVU118
	testl	%esi, %esi
.LVL18:
	.loc 5 419 22 view .LVU119
.LBE33:
.LBE34:
	.loc 5 453 77 view .LVU120
	setne	%r11b
	movzbl	%r11b, %edx
	salq	$32, %rdx
	movl	%esi, %eax
.LVL19:
	.loc 5 453 77 view .LVU121
.LBE35:
.LBE36:
.LBE37:
	.loc 6 120 56 view .LVU122
	orq	%rdx, %rax
	movq	_ZN5boost6system6detail10cat_holderIvE25generic_category_instanceE@GOTPCREL(%rip), %rdx
	ret
.L15:
	.loc 6 124 9 is_stmt 1 view .LVU123
.LVL20:
.LBB38:
.LBI38:
	.loc 5 452 15 view .LVU124
.LBB39:
.LBB40:
.LBB41:
.LBI41:
	.loc 5 415 23 view .LVU125
.LBB42:
	.loc 5 417 5 view .LVU126
	.loc 5 417 5 is_stmt 0 view .LVU127
.LBE42:
.LBE41:
.LBE40:
.LBE39:
.LBE38:
.LBE50:
.LBE52:
	.loc 5 235 9 is_stmt 1 view .LVU128
.LBB53:
.LBB51:
.LBB47:
.LBB46:
.LBB45:
.LBB44:
.LBB43:
	.loc 5 419 9 view .LVU129
	.loc 5 419 22 is_stmt 0 view .LVU130
	testl	%esi, %esi
.LVL21:
	.loc 5 419 22 view .LVU131
.LBE43:
.LBE44:
	.loc 5 453 77 view .LVU132
	setne	%dil
	movzbl	%dil, %edx
	salq	$32, %rdx
	movl	%esi, %eax
.LVL22:
	.loc 5 453 77 view .LVU133
.LBE45:
.LBE46:
.LBE47:
	.loc 6 124 55 view .LVU134
	orq	%rdx, %rax
	movq	_ZN5boost6system6detail10cat_holderIvE24system_category_instanceE@GOTPCREL(%rip), %rdx
.LVL23:
	.loc 6 124 55 view .LVU135
.LBE51:
.LBE53:
	.loc 5 945 1 view .LVU136
	ret
	.cfi_endproc
.LFE5:
	.size	_ZNK5boost6system6detail21system_error_category23default_error_conditionEi, .-_ZNK5boost6system6detail21system_error_category23default_error_conditionEi
	.align 2
	.globl	_ZNK5boost6system14error_category6failedEi
	.hidden	_ZNK5boost6system14error_category6failedEi
	.type	_ZNK5boost6system14error_category6failedEi, @function
_ZNK5boost6system14error_category6failedEi:
.LVL24:
.LFB7:
	.loc 5 895 1 is_stmt 1 view -0
	.cfi_startproc
	.loc 5 896 5 view .LVU138
	.loc 5 896 18 is_stmt 0 view .LVU139
	testl	%esi, %esi
	setne	%al
	.loc 5 897 1 view .LVU140
	ret
	.cfi_endproc
.LFE7:
	.size	_ZNK5boost6system14error_category6failedEi, .-_ZNK5boost6system14error_category6failedEi
	.align 2
	.globl	_ZNK5boost6system14error_category10equivalentERKNS0_10error_codeEi
	.hidden	_ZNK5boost6system14error_category10equivalentERKNS0_10error_codeEi
	.type	_ZNK5boost6system14error_category10equivalentERKNS0_10error_codeEi, @function
_ZNK5boost6system14error_category10equivalentERKNS0_10error_codeEi:
.LVL25:
.LFB8:
	.loc 5 842 1 is_stmt 1 view -0
	.cfi_startproc
	.loc 5 843 5 view .LVU142
.LBB54:
.LBI54:
	.loc 5 630 38 view .LVU143
.LBB55:
	.loc 5 632 9 view .LVU144
	.loc 5 632 17 is_stmt 0 view .LVU145
	movq	8(%rsi), %rcx
.LVL26:
	.loc 5 632 17 view .LVU146
.LBE55:
.LBE54:
.LBB56:
.LBI56:
	.loc 5 233 20 is_stmt 1 view .LVU147
.LBB57:
	.loc 5 235 9 view .LVU148
	.loc 5 235 20 is_stmt 0 view .LVU149
	movq	8(%rcx), %rax
	.loc 5 235 28 view .LVU150
	testq	%rax, %rax
	jne	.L35
	cmpq	%rcx, %rdi
	sete	%al
.L36:
.LVL27:
	.loc 5 235 28 view .LVU151
.LBE57:
.LBE56:
	.loc 5 843 37 view .LVU152
	testb	%al, %al
	je	.L34
.LVL28:
.LBB59:
.LBI59:
	.loc 5 625 19 is_stmt 1 view .LVU153
.LBB60:
	.loc 5 627 9 view .LVU154
	.loc 5 627 9 is_stmt 0 view .LVU155
.LBE60:
.LBE59:
	.loc 5 843 37 view .LVU156
	cmpl	(%rsi), %edx
	je	.L34
	movl	$0, %eax
.L34:
	.loc 5 844 1 view .LVU157
	ret
.LVL29:
.L35:
.LBB61:
.LBB58:
	.loc 5 235 28 view .LVU158
	cmpq	%rax, 8(%rdi)
	sete	%al
	jmp	.L36
.LBE58:
.LBE61:
	.cfi_endproc
.LFE8:
	.size	_ZNK5boost6system14error_category10equivalentERKNS0_10error_codeEi, .-_ZNK5boost6system14error_category10equivalentERKNS0_10error_codeEi
	.align 2
	.globl	_ZNK5boost6system14error_category10equivalentEiRKNS0_15error_conditionE
	.hidden	_ZNK5boost6system14error_category10equivalentEiRKNS0_15error_conditionE
	.type	_ZNK5boost6system14error_category10equivalentEiRKNS0_15error_conditionE, @function
_ZNK5boost6system14error_category10equivalentEiRKNS0_15error_conditionE:
.LVL30:
.LFB9:
	.loc 5 837 1 is_stmt 1 view -0
	.cfi_startproc
	.loc 5 837 1 is_stmt 0 view .LVU160
	pushq	%rbx
	.cfi_def_cfa_offset 16
	.cfi_offset 3, -16
	movq	%rdx, %rbx
	.loc 5 838 5 is_stmt 1 view .LVU161
	.loc 5 838 42 is_stmt 0 view .LVU162
	movq	(%rdi), %rax
	call	*8(%rax)
.LVL31:
.LBB62:
.LBI62:
	.loc 5 542 34 is_stmt 1 view .LVU163
.LBB63:
	.loc 5 544 9 view .LVU164
	.loc 5 544 37 is_stmt 0 view .LVU165
	cmpl	%eax, (%rbx)
	je	.L45
.LBE63:
.LBE62:
	movl	$0, %eax
.L40:
.LVL32:
	.loc 5 839 1 view .LVU166
	popq	%rbx
	.cfi_remember_state
	.cfi_def_cfa_offset 8
.LVL33:
	.loc 5 839 1 view .LVU167
	ret
.LVL34:
.L45:
	.cfi_restore_state
.LBB67:
.LBB66:
	.loc 5 544 58 view .LVU168
	movq	8(%rbx), %rcx
.LVL35:
.LBB64:
.LBI64:
	.loc 5 233 20 is_stmt 1 view .LVU169
.LBB65:
	.loc 5 235 9 view .LVU170
	.loc 5 235 20 is_stmt 0 view .LVU171
	movq	8(%rcx), %rsi
	.loc 5 235 28 view .LVU172
	testq	%rsi, %rsi
	jne	.L41
	cmpq	%rdx, %rcx
	sete	%al
	jmp	.L40
.L41:
	cmpq	8(%rdx), %rsi
	sete	%al
.LVL36:
	.loc 5 235 28 view .LVU173
	jmp	.L40
.LBE65:
.LBE64:
.LBE66:
.LBE67:
	.cfi_endproc
.LFE9:
	.size	_ZNK5boost6system14error_category10equivalentEiRKNS0_15error_conditionE, .-_ZNK5boost6system14error_category10equivalentEiRKNS0_15error_conditionE
	.align 2
	.globl	_ZNK5boost6system14error_category23default_error_conditionEi
	.hidden	_ZNK5boost6system14error_category23default_error_conditionEi
	.type	_ZNK5boost6system14error_category23default_error_conditionEi, @function
_ZNK5boost6system14error_category23default_error_conditionEi:
.LVL37:
.LFB10:
	.loc 5 832 1 is_stmt 1 view -0
	.cfi_startproc
	.loc 5 832 1 is_stmt 0 view .LVU175
	pushq	%rbp
	.cfi_def_cfa_offset 16
	.cfi_offset 6, -16
	pushq	%rbx
	.cfi_def_cfa_offset 24
	.cfi_offset 3, -24
	subq	$8, %rsp
	.cfi_def_cfa_offset 32
	movq	%rdi, %rbx
	.loc 5 833 5 is_stmt 1 view .LVU176
.LVL38:
.LBB68:
.LBI68:
	.loc 5 452 15 view .LVU177
.LBB69:
.LBB70:
	.loc 5 453 77 is_stmt 0 view .LVU178
	movl	%esi, %ebp
.LVL39:
.LBB71:
.LBI71:
	.loc 5 415 23 is_stmt 1 view .LVU179
.LBB72:
	.loc 5 417 5 view .LVU180
.LBB73:
.LBI73:
	.loc 5 233 20 view .LVU181
.LBB74:
	.loc 5 235 9 view .LVU182
	.loc 5 235 44 is_stmt 0 view .LVU183
	movq	8(%rdi), %rax
.LVL40:
	.loc 5 235 44 view .LVU184
.LBE74:
.LBE73:
	.loc 5 417 34 view .LVU185
	movabsq	$-8093018978436915045, %rdx
	cmpq	%rdx, %rax
	je	.L47
.LVL41:
	.loc 5 417 34 view .LVU186
.LBE72:
.LBE71:
.LBE70:
.LBE69:
.LBE68:
	.loc 5 235 9 is_stmt 1 view .LVU187
.LBB83:
.LBB81:
.LBB79:
.LBB77:
.LBB75:
	.loc 5 417 34 is_stmt 0 view .LVU188
	movabsq	$-5572340897628102899, %rcx
	cmpq	%rcx, %rax
	je	.L47
	.loc 5 423 9 is_stmt 1 view .LVU189
	.loc 5 423 31 is_stmt 0 view .LVU190
	movq	(%rdi), %rax
	.loc 5 423 26 view .LVU191
	call	*48(%rax)
.LVL42:
.L49:
	.loc 5 423 26 view .LVU192
.LBE75:
.LBE77:
	.loc 5 453 77 view .LVU193
	movzbl	%al, %eax
	salq	$32, %rax
	orq	%rbp, %rax
.LVL43:
	.loc 5 453 77 view .LVU194
.LBE79:
.LBE81:
.LBE83:
	.loc 5 834 1 view .LVU195
	movq	%rbx, %rdx
	addq	$8, %rsp
	.cfi_remember_state
	.cfi_def_cfa_offset 24
	popq	%rbx
	.cfi_def_cfa_offset 16
.LVL44:
	.loc 5 834 1 view .LVU196
	popq	%rbp
	.cfi_def_cfa_offset 8
.LVL45:
	.loc 5 834 1 view .LVU197
	ret
.LVL46:
.L47:
	.cfi_restore_state
.LBB84:
.LBB82:
.LBB80:
.LBB78:
.LBB76:
	.loc 5 419 9 is_stmt 1 view .LVU198
	.loc 5 419 22 is_stmt 0 view .LVU199
	testl	%esi, %esi
	setne	%al
	jmp	.L49
.LBE76:
.LBE78:
.LBE80:
.LBE82:
.LBE84:
	.cfi_endproc
.LFE10:
	.size	_ZNK5boost6system14error_category23default_error_conditionEi, .-_ZNK5boost6system14error_category23default_error_conditionEi
	.section	.rodata.str1.1
.LC3:
	.string	"system"
	.text
	.align 2
	.globl	_ZNK5boost6system6detail21system_error_category4nameEv
	.hidden	_ZNK5boost6system6detail21system_error_category4nameEv
	.type	_ZNK5boost6system6detail21system_error_category4nameEv, @function
_ZNK5boost6system6detail21system_error_category4nameEv:
.LVL47:
.LFB11:
	.loc 5 308 18 is_stmt 1 view -0
	.cfi_startproc
	.loc 5 310 9 view .LVU201
	.loc 5 311 5 is_stmt 0 view .LVU202
	leaq	.LC3(%rip), %rax
	ret
	.cfi_endproc
.LFE11:
	.size	_ZNK5boost6system6detail21system_error_category4nameEv, .-_ZNK5boost6system6detail21system_error_category4nameEv
	.section	.rodata.str1.1
.LC4:
	.string	"generic"
	.text
	.align 2
	.type	_ZNK5boost6system6detail22generic_error_category4nameEv, @function
_ZNK5boost6system6detail22generic_error_category4nameEv:
.LVL48:
.LFB12:
	.loc 5 290 18 is_stmt 1 view -0
	.cfi_startproc
	.loc 5 292 9 view .LVU204
	.loc 5 293 5 is_stmt 0 view .LVU205
	leaq	.LC4(%rip), %rax
	ret
	.cfi_endproc
.LFE12:
	.size	_ZNK5boost6system6detail22generic_error_category4nameEv, .-_ZNK5boost6system6detail22generic_error_category4nameEv
	.globl	_ZN5boost4asio9execution6detail17any_executor_base10equal_voidERKS3_S5_
	.hidden	_ZN5boost4asio9execution6detail17any_executor_base10equal_voidERKS3_S5_
	.type	_ZN5boost4asio9execution6detail17any_executor_base10equal_voidERKS3_S5_, @function
_ZN5boost4asio9execution6detail17any_executor_base10equal_voidERKS3_S5_:
.LFB13:
	.file 7 "/usr/local/include/boost/asio/execution/any_executor.hpp"
	.loc 7 814 15 is_stmt 1 view -0
	.cfi_startproc
	.loc 7 816 5 view .LVU207
	.loc 7 817 3 is_stmt 0 view .LVU208
	movl	$1, %eax
	ret
	.cfi_endproc
.LFE13:
	.size	_ZN5boost4asio9execution6detail17any_executor_base10equal_voidERKS3_S5_, .-_ZN5boost4asio9execution6detail17any_executor_base10equal_voidERKS3_S5_
	.globl	_ZN5boost4asio9execution6detail17any_executor_base16target_type_voidEv
	.hidden	_ZN5boost4asio9execution6detail17any_executor_base16target_type_voidEv
	.type	_ZN5boost4asio9execution6detail17any_executor_base16target_type_voidEv, @function
_ZN5boost4asio9execution6detail17any_executor_base16target_type_voidEv:
.LFB14:
	.loc 7 809 32 is_stmt 1 view -0
	.cfi_startproc
	.loc 7 811 5 view .LVU210
	.loc 7 812 3 is_stmt 0 view .LVU211
	movq	_ZTIv@GOTPCREL(%rip), %rax
	ret
	.cfi_endproc
.LFE14:
	.size	_ZN5boost4asio9execution6detail17any_executor_base16target_type_voidEv, .-_ZN5boost4asio9execution6detail17any_executor_base16target_type_voidEv
	.globl	_ZN5boost4asio9execution6detail17any_executor_base11target_voidERKS3_
	.hidden	_ZN5boost4asio9execution6detail17any_executor_base11target_voidERKS3_
	.type	_ZN5boost4asio9execution6detail17any_executor_base11target_voidERKS3_, @function
_ZN5boost4asio9execution6detail17any_executor_base11target_voidERKS3_:
.LFB15:
	.loc 7 690 22 is_stmt 1 view -0
	.cfi_startproc
	.loc 7 692 5 view .LVU213
	.loc 7 693 3 is_stmt 0 view .LVU214
	movl	$0, %eax
	ret
	.cfi_endproc
.LFE15:
	.size	_ZN5boost4asio9execution6detail17any_executor_base11target_voidERKS3_, .-_ZN5boost4asio9execution6detail17any_executor_base11target_voidERKS3_
	.globl	_ZN5boost4asio9execution6detail17any_executor_base9move_voidERS3_S4_
	.hidden	_ZN5boost4asio9execution6detail17any_executor_base9move_voidERS3_S4_
	.type	_ZN5boost4asio9execution6detail17any_executor_base9move_voidERS3_S4_, @function
_ZN5boost4asio9execution6detail17any_executor_base9move_voidERS3_S4_:
.LVL49:
.LFB16:
	.loc 7 685 15 is_stmt 1 view -0
	.cfi_startproc
	.loc 7 687 5 view .LVU216
	.loc 7 687 17 is_stmt 0 view .LVU217
	movq	$0, 24(%rdi)
	.loc 7 688 3 view .LVU218
	ret
	.cfi_endproc
.LFE16:
	.size	_ZN5boost4asio9execution6detail17any_executor_base9move_voidERS3_S4_, .-_ZN5boost4asio9execution6detail17any_executor_base9move_voidERS3_S4_
	.globl	_ZN5boost4asio9execution6detail17any_executor_base9copy_voidERS3_RKS3_
	.hidden	_ZN5boost4asio9execution6detail17any_executor_base9copy_voidERS3_RKS3_
	.type	_ZN5boost4asio9execution6detail17any_executor_base9copy_voidERS3_RKS3_, @function
_ZN5boost4asio9execution6detail17any_executor_base9copy_voidERS3_RKS3_:
.LVL50:
.LFB17:
	.loc 7 680 15 is_stmt 1 view -0
	.cfi_startproc
	.loc 7 682 5 view .LVU220
	.loc 7 682 17 is_stmt 0 view .LVU221
	movq	$0, 24(%rdi)
	.loc 7 683 3 view .LVU222
	ret
	.cfi_endproc
.LFE17:
	.size	_ZN5boost4asio9execution6detail17any_executor_base9copy_voidERS3_RKS3_, .-_ZN5boost4asio9execution6detail17any_executor_base9copy_voidERS3_RKS3_
	.globl	_ZN5boost4asio9execution6detail17any_executor_base12destroy_voidERS3_
	.hidden	_ZN5boost4asio9execution6detail17any_executor_base12destroy_voidERS3_
	.type	_ZN5boost4asio9execution6detail17any_executor_base12destroy_voidERS3_, @function
_ZN5boost4asio9execution6detail17any_executor_base12destroy_voidERS3_:
.LFB18:
	.loc 7 676 15 is_stmt 1 view -0
	.cfi_startproc
	.loc 7 678 3 view .LVU224
	ret
	.cfi_endproc
.LFE18:
	.size	_ZN5boost4asio9execution6detail17any_executor_base12destroy_voidERS3_, .-_ZN5boost4asio9execution6detail17any_executor_base12destroy_voidERS3_
	.section	.rodata.str1.1
.LC5:
	.string	"bad executor"
	.text
	.align 2
	.globl	_ZNK5boost4asio9execution12bad_executor4whatEv
	.hidden	_ZNK5boost4asio9execution12bad_executor4whatEv
	.type	_ZNK5boost4asio9execution12bad_executor4whatEv, @function
_ZNK5boost4asio9execution12bad_executor4whatEv:
.LVL51:
.LFB19:
	.file 8 "/usr/local/include/boost/asio/execution/impl/bad_executor.ipp"
	.loc 8 32 1 view -0
	.cfi_startproc
	.loc 8 33 3 view .LVU226
	.loc 8 34 1 is_stmt 0 view .LVU227
	leaq	.LC5(%rip), %rax
	ret
	.cfi_endproc
.LFE19:
	.size	_ZNK5boost4asio9execution12bad_executor4whatEv, .-_ZNK5boost4asio9execution12bad_executor4whatEv
	.section	.rodata.str1.1
.LC6:
	.string	"multiple exceptions"
	.text
	.align 2
	.globl	_ZNK5boost4asio19multiple_exceptions4whatEv
	.hidden	_ZNK5boost4asio19multiple_exceptions4whatEv
	.type	_ZNK5boost4asio19multiple_exceptions4whatEv, @function
_ZNK5boost4asio19multiple_exceptions4whatEv:
.LVL52:
.LFB20:
	.file 9 "/usr/local/include/boost/asio/impl/multiple_exceptions.ipp"
	.loc 9 35 1 is_stmt 1 view -0
	.cfi_startproc
	.loc 9 36 3 view .LVU229
	.loc 9 37 1 is_stmt 0 view .LVU230
	leaq	.LC6(%rip), %rax
	ret
	.cfi_endproc
.LFE20:
	.size	_ZNK5boost4asio19multiple_exceptions4whatEv, .-_ZNK5boost4asio19multiple_exceptions4whatEv
	.globl	_ZN5boost4asio6detail10socket_ops14get_last_errorERNS_6system10error_codeEb
	.hidden	_ZN5boost4asio6detail10socket_ops14get_last_errorERNS_6system10error_codeEb
	.type	_ZN5boost4asio6detail10socket_ops14get_last_errorERNS_6system10error_codeEb, @function
_ZN5boost4asio6detail10socket_ops14get_last_errorERNS_6system10error_codeEb:
.LVL53:
.LFB21:
	.file 10 "/usr/local/include/boost/asio/detail/impl/socket_ops.ipp"
	.loc 10 79 1 is_stmt 1 view -0
	.cfi_startproc
	.loc 10 79 1 is_stmt 0 view .LVU232
	pushq	%rbp
	.cfi_def_cfa_offset 16
	.cfi_offset 6, -16
	pushq	%rbx
	.cfi_def_cfa_offset 24
	.cfi_offset 3, -24
	subq	$8, %rsp
	.cfi_def_cfa_offset 32
	movq	%rdi, %rbx
	.loc 10 80 3 is_stmt 1 view .LVU233
	testb	%sil, %sil
	jne	.L62
	movl	%esi, %eax
	.loc 10 82 5 view .LVU234
.LVL54:
.LBB99:
.LBI99:
	.loc 5 630 38 view .LVU235
.LBB100:
	.loc 5 632 9 view .LVU236
	.loc 5 632 17 is_stmt 0 view .LVU237
	movq	8(%rdi), %rbp
.LVL55:
	.loc 5 632 17 view .LVU238
.LBE100:
.LBE99:
.LBB101:
.LBI101:
	.loc 5 601 20 is_stmt 1 view .LVU239
.LBB102:
	.loc 5 603 9 view .LVU240
	.loc 5 603 14 is_stmt 0 view .LVU241
	movl	$0, (%rdi)
	.loc 5 604 9 is_stmt 1 view .LVU242
.LVL56:
.LBB103:
.LBI103:
	.loc 5 415 23 view .LVU243
.LBB104:
	.loc 5 417 5 view .LVU244
.LBB105:
.LBI105:
	.loc 5 233 20 view .LVU245
.LBB106:
	.loc 5 235 9 view .LVU246
	.loc 5 235 44 is_stmt 0 view .LVU247
	movq	8(%rbp), %r8
.LVL57:
	.loc 5 235 44 view .LVU248
.LBE106:
.LBE105:
	.loc 5 417 34 view .LVU249
	movabsq	$-8093018978436915045, %r9
	cmpq	%r9, %r8
	je	.L63
.LVL58:
	.loc 5 417 34 view .LVU250
.LBE104:
.LBE103:
.LBE102:
.LBE101:
	.loc 5 235 9 is_stmt 1 view .LVU251
.LBB110:
.LBB109:
.LBB108:
.LBB107:
	.loc 5 417 34 is_stmt 0 view .LVU252
	movabsq	$-5572340897628102899, %r10
	cmpq	%r10, %r8
	je	.L63
	.loc 5 423 9 is_stmt 1 view .LVU253
	.loc 5 423 31 is_stmt 0 view .LVU254
	movq	0(%rbp), %rax
	.loc 5 423 26 view .LVU255
	movl	$0, %esi
.LVL59:
	.loc 5 423 26 view .LVU256
	movq	%rbp, %rdi
.LVL60:
	.loc 5 423 26 view .LVU257
	call	*48(%rax)
.LVL61:
.L63:
	.loc 5 423 26 view .LVU258
.LBE107:
.LBE108:
	.loc 5 604 17 view .LVU259
	movb	%al, 4(%rbx)
	.loc 5 605 9 is_stmt 1 view .LVU260
	.loc 5 605 14 is_stmt 0 view .LVU261
	movq	%rbp, 8(%rbx)
	jmp	.L61
.LVL62:
.L62:
	.loc 5 605 14 view .LVU262
.LBE109:
.LBE110:
	.loc 10 90 5 is_stmt 1 view .LVU263
.LBB111:
.LBI111:
	.file 11 "/usr/local/include/boost/asio/error.hpp"
	.loc 11 228 45 view .LVU264
.LBE111:
	.loc 11 230 3 view .LVU265
	.loc 10 90 55 is_stmt 0 view .LVU266
	call	__errno_location@PLT
.LVL63:
	.loc 10 90 25 view .LVU267
	movl	(%rax), %eax
.LVL64:
.LBB112:
.LBI112:
	.loc 5 588 15 is_stmt 1 view .LVU268
.LBB113:
.LBB114:
.LBB115:
.LBI115:
	.loc 5 415 23 view .LVU269
.LBB116:
	.loc 5 417 5 view .LVU270
	.loc 5 417 5 is_stmt 0 view .LVU271
.LBE116:
.LBE115:
.LBE114:
.LBE113:
.LBE112:
	.loc 5 235 9 is_stmt 1 view .LVU272
.LBB121:
.LBB120:
.LBB119:
.LBB118:
.LBB117:
	.loc 5 419 9 view .LVU273
	.loc 5 419 22 is_stmt 0 view .LVU274
	testl	%eax, %eax
.LVL65:
	.loc 5 419 22 view .LVU275
.LBE117:
.LBE118:
	.loc 5 589 77 view .LVU276
	setne	%dl
	movzbl	%dl, %ecx
	salq	$32, %rcx
	movl	%eax, %esi
	orq	%rcx, %rsi
.LVL66:
	.loc 5 589 77 view .LVU277
.LBE119:
.LBE120:
.LBE121:
	.loc 10 90 8 view .LVU278
	movq	%rsi, (%rbx)
	movq	_ZN5boost6system6detail10cat_holderIvE24system_category_instanceE@GOTPCREL(%rip), %rdi
	movq	%rdi, 8(%rbx)
.L61:
	.loc 10 94 1 view .LVU279
	addq	$8, %rsp
	.cfi_def_cfa_offset 24
	popq	%rbx
	.cfi_def_cfa_offset 16
.LVL67:
	.loc 10 94 1 view .LVU280
	popq	%rbp
	.cfi_def_cfa_offset 8
	ret
	.cfi_endproc
.LFE21:
	.size	_ZN5boost4asio6detail10socket_ops14get_last_errorERNS_6system10error_codeEb, .-_ZN5boost4asio6detail10socket_ops14get_last_errorERNS_6system10error_codeEb
	.align 2
	.globl	_ZN5boost4asio6detail13epoll_reactor21free_descriptor_stateEPNS2_16descriptor_stateE
	.hidden	_ZN5boost4asio6detail13epoll_reactor21free_descriptor_stateEPNS2_16descriptor_stateE
	.type	_ZN5boost4asio6detail13epoll_reactor21free_descriptor_stateEPNS2_16descriptor_stateE, @function
_ZN5boost4asio6detail13epoll_reactor21free_descriptor_stateEPNS2_16descriptor_stateE:
.LVL68:
.LFB23:
	.file 12 "/usr/local/include/boost/asio/detail/impl/epoll_reactor.ipp"
	.loc 12 633 1 is_stmt 1 view -0
	.cfi_startproc
	.loc 12 633 1 is_stmt 0 view .LVU282
	pushq	%r12
	.cfi_def_cfa_offset 16
	.cfi_offset 12, -16
	pushq	%rbp
	.cfi_def_cfa_offset 24
	.cfi_offset 6, -24
	pushq	%rbx
	.cfi_def_cfa_offset 32
	.cfi_offset 3, -32
	subq	$16, %rsp
	.cfi_def_cfa_offset 48
	movq	%rdi, %rbp
	movq	%rsi, %rbx
	.loc 12 634 3 is_stmt 1 view .LVU283
	.loc 12 634 39 is_stmt 0 view .LVU284
	leaq	136(%rdi), %r12
.LVL69:
.LBB135:
.LBI135:
	.file 13 "/usr/local/include/boost/asio/detail/conditionally_enabled_mutex.hpp"
	.loc 13 50 14 is_stmt 1 view .LVU285
.LBB136:
.LBB137:
.LBB138:
.LBI138:
	.file 14 "/usr/local/include/boost/asio/detail/noncopyable.hpp"
	.loc 14 29 3 view .LVU286
	.loc 14 29 3 is_stmt 0 view .LVU287
.LBE138:
	.loc 13 53 7 is_stmt 1 view .LVU288
	cmpb	$0, 184(%rdi)
	jne	.L74
	.loc 13 59 9 view .LVU289
	.loc 13 59 17 is_stmt 0 view .LVU290
	movb	$0, 8(%rsp)
.LVL70:
.L68:
	.loc 13 59 17 view .LVU291
.LBE137:
.LBE136:
.LBE135:
	.loc 12 635 3 is_stmt 1 view .LVU292
.LBB143:
.LBI143:
	.file 15 "/usr/local/include/boost/asio/detail/object_pool.hpp"
	.loc 15 126 8 view .LVU293
.LBB144:
	.loc 15 128 5 is_stmt 0 view .LVU294
	cmpq	192(%rbp), %rbx
	je	.L75
.L69:
	.loc 15 131 5 view .LVU295
	movq	32(%rbx), %rcx
	testq	%rcx, %rcx
	je	.L70
	.loc 15 133 7 view .LVU296
	movq	24(%rbx), %rdx
	movq	%rdx, 24(%rcx)
.L70:
	.loc 15 137 5 view .LVU297
	movq	24(%rbx), %rsi
	testq	%rsi, %rsi
	je	.L71
	.loc 15 139 7 view .LVU298
	movq	32(%rbx), %rdi
	movq	%rdi, 32(%rsi)
.L71:
	.loc 15 143 35 view .LVU299
	movq	200(%rbp), %r8
	.loc 15 143 5 view .LVU300
	movq	%r8, 24(%rbx)
	.loc 15 144 5 view .LVU301
	movq	$0, 32(%rbx)
	.loc 15 145 5 view .LVU302
	movq	%rbx, 200(%rbp)
.LVL71:
	.loc 15 145 5 view .LVU303
.LBE144:
.LBE143:
.LBB146:
.LBI146:
	.loc 13 63 5 is_stmt 1 view .LVU304
.LBB147:
	.loc 13 65 7 view .LVU305
	cmpb	$0, 8(%rsp)
	jne	.L76
.LVL72:
.L66:
	.loc 13 65 7 is_stmt 0 view .LVU306
.LBE147:
.LBE146:
	.loc 12 636 1 view .LVU307
	addq	$16, %rsp
	.cfi_remember_state
	.cfi_def_cfa_offset 32
	popq	%rbx
	.cfi_def_cfa_offset 24
.LVL73:
	.loc 12 636 1 view .LVU308
	popq	%rbp
	.cfi_def_cfa_offset 16
.LVL74:
	.loc 12 636 1 view .LVU309
	popq	%r12
	.cfi_def_cfa_offset 8
.LVL75:
	.loc 12 636 1 view .LVU310
	ret
.LVL76:
.L74:
	.cfi_restore_state
.LBB152:
.LBB142:
.LBB141:
	.loc 13 55 9 is_stmt 1 view .LVU311
.LBB139:
.LBI139:
	.file 16 "/usr/local/include/boost/asio/detail/posix_mutex.hpp"
	.loc 16 50 8 view .LVU312
.LBB140:
	.loc 16 52 5 view .LVU313
	.loc 16 52 31 is_stmt 0 view .LVU314
	leaq	144(%rdi), %rdi
.LVL77:
	.loc 16 52 31 view .LVU315
	call	pthread_mutex_lock@PLT
.LVL78:
	.loc 16 52 31 view .LVU316
.LBE140:
.LBE139:
	.loc 13 56 9 is_stmt 1 view .LVU317
	.loc 13 56 17 is_stmt 0 view .LVU318
	movb	$1, 8(%rsp)
	jmp	.L68
.LVL79:
.L75:
	.loc 13 56 17 view .LVU319
.LBE141:
.LBE142:
.LBE152:
.LBB153:
.LBB145:
	.loc 15 129 7 view .LVU320
	movq	24(%rbx), %rax
	movq	%rax, 192(%rbp)
	jmp	.L69
.LVL80:
.L76:
	.loc 15 129 7 view .LVU321
.LBE145:
.LBE153:
.LBB154:
.LBB151:
	.loc 13 66 9 is_stmt 1 view .LVU322
.LBB148:
.LBI148:
	.loc 16 56 8 view .LVU323
.LBB149:
	.loc 16 58 5 view .LVU324
	.loc 16 58 33 is_stmt 0 view .LVU325
	leaq	8(%r12), %rdi
.LVL81:
	.loc 16 58 33 view .LVU326
	call	pthread_mutex_unlock@PLT
.LVL82:
	.loc 16 58 33 view .LVU327
.LBE149:
.LBE148:
.LBB150:
.LBI150:
	.loc 14 30 3 is_stmt 1 view .LVU328
	.loc 14 30 3 is_stmt 0 view .LVU329
	jmp	.L66
.LBE150:
.LBE151:
.LBE154:
	.cfi_endproc
.LFE23:
	.size	_ZN5boost4asio6detail13epoll_reactor21free_descriptor_stateEPNS2_16descriptor_stateE, .-_ZN5boost4asio6detail13epoll_reactor21free_descriptor_stateEPNS2_16descriptor_stateE
	.globl	_ZN5boost4asio6detail18signal_set_service12pipe_read_op11do_completeEPvPNS1_19scheduler_operationERKNS_6system10error_codeEm
	.hidden	_ZN5boost4asio6detail18signal_set_service12pipe_read_op11do_completeEPvPNS1_19scheduler_operationERKNS_6system10error_codeEm
	.type	_ZN5boost4asio6detail18signal_set_service12pipe_read_op11do_completeEPvPNS1_19scheduler_operationERKNS_6system10error_codeEm, @function
_ZN5boost4asio6detail18signal_set_service12pipe_read_op11do_completeEPvPNS1_19scheduler_operationERKNS_6system10error_codeEm:
.LVL83:
.LFB25:
	.file 17 "/usr/local/include/boost/asio/detail/impl/signal_set_service.ipp"
	.loc 17 111 15 is_stmt 1 view -0
	.cfi_startproc
	.loc 17 115 5 view .LVU331
	.loc 17 116 5 view .LVU332
	.loc 17 116 13 is_stmt 0 view .LVU333
	testq	%rsi, %rsi
	je	.L80
	.loc 17 111 15 view .LVU334
	subq	$8, %rsp
	.cfi_def_cfa_offset 16
	movq	%rsi, %rdi
.LVL84:
.LBB155:
.LBI155:
	.loc 17 89 27 is_stmt 1 view .LVU335
.LBB156:
.LBI156:
	.file 18 "/usr/local/include/boost/asio/detail/reactor_op.hpp"
	.loc 18 27 7 view .LVU336
.LBB157:
.LBI157:
	.file 19 "/usr/local/include/boost/asio/detail/scheduler_operation.hpp"
	.loc 19 61 3 view .LVU337
	.loc 19 61 3 is_stmt 0 view .LVU338
.LBE157:
.LBE156:
.LBE155:
	.loc 17 116 12 view .LVU339
	movl	$56, %esi
.LVL85:
	.loc 17 116 12 view .LVU340
	call	_ZdlPvm@PLT
.LVL86:
	.loc 17 117 3 view .LVU341
	addq	$8, %rsp
	.cfi_def_cfa_offset 8
	ret
.LVL87:
.L80:
	.loc 17 117 3 view .LVU342
	ret
	.cfi_endproc
.LFE25:
	.size	_ZN5boost4asio6detail18signal_set_service12pipe_read_op11do_completeEPvPNS1_19scheduler_operationERKNS_6system10error_codeEm, .-_ZN5boost4asio6detail18signal_set_service12pipe_read_op11do_completeEPvPNS1_19scheduler_operationERKNS_6system10error_codeEm
	.type	boost_asio_signal_handler, @function
boost_asio_signal_handler:
.LVL88:
.LFB26:
	.loc 17 63 1 is_stmt 1 view -0
	.cfi_startproc
	.loc 17 63 1 is_stmt 0 view .LVU344
	pushq	%rbp
	.cfi_def_cfa_offset 16
	.cfi_offset 6, -16
	pushq	%rbx
	.cfi_def_cfa_offset 24
	.cfi_offset 3, -24
	subq	$24, %rsp
	.cfi_def_cfa_offset 48
	movl	%edi, 12(%rsp)
	.loc 17 71 3 is_stmt 1 view .LVU345
	.loc 17 71 40 is_stmt 0 view .LVU346
	call	__errno_location@PLT
.LVL89:
	.loc 17 71 40 view .LVU347
	movq	%rax, %rbx
	.loc 17 71 7 view .LVU348
	movl	(%rax), %ebp
.LVL90:
	.loc 17 72 3 is_stmt 1 view .LVU349
	.loc 17 57 3 view .LVU350
	.loc 17 59 3 view .LVU351
	.loc 17 73 3 view .LVU352
	.loc 17 73 36 is_stmt 0 view .LVU353
	leaq	12(%rsp), %rsi
	movl	$4, %edx
	movl	44+_ZZN5boost4asio6detail16get_signal_stateEvE5state(%rip), %edi
	call	write@PLT
.LVL91:
	.loc 17 75 3 is_stmt 1 view .LVU354
	.loc 17 76 3 view .LVU355
	.loc 17 76 26 is_stmt 0 view .LVU356
	movl	%ebp, (%rbx)
	.loc 17 84 1 view .LVU357
	addq	$24, %rsp
	.cfi_def_cfa_offset 24
	popq	%rbx
	.cfi_def_cfa_offset 16
	popq	%rbp
	.cfi_def_cfa_offset 8
.LVL92:
	.loc 17 84 1 view .LVU358
	ret
	.cfi_endproc
.LFE26:
	.size	boost_asio_signal_handler, .-boost_asio_signal_handler
	.section	.rodata.str1.8,"aMS",@progbits,1
	.align 8
.LC7:
	.string	"bool boost::asio::detail::posix_event::maybe_unlock_and_signal_one(Lock&) [with Lock = boost::asio::detail::conditionally_enabled_mutex::scoped_lock]"
	.align 8
.LC8:
	.string	"/usr/local/include/boost/asio/detail/posix_event.hpp"
	.section	.rodata.str1.1
.LC9:
	.string	"lock.locked()"
	.text
	.globl	_ZN5boost4asio6detail18signal_set_service12pipe_read_op10do_performEPNS1_10reactor_opE
	.hidden	_ZN5boost4asio6detail18signal_set_service12pipe_read_op10do_performEPNS1_10reactor_opE
	.type	_ZN5boost4asio6detail18signal_set_service12pipe_read_op10do_performEPNS1_10reactor_opE, @function
_ZN5boost4asio6detail18signal_set_service12pipe_read_op10do_performEPNS1_10reactor_opE:
.LFB27:
	.loc 17 98 17 is_stmt 1 view -0
	.cfi_startproc
	.cfi_personality 0x9b,DW.ref.__gxx_personality_v0
	.cfi_lsda 0x1b,.LLSDA27
	pushq	%r15
	.cfi_def_cfa_offset 16
	.cfi_offset 15, -16
	pushq	%r14
	.cfi_def_cfa_offset 24
	.cfi_offset 14, -24
	pushq	%r13
	.cfi_def_cfa_offset 32
	.cfi_offset 13, -32
	pushq	%r12
	.cfi_def_cfa_offset 40
	.cfi_offset 12, -40
	pushq	%rbp
	.cfi_def_cfa_offset 48
	.cfi_offset 6, -48
	pushq	%rbx
	.cfi_def_cfa_offset 56
	.cfi_offset 3, -56
	subq	$120, %rsp
	.cfi_def_cfa_offset 176
	.loc 17 100 5 view .LVU360
	.loc 17 57 3 view .LVU361
	.loc 17 59 3 view .LVU362
.LVL93:
	.loc 17 102 5 view .LVU363
	.loc 17 102 9 is_stmt 0 view .LVU364
	movl	40+_ZZN5boost4asio6detail16get_signal_stateEvE5state(%rip), %r14d
.LVL94:
	.loc 17 103 5 is_stmt 1 view .LVU365
	.loc 17 103 9 is_stmt 0 view .LVU366
	movl	$0, 92(%rsp)
	.loc 17 104 18 view .LVU367
	leaq	92(%rsp), %rax
	movq	%rax, 8(%rsp)
.LBB268:
.LBB269:
.LBB270:
.LBB271:
.LBB272:
.LBB273:
.LBB274:
.LBB275:
.LBB276:
	.loc 19 45 10 view .LVU368
	leaq	96(%rsp), %r13
.L87:
	.loc 19 45 10 view .LVU369
.LBE276:
.LBE275:
.LBE274:
.LBE273:
.LBE272:
.LBE271:
.LBE270:
.LBE269:
.LBE268:
	.loc 17 104 5 is_stmt 1 view .LVU370
	.loc 17 104 52 view .LVU371
	.loc 17 104 18 is_stmt 0 view .LVU372
	movl	$4, %edx
	movq	8(%rsp), %rsi
	movl	%r14d, %edi
.LEHB2:
	call	read@PLT
.LVL95:
.LEHE2:
	.loc 17 104 52 view .LVU373
	cmpq	$4, %rax
	jne	.L86
	.loc 17 105 7 is_stmt 1 view .LVU374
	.loc 17 105 30 is_stmt 0 view .LVU375
	movl	92(%rsp), %ebx
	.loc 17 105 7 view .LVU376
	cmpl	$64, %ebx
	ja	.L87
	.loc 17 106 9 is_stmt 1 view .LVU377
.LVL96:
.LBB430:
.LBI268:
	.loc 17 466 6 view .LVU378
.LBB425:
	.loc 17 468 3 view .LVU379
.LBE425:
.LBE430:
	.loc 17 57 3 view .LVU380
	.loc 17 59 3 view .LVU381
.LBB431:
.LBB426:
	.loc 17 469 3 view .LVU382
.LBB412:
.LBI412:
	.file 20 "/usr/local/include/boost/asio/detail/scoped_lock.hpp"
	.loc 20 43 12 view .LVU383
.LBB413:
.LBI413:
	.loc 14 29 3 view .LVU384
	.loc 14 29 3 is_stmt 0 view .LVU385
.LBE413:
.LBB414:
.LBI414:
	.file 21 "/usr/local/include/boost/asio/detail/posix_static_mutex.hpp"
	.loc 21 42 8 is_stmt 1 view .LVU386
.LBB415:
	.loc 21 44 5 view .LVU387
	.loc 21 44 31 is_stmt 0 view .LVU388
	leaq	_ZZN5boost4asio6detail16get_signal_stateEvE5state(%rip), %rdi
	call	pthread_mutex_lock@PLT
.LVL97:
	.loc 21 44 31 view .LVU389
.LBE415:
.LBE414:
.LBE412:
	.loc 17 471 3 is_stmt 1 view .LVU390
	.loc 17 471 23 is_stmt 0 view .LVU391
	movq	56+_ZZN5boost4asio6detail16get_signal_stateEvE5state(%rip), %r12
.LVL98:
.LBB416:
	.loc 17 476 19 view .LVU392
	movslq	%ebx, %rdx
	addq	$8, %rdx
	movq	%rdx, 16(%rsp)
.L120:
	.loc 17 476 19 view .LVU393
.LBE416:
	.loc 17 472 3 is_stmt 1 view .LVU394
	.loc 17 472 10 view .LVU395
	testq	%r12, %r12
	je	.L88
.LBB417:
	.loc 17 474 5 view .LVU396
.LVL99:
.LBB291:
.LBI291:
	.file 22 "/usr/local/include/boost/asio/detail/op_queue.hpp"
	.loc 22 69 3 view .LVU397
.LBB292:
.LBB293:
.LBB294:
.LBI294:
	.loc 14 29 3 view .LVU398
	.loc 14 29 3 is_stmt 0 view .LVU399
.LBE294:
	.loc 22 71 14 view .LVU400
	movq	$0, 48(%rsp)
	movq	$0, 56(%rsp)
.LVL100:
	.loc 22 71 14 view .LVU401
.LBE293:
.LBE292:
.LBE291:
	.loc 17 476 5 is_stmt 1 view .LVU402
	.loc 17 476 19 is_stmt 0 view .LVU403
	movq	16(%rsp), %rcx
	movq	(%r12,%rcx,8), %rax
.LVL101:
	.loc 17 476 19 view .LVU404
	jmp	.L96
.L126:
.LBB295:
.LBB296:
	.loc 17 481 9 is_stmt 1 view .LVU405
	movq	16(%rax), %r15
	leaq	1(%r15), %rdx
	movq	%rdx, 16(%rax)
.L91:
	.loc 17 481 9 is_stmt 0 view .LVU406
.LBE296:
	.loc 17 493 7 is_stmt 1 view .LVU407
	.loc 17 493 11 is_stmt 0 view .LVU408
	movq	24(%rax), %rax
.LVL102:
.L96:
	.loc 17 493 11 view .LVU409
.LBE295:
	.loc 17 477 5 is_stmt 1 view .LVU410
	.loc 17 477 12 view .LVU411
	testq	%rax, %rax
	je	.L89
.LBB322:
	.loc 17 479 7 view .LVU412
.LBB320:
	.loc 17 479 16 is_stmt 0 view .LVU413
	movq	8(%rax), %rsi
.LVL103:
.LBB297:
.LBI297:
	.loc 22 137 8 is_stmt 1 view .LVU414
	.loc 22 137 8 is_stmt 0 view .LVU415
.LBE297:
	.loc 17 479 7 view .LVU416
	cmpq	$0, (%rsi)
	je	.L126
	jmp	.L90
.LVL104:
.L127:
.LBB298:
.LBB299:
.LBB300:
.LBB301:
	.loc 22 99 9 view .LVU417
	movq	$0, 8(%r8)
.L93:
.LVL105:
.LBB302:
.LBI302:
	.loc 22 39 15 is_stmt 1 view .LVU418
.LBB303:
	.loc 22 41 5 is_stmt 0 view .LVU419
	movq	$0, (%r9)
.LVL106:
.L92:
	.loc 22 41 5 view .LVU420
.LBE303:
.LBE302:
.LBE301:
.LBE300:
.LBE299:
	.loc 17 489 11 is_stmt 1 view .LVU421
.LBB308:
.LBI308:
	.loc 22 105 8 view .LVU422
.LBB309:
.LBB310:
.LBI310:
	.loc 22 39 15 view .LVU423
.LBB311:
	.loc 22 41 5 is_stmt 0 view .LVU424
	movq	$0, 0(%rbp)
.LVL107:
	.loc 22 41 5 view .LVU425
.LBE311:
.LBE310:
	.loc 22 108 9 view .LVU426
	movq	56(%rsp), %r11
	.loc 22 108 5 view .LVU427
	testq	%r11, %r11
	je	.L94
.LVL108:
.LBB312:
.LBI312:
	.loc 22 39 15 is_stmt 1 view .LVU428
.LBB313:
	.loc 22 41 5 is_stmt 0 view .LVU429
	movq	%rbp, (%r11)
.LVL109:
	.loc 22 41 5 view .LVU430
.LBE313:
.LBE312:
	.loc 22 111 7 view .LVU431
	movq	%rbp, 56(%rsp)
.LVL110:
.L90:
	.loc 22 111 7 view .LVU432
.LBE309:
.LBE308:
.LBE298:
.LBE320:
.LBE322:
.LBE417:
.LBE426:
.LBE431:
	.loc 17 485 9 is_stmt 1 view .LVU433
.LBB432:
.LBB427:
.LBB418:
.LBB323:
.LBB321:
.LBB319:
	.loc 17 485 37 is_stmt 0 view .LVU434
	movq	8(%rax), %rdi
.LVL111:
.LBB315:
.LBI315:
	.loc 22 86 14 is_stmt 1 view .LVU435
.LBB316:
	.loc 22 88 12 is_stmt 0 view .LVU436
	movq	(%rdi), %rbp
.LVL112:
	.loc 22 88 12 view .LVU437
.LBE316:
.LBE315:
	.loc 17 485 51 view .LVU438
	testq	%rbp, %rbp
	je	.L91
	.loc 17 487 11 is_stmt 1 view .LVU439
	.loc 17 487 30 is_stmt 0 view .LVU440
	movl	%ebx, 40(%rbp)
	.loc 17 488 11 is_stmt 1 view .LVU441
	.loc 17 488 16 is_stmt 0 view .LVU442
	movq	8(%rax), %r8
.LVL113:
.LBB317:
.LBI299:
	.loc 22 92 8 is_stmt 1 view .LVU443
.LBB307:
	.loc 22 94 9 is_stmt 0 view .LVU444
	movq	(%r8), %r9
	.loc 22 94 5 view .LVU445
	testq	%r9, %r9
	je	.L92
.LVL114:
.LBB306:
.LBB304:
.LBI304:
	.loc 22 33 21 is_stmt 1 view .LVU446
.LBB305:
	.loc 22 35 44 is_stmt 0 view .LVU447
	movq	(%r9), %r10
.LVL115:
	.loc 22 35 44 view .LVU448
.LBE305:
.LBE304:
	.loc 22 97 7 view .LVU449
	movq	%r10, (%r8)
	.loc 22 98 7 view .LVU450
	testq	%r10, %r10
	jne	.L93
	jmp	.L127
.LVL116:
.L94:
	.loc 22 98 7 view .LVU451
.LBE306:
.LBE307:
.LBE317:
.LBB318:
.LBB314:
	.loc 22 115 7 view .LVU452
	movq	%rbp, 56(%rsp)
	movq	%rbp, 48(%rsp)
	jmp	.L90
.LVL117:
.L89:
	.loc 22 115 7 view .LVU453
.LBE314:
.LBE318:
.LBE319:
.LBE321:
.LBE323:
	.loc 17 496 5 is_stmt 1 view .LVU454
	.loc 17 496 14 is_stmt 0 view .LVU455
	movq	40(%r12), %rbp
.LVL118:
.LBB324:
.LBI324:
	.file 23 "/usr/local/include/boost/asio/detail/impl/scheduler.ipp"
	.loc 23 399 6 is_stmt 1 view .LVU456
.LBE324:
.LBE418:
.LBE427:
.LBE432:
	.loc 23 402 3 view .LVU457
.LBB433:
.LBB428:
.LBB419:
.LBB408:
.LBB325:
.LBB326:
.LBI326:
	.loc 22 137 8 view .LVU458
.LBB327:
	.loc 22 139 12 is_stmt 0 view .LVU459
	movq	48(%rsp), %r15
.LVL119:
	.loc 22 139 12 view .LVU460
.LBE327:
.LBE326:
	.loc 23 402 3 view .LVU461
	testq	%r15, %r15
	je	.L97
.LBB328:
	.loc 23 405 5 is_stmt 1 view .LVU462
.LBB329:
	cmpb	$0, 40(%rbp)
	je	.L98
.LBE329:
.LBE328:
.LBE325:
.LBE408:
.LBE419:
.LBE428:
.LBE433:
	.loc 23 407 7 view .LVU463
.LVL120:
.LBB434:
.LBB429:
.LBB420:
.LBB409:
.LBB406:
.LBB404:
.LBB341:
.LBB330:
.LBB331:
.LBI331:
	.file 24 "/usr/local/include/boost/asio/detail/call_stack.hpp"
	.loc 24 93 17 view .LVU464
.LBB332:
.LBB333:
.LBI333:
	.file 25 "/usr/local/include/boost/asio/detail/keyword_tss_ptr.hpp"
	.loc 25 46 3 view .LVU465
.LBB334:
	.loc 25 48 12 is_stmt 0 view .LVU466
	data16	leaq	_ZN5boost4asio6detail15keyword_tss_ptrINS1_10call_stackINS1_14thread_contextENS1_16thread_info_baseEE7contextEE6value_E@tlsgd(%rip), %rdi
	.value	0x6666
	rex64
	call	__tls_get_addr@PLT
.LVL121:
	.loc 25 48 12 view .LVU467
	movq	(%rax), %rcx
.LVL122:
.L101:
	.loc 25 48 12 view .LVU468
.LBE334:
.LBE333:
	.loc 24 96 5 is_stmt 1 view .LVU469
	testq	%rcx, %rcx
	je	.L99
	.loc 24 98 7 is_stmt 0 view .LVU470
	cmpq	(%rcx), %rbp
	je	.L128
	.loc 24 100 7 view .LVU471
	movq	16(%rcx), %rcx
.LVL123:
	.loc 24 100 7 view .LVU472
	jmp	.L101
.L128:
	.loc 24 99 22 view .LVU473
	movq	8(%rcx), %rcx
.LVL124:
.L99:
	.loc 24 99 22 view .LVU474
.LBE332:
.LBE331:
	.loc 23 407 7 view .LVU475
	testq	%rcx, %rcx
	je	.L98
	.loc 23 409 9 is_stmt 1 view .LVU476
.LVL125:
.LBB335:
.LBI335:
	.loc 22 122 8 view .LVU477
.LBB336:
	.loc 22 126 11 is_stmt 0 view .LVU478
	movq	48(%rcx), %rdi
	.loc 22 126 7 view .LVU479
	testq	%rdi, %rdi
	je	.L102
.LVL126:
.LBB337:
.LBI337:
	.loc 22 39 15 is_stmt 1 view .LVU480
.LBB338:
	.loc 22 41 5 is_stmt 0 view .LVU481
	movq	%r15, (%rdi)
.LVL127:
.L103:
	.loc 22 41 5 view .LVU482
.LBE338:
.LBE337:
	.loc 22 130 7 view .LVU483
	movq	56(%rsp), %r8
	movq	%r8, 48(%rcx)
	.loc 22 131 7 view .LVU484
	movq	$0, 48(%rsp)
.LVL128:
	.loc 22 131 7 view .LVU485
.LBE336:
.LBE335:
	.loc 23 410 9 is_stmt 1 view .LVU486
	jmp	.L97
.LVL129:
.L102:
.LBB340:
.LBB339:
	.loc 22 129 9 is_stmt 0 view .LVU487
	movq	%r15, 40(%rcx)
	jmp	.L103
.LVL130:
.L98:
	.loc 22 129 9 view .LVU488
.LBE339:
.LBE340:
.LBE330:
.LBE341:
	.loc 23 415 5 is_stmt 1 view .LVU489
	.loc 23 415 29 is_stmt 0 view .LVU490
	leaq	48(%rbp), %rsi
.LVL131:
.LBB342:
.LBI342:
	.loc 13 50 14 is_stmt 1 view .LVU491
.LBB343:
.LBB344:
.LBB345:
.LBI345:
	.loc 14 29 3 view .LVU492
	.loc 14 29 3 is_stmt 0 view .LVU493
.LBE345:
	.loc 13 51 17 view .LVU494
	movq	%rsi, 64(%rsp)
	.loc 13 53 7 is_stmt 1 view .LVU495
	cmpb	$0, 96(%rbp)
	jne	.L129
	.loc 13 59 9 view .LVU496
	.loc 13 59 17 is_stmt 0 view .LVU497
	movb	$0, 72(%rsp)
.LVL132:
.L105:
	.loc 13 59 17 view .LVU498
.LBE344:
.LBE343:
.LBE342:
	.loc 23 416 5 is_stmt 1 view .LVU499
.LBB350:
.LBI350:
	.loc 22 122 8 view .LVU500
.LBB351:
	.loc 22 124 20 is_stmt 0 view .LVU501
	movq	48(%rsp), %rdi
.LVL133:
	.loc 22 124 5 view .LVU502
	testq	%rdi, %rdi
	je	.L106
	.loc 22 126 11 view .LVU503
	movq	224(%rbp), %r8
	.loc 22 126 7 view .LVU504
	testq	%r8, %r8
	je	.L107
.LVL134:
.LBB352:
.LBI352:
	.loc 22 39 15 is_stmt 1 view .LVU505
.LBB353:
	.loc 22 41 5 is_stmt 0 view .LVU506
	movq	%rdi, (%r8)
.LVL135:
.L108:
	.loc 22 41 5 view .LVU507
.LBE353:
.LBE352:
	.loc 22 130 7 view .LVU508
	movq	56(%rsp), %r9
	movq	%r9, 224(%rbp)
	.loc 22 131 7 view .LVU509
	movq	$0, 48(%rsp)
.L106:
.LVL136:
	.loc 22 131 7 view .LVU510
.LBE351:
.LBE350:
	.loc 23 417 5 is_stmt 1 view .LVU511
.LBB355:
.LBI355:
	.loc 23 636 6 view .LVU512
.LBB356:
	.loc 23 639 3 view .LVU513
.LBB357:
.LBI357:
	.file 26 "/usr/local/include/boost/asio/detail/conditionally_enabled_event.hpp"
	.loc 26 77 8 view .LVU514
.LBB358:
	.loc 26 80 5 view .LVU515
	movq	64(%rsp), %r10
	cmpb	$0, 48(%r10)
	jne	.L130
.LVL137:
.L109:
	.loc 26 80 5 is_stmt 0 view .LVU516
.LBE358:
.LBE357:
	.loc 23 641 5 is_stmt 1 view .LVU517
	cmpb	$0, 200(%rbp)
	jne	.L115
	.loc 23 641 31 is_stmt 0 view .LVU518
	movq	168(%rbp), %rsi
	.loc 23 641 28 view .LVU519
	testq	%rsi, %rsi
	je	.L115
	.loc 23 643 7 is_stmt 1 view .LVU520
	.loc 23 643 25 is_stmt 0 view .LVU521
	movb	$1, 200(%rbp)
	.loc 23 644 7 is_stmt 1 view .LVU522
.LVL138:
.LBB377:
.LBI377:
	.loc 12 568 6 view .LVU523
.LBB378:
	.loc 12 570 3 view .LVU524
	.loc 12 571 3 view .LVU525
	.loc 12 571 13 is_stmt 0 view .LVU526
	movl	$-2147483639, 36(%rsp)
	.loc 12 572 3 is_stmt 1 view .LVU527
	.loc 12 572 17 is_stmt 0 view .LVU528
	leaq	104(%rsi), %rbp
.LVL139:
	.loc 12 572 15 view .LVU529
	movq	%rbp, 40(%rsp)
	.loc 12 573 3 is_stmt 1 view .LVU530
.LVL140:
.LBB379:
.LBI379:
	.file 27 "/usr/local/include/boost/asio/detail/eventfd_select_interrupter.hpp"
	.loc 27 48 7 view .LVU531
.LBB380:
	.loc 27 50 5 view .LVU532
	.loc 27 50 12 is_stmt 0 view .LVU533
	movl	104(%rsi), %edx
.LVL141:
	.loc 27 50 12 view .LVU534
.LBE380:
.LBE379:
	.loc 12 573 12 view .LVU535
	leaq	36(%rsp), %rcx
	movl	112(%rsi), %edi
	movl	$3, %esi
.LVL142:
	.loc 12 573 12 view .LVU536
	call	epoll_ctl@PLT
.LVL143:
.L115:
	.loc 12 573 12 view .LVU537
.LBE378:
.LBE377:
	.loc 23 646 5 is_stmt 1 view .LVU538
.LBB381:
.LBI381:
	.loc 13 80 10 view .LVU539
.LBB382:
	.loc 13 82 7 view .LVU540
	cmpb	$0, 72(%rsp)
	je	.L114
	.loc 13 84 9 view .LVU541
	movq	64(%rsp), %rdi
.LVL144:
.LBB383:
.LBI383:
	.loc 13 132 8 view .LVU542
.LBB384:
	.loc 13 134 5 view .LVU543
	cmpb	$0, 48(%rdi)
	jne	.L131
.LVL145:
.L116:
	.loc 13 134 5 is_stmt 0 view .LVU544
.LBE384:
.LBE383:
	.loc 13 85 9 is_stmt 1 view .LVU545
	.loc 13 85 17 is_stmt 0 view .LVU546
	movb	$0, 72(%rsp)
.LVL146:
.L114:
	.loc 13 85 17 view .LVU547
.LBE382:
.LBE381:
.LBE356:
.LBE355:
.LBB394:
.LBI394:
	.loc 13 63 5 is_stmt 1 view .LVU548
.LBB395:
	.loc 13 65 7 view .LVU549
	cmpb	$0, 72(%rsp)
	jne	.L132
.LVL147:
.L97:
	.loc 13 65 7 is_stmt 0 view .LVU550
.LBE395:
.LBE394:
.LBE404:
.LBE406:
.LBE409:
	.loc 17 498 5 is_stmt 1 view .LVU551
	.loc 17 498 13 is_stmt 0 view .LVU552
	movq	584(%r12), %r12
.LVL148:
.LBB410:
.LBI271:
	.loc 22 76 3 is_stmt 1 view .LVU553
.L119:
.LBB290:
.LBB289:
	.loc 22 78 23 is_stmt 0 view .LVU554
	movq	48(%rsp), %rsi
.LVL149:
	.loc 22 78 5 view .LVU555
	testq	%rsi, %rsi
	je	.L120
.LVL150:
.LBB282:
.LBI282:
	.loc 22 92 8 is_stmt 1 view .LVU556
.LBB283:
.LBB284:
.LBI284:
	.loc 22 33 21 view .LVU557
.LBB285:
	.loc 22 35 44 is_stmt 0 view .LVU558
	movq	(%rsi), %r9
.LVL151:
	.loc 22 35 44 view .LVU559
.LBE285:
.LBE284:
	.loc 22 97 7 view .LVU560
	movq	%r9, 48(%rsp)
.LVL152:
.LBB286:
.LBI286:
	.loc 22 39 15 is_stmt 1 view .LVU561
.LBB287:
	.loc 22 41 5 is_stmt 0 view .LVU562
	movq	$0, (%rsi)
.LVL153:
	.loc 22 41 5 view .LVU563
.LBE287:
.LBE286:
.LBE283:
.LBE282:
.LBB288:
.LBI274:
	.loc 22 45 15 is_stmt 1 view .LVU564
.LBB281:
.LBI275:
	.loc 19 43 8 view .LVU565
.LBB280:
	.loc 19 45 5 view .LVU566
	movq	8(%rsi), %r10
.LVL154:
.LBB277:
.LBI277:
	.loc 5 583 15 view .LVU567
.LBB278:
.LBB279:
	.loc 5 584 63 is_stmt 0 view .LVU568
	movl	$0, 96(%rsp)
	movb	$0, 100(%rsp)
	movq	_ZN5boost6system6detail10cat_holderIvE24system_category_instanceE@GOTPCREL(%rip), %r15
	movq	%r15, 104(%rsp)
.LVL155:
	.loc 5 584 63 view .LVU569
.LBE279:
.LBE278:
.LBE277:
	.loc 19 45 10 view .LVU570
	movl	$0, %ecx
	movq	%r13, %rdx
	movl	$0, %edi
	call	*%r10
.LVL156:
	.loc 19 45 10 view .LVU571
	jmp	.L119
.LVL157:
.L129:
	.loc 19 45 10 view .LVU572
.LBE280:
.LBE281:
.LBE288:
.LBE289:
.LBE290:
.LBE410:
.LBB411:
.LBB407:
.LBB405:
.LBB400:
.LBB349:
.LBB348:
	.loc 13 55 9 is_stmt 1 view .LVU573
.LBB346:
.LBI346:
	.loc 16 50 8 view .LVU574
.LBB347:
	.loc 16 52 5 view .LVU575
	.loc 16 52 31 is_stmt 0 view .LVU576
	leaq	56(%rbp), %rdi
	call	pthread_mutex_lock@PLT
.LVL158:
	.loc 16 52 31 view .LVU577
.LBE347:
.LBE346:
	.loc 13 56 9 is_stmt 1 view .LVU578
	.loc 13 56 17 is_stmt 0 view .LVU579
	movb	$1, 72(%rsp)
	jmp	.L105
.LVL159:
.L107:
	.loc 13 56 17 view .LVU580
.LBE348:
.LBE349:
.LBE400:
.LBB401:
.LBB354:
	.loc 22 129 9 view .LVU581
	movq	%rdi, 216(%rbp)
	jmp	.L108
.LVL160:
.L130:
	.loc 22 129 9 view .LVU582
.LBE354:
.LBE401:
.LBB402:
.LBB393:
.LBB390:
.LBB375:
	.loc 26 81 7 is_stmt 1 view .LVU583
	.loc 26 81 48 is_stmt 0 view .LVU584
	leaq	112(%rbp), %r15
.LVL161:
.LBB359:
.LBI359:
	.file 28 "/usr/local/include/boost/asio/detail/posix_event.hpp"
	.loc 28 89 8 is_stmt 1 view .LVU585
.LBB360:
.LBB361:
.LBI361:
	.loc 13 90 10 view .LVU586
.LBB362:
	.loc 13 92 7 view .LVU587
	.loc 13 92 14 is_stmt 0 view .LVU588
	movzbl	72(%rsp), %r11d
	movb	%r11b, 31(%rsp)
.LVL162:
	.loc 13 92 14 view .LVU589
.LBE362:
.LBE361:
	.loc 28 91 41 view .LVU590
	testb	%r11b, %r11b
	je	.L133
	.loc 28 92 12 view .LVU591
	movq	48(%r15), %rdx
	orq	$1, %rdx
	.loc 28 92 5 view .LVU592
	movq	%rdx, 48(%r15)
	.loc 28 93 5 view .LVU593
	cmpq	$1, %rdx
	ja	.L134
.LBE360:
	.loc 28 99 12 view .LVU594
	movb	$0, 31(%rsp)
.L111:
.LVL163:
	.loc 28 99 12 view .LVU595
.LBE359:
.LBE375:
.LBE390:
	.loc 23 639 3 view .LVU596
	cmpb	$0, 31(%rsp)
	jne	.L114
	jmp	.L109
.LVL164:
.L133:
.LBB391:
.LBB376:
.LBB374:
.LBB373:
	.loc 28 91 68 view .LVU597
	leaq	.LC7(%rip), %rcx
	movl	$91, %edx
	leaq	.LC8(%rip), %rsi
	leaq	.LC9(%rip), %rdi
	call	__assert_fail@PLT
.LVL165:
.L134:
.LBB363:
.LBI363:
	.loc 13 80 10 is_stmt 1 view .LVU598
.LBB364:
	.loc 13 82 7 view .LVU599
	cmpb	$0, 72(%rsp)
	je	.L112
	.loc 13 84 9 view .LVU600
	movq	64(%rsp), %rax
.LVL166:
.LBB365:
.LBI365:
	.loc 13 132 8 view .LVU601
.LBB366:
	.loc 13 134 5 view .LVU602
	cmpb	$0, 48(%rax)
	jne	.L135
.LVL167:
.L113:
	.loc 13 134 5 is_stmt 0 view .LVU603
.LBE366:
.LBE365:
	.loc 13 85 9 is_stmt 1 view .LVU604
	.loc 13 85 17 is_stmt 0 view .LVU605
	movb	$0, 72(%rsp)
.L112:
.LVL168:
	.loc 13 85 17 view .LVU606
.LBE364:
.LBE363:
	.loc 28 96 28 view .LVU607
	movq	%r15, %rdi
	call	pthread_cond_signal@PLT
.LVL169:
	jmp	.L111
.LVL170:
.L135:
.LBB372:
.LBB371:
.LBB370:
.LBB369:
	.loc 13 135 7 is_stmt 1 view .LVU608
.LBB367:
.LBI367:
	.loc 16 56 8 view .LVU609
.LBB368:
	.loc 16 58 5 view .LVU610
	.loc 16 58 33 is_stmt 0 view .LVU611
	leaq	8(%rax), %rdi
.LVL171:
	.loc 16 58 33 view .LVU612
	call	pthread_mutex_unlock@PLT
.LVL172:
	.loc 16 58 33 view .LVU613
	jmp	.L113
.LVL173:
.L131:
	.loc 16 58 33 view .LVU614
.LBE368:
.LBE367:
.LBE369:
.LBE370:
.LBE371:
.LBE372:
.LBE373:
.LBE374:
.LBE376:
.LBE391:
.LBB392:
.LBB389:
.LBB388:
.LBB387:
	.loc 13 135 7 is_stmt 1 view .LVU615
.LBB385:
.LBI385:
	.loc 16 56 8 view .LVU616
.LBB386:
	.loc 16 58 5 view .LVU617
	.loc 16 58 33 is_stmt 0 view .LVU618
	addq	$8, %rdi
.LVL174:
	.loc 16 58 33 view .LVU619
	call	pthread_mutex_unlock@PLT
.LVL175:
	.loc 16 58 33 view .LVU620
	jmp	.L116
.LVL176:
.L132:
	.loc 16 58 33 view .LVU621
.LBE386:
.LBE385:
.LBE387:
.LBE388:
.LBE389:
.LBE392:
.LBE393:
.LBE402:
.LBB403:
.LBB399:
	.loc 13 66 9 is_stmt 1 view .LVU622
.LBB396:
.LBI396:
	.loc 16 56 8 view .LVU623
.LBB397:
	.loc 16 58 5 view .LVU624
	.loc 16 58 33 is_stmt 0 view .LVU625
	movq	64(%rsp), %rcx
	leaq	8(%rcx), %rdi
.LVL177:
	.loc 16 58 33 view .LVU626
	call	pthread_mutex_unlock@PLT
.LVL178:
	.loc 16 58 33 view .LVU627
.LBE397:
.LBE396:
.LBB398:
.LBI398:
	.loc 14 30 3 is_stmt 1 view .LVU628
	.loc 14 30 3 is_stmt 0 view .LVU629
	jmp	.L97
.LVL179:
.L88:
	.loc 14 30 3 view .LVU630
.LBE398:
.LBE399:
.LBE403:
.LBE405:
.LBE407:
.LBE411:
.LBE420:
.LBB421:
.LBI421:
	.loc 20 51 3 is_stmt 1 view .LVU631
.LBB422:
.LBI422:
	.loc 21 48 8 view .LVU632
.LBB423:
	.loc 21 50 5 view .LVU633
	.loc 21 50 33 is_stmt 0 view .LVU634
	leaq	_ZZN5boost4asio6detail16get_signal_stateEvE5state(%rip), %rdi
	call	pthread_mutex_unlock@PLT
.LVL180:
	.loc 21 50 33 view .LVU635
.LBE423:
.LBE422:
.LBB424:
.LBI424:
	.loc 14 30 3 is_stmt 1 view .LVU636
	.loc 14 30 3 is_stmt 0 view .LVU637
	jmp	.L87
.LVL181:
.L86:
	.loc 14 30 3 view .LVU638
.LBE424:
.LBE421:
.LBE429:
.LBE434:
	.loc 17 108 5 is_stmt 1 view .LVU639
	.loc 17 109 3 is_stmt 0 view .LVU640
	movl	$0, %eax
	addq	$120, %rsp
	.cfi_def_cfa_offset 56
	popq	%rbx
	.cfi_def_cfa_offset 48
	popq	%rbp
	.cfi_def_cfa_offset 40
	popq	%r12
	.cfi_def_cfa_offset 32
	popq	%r13
	.cfi_def_cfa_offset 24
	popq	%r14
	.cfi_def_cfa_offset 16
.LVL182:
	.loc 17 109 3 view .LVU641
	popq	%r15
	.cfi_def_cfa_offset 8
	ret
	.cfi_endproc
.LFE27:
	.globl	__gxx_personality_v0
	.section	.gcc_except_table
.LLSDA27:
	.byte	0xff
	.byte	0xff
	.byte	0x1
	.uleb128 .LLSDACSE27-.LLSDACSB27
.LLSDACSB27:
	.uleb128 .LEHB2-.LFB27
	.uleb128 .LEHE2-.LEHB2
	.uleb128 0
	.uleb128 0
.LLSDACSE27:
	.text
	.size	_ZN5boost4asio6detail18signal_set_service12pipe_read_op10do_performEPNS1_10reactor_opE, .-_ZN5boost4asio6detail18signal_set_service12pipe_read_op10do_performEPNS1_10reactor_opE
	.align 2
	.type	_ZN5boost4asio6detail9scheduler12task_cleanupD2Ev, @function
_ZN5boost4asio6detail9scheduler12task_cleanupD2Ev:
.LVL183:
.LFB33:
	.loc 23 54 3 is_stmt 1 view -0
	.cfi_startproc
	.loc 23 54 3 is_stmt 0 view .LVU643
	pushq	%rbp
	.cfi_def_cfa_offset 16
	.cfi_offset 6, -16
	pushq	%rbx
	.cfi_def_cfa_offset 24
	.cfi_offset 3, -24
	subq	$8, %rsp
	.cfi_def_cfa_offset 32
	movq	%rdi, %rbx
.LBB454:
	.loc 23 56 5 is_stmt 1 view .LVU644
	.loc 23 56 9 is_stmt 0 view .LVU645
	movq	16(%rdi), %rax
	.loc 23 56 23 view .LVU646
	movq	56(%rax), %rdx
	.loc 23 56 5 view .LVU647
	testq	%rdx, %rdx
	jle	.L137
	.loc 23 58 7 is_stmt 1 view .LVU648
.LVL184:
.LBB455:
.LBI455:
	.file 29 "/usr/local/include/boost/asio/detail/atomic_count.hpp"
	.loc 29 39 13 view .LVU649
.LBE455:
.LBE454:
	.loc 29 39 50 view .LVU650
.LBB477:
.LBB458:
.LBB456:
.LBI456:
	.file 30 "/usr/include/c++/9/bits/atomic_base.h"
	.loc 30 334 7 view .LVU651
.LBB457:
	.loc 30 335 36 is_stmt 0 view .LVU652
	movq	(%rdi), %rcx
	addq	$208, %rcx
.LVL185:
	.loc 30 335 34 view .LVU653
	lock addq	%rdx, (%rcx)
.LVL186:
.L137:
	.loc 30 335 34 view .LVU654
.LBE457:
.LBE456:
.LBE458:
	.loc 23 62 5 is_stmt 1 view .LVU655
	movq	16(%rbx), %rsi
	.loc 23 62 44 is_stmt 0 view .LVU656
	movq	$0, 56(%rsi)
	.loc 23 66 5 is_stmt 1 view .LVU657
	movq	8(%rbx), %rbp
.LVL187:
.LBB459:
.LBI459:
	.loc 13 70 10 view .LVU658
.LBB460:
	.loc 13 72 7 view .LVU659
	.loc 13 72 11 is_stmt 0 view .LVU660
	movq	0(%rbp), %rdi
.LVL188:
	.loc 13 72 7 view .LVU661
	cmpb	$0, 48(%rdi)
	je	.L138
	.loc 13 72 27 view .LVU662
	cmpb	$0, 8(%rbp)
	jne	.L138
	.loc 13 74 9 is_stmt 1 view .LVU663
.LVL189:
.LBB461:
.LBI461:
	.loc 16 50 8 view .LVU664
.LBB462:
	.loc 16 52 5 view .LVU665
	.loc 16 52 31 is_stmt 0 view .LVU666
	addq	$8, %rdi
.LVL190:
	.loc 16 52 31 view .LVU667
	call	pthread_mutex_lock@PLT
.LVL191:
	.loc 16 52 31 view .LVU668
.LBE462:
.LBE461:
	.loc 13 75 9 is_stmt 1 view .LVU669
	.loc 13 75 17 is_stmt 0 view .LVU670
	movb	$1, 8(%rbp)
.L138:
.LVL192:
	.loc 13 75 17 view .LVU671
.LBE460:
.LBE459:
	.loc 23 67 5 is_stmt 1 view .LVU672
	movq	(%rbx), %rdi
	.loc 23 67 35 is_stmt 0 view .LVU673
	movb	$1, 200(%rdi)
	.loc 23 68 5 is_stmt 1 view .LVU674
	movq	(%rbx), %r8
	.loc 23 68 32 is_stmt 0 view .LVU675
	movq	16(%rbx), %r9
.LVL193:
.LBB463:
.LBI463:
	.loc 22 122 8 is_stmt 1 view .LVU676
.LBB464:
	.loc 22 124 20 is_stmt 0 view .LVU677
	movq	40(%r9), %r10
.LVL194:
	.loc 22 124 5 view .LVU678
	testq	%r10, %r10
	je	.L139
	.loc 22 126 11 view .LVU679
	movq	224(%r8), %r11
	.loc 22 126 7 view .LVU680
	testq	%r11, %r11
	je	.L140
.LVL195:
.LBB465:
.LBI465:
	.loc 22 39 15 is_stmt 1 view .LVU681
.LBB466:
	.loc 22 41 5 is_stmt 0 view .LVU682
	movq	%r10, (%r11)
.LVL196:
.L141:
	.loc 22 41 5 view .LVU683
.LBE466:
.LBE465:
	.loc 22 130 7 view .LVU684
	movq	48(%r9), %rax
	movq	%rax, 224(%r8)
	.loc 22 131 7 view .LVU685
	movq	$0, 40(%r9)
	.loc 22 132 7 view .LVU686
	movq	$0, 48(%r9)
.L139:
.LVL197:
	.loc 22 132 7 view .LVU687
.LBE464:
.LBE463:
	.loc 23 69 5 is_stmt 1 view .LVU688
	movq	(%rbx), %rbx
.LVL198:
	.loc 23 69 31 is_stmt 0 view .LVU689
	leaq	176(%rbx), %rdx
.LVL199:
.LBB468:
.LBI468:
	.loc 22 105 8 is_stmt 1 view .LVU690
.LBB469:
.LBB470:
.LBI470:
	.loc 22 39 15 view .LVU691
.LBB471:
	.loc 22 41 5 is_stmt 0 view .LVU692
	movq	$0, 176(%rbx)
.LVL200:
	.loc 22 41 5 view .LVU693
.LBE471:
.LBE470:
	.loc 22 108 9 view .LVU694
	movq	224(%rbx), %rcx
	.loc 22 108 5 view .LVU695
	testq	%rcx, %rcx
	je	.L142
.LVL201:
.LBB472:
.LBI472:
	.loc 22 39 15 is_stmt 1 view .LVU696
.LBB473:
	.loc 22 41 5 is_stmt 0 view .LVU697
	movq	%rdx, (%rcx)
.LVL202:
	.loc 22 41 5 view .LVU698
.LBE473:
.LBE472:
	.loc 22 111 7 view .LVU699
	movq	%rdx, 224(%rbx)
.LVL203:
.L136:
	.loc 22 111 7 view .LVU700
.LBE469:
.LBE468:
.LBE477:
	.loc 23 70 3 view .LVU701
	addq	$8, %rsp
	.cfi_remember_state
	.cfi_def_cfa_offset 24
	popq	%rbx
	.cfi_def_cfa_offset 16
	popq	%rbp
	.cfi_def_cfa_offset 8
	ret
.LVL204:
.L140:
	.cfi_restore_state
.LBB478:
.LBB475:
.LBB467:
	.loc 22 129 9 view .LVU702
	movq	%r10, 216(%r8)
	jmp	.L141
.LVL205:
.L142:
	.loc 22 129 9 view .LVU703
.LBE467:
.LBE475:
.LBB476:
.LBB474:
	.loc 22 115 7 view .LVU704
	movq	%rdx, 224(%rbx)
	movq	%rdx, 216(%rbx)
.LVL206:
	.loc 22 115 7 view .LVU705
	jmp	.L136
.LBE474:
.LBE476:
.LBE478:
	.cfi_endproc
.LFE33:
	.size	_ZN5boost4asio6detail9scheduler12task_cleanupD2Ev, .-_ZN5boost4asio6detail9scheduler12task_cleanupD2Ev
	.set	_ZN5boost4asio6detail9scheduler12task_cleanupD1Ev,_ZN5boost4asio6detail9scheduler12task_cleanupD2Ev
	.section	.rodata.str1.8
	.align 8
.LC10:
	.string	"void boost::asio::detail::posix_event::signal_all(Lock&) [with Lock = boost::asio::detail::conditionally_enabled_mutex::scoped_lock]"
	.text
	.align 2
	.globl	_ZN5boost4asio6detail9scheduler4stopEv
	.hidden	_ZN5boost4asio6detail9scheduler4stopEv
	.type	_ZN5boost4asio6detail9scheduler4stopEv, @function
_ZN5boost4asio6detail9scheduler4stopEv:
.LVL207:
.LFB35:
	.loc 23 305 1 is_stmt 1 view -0
	.cfi_startproc
	.loc 23 305 1 is_stmt 0 view .LVU707
	pushq	%rbx
	.cfi_def_cfa_offset 16
	.cfi_offset 3, -16
	subq	$32, %rsp
	.cfi_def_cfa_offset 48
	movq	%rdi, %rbx
	.loc 23 306 3 is_stmt 1 view .LVU708
	.loc 23 306 27 is_stmt 0 view .LVU709
	leaq	48(%rdi), %rax
.LVL208:
.LBB513:
.LBI513:
	.loc 13 50 14 is_stmt 1 view .LVU710
.LBB514:
.LBB515:
.LBB516:
.LBI516:
	.loc 14 29 3 view .LVU711
	.loc 14 29 3 is_stmt 0 view .LVU712
.LBE516:
	.loc 13 51 17 view .LVU713
	movq	%rax, 16(%rsp)
	.loc 13 53 7 is_stmt 1 view .LVU714
	cmpb	$0, 96(%rdi)
	jne	.L153
	.loc 13 59 9 view .LVU715
	.loc 13 59 17 is_stmt 0 view .LVU716
	movb	$0, 24(%rsp)
.LVL209:
.L147:
	.loc 13 59 17 view .LVU717
.LBE515:
.LBE514:
.LBE513:
	.loc 23 307 3 is_stmt 1 view .LVU718
.LBB521:
.LBI521:
	.loc 23 623 6 view .LVU719
.LBB522:
	.loc 23 626 3 view .LVU720
	.loc 23 626 12 is_stmt 0 view .LVU721
	movb	$1, 232(%rbx)
	.loc 23 627 3 is_stmt 1 view .LVU722
.LVL210:
.LBB523:
.LBI523:
	.loc 26 54 8 view .LVU723
.LBB524:
	.loc 26 56 5 view .LVU724
	movq	16(%rsp), %rdx
	cmpb	$0, 48(%rdx)
	jne	.L154
.L148:
.LVL211:
	.loc 26 56 5 is_stmt 0 view .LVU725
.LBE524:
.LBE523:
	.loc 23 629 3 is_stmt 1 view .LVU726
	cmpb	$0, 200(%rbx)
	jne	.L150
	.loc 23 629 29 is_stmt 0 view .LVU727
	movq	168(%rbx), %rsi
	.loc 23 629 26 view .LVU728
	testq	%rsi, %rsi
	je	.L150
	.loc 23 631 5 is_stmt 1 view .LVU729
	.loc 23 631 23 is_stmt 0 view .LVU730
	movb	$1, 200(%rbx)
	.loc 23 632 5 is_stmt 1 view .LVU731
.LVL212:
.LBB530:
.LBI530:
	.loc 12 568 6 view .LVU732
.LBB531:
	.loc 12 570 3 view .LVU733
	.loc 12 571 3 view .LVU734
	.loc 12 571 13 is_stmt 0 view .LVU735
	movl	$-2147483639, 4(%rsp)
	.loc 12 572 3 is_stmt 1 view .LVU736
	.loc 12 572 17 is_stmt 0 view .LVU737
	leaq	104(%rsi), %rdi
	.loc 12 572 15 view .LVU738
	movq	%rdi, 8(%rsp)
	.loc 12 573 3 is_stmt 1 view .LVU739
.LVL213:
.LBB532:
.LBI532:
	.loc 27 48 7 view .LVU740
.LBB533:
	.loc 27 50 5 view .LVU741
	.loc 27 50 12 is_stmt 0 view .LVU742
	movl	104(%rsi), %edx
.LVL214:
	.loc 27 50 12 view .LVU743
.LBE533:
.LBE532:
	.loc 12 573 12 view .LVU744
	leaq	4(%rsp), %rcx
	movl	112(%rsi), %edi
	movl	$3, %esi
.LVL215:
	.loc 12 573 12 view .LVU745
	call	epoll_ctl@PLT
.LVL216:
.L150:
	.loc 12 573 12 view .LVU746
.LBE531:
.LBE530:
.LBE522:
.LBE521:
.LBB536:
.LBI536:
	.loc 13 63 5 is_stmt 1 view .LVU747
.LBB537:
	.loc 13 65 7 view .LVU748
	cmpb	$0, 24(%rsp)
	jne	.L155
.LVL217:
.L145:
	.loc 13 65 7 is_stmt 0 view .LVU749
.LBE537:
.LBE536:
	.loc 23 308 1 view .LVU750
	addq	$32, %rsp
	.cfi_remember_state
	.cfi_def_cfa_offset 16
	popq	%rbx
	.cfi_def_cfa_offset 8
.LVL218:
	.loc 23 308 1 view .LVU751
	ret
.LVL219:
.L153:
	.cfi_restore_state
.LBB542:
.LBB520:
.LBB519:
	.loc 13 55 9 is_stmt 1 view .LVU752
.LBB517:
.LBI517:
	.loc 16 50 8 view .LVU753
.LBB518:
	.loc 16 52 5 view .LVU754
	.loc 16 52 31 is_stmt 0 view .LVU755
	leaq	56(%rdi), %rdi
	call	pthread_mutex_lock@PLT
.LVL220:
	.loc 16 52 31 view .LVU756
.LBE518:
.LBE517:
	.loc 13 56 9 is_stmt 1 view .LVU757
	.loc 13 56 17 is_stmt 0 view .LVU758
	movb	$1, 24(%rsp)
	jmp	.L147
.LVL221:
.L154:
	.loc 13 56 17 view .LVU759
.LBE519:
.LBE520:
.LBE542:
.LBB543:
.LBB535:
.LBB534:
.LBB529:
	.loc 26 57 7 is_stmt 1 view .LVU760
	.loc 26 57 24 is_stmt 0 view .LVU761
	leaq	112(%rbx), %rdi
.LVL222:
.LBB525:
.LBI525:
	.loc 28 55 8 is_stmt 1 view .LVU762
.LBB526:
.LBB527:
.LBI527:
	.loc 13 90 10 view .LVU763
.LBB528:
	.loc 13 92 7 view .LVU764
	.loc 13 92 7 is_stmt 0 view .LVU765
.LBE528:
.LBE527:
	.loc 28 57 41 view .LVU766
	cmpb	$0, 24(%rsp)
	je	.L156
	.loc 28 59 12 view .LVU767
	movq	48(%rdi), %rcx
	orq	$1, %rcx
	.loc 28 59 5 view .LVU768
	movq	%rcx, 48(%rdi)
	.loc 28 60 29 view .LVU769
	call	pthread_cond_broadcast@PLT
.LVL223:
	.loc 28 60 29 view .LVU770
	jmp	.L148
.LVL224:
.L156:
	.loc 28 57 68 view .LVU771
	leaq	.LC10(%rip), %rcx
	movl	$57, %edx
	leaq	.LC8(%rip), %rsi
	leaq	.LC9(%rip), %rdi
.LVL225:
	.loc 28 57 68 view .LVU772
	call	__assert_fail@PLT
.LVL226:
.L155:
	.loc 28 57 68 view .LVU773
.LBE526:
.LBE525:
.LBE529:
.LBE534:
.LBE535:
.LBE543:
.LBB544:
.LBB541:
	.loc 13 66 9 is_stmt 1 view .LVU774
.LBB538:
.LBI538:
	.loc 16 56 8 view .LVU775
.LBB539:
	.loc 16 58 5 view .LVU776
	.loc 16 58 33 is_stmt 0 view .LVU777
	movq	16(%rsp), %r8
	leaq	8(%r8), %rdi
.LVL227:
	.loc 16 58 33 view .LVU778
	call	pthread_mutex_unlock@PLT
.LVL228:
	.loc 16 58 33 view .LVU779
.LBE539:
.LBE538:
.LBB540:
.LBI540:
	.loc 14 30 3 is_stmt 1 view .LVU780
	.loc 14 30 3 is_stmt 0 view .LVU781
	jmp	.L145
.LBE540:
.LBE541:
.LBE544:
	.cfi_endproc
.LFE35:
	.size	_ZN5boost4asio6detail9scheduler4stopEv, .-_ZN5boost4asio6detail9scheduler4stopEv
	.align 2
	.globl	_ZN5boost4asio6detail9scheduler13work_finishedEv
	.hidden	_ZN5boost4asio6detail9scheduler13work_finishedEv
	.type	_ZN5boost4asio6detail9scheduler13work_finishedEv, @function
_ZN5boost4asio6detail9scheduler13work_finishedEv:
.LVL229:
.LFB39:
	.file 31 "/usr/local/include/boost/asio/detail/scheduler.hpp"
	.loc 31 96 8 is_stmt 1 view -0
	.cfi_startproc
	.loc 31 98 5 view .LVU783
.LBB574:
.LBI574:
	.loc 30 326 7 view .LVU784
.LBB575:
	.loc 30 327 36 is_stmt 0 view .LVU785
	leaq	208(%rdi), %rax
	.loc 30 327 34 view .LVU786
	movq	$-1, %rdx
	lock xaddq	%rdx, (%rax)
.LVL230:
	.loc 30 327 34 view .LVU787
.LBE575:
.LBE574:
	.loc 31 98 5 view .LVU788
	cmpq	$1, %rdx
	jne	.L166
	.loc 31 96 8 view .LVU789
	pushq	%rbx
	.cfi_def_cfa_offset 16
	.cfi_offset 3, -16
	subq	$32, %rsp
	.cfi_def_cfa_offset 48
	movq	%rdi, %rbx
	.loc 31 99 7 is_stmt 1 view .LVU790
.LVL231:
.LBB576:
.LBI576:
	.loc 23 304 6 view .LVU791
.LBB577:
	.loc 23 306 27 is_stmt 0 view .LVU792
	leaq	48(%rdi), %rcx
.LVL232:
.LBB578:
.LBB579:
.LBB580:
	.loc 13 51 17 view .LVU793
	movq	%rcx, 16(%rsp)
	.loc 13 53 7 view .LVU794
	cmpb	$0, 96(%rdi)
	je	.L159
.LVL233:
.LBB581:
.LBB582:
	.loc 16 52 31 view .LVU795
	leaq	56(%rdi), %rdi
.LVL234:
	.loc 16 52 31 view .LVU796
	call	pthread_mutex_lock@PLT
.LVL235:
	.loc 16 52 31 view .LVU797
.LBE582:
.LBE581:
	.loc 13 56 17 view .LVU798
	movb	$1, 24(%rsp)
.L160:
.LVL236:
	.loc 13 56 17 view .LVU799
.LBE580:
.LBE579:
.LBE578:
.LBB585:
.LBI585:
	.loc 23 623 6 is_stmt 1 view .LVU800
.LBB586:
	.loc 23 626 3 view .LVU801
	.loc 23 626 12 is_stmt 0 view .LVU802
	movb	$1, 232(%rbx)
	.loc 23 627 3 is_stmt 1 view .LVU803
.LVL237:
.LBB587:
.LBI587:
	.loc 26 54 8 view .LVU804
.LBB588:
	.loc 26 56 5 view .LVU805
	movq	16(%rsp), %rsi
	cmpb	$0, 48(%rsi)
	je	.L161
	.loc 26 57 7 view .LVU806
	.loc 26 57 24 is_stmt 0 view .LVU807
	leaq	112(%rbx), %rdi
.LVL238:
.LBB589:
.LBI589:
	.loc 28 55 8 is_stmt 1 view .LVU808
.LBB590:
.LBB591:
.LBI591:
	.loc 13 90 10 view .LVU809
.LBB592:
	.loc 13 92 7 view .LVU810
	.loc 13 92 7 is_stmt 0 view .LVU811
.LBE592:
.LBE591:
	.loc 28 57 41 view .LVU812
	cmpb	$0, 24(%rsp)
	jne	.L162
	.loc 28 57 68 view .LVU813
	leaq	.LC10(%rip), %rcx
	movl	$57, %edx
	leaq	.LC8(%rip), %rsi
	leaq	.LC9(%rip), %rdi
.LVL239:
	.loc 28 57 68 view .LVU814
	call	__assert_fail@PLT
.LVL240:
.L159:
	.loc 28 57 68 view .LVU815
.LBE590:
.LBE589:
.LBE588:
.LBE587:
.LBE586:
.LBE585:
.LBB602:
.LBB584:
.LBB583:
	.loc 13 59 17 view .LVU816
	movb	$0, 24(%rsp)
	jmp	.L160
.LVL241:
.L162:
	.loc 13 59 17 view .LVU817
.LBE583:
.LBE584:
.LBE602:
.LBB603:
.LBB601:
.LBB596:
.LBB595:
.LBB594:
.LBB593:
	.loc 28 59 12 view .LVU818
	movq	48(%rdi), %r8
	orq	$1, %r8
	.loc 28 59 5 view .LVU819
	movq	%r8, 48(%rdi)
	.loc 28 60 29 view .LVU820
	call	pthread_cond_broadcast@PLT
.LVL242:
.L161:
	.loc 28 60 29 view .LVU821
.LBE593:
.LBE594:
.LBE595:
.LBE596:
	.loc 23 629 3 is_stmt 1 view .LVU822
	cmpb	$0, 200(%rbx)
	jne	.L163
	.loc 23 629 29 is_stmt 0 view .LVU823
	movq	168(%rbx), %rdi
	.loc 23 629 26 view .LVU824
	testq	%rdi, %rdi
	je	.L163
	.loc 23 631 5 is_stmt 1 view .LVU825
	.loc 23 631 23 is_stmt 0 view .LVU826
	movb	$1, 200(%rbx)
	.loc 23 632 5 is_stmt 1 view .LVU827
.LVL243:
.LBB597:
.LBI597:
	.loc 12 568 6 view .LVU828
.LBB598:
	.loc 12 570 3 view .LVU829
	.loc 12 571 3 view .LVU830
	.loc 12 571 13 is_stmt 0 view .LVU831
	movl	$-2147483639, 4(%rsp)
	.loc 12 572 3 is_stmt 1 view .LVU832
	.loc 12 572 17 is_stmt 0 view .LVU833
	leaq	104(%rdi), %r9
	.loc 12 572 15 view .LVU834
	movq	%r9, 8(%rsp)
	.loc 12 573 3 is_stmt 1 view .LVU835
.LVL244:
.LBB599:
.LBI599:
	.loc 27 48 7 view .LVU836
.LBB600:
	.loc 27 50 5 view .LVU837
	.loc 27 50 12 is_stmt 0 view .LVU838
	movl	104(%rdi), %edx
.LVL245:
	.loc 27 50 12 view .LVU839
.LBE600:
.LBE599:
	.loc 12 573 12 view .LVU840
	leaq	4(%rsp), %rcx
	movl	112(%rdi), %edi
.LVL246:
	.loc 12 573 12 view .LVU841
	movl	$3, %esi
	call	epoll_ctl@PLT
.LVL247:
.L163:
	.loc 12 573 12 view .LVU842
.LBE598:
.LBE597:
.LBE601:
.LBE603:
.LBB604:
.LBB605:
	.loc 13 65 7 view .LVU843
	cmpb	$0, 24(%rsp)
	je	.L157
.LVL248:
.LBB606:
.LBB607:
	.loc 16 58 33 view .LVU844
	movq	16(%rsp), %r10
	leaq	8(%r10), %rdi
.LVL249:
	.loc 16 58 33 view .LVU845
	call	pthread_mutex_unlock@PLT
.LVL250:
.L157:
	.loc 16 58 33 view .LVU846
.LBE607:
.LBE606:
.LBE605:
.LBE604:
.LBE577:
.LBE576:
	.loc 31 100 3 view .LVU847
	addq	$32, %rsp
	.cfi_def_cfa_offset 16
	popq	%rbx
	.cfi_def_cfa_offset 8
.LVL251:
	.loc 31 100 3 view .LVU848
	ret
.LVL252:
.L166:
	.cfi_restore 3
	.loc 31 100 3 view .LVU849
	ret
	.cfi_endproc
.LFE39:
	.size	_ZN5boost4asio6detail9scheduler13work_finishedEv, .-_ZN5boost4asio6detail9scheduler13work_finishedEv
	.align 2
	.type	_ZN5boost4asio6detail9scheduler12work_cleanupD2Ev, @function
_ZN5boost4asio6detail9scheduler12work_cleanupD2Ev:
.LVL253:
.LFB41:
	.loc 23 79 3 is_stmt 1 view -0
	.cfi_startproc
	.loc 23 79 3 is_stmt 0 view .LVU851
	pushq	%rbp
	.cfi_def_cfa_offset 16
	.cfi_offset 6, -16
	pushq	%rbx
	.cfi_def_cfa_offset 24
	.cfi_offset 3, -24
	subq	$8, %rsp
	.cfi_def_cfa_offset 32
	movq	%rdi, %rbx
.LBB623:
	.loc 23 81 5 is_stmt 1 view .LVU852
	.loc 23 81 9 is_stmt 0 view .LVU853
	movq	16(%rdi), %rax
	.loc 23 81 23 view .LVU854
	movq	56(%rax), %rcx
	.loc 23 81 5 view .LVU855
	cmpq	$1, %rcx
	jle	.L170
	.loc 23 83 7 is_stmt 1 view .LVU856
	.loc 23 83 37 is_stmt 0 view .LVU857
	decq	%rcx
.LVL254:
.LBB624:
.LBI624:
	.loc 29 39 13 is_stmt 1 view .LVU858
.LBE624:
.LBE623:
	.loc 29 39 50 view .LVU859
.LBB639:
.LBB627:
.LBB625:
.LBI625:
	.loc 30 334 7 view .LVU860
.LBB626:
	.loc 30 335 36 is_stmt 0 view .LVU861
	movq	(%rdi), %rsi
	leaq	208(%rsi), %rdx
.LVL255:
	.loc 30 335 34 view .LVU862
	lock addq	%rcx, (%rdx)
.LVL256:
.L171:
	.loc 30 335 34 view .LVU863
.LBE626:
.LBE625:
.LBE627:
	.loc 23 91 5 is_stmt 1 view .LVU864
	movq	16(%rbx), %rdi
	.loc 23 91 44 is_stmt 0 view .LVU865
	movq	$0, 56(%rdi)
	.loc 23 94 5 is_stmt 1 view .LVU866
	.loc 23 94 10 is_stmt 0 view .LVU867
	movq	16(%rbx), %rbp
.LVL257:
.LBB628:
.LBI628:
	.loc 22 137 8 is_stmt 1 view .LVU868
	.loc 22 137 8 is_stmt 0 view .LVU869
.LBE628:
	.loc 23 94 5 view .LVU870
	cmpq	$0, 40(%rbp)
	je	.L169
	.loc 23 96 7 is_stmt 1 view .LVU871
	movq	8(%rbx), %rbp
.LVL258:
.LBB629:
.LBI629:
	.loc 13 70 10 view .LVU872
.LBB630:
	.loc 13 72 7 view .LVU873
	.loc 13 72 11 is_stmt 0 view .LVU874
	movq	0(%rbp), %rdi
	.loc 13 72 7 view .LVU875
	cmpb	$0, 48(%rdi)
	je	.L173
	.loc 13 72 27 view .LVU876
	cmpb	$0, 8(%rbp)
	jne	.L173
	.loc 13 74 9 is_stmt 1 view .LVU877
.LVL259:
.LBB631:
.LBI631:
	.loc 16 50 8 view .LVU878
.LBB632:
	.loc 16 52 5 view .LVU879
	.loc 16 52 31 is_stmt 0 view .LVU880
	addq	$8, %rdi
.LVL260:
	.loc 16 52 31 view .LVU881
	call	pthread_mutex_lock@PLT
.LVL261:
	.loc 16 52 31 view .LVU882
.LBE632:
.LBE631:
	.loc 13 75 9 is_stmt 1 view .LVU883
	.loc 13 75 17 is_stmt 0 view .LVU884
	movb	$1, 8(%rbp)
.L173:
.LVL262:
	.loc 13 75 17 view .LVU885
.LBE630:
.LBE629:
	.loc 23 97 7 is_stmt 1 view .LVU886
	movq	(%rbx), %r8
	.loc 23 97 34 is_stmt 0 view .LVU887
	movq	16(%rbx), %r9
.LVL263:
.LBB633:
.LBI633:
	.loc 22 122 8 is_stmt 1 view .LVU888
.LBB634:
	.loc 22 124 20 is_stmt 0 view .LVU889
	movq	40(%r9), %r10
.LVL264:
	.loc 22 124 5 view .LVU890
	testq	%r10, %r10
	je	.L169
	.loc 22 126 11 view .LVU891
	movq	224(%r8), %r11
	.loc 22 126 7 view .LVU892
	testq	%r11, %r11
	je	.L174
.LVL265:
.LBB635:
.LBI635:
	.loc 22 39 15 is_stmt 1 view .LVU893
.LBB636:
	.loc 22 41 5 is_stmt 0 view .LVU894
	movq	%r10, (%r11)
.LVL266:
.L175:
	.loc 22 41 5 view .LVU895
.LBE636:
.LBE635:
	.loc 22 130 7 view .LVU896
	movq	48(%r9), %rbx
.LVL267:
	.loc 22 130 7 view .LVU897
	movq	%rbx, 224(%r8)
	.loc 22 131 7 view .LVU898
	movq	$0, 40(%r9)
	.loc 22 132 7 view .LVU899
	movq	$0, 48(%r9)
.LVL268:
.L169:
	.loc 22 132 7 view .LVU900
.LBE634:
.LBE633:
.LBE639:
	.loc 23 100 3 view .LVU901
	addq	$8, %rsp
	.cfi_remember_state
	.cfi_def_cfa_offset 24
	popq	%rbx
	.cfi_def_cfa_offset 16
	popq	%rbp
	.cfi_def_cfa_offset 8
	ret
.LVL269:
.L170:
	.cfi_restore_state
.LBB640:
	.loc 23 87 10 is_stmt 1 view .LVU902
	testq	%rcx, %rcx
	jg	.L171
	.loc 23 89 7 view .LVU903
	movq	(%rdi), %rdi
	.loc 23 89 32 is_stmt 0 view .LVU904
	call	_ZN5boost4asio6detail9scheduler13work_finishedEv
.LVL270:
	jmp	.L171
.LVL271:
.L174:
.LBB638:
.LBB637:
	.loc 22 129 9 view .LVU905
	movq	%r10, 216(%r8)
	jmp	.L175
.LBE637:
.LBE638:
.LBE640:
	.cfi_endproc
.LFE41:
	.size	_ZN5boost4asio6detail9scheduler12work_cleanupD2Ev, .-_ZN5boost4asio6detail9scheduler12work_cleanupD2Ev
	.set	_ZN5boost4asio6detail9scheduler12work_cleanupD1Ev,_ZN5boost4asio6detail9scheduler12work_cleanupD2Ev
	.align 2
	.type	_ZN5boost4asio6detail9scheduler8shutdownEv, @function
_ZN5boost4asio6detail9scheduler8shutdownEv:
.LVL272:
.LFB43:
	.loc 23 149 1 is_stmt 1 view -0
	.cfi_startproc
	.cfi_personality 0x9b,DW.ref.__gcc_personality_v0
	.cfi_lsda 0x1b,.LLSDA43
	.loc 23 149 1 is_stmt 0 view .LVU907
	pushq	%rbp
	.cfi_def_cfa_offset 16
	.cfi_offset 6, -16
	pushq	%rbx
	.cfi_def_cfa_offset 24
	.cfi_offset 3, -24
	subq	$56, %rsp
	.cfi_def_cfa_offset 80
	movq	%rdi, %rbx
	.loc 23 150 3 is_stmt 1 view .LVU908
	.loc 23 150 27 is_stmt 0 view .LVU909
	leaq	48(%rdi), %rax
.LVL273:
.LBB694:
.LBI694:
	.loc 13 50 14 is_stmt 1 view .LVU910
.LBB695:
.LBB696:
.LBB697:
.LBI697:
	.loc 14 29 3 view .LVU911
	.loc 14 29 3 is_stmt 0 view .LVU912
.LBE697:
	.loc 13 51 17 view .LVU913
	movq	%rax, 16(%rsp)
	.loc 13 53 7 is_stmt 1 view .LVU914
	cmpb	$0, 96(%rdi)
	jne	.L200
	.loc 13 59 9 view .LVU915
	.loc 13 59 17 is_stmt 0 view .LVU916
	movb	$0, 24(%rsp)
.LVL274:
.L179:
	.loc 13 59 17 view .LVU917
.LBE696:
.LBE695:
.LBE694:
	.loc 23 151 3 is_stmt 1 view .LVU918
	.loc 23 151 13 is_stmt 0 view .LVU919
	movb	$1, 233(%rbx)
	.loc 23 152 3 is_stmt 1 view .LVU920
	cmpq	$0, 240(%rbx)
	je	.L180
	.loc 23 153 5 view .LVU921
.LVL275:
.LBB702:
.LBI702:
	.loc 23 623 6 view .LVU922
.LBB703:
	.loc 23 626 3 view .LVU923
	.loc 23 626 12 is_stmt 0 view .LVU924
	movb	$1, 232(%rbx)
	.loc 23 627 3 is_stmt 1 view .LVU925
.LVL276:
.LBB704:
.LBI704:
	.loc 26 54 8 view .LVU926
.LBB705:
	.loc 26 56 5 view .LVU927
	movq	16(%rsp), %rdx
	cmpb	$0, 48(%rdx)
	jne	.L201
.L181:
.LVL277:
	.loc 26 56 5 is_stmt 0 view .LVU928
.LBE705:
.LBE704:
	.loc 23 629 3 is_stmt 1 view .LVU929
	cmpb	$0, 200(%rbx)
	jne	.L180
	.loc 23 629 29 is_stmt 0 view .LVU930
	movq	168(%rbx), %rsi
	.loc 23 629 26 view .LVU931
	testq	%rsi, %rsi
	je	.L180
	.loc 23 631 5 is_stmt 1 view .LVU932
	.loc 23 631 23 is_stmt 0 view .LVU933
	movb	$1, 200(%rbx)
	.loc 23 632 5 is_stmt 1 view .LVU934
.LVL278:
.LBB711:
.LBI711:
	.loc 12 568 6 view .LVU935
.LBB712:
	.loc 12 570 3 view .LVU936
	.loc 12 571 3 view .LVU937
	.loc 12 571 13 is_stmt 0 view .LVU938
	movl	$-2147483639, 4(%rsp)
	.loc 12 572 3 is_stmt 1 view .LVU939
	.loc 12 572 17 is_stmt 0 view .LVU940
	leaq	104(%rsi), %rdi
	.loc 12 572 15 view .LVU941
	movq	%rdi, 8(%rsp)
	.loc 12 573 3 is_stmt 1 view .LVU942
.LVL279:
.LBB713:
.LBI713:
	.loc 27 48 7 view .LVU943
.LBB714:
	.loc 27 50 5 view .LVU944
	.loc 27 50 12 is_stmt 0 view .LVU945
	movl	104(%rsi), %edx
.LVL280:
	.loc 27 50 12 view .LVU946
.LBE714:
.LBE713:
	.loc 12 573 12 view .LVU947
	leaq	4(%rsp), %rcx
	movl	112(%rsi), %edi
	movl	$3, %esi
.LVL281:
	.loc 12 573 12 view .LVU948
	call	epoll_ctl@PLT
.LVL282:
.L180:
	.loc 12 573 12 view .LVU949
.LBE712:
.LBE711:
.LBE703:
.LBE702:
	.loc 23 154 3 is_stmt 1 view .LVU950
.LBB717:
.LBI717:
	.loc 13 80 10 view .LVU951
.LBB718:
	.loc 13 82 7 view .LVU952
	cmpb	$0, 24(%rsp)
	je	.L184
	.loc 13 84 9 view .LVU953
	movq	16(%rsp), %rbp
.LVL283:
.LBB719:
.LBI719:
	.loc 13 132 8 view .LVU954
.LBB720:
	.loc 13 134 5 view .LVU955
	cmpb	$0, 48(%rbp)
	jne	.L202
.L185:
.LVL284:
	.loc 13 134 5 is_stmt 0 view .LVU956
.LBE720:
.LBE719:
	.loc 13 85 9 is_stmt 1 view .LVU957
	.loc 13 85 17 is_stmt 0 view .LVU958
	movb	$0, 24(%rsp)
.L184:
.LVL285:
	.loc 13 85 17 view .LVU959
.LBE718:
.LBE717:
	.loc 23 157 3 is_stmt 1 view .LVU960
	.loc 23 157 7 is_stmt 0 view .LVU961
	movq	240(%rbx), %rbp
	.loc 23 157 3 view .LVU962
	testq	%rbp, %rbp
	je	.L186
	.loc 23 159 5 is_stmt 1 view .LVU963
.LVL286:
.LBB726:
.LBI726:
	.loc 1 38 6 view .LVU964
.LBB727:
	.loc 1 40 3 view .LVU965
	cmpb	$0, 8(%rbp)
	je	.L203
.L187:
.LVL287:
	.loc 1 40 3 is_stmt 0 view .LVU966
.LBE727:
.LBE726:
	.loc 23 160 5 is_stmt 1 view .LVU967
	.loc 23 160 12 is_stmt 0 view .LVU968
	movq	240(%rbx), %rbp
	.loc 23 160 19 view .LVU969
	testq	%rbp, %rbp
	je	.L188
.LVL288:
.LBB729:
.LBI729:
	.loc 1 32 1 is_stmt 1 view .LVU970
.LBB730:
	.loc 1 34 3 view .LVU971
	cmpb	$0, 8(%rbp)
	je	.L204
.L189:
.LVL289:
.LBB731:
.LBI731:
	.loc 14 30 3 view .LVU972
	.loc 14 30 3 is_stmt 0 view .LVU973
.LBE731:
.LBE730:
.LBE729:
	.loc 23 160 12 view .LVU974
	movl	$16, %esi
	movq	%rbp, %rdi
	call	_ZdlPvm@PLT
.LVL290:
.L188:
	.loc 23 161 5 is_stmt 1 view .LVU975
	.loc 23 161 13 is_stmt 0 view .LVU976
	movq	$0, 240(%rbx)
.L186:
.LBB733:
	.loc 23 169 11 view .LVU977
	leaq	176(%rbx), %rbp
	jmp	.L192
.LVL291:
.L200:
	.loc 23 169 11 view .LVU978
.LBE733:
.LBB747:
.LBB701:
.LBB700:
	.loc 13 55 9 is_stmt 1 view .LVU979
.LBB698:
.LBI698:
	.loc 16 50 8 view .LVU980
.LBB699:
	.loc 16 52 5 view .LVU981
	.loc 16 52 31 is_stmt 0 view .LVU982
	leaq	56(%rdi), %rdi
	call	pthread_mutex_lock@PLT
.LVL292:
	.loc 16 52 31 view .LVU983
.LBE699:
.LBE698:
	.loc 13 56 9 is_stmt 1 view .LVU984
	.loc 13 56 17 is_stmt 0 view .LVU985
	movb	$1, 24(%rsp)
	jmp	.L179
.LVL293:
.L201:
	.loc 13 56 17 view .LVU986
.LBE700:
.LBE701:
.LBE747:
.LBB748:
.LBB716:
.LBB715:
.LBB710:
	.loc 26 57 7 is_stmt 1 view .LVU987
	.loc 26 57 24 is_stmt 0 view .LVU988
	leaq	112(%rbx), %rdi
.LVL294:
.LBB706:
.LBI706:
	.loc 28 55 8 is_stmt 1 view .LVU989
.LBB707:
.LBB708:
.LBI708:
	.loc 13 90 10 view .LVU990
.LBB709:
	.loc 13 92 7 view .LVU991
	.loc 13 92 7 is_stmt 0 view .LVU992
.LBE709:
.LBE708:
	.loc 28 57 41 view .LVU993
	cmpb	$0, 24(%rsp)
	je	.L205
	.loc 28 59 12 view .LVU994
	movq	48(%rdi), %rcx
	orq	$1, %rcx
	.loc 28 59 5 view .LVU995
	movq	%rcx, 48(%rdi)
	.loc 28 60 29 view .LVU996
	call	pthread_cond_broadcast@PLT
.LVL295:
	.loc 28 60 29 view .LVU997
	jmp	.L181
.LVL296:
.L205:
	.loc 28 57 68 view .LVU998
	leaq	.LC10(%rip), %rcx
	movl	$57, %edx
	leaq	.LC8(%rip), %rsi
	leaq	.LC9(%rip), %rdi
.LVL297:
	.loc 28 57 68 view .LVU999
	call	__assert_fail@PLT
.LVL298:
.L202:
	.loc 28 57 68 view .LVU1000
.LBE707:
.LBE706:
.LBE710:
.LBE715:
.LBE716:
.LBE748:
.LBB749:
.LBB725:
.LBB724:
.LBB723:
	.loc 13 135 7 is_stmt 1 view .LVU1001
.LBB721:
.LBI721:
	.loc 16 56 8 view .LVU1002
.LBB722:
	.loc 16 58 5 view .LVU1003
	.loc 16 58 33 is_stmt 0 view .LVU1004
	leaq	8(%rbp), %rdi
.LVL299:
	.loc 16 58 33 view .LVU1005
	call	pthread_mutex_unlock@PLT
.LVL300:
	.loc 16 58 33 view .LVU1006
	jmp	.L185
.LVL301:
.L203:
	.loc 16 58 33 view .LVU1007
.LBE722:
.LBE721:
.LBE723:
.LBE724:
.LBE725:
.LBE749:
.LBB750:
.LBB728:
	.loc 1 42 5 is_stmt 1 view .LVU1008
	.loc 1 42 19 is_stmt 0 view .LVU1009
	movl	$0, %esi
	movq	0(%rbp), %rdi
.LEHB3:
	call	pthread_join@PLT
.LVL302:
	.loc 1 43 5 is_stmt 1 view .LVU1010
	.loc 1 43 13 is_stmt 0 view .LVU1011
	movb	$1, 8(%rbp)
	jmp	.L187
.LVL303:
.L204:
	.loc 1 43 13 view .LVU1012
.LBE728:
.LBE750:
.LBB751:
.LBB732:
	.loc 1 35 5 is_stmt 1 view .LVU1013
	.loc 1 35 21 is_stmt 0 view .LVU1014
	movq	0(%rbp), %rdi
	call	pthread_detach@PLT
.LVL304:
	jmp	.L189
.LVL305:
.L207:
	.loc 1 35 21 view .LVU1015
.LBE732:
.LBE751:
.LBB752:
.LBB734:
.LBB735:
	.loc 22 99 9 view .LVU1016
	movq	$0, 224(%rbx)
.L191:
.LVL306:
.LBB736:
.LBI736:
	.loc 22 39 15 is_stmt 1 view .LVU1017
.LBB737:
	.loc 22 41 5 is_stmt 0 view .LVU1018
	movq	$0, (%rsi)
.LVL307:
	.loc 22 41 5 view .LVU1019
.LBE737:
.LBE736:
.LBE735:
.LBE734:
	.loc 23 169 5 is_stmt 1 view .LVU1020
	cmpq	%rsi, %rbp
	jne	.L206
.LVL308:
.L192:
	.loc 23 169 5 is_stmt 0 view .LVU1021
.LBE752:
	.loc 23 165 3 is_stmt 1 view .LVU1022
	.loc 23 165 10 view .LVU1023
.LBB753:
.LBI753:
	.loc 22 137 8 view .LVU1024
.LBB754:
	.loc 22 139 12 is_stmt 0 view .LVU1025
	movq	216(%rbx), %rsi
.LVL309:
	.loc 22 139 12 view .LVU1026
.LBE754:
.LBE753:
	.loc 23 165 10 view .LVU1027
	testq	%rsi, %rsi
	je	.L190
.LBB755:
	.loc 23 167 5 is_stmt 1 view .LVU1028
.LVL310:
	.loc 23 168 5 view .LVU1029
.LBB741:
.LBI734:
	.loc 22 92 8 view .LVU1030
.LBB740:
.LBB738:
.LBI738:
	.loc 22 33 21 view .LVU1031
.LBB739:
	.loc 22 35 44 is_stmt 0 view .LVU1032
	movq	(%rsi), %r9
.LVL311:
	.loc 22 35 44 view .LVU1033
.LBE739:
.LBE738:
	.loc 22 97 7 view .LVU1034
	movq	%r9, 216(%rbx)
	.loc 22 98 7 view .LVU1035
	testq	%r9, %r9
	jne	.L191
	jmp	.L207
.LVL312:
.L206:
	.loc 22 98 7 view .LVU1036
.LBE740:
.LBE741:
	.loc 23 170 7 is_stmt 1 view .LVU1037
.LBB742:
.LBI742:
	.loc 19 43 8 view .LVU1038
.LBB743:
	.loc 19 45 5 view .LVU1039
	movq	8(%rsi), %r10
.LVL313:
.LBB744:
.LBI744:
	.loc 5 583 15 view .LVU1040
.LBB745:
.LBB746:
	.loc 5 584 63 is_stmt 0 view .LVU1041
	movl	$0, 32(%rsp)
	movb	$0, 36(%rsp)
	movq	_ZN5boost6system6detail10cat_holderIvE24system_category_instanceE@GOTPCREL(%rip), %r11
	movq	%r11, 40(%rsp)
.LVL314:
	.loc 5 584 63 view .LVU1042
.LBE746:
.LBE745:
.LBE744:
	.loc 19 45 10 view .LVU1043
	leaq	32(%rsp), %rdx
	movl	$0, %ecx
	movl	$0, %edi
	call	*%r10
.LVL315:
.LEHE3:
	.loc 19 45 10 view .LVU1044
	jmp	.L192
.L190:
	.loc 19 45 10 view .LVU1045
.LBE743:
.LBE742:
.LBE755:
	.loc 23 174 3 is_stmt 1 view .LVU1046
	.loc 23 174 9 is_stmt 0 view .LVU1047
	movq	$0, 168(%rbx)
.LVL316:
.LBB756:
.LBI756:
	.loc 13 63 5 is_stmt 1 view .LVU1048
.LBB757:
	.loc 13 65 7 view .LVU1049
	cmpb	$0, 24(%rsp)
	jne	.L208
.LVL317:
.L177:
	.loc 13 65 7 is_stmt 0 view .LVU1050
.LBE757:
.LBE756:
	.loc 23 175 1 view .LVU1051
	addq	$56, %rsp
	.cfi_remember_state
	.cfi_def_cfa_offset 24
	popq	%rbx
	.cfi_def_cfa_offset 16
.LVL318:
	.loc 23 175 1 view .LVU1052
	popq	%rbp
	.cfi_def_cfa_offset 8
.LVL319:
	.loc 23 175 1 view .LVU1053
	ret
.LVL320:
.L208:
	.cfi_restore_state
.LBB762:
.LBB761:
	.loc 13 66 9 is_stmt 1 view .LVU1054
.LBB758:
.LBI758:
	.loc 16 56 8 view .LVU1055
.LBB759:
	.loc 16 58 5 view .LVU1056
	.loc 16 58 33 is_stmt 0 view .LVU1057
	movq	16(%rsp), %r8
	leaq	8(%r8), %rdi
.LVL321:
	.loc 16 58 33 view .LVU1058
	call	pthread_mutex_unlock@PLT
.LVL322:
	.loc 16 58 33 view .LVU1059
.LBE759:
.LBE758:
.LBB760:
.LBI760:
	.loc 14 30 3 is_stmt 1 view .LVU1060
	.loc 14 30 3 is_stmt 0 view .LVU1061
	jmp	.L177
.L197:
	.loc 14 30 3 view .LVU1062
	movq	%rax, %rbx
.LVL323:
	.loc 14 30 3 view .LVU1063
.LBE760:
.LBE761:
.LBE762:
.LBB763:
.LBI763:
	.loc 13 63 5 is_stmt 1 view .LVU1064
.LBB764:
	.loc 13 65 7 view .LVU1065
	cmpb	$0, 24(%rsp)
	je	.L196
	.loc 13 66 9 view .LVU1066
.LVL324:
.LBB765:
.LBI765:
	.loc 16 56 8 view .LVU1067
.LBB766:
	.loc 16 58 5 view .LVU1068
	.loc 16 58 33 is_stmt 0 view .LVU1069
	movq	16(%rsp), %rax
	leaq	8(%rax), %rdi
.LVL325:
	.loc 16 58 33 view .LVU1070
	call	pthread_mutex_unlock@PLT
.LVL326:
.L196:
	.loc 16 58 33 view .LVU1071
.LBE766:
.LBE765:
.LBB767:
.LBI767:
	.loc 14 30 3 is_stmt 1 view .LVU1072
	.loc 14 30 3 is_stmt 0 view .LVU1073
	movq	%rbx, %rdi
.LEHB4:
	call	_Unwind_Resume@PLT
.LVL327:
.LEHE4:
.LBE767:
.LBE764:
.LBE763:
	.cfi_endproc
.LFE43:
	.section	.gcc_except_table
.LLSDA43:
	.byte	0xff
	.byte	0xff
	.byte	0x1
	.uleb128 .LLSDACSE43-.LLSDACSB43
.LLSDACSB43:
	.uleb128 .LEHB3-.LFB43
	.uleb128 .LEHE3-.LEHB3
	.uleb128 .L197-.LFB43
	.uleb128 0
	.uleb128 .LEHB4-.LFB43
	.uleb128 .LEHE4-.LEHB4
	.uleb128 0
	.uleb128 0
.LLSDACSE43:
	.text
	.size	_ZN5boost4asio6detail9scheduler8shutdownEv, .-_ZN5boost4asio6detail9scheduler8shutdownEv
	.align 2
	.globl	_ZN5boost4asio6detail13epoll_reactorD0Ev
	.hidden	_ZN5boost4asio6detail13epoll_reactorD0Ev
	.type	_ZN5boost4asio6detail13epoll_reactorD0Ev, @function
_ZN5boost4asio6detail13epoll_reactorD0Ev:
.LVL328:
.LFB44:
	.loc 12 65 1 is_stmt 1 view -0
	.cfi_startproc
	.cfi_personality 0x9b,DW.ref.__gxx_personality_v0
	.cfi_lsda 0x1b,.LLSDA44
	.loc 12 65 1 is_stmt 0 view .LVU1075
	pushq	%r15
	.cfi_def_cfa_offset 16
	.cfi_offset 15, -16
	pushq	%r14
	.cfi_def_cfa_offset 24
	.cfi_offset 14, -24
	pushq	%r13
	.cfi_def_cfa_offset 32
	.cfi_offset 13, -32
	pushq	%r12
	.cfi_def_cfa_offset 40
	.cfi_offset 12, -40
	pushq	%rbp
	.cfi_def_cfa_offset 48
	.cfi_offset 6, -48
	pushq	%rbx
	.cfi_def_cfa_offset 56
	.cfi_offset 3, -56
	subq	$56, %rsp
	.cfi_def_cfa_offset 112
	movq	%rdi, %rbx
.LVL329:
.LBB859:
.LBB860:
	.loc 12 65 31 is_stmt 1 view .LVU1076
	leaq	16+_ZTVN5boost4asio6detail13epoll_reactorE(%rip), %rax
	movq	%rax, (%rdi)
	.loc 12 67 7 view .LVU1077
	movl	112(%rdi), %edi
.LVL330:
	.loc 12 67 3 view .LVU1078
	cmpl	$-1, %edi
	jne	.L231
.L210:
	.loc 12 69 7 view .LVU1079
	movl	116(%rbx), %edi
	.loc 12 69 3 view .LVU1080
	cmpl	$-1, %edi
	jne	.L232
.L211:
	.loc 12 65 31 view .LVU1081
	leaq	192(%rbx), %r13
.LVL331:
.LBB861:
.LBB862:
	.loc 15 78 5 view .LVU1082
	movq	192(%rbx), %rbp
.LVL332:
.LBB863:
.LBB864:
.LBB865:
.LBB866:
.LBB867:
.LBB868:
.LBB869:
.LBB870:
.LBB871:
.LBB872:
.LBB873:
.LBB874:
.LBB875:
	.loc 19 45 10 view .LVU1083
	leaq	16(%rsp), %rdx
	movq	%rdx, 8(%rsp)
	jmp	.L218
.LVL333:
.L231:
	.loc 19 45 10 is_stmt 0 view .LVU1084
.LBE875:
.LBE874:
.LBE873:
.LBE872:
.LBE871:
.LBE870:
.LBE869:
.LBE868:
.LBE867:
.LBE866:
.LBE865:
.LBE864:
.LBE863:
.LBE862:
.LBE861:
	.loc 12 68 10 is_stmt 1 view .LVU1085
	call	close@PLT
.LVL334:
	jmp	.L210
.L232:
	.loc 12 70 10 view .LVU1086
	call	close@PLT
.LVL335:
	jmp	.L211
.LVL336:
.L233:
.LBB951:
.LBB948:
.LBB908:
.LBB906:
.LBB904:
.LBB902:
.LBB900:
.LBB898:
.LBB896:
.LBB892:
.LBB891:
.LBB882:
.LBB883:
	.loc 22 99 9 view .LVU1087
	movq	$0, 8(%r12)
.L216:
.LVL337:
.LBB884:
.LBB885:
	.loc 22 41 5 view .LVU1088
	movq	$0, (%rsi)
.LVL338:
	.loc 22 41 5 is_stmt 0 view .LVU1089
.LBE885:
.LBE884:
.LBE883:
.LBE882:
.LBB889:
.LBB881:
.LBB880:
.LBB879:
	.loc 19 45 5 is_stmt 1 view .LVU1090
	movq	8(%rsi), %r8
.LVL339:
.LBB876:
.LBB877:
.LBB878:
	.loc 5 584 63 view .LVU1091
	movl	$0, 16(%rsp)
	movb	$0, 20(%rsp)
	movq	_ZN5boost6system6detail10cat_holderIvE24system_category_instanceE@GOTPCREL(%rip), %rdi
	movq	%rdi, 24(%rsp)
.LVL340:
	.loc 5 584 63 is_stmt 0 view .LVU1092
.LBE878:
.LBE877:
.LBE876:
	.loc 19 45 10 is_stmt 1 view .LVU1093
	movl	$0, %ecx
	movq	8(%rsp), %rdx
	movl	$0, %edi
	call	*%r8
.LVL341:
.L217:
	.loc 19 45 10 is_stmt 0 view .LVU1094
.LBE879:
.LBE880:
.LBE881:
.LBE889:
	.loc 22 78 23 is_stmt 1 view .LVU1095
	movq	(%r12), %rsi
.LVL342:
	.loc 22 78 5 view .LVU1096
	testq	%rsi, %rsi
	je	.L215
.LVL343:
.LBB890:
.LBB888:
.LBB886:
.LBB887:
	.loc 22 35 44 view .LVU1097
	movq	(%rsi), %rcx
.LVL344:
	.loc 22 35 44 is_stmt 0 view .LVU1098
.LBE887:
.LBE886:
	.loc 22 97 7 is_stmt 1 view .LVU1099
	movq	%rcx, (%r12)
	.loc 22 98 7 view .LVU1100
	testq	%rcx, %rcx
	jne	.L216
	jmp	.L233
.LVL345:
.L214:
	.loc 22 98 7 is_stmt 0 view .LVU1101
.LBE888:
.LBE890:
.LBE891:
.LBE892:
.LBB893:
.LBB894:
.LBB895:
	.loc 16 46 28 is_stmt 1 view .LVU1102
	leaq	48(%rbp), %rdi
	call	pthread_mutex_destroy@PLT
.LVL346:
	.loc 16 46 28 is_stmt 0 view .LVU1103
.LBE895:
.LBE894:
.LBE893:
.LBE896:
.LBE898:
	.loc 15 47 5 is_stmt 1 view .LVU1104
	movl	$168, %esi
	movq	%rbp, %rdi
	call	_ZdlPvm@PLT
.LVL347:
.L213:
	.loc 15 47 5 is_stmt 0 view .LVU1105
.LBE900:
.LBE902:
.LBE904:
.LBE906:
.LBE908:
.LBE948:
	.loc 15 155 7 is_stmt 1 view .LVU1106
	movq	%r14, %rbp
.LVL348:
.L218:
.LBB949:
.LBB909:
.LBB907:
	.loc 15 152 5 view .LVU1107
	testq	%rbp, %rbp
	je	.L212
.LVL349:
.LBB905:
	.loc 15 155 7 view .LVU1108
	movq	24(%rbp), %r14
.LVL350:
.LBB903:
.LBB901:
	.loc 15 47 5 view .LVU1109
	je	.L213
.LVL351:
.LBB899:
.LBB897:
	.file 32 "/usr/local/include/boost/asio/detail/epoll_reactor.hpp"
	.loc 32 57 9 view .LVU1110
	movq	%rbp, %r15
	addq	$112, %r15
	je	.L214
	leaq	160(%rbp), %r12
.L215:
	.loc 32 57 9 is_stmt 0 view .LVU1111
	cmpq	%r12, %r15
	je	.L214
	subq	$16, %r12
.LVL352:
	.loc 32 57 9 view .LVU1112
	jmp	.L217
.LVL353:
.L212:
	.loc 32 57 9 view .LVU1113
.LBE897:
.LBE899:
.LBE901:
.LBE903:
.LBE905:
.LBE907:
.LBE909:
	.loc 15 79 5 is_stmt 1 view .LVU1114
	movq	8(%r13), %rbp
.LVL354:
.LBB910:
.LBB911:
.LBB912:
.LBB913:
.LBB914:
.LBB915:
.LBB916:
.LBB917:
.LBB918:
.LBB919:
.LBB920:
.LBB921:
.LBB922:
	.loc 19 45 10 view .LVU1115
	leaq	32(%rsp), %r13
.LVL355:
	.loc 19 45 10 is_stmt 0 view .LVU1116
	jmp	.L225
.LVL356:
.L234:
	.loc 19 45 10 view .LVU1117
.LBE922:
.LBE921:
.LBE920:
.LBE919:
.LBB929:
.LBB930:
	.loc 22 99 9 is_stmt 1 view .LVU1118
	movq	$0, 8(%r12)
.L223:
.LVL357:
.LBB931:
.LBB932:
	.loc 22 41 5 view .LVU1119
	movq	$0, (%rsi)
.LVL358:
	.loc 22 41 5 is_stmt 0 view .LVU1120
.LBE932:
.LBE931:
.LBE930:
.LBE929:
.LBB936:
.LBB928:
.LBB927:
.LBB926:
	.loc 19 45 5 is_stmt 1 view .LVU1121
	movq	8(%rsi), %r10
.LVL359:
.LBB923:
.LBB924:
.LBB925:
	.loc 5 584 63 view .LVU1122
	movl	$0, 32(%rsp)
	movb	$0, 36(%rsp)
	movq	_ZN5boost6system6detail10cat_holderIvE24system_category_instanceE@GOTPCREL(%rip), %r11
	movq	%r11, 40(%rsp)
.LVL360:
	.loc 5 584 63 is_stmt 0 view .LVU1123
.LBE925:
.LBE924:
.LBE923:
	.loc 19 45 10 is_stmt 1 view .LVU1124
	movl	$0, %ecx
	movq	%r13, %rdx
	movl	$0, %edi
	call	*%r10
.LVL361:
.L224:
	.loc 19 45 10 is_stmt 0 view .LVU1125
.LBE926:
.LBE927:
.LBE928:
.LBE936:
	.loc 22 78 23 is_stmt 1 view .LVU1126
	movq	(%r12), %rsi
.LVL362:
	.loc 22 78 5 view .LVU1127
	testq	%rsi, %rsi
	je	.L222
.LVL363:
.LBB937:
.LBB935:
.LBB933:
.LBB934:
	.loc 22 35 44 view .LVU1128
	movq	(%rsi), %r9
.LVL364:
	.loc 22 35 44 is_stmt 0 view .LVU1129
.LBE934:
.LBE933:
	.loc 22 97 7 is_stmt 1 view .LVU1130
	movq	%r9, (%r12)
	.loc 22 98 7 view .LVU1131
	testq	%r9, %r9
	jne	.L223
	jmp	.L234
.LVL365:
.L221:
	.loc 22 98 7 is_stmt 0 view .LVU1132
.LBE935:
.LBE937:
.LBE918:
.LBE917:
.LBB938:
.LBB939:
.LBB940:
	.loc 16 46 28 is_stmt 1 view .LVU1133
	leaq	48(%rbp), %rdi
	call	pthread_mutex_destroy@PLT
.LVL366:
	.loc 16 46 28 is_stmt 0 view .LVU1134
.LBE940:
.LBE939:
.LBE938:
.LBE916:
.LBE915:
	.loc 15 47 5 is_stmt 1 view .LVU1135
	movl	$168, %esi
	movq	%rbp, %rdi
	call	_ZdlPvm@PLT
.LVL367:
.L220:
	.loc 15 47 5 is_stmt 0 view .LVU1136
.LBE914:
.LBE913:
.LBE912:
.LBE911:
.LBE910:
.LBE949:
	.loc 15 155 7 is_stmt 1 view .LVU1137
	movq	%r14, %rbp
.LVL368:
.L225:
.LBB950:
.LBB947:
.LBB946:
	.loc 15 152 5 view .LVU1138
	testq	%rbp, %rbp
	je	.L219
.LVL369:
.LBB945:
	.loc 15 155 7 view .LVU1139
	movq	24(%rbp), %r14
.LVL370:
.LBB944:
.LBB943:
	.loc 15 47 5 view .LVU1140
	je	.L220
.LVL371:
.LBB942:
.LBB941:
	.loc 32 57 9 view .LVU1141
	movq	%rbp, %r15
	addq	$112, %r15
	je	.L221
	leaq	160(%rbp), %r12
.L222:
	.loc 32 57 9 is_stmt 0 view .LVU1142
	cmpq	%r12, %r15
	je	.L221
	subq	$16, %r12
.LVL372:
	.loc 32 57 9 view .LVU1143
	jmp	.L224
.LVL373:
.L219:
	.loc 32 57 9 view .LVU1144
.LBE941:
.LBE942:
.LBE943:
.LBE944:
.LBE945:
.LBE946:
.LBE947:
.LBE950:
.LBE951:
.LBB952:
.LBB953:
.LBB954:
	.loc 16 46 28 is_stmt 1 view .LVU1145
	leaq	144(%rbx), %rdi
	call	pthread_mutex_destroy@PLT
.LVL374:
	.loc 16 46 28 is_stmt 0 view .LVU1146
.LBE954:
.LBE953:
.LBE952:
.LBB955:
.LBB956:
.LBB957:
	.file 33 "/usr/local/include/boost/asio/detail/impl/eventfd_select_interrupter.ipp"
	.loc 33 103 7 is_stmt 1 view .LVU1147
	movl	108(%rbx), %edi
	.loc 33 103 3 view .LVU1148
	cmpl	$-1, %edi
	je	.L226
	.loc 33 103 31 view .LVU1149
	cmpl	104(%rbx), %edi
	jne	.L235
.L226:
	.loc 33 105 7 view .LVU1150
	movl	104(%rbx), %edi
	.loc 33 105 3 view .LVU1151
	cmpl	$-1, %edi
	jne	.L236
.L227:
.LVL375:
	.loc 33 105 3 is_stmt 0 view .LVU1152
.LBE957:
.LBE956:
.LBE955:
.LBB960:
.LBB961:
.LBB962:
	.loc 16 46 28 is_stmt 1 view .LVU1153
	leaq	56(%rbx), %rdi
	call	pthread_mutex_destroy@PLT
.LVL376:
	.loc 16 46 28 is_stmt 0 view .LVU1154
.LBE962:
.LBE961:
.LBE960:
.LBE860:
.LBE859:
	.loc 12 71 1 is_stmt 1 view .LVU1155
	movl	$208, %esi
	movq	%rbx, %rdi
	call	_ZdlPvm@PLT
.LVL377:
	addq	$56, %rsp
	.cfi_remember_state
	.cfi_def_cfa_offset 56
	popq	%rbx
	.cfi_def_cfa_offset 48
.LVL378:
	.loc 12 71 1 is_stmt 0 view .LVU1156
	popq	%rbp
	.cfi_def_cfa_offset 40
	popq	%r12
	.cfi_def_cfa_offset 32
	popq	%r13
	.cfi_def_cfa_offset 24
	popq	%r14
	.cfi_def_cfa_offset 16
	popq	%r15
	.cfi_def_cfa_offset 8
	ret
.LVL379:
.L235:
	.cfi_restore_state
.LBB965:
.LBB964:
.LBB963:
.LBB959:
.LBB958:
	.loc 33 104 12 is_stmt 1 view .LVU1157
	call	close@PLT
.LVL380:
	jmp	.L226
.L236:
	.loc 33 106 12 view .LVU1158
	call	close@PLT
.LVL381:
	jmp	.L227
.LBE958:
.LBE959:
.LBE963:
.LBE964:
.LBE965:
	.cfi_endproc
.LFE44:
	.section	.gcc_except_table
.LLSDA44:
	.byte	0xff
	.byte	0xff
	.byte	0x1
	.uleb128 .LLSDACSE44-.LLSDACSB44
.LLSDACSB44:
.LLSDACSE44:
	.text
	.size	_ZN5boost4asio6detail13epoll_reactorD0Ev, .-_ZN5boost4asio6detail13epoll_reactorD0Ev
	.align 2
	.type	_ZN5boost4asio6detail9schedulerD0Ev, @function
_ZN5boost4asio6detail9schedulerD0Ev:
.LVL382:
.LFB51:
	.loc 23 135 1 view -0
	.cfi_startproc
	.cfi_personality 0x9b,DW.ref.__gxx_personality_v0
	.cfi_lsda 0x1b,.LLSDA51
	.loc 23 135 1 is_stmt 0 view .LVU1160
	pushq	%r12
	.cfi_def_cfa_offset 16
	.cfi_offset 12, -16
	pushq	%rbp
	.cfi_def_cfa_offset 24
	.cfi_offset 6, -24
	pushq	%rbx
	.cfi_def_cfa_offset 32
	.cfi_offset 3, -32
	subq	$48, %rsp
	.cfi_def_cfa_offset 80
	movq	%rdi, %rbx
.LVL383:
.LBB1041:
.LBB1042:
	.loc 23 135 23 is_stmt 1 view .LVU1161
	leaq	16+_ZTVN5boost4asio6detail9schedulerE(%rip), %rax
	movq	%rax, (%rdi)
.LBB1043:
	.loc 23 137 3 view .LVU1162
	cmpq	$0, 240(%rdi)
	je	.L238
.LBB1044:
	.loc 23 139 29 view .LVU1163
	leaq	48(%rdi), %rdx
.LVL384:
.LBB1045:
.LBB1046:
.LBB1047:
	.loc 13 51 17 view .LVU1164
	movq	%rdx, 16(%rsp)
	.loc 13 53 7 view .LVU1165
	cmpb	$0, 96(%rdi)
	jne	.L254
	.loc 13 59 17 view .LVU1166
	movb	$0, 24(%rsp)
.LVL385:
.L240:
	.loc 13 59 17 is_stmt 0 view .LVU1167
.LBE1047:
.LBE1046:
.LBE1045:
	.loc 23 140 15 is_stmt 1 view .LVU1168
	movb	$1, 233(%rbx)
.LVL386:
.LBB1052:
.LBB1053:
	.loc 23 626 12 view .LVU1169
	movb	$1, 232(%rbx)
.LVL387:
.LBB1054:
.LBB1055:
	.loc 26 56 5 view .LVU1170
	movq	16(%rsp), %rcx
	cmpb	$0, 48(%rcx)
	jne	.L255
.L241:
.LVL388:
	.loc 26 56 5 is_stmt 0 view .LVU1171
.LBE1055:
.LBE1054:
	.loc 23 629 3 is_stmt 1 view .LVU1172
	cmpb	$0, 200(%rbx)
	jne	.L243
	.loc 23 629 29 view .LVU1173
	movq	168(%rbx), %rdi
	.loc 23 629 26 view .LVU1174
	testq	%rdi, %rdi
	je	.L243
	.loc 23 631 23 view .LVU1175
	movb	$1, 200(%rbx)
.LVL389:
.LBB1059:
.LBB1060:
	.loc 12 571 13 view .LVU1176
	movl	$-2147483639, 4(%rsp)
	.loc 12 572 17 view .LVU1177
	leaq	104(%rdi), %rbp
	.loc 12 572 15 view .LVU1178
	movq	%rbp, 8(%rsp)
.LVL390:
.LBB1061:
.LBB1062:
	.loc 27 50 12 view .LVU1179
	movl	104(%rdi), %edx
.LVL391:
	.loc 27 50 12 is_stmt 0 view .LVU1180
.LBE1062:
.LBE1061:
	.loc 12 573 12 is_stmt 1 view .LVU1181
	leaq	4(%rsp), %rcx
	movl	112(%rdi), %edi
.LVL392:
	.loc 12 573 12 is_stmt 0 view .LVU1182
	movl	$3, %esi
	call	epoll_ctl@PLT
.LVL393:
.L243:
	.loc 12 573 12 view .LVU1183
.LBE1060:
.LBE1059:
.LBE1053:
.LBE1052:
.LBB1065:
.LBB1066:
	.loc 13 82 7 is_stmt 1 view .LVU1184
	cmpb	$0, 24(%rsp)
	je	.L244
	.loc 13 84 9 view .LVU1185
	movq	16(%rsp), %rdi
.LVL394:
.LBB1067:
.LBB1068:
	.loc 13 134 5 view .LVU1186
	cmpb	$0, 48(%rdi)
	jne	.L256
.LVL395:
.L245:
	.loc 13 134 5 is_stmt 0 view .LVU1187
.LBE1068:
.LBE1067:
	.loc 13 85 17 is_stmt 1 view .LVU1188
	movb	$0, 24(%rsp)
.L244:
.LVL396:
	.loc 13 85 17 is_stmt 0 view .LVU1189
.LBE1066:
.LBE1065:
	.loc 23 143 5 is_stmt 1 view .LVU1190
	movq	240(%rbx), %r12
.LVL397:
.LBB1074:
.LBB1075:
	.loc 1 40 3 view .LVU1191
	cmpb	$0, 8(%r12)
	je	.L257
.L246:
.LVL398:
	.loc 1 40 3 is_stmt 0 view .LVU1192
.LBE1075:
.LBE1074:
	.loc 23 144 12 is_stmt 1 view .LVU1193
	movq	240(%rbx), %rbp
	.loc 23 144 19 view .LVU1194
	testq	%rbp, %rbp
	je	.L247
.LVL399:
.LBB1077:
.LBB1078:
	.loc 1 34 3 view .LVU1195
	cmpb	$0, 8(%rbp)
	je	.L258
.L248:
.LVL400:
	.loc 1 34 3 is_stmt 0 view .LVU1196
.LBE1078:
.LBE1077:
	.loc 23 144 12 is_stmt 1 view .LVU1197
	movl	$16, %esi
	movq	%rbp, %rdi
	call	_ZdlPvm@PLT
.LVL401:
.L247:
.LBB1080:
.LBB1081:
	.loc 13 65 7 view .LVU1198
	cmpb	$0, 24(%rsp)
	jne	.L259
.LVL402:
.L238:
	.loc 13 65 7 is_stmt 0 view .LVU1199
.LBE1081:
.LBE1080:
.LBE1044:
.LBE1043:
	.loc 23 135 23 is_stmt 1 view .LVU1200
	leaq	216(%rbx), %rbp
.LVL403:
.LBB1092:
.LBB1093:
.LBB1094:
.LBB1095:
.LBB1096:
	.loc 19 45 10 view .LVU1201
	leaq	32(%rsp), %r12
	jmp	.L252
.LVL404:
.L254:
	.loc 19 45 10 is_stmt 0 view .LVU1202
.LBE1096:
.LBE1095:
.LBE1094:
.LBE1093:
.LBE1092:
.LBB1112:
.LBB1091:
.LBB1085:
.LBB1051:
.LBB1050:
.LBB1048:
.LBB1049:
	.loc 16 52 31 is_stmt 1 view .LVU1203
	leaq	56(%rdi), %rdi
	call	pthread_mutex_lock@PLT
.LVL405:
	.loc 16 52 31 is_stmt 0 view .LVU1204
.LBE1049:
.LBE1048:
	.loc 13 56 17 is_stmt 1 view .LVU1205
	movb	$1, 24(%rsp)
	jmp	.L240
.LVL406:
.L255:
	.loc 13 56 17 is_stmt 0 view .LVU1206
.LBE1050:
.LBE1051:
.LBE1085:
.LBB1086:
.LBB1064:
.LBB1063:
.LBB1058:
	.loc 26 57 24 is_stmt 1 view .LVU1207
	leaq	112(%rbx), %rdi
.LVL407:
.LBB1056:
.LBB1057:
	.loc 28 57 41 view .LVU1208
	cmpb	$0, 24(%rsp)
	je	.L260
	.loc 28 59 12 view .LVU1209
	movq	48(%rdi), %rsi
	orq	$1, %rsi
	.loc 28 59 5 view .LVU1210
	movq	%rsi, 48(%rdi)
	.loc 28 60 29 view .LVU1211
	call	pthread_cond_broadcast@PLT
.LVL408:
	.loc 28 60 29 is_stmt 0 view .LVU1212
	jmp	.L241
.LVL409:
.L260:
	.loc 28 57 68 is_stmt 1 view .LVU1213
	leaq	.LC10(%rip), %rcx
	movl	$57, %edx
	leaq	.LC8(%rip), %rsi
	leaq	.LC9(%rip), %rdi
.LVL410:
	.loc 28 57 68 is_stmt 0 view .LVU1214
	call	__assert_fail@PLT
.LVL411:
.L256:
	.loc 28 57 68 view .LVU1215
.LBE1057:
.LBE1056:
.LBE1058:
.LBE1063:
.LBE1064:
.LBE1086:
.LBB1087:
.LBB1073:
.LBB1072:
.LBB1071:
.LBB1069:
.LBB1070:
	.loc 16 58 33 is_stmt 1 view .LVU1216
	addq	$8, %rdi
.LVL412:
	.loc 16 58 33 is_stmt 0 view .LVU1217
	call	pthread_mutex_unlock@PLT
.LVL413:
	.loc 16 58 33 view .LVU1218
	jmp	.L245
.LVL414:
.L257:
	.loc 16 58 33 view .LVU1219
.LBE1070:
.LBE1069:
.LBE1071:
.LBE1072:
.LBE1073:
.LBE1087:
.LBB1088:
.LBB1076:
	.loc 1 42 19 is_stmt 1 view .LVU1220
	movl	$0, %esi
	movq	(%r12), %rdi
	call	pthread_join@PLT
.LVL415:
	.loc 1 43 13 view .LVU1221
	movb	$1, 8(%r12)
	jmp	.L246
.LVL416:
.L258:
	.loc 1 43 13 is_stmt 0 view .LVU1222
.LBE1076:
.LBE1088:
.LBB1089:
.LBB1079:
	.loc 1 35 21 is_stmt 1 view .LVU1223
	movq	0(%rbp), %rdi
	call	pthread_detach@PLT
.LVL417:
	jmp	.L248
.LVL418:
.L259:
	.loc 1 35 21 is_stmt 0 view .LVU1224
.LBE1079:
.LBE1089:
.LBB1090:
.LBB1084:
.LBB1082:
.LBB1083:
	.loc 16 58 33 is_stmt 1 view .LVU1225
	movq	16(%rsp), %r8
	leaq	8(%r8), %rdi
.LVL419:
	.loc 16 58 33 is_stmt 0 view .LVU1226
	call	pthread_mutex_unlock@PLT
.LVL420:
	.loc 16 58 33 view .LVU1227
	jmp	.L238
.LVL421:
.L261:
	.loc 16 58 33 view .LVU1228
.LBE1083:
.LBE1082:
.LBE1084:
.LBE1090:
.LBE1091:
.LBE1112:
.LBB1113:
.LBB1111:
.LBB1102:
.LBB1103:
	.loc 22 99 9 is_stmt 1 view .LVU1229
	movq	$0, 8(%rbp)
.L251:
.LVL422:
.LBB1104:
.LBB1105:
	.loc 22 41 5 view .LVU1230
	movq	$0, (%rsi)
.LVL423:
	.loc 22 41 5 is_stmt 0 view .LVU1231
.LBE1105:
.LBE1104:
.LBE1103:
.LBE1102:
.LBB1109:
.LBB1101:
.LBB1100:
	.loc 19 45 5 is_stmt 1 view .LVU1232
	movq	8(%rsi), %r10
.LVL424:
.LBB1097:
.LBB1098:
.LBB1099:
	.loc 5 584 63 view .LVU1233
	movl	$0, 32(%rsp)
	movb	$0, 36(%rsp)
	movq	_ZN5boost6system6detail10cat_holderIvE24system_category_instanceE@GOTPCREL(%rip), %r11
	movq	%r11, 40(%rsp)
.LVL425:
	.loc 5 584 63 is_stmt 0 view .LVU1234
.LBE1099:
.LBE1098:
.LBE1097:
	.loc 19 45 10 is_stmt 1 view .LVU1235
	movl	$0, %ecx
	movq	%r12, %rdx
	movl	$0, %edi
	call	*%r10
.LVL426:
.L252:
	.loc 19 45 10 is_stmt 0 view .LVU1236
.LBE1100:
.LBE1101:
.LBE1109:
	.loc 22 78 23 is_stmt 1 view .LVU1237
	movq	0(%rbp), %rsi
.LVL427:
	.loc 22 78 5 view .LVU1238
	testq	%rsi, %rsi
	je	.L250
.LVL428:
.LBB1110:
.LBB1108:
.LBB1106:
.LBB1107:
	.loc 22 35 44 view .LVU1239
	movq	(%rsi), %r9
.LVL429:
	.loc 22 35 44 is_stmt 0 view .LVU1240
.LBE1107:
.LBE1106:
	.loc 22 97 7 is_stmt 1 view .LVU1241
	movq	%r9, 0(%rbp)
	.loc 22 98 7 view .LVU1242
	testq	%r9, %r9
	jne	.L251
	jmp	.L261
.LVL430:
.L250:
	.loc 22 98 7 is_stmt 0 view .LVU1243
.LBE1108:
.LBE1110:
.LBE1111:
.LBE1113:
.LBB1114:
.LBB1115:
.LBB1116:
	.loc 28 43 27 is_stmt 1 view .LVU1244
	leaq	112(%rbx), %rdi
	call	pthread_cond_destroy@PLT
.LVL431:
	.loc 28 43 27 is_stmt 0 view .LVU1245
.LBE1116:
.LBE1115:
.LBE1114:
.LBB1117:
.LBB1118:
.LBB1119:
	.loc 16 46 28 is_stmt 1 view .LVU1246
	leaq	56(%rbx), %rdi
	call	pthread_mutex_destroy@PLT
.LVL432:
	.loc 16 46 28 is_stmt 0 view .LVU1247
.LBE1119:
.LBE1118:
.LBE1117:
.LBE1042:
.LBE1041:
	.loc 23 146 1 is_stmt 1 view .LVU1248
	movl	$248, %esi
	movq	%rbx, %rdi
	call	_ZdlPvm@PLT
.LVL433:
	addq	$48, %rsp
	.cfi_def_cfa_offset 32
	popq	%rbx
	.cfi_def_cfa_offset 24
.LVL434:
	.loc 23 146 1 is_stmt 0 view .LVU1249
	popq	%rbp
	.cfi_def_cfa_offset 16
.LVL435:
	.loc 23 146 1 view .LVU1250
	popq	%r12
	.cfi_def_cfa_offset 8
	ret
	.cfi_endproc
.LFE51:
	.section	.gcc_except_table
.LLSDA51:
	.byte	0xff
	.byte	0xff
	.byte	0x1
	.uleb128 .LLSDACSE51-.LLSDACSB51
.LLSDACSB51:
.LLSDACSE51:
	.text
	.size	_ZN5boost4asio6detail9schedulerD0Ev, .-_ZN5boost4asio6detail9schedulerD0Ev
	.align 2
	.type	_ZN5boost4asio6detail13epoll_reactor3runElRNS1_8op_queueINS1_19scheduler_operationEEE, @function
_ZN5boost4asio6detail13epoll_reactor3runElRNS1_8op_queueINS1_19scheduler_operationEEE:
.LVL436:
.LFB53:
	.loc 12 448 1 is_stmt 1 view -0
	.cfi_startproc
	.cfi_personality 0x9b,DW.ref.__gcc_personality_v0
	.cfi_lsda 0x1b,.LLSDA53
	.loc 12 448 1 is_stmt 0 view .LVU1252
	pushq	%r13
	.cfi_def_cfa_offset 16
	.cfi_offset 13, -16
	pushq	%r12
	.cfi_def_cfa_offset 24
	.cfi_offset 12, -24
	pushq	%rbp
	.cfi_def_cfa_offset 32
	.cfi_offset 6, -32
	pushq	%rbx
	.cfi_def_cfa_offset 40
	.cfi_offset 3, -40
	subq	$1624, %rsp
	.cfi_def_cfa_offset 1664
	movq	%rdi, %rbp
	movq	%rdx, %r12
	.loc 12 456 3 is_stmt 1 view .LVU1253
	.loc 12 457 3 view .LVU1254
.LBB1191:
	testq	%rsi, %rsi
	je	.L291
.LBB1192:
	.loc 12 461 5 view .LVU1255
	.loc 12 461 13 is_stmt 0 view .LVU1256
	js	.L292
	.loc 12 461 40 discriminator 1 view .LVU1257
	leaq	-1(%rsi), %rcx
	.loc 12 461 45 discriminator 1 view .LVU1258
	movabsq	$2361183241434822607, %rdx
.LVL437:
	.loc 12 461 45 discriminator 1 view .LVU1259
	movq	%rcx, %rax
	imulq	%rdx
	sarq	$7, %rdx
	sarq	$63, %rcx
	subq	%rcx, %rdx
	.loc 12 461 13 discriminator 1 view .LVU1260
	leal	1(%rdx), %ebx
.L264:
.LVL438:
	.loc 12 462 5 is_stmt 1 discriminator 4 view .LVU1261
.LBB1193:
	cmpl	$-1, 116(%rbp)
	je	.L324
.LVL439:
.L263:
	.loc 12 462 5 is_stmt 0 discriminator 4 view .LVU1262
.LBE1193:
.LBE1192:
.LBE1191:
	.loc 12 470 3 is_stmt 1 view .LVU1263
	.loc 12 471 3 view .LVU1264
	.loc 12 471 30 is_stmt 0 view .LVU1265
	leaq	80(%rsp), %rsi
	movl	112(%rbp), %edi
	movl	%ebx, %ecx
	movl	$128, %edx
.LEHB5:
	call	epoll_wait@PLT
.LVL440:
.LEHE5:
	.loc 12 504 3 is_stmt 1 view .LVU1266
	.loc 12 504 8 is_stmt 0 view .LVU1267
	cmpl	$-1, 116(%rbp)
	sete	%r9b
.LVL441:
	.loc 12 510 3 is_stmt 1 view .LVU1268
	.loc 12 510 12 is_stmt 0 view .LVU1269
	movl	$0, %r11d
.LBB1232:
.LBB1233:
.LBB1234:
	.loc 12 513 16 view .LVU1270
	leaq	104(%rbp), %rdi
.LBB1235:
	.loc 12 528 21 view .LVU1271
	leaq	116(%rbp), %r8
.LBE1235:
.LBE1234:
.LBE1233:
.LBE1232:
	.loc 12 530 20 view .LVU1272
	movl	$1, %r10d
	testb	$1, %al
	je	.L276
.LVL442:
.LBB1311:
	.loc 12 510 21 is_stmt 1 view .LVU1273
	cmpl	%eax, %r11d
	jge	.L271
.LBB1301:
	.loc 12 512 5 view .LVU1274
	.loc 12 512 11 is_stmt 0 view .LVU1275
	movslq	%r11d, %rsi
	leaq	(%rsi,%rsi,2), %r13
	movq	84(%rsp,%r13,4), %rcx
	.loc 12 513 5 is_stmt 1 view .LVU1276
.LBB1291:
	cmpq	%rcx, %rdi
	je	.L314
.LBE1291:
.LBE1301:
.LBE1311:
	.loc 12 528 10 view .LVU1277
.LBB1312:
.LBB1302:
.LBB1292:
.LBB1285:
	cmpq	%rcx, %r8
	je	.L325
.LBB1236:
	.loc 12 538 7 view .LVU1278
	.loc 12 539 7 view .LVU1279
.LVL443:
.LBB1237:
.LBI1237:
	.loc 22 143 8 view .LVU1280
.LBB1238:
.LBB1239:
.LBI1239:
	.loc 22 33 21 view .LVU1281
.LBE1239:
	.loc 22 145 42 is_stmt 0 view .LVU1282
	cmpq	$0, (%rcx)
	je	.L317
.L302:
.LVL444:
	.loc 22 145 42 view .LVU1283
.LBE1238:
.LBE1237:
	.loc 12 546 9 is_stmt 1 view .LVU1284
	.loc 12 546 42 is_stmt 0 view .LVU1285
	movslq	%r11d, %rdx
	leaq	(%rdx,%rdx,2), %rbx
.LVL445:
	.loc 12 546 42 view .LVU1286
	movl	80(%rsp,%rbx,4), %esi
.LBB1246:
.LBI1246:
	.loc 32 75 10 is_stmt 1 view .LVU1287
.LBB1247:
	.loc 32 75 46 view .LVU1288
	.loc 32 75 59 is_stmt 0 view .LVU1289
	orl	%esi, 16(%rcx)
.L316:
	.loc 32 75 59 view .LVU1290
.LBE1247:
.LBE1246:
.LBE1236:
.LBE1285:
.LBE1292:
.LBE1302:
	.loc 12 510 3 is_stmt 1 view .LVU1291
	addl	$1, %r11d
.LVL446:
	.loc 12 510 3 is_stmt 0 view .LVU1292
	jmp	.L276
.LVL447:
.L292:
	.loc 12 510 3 view .LVU1293
.LBE1312:
	.loc 12 461 13 view .LVU1294
	movl	$-1, %ebx
	jmp	.L264
.LVL448:
.L324:
.LBB1313:
.LBB1229:
.LBB1226:
.LBB1194:
	.loc 12 464 7 is_stmt 1 view .LVU1295
	.loc 12 464 31 is_stmt 0 view .LVU1296
	leaq	48(%rbp), %r13
.LVL449:
.LBB1195:
.LBI1195:
	.loc 13 50 14 is_stmt 1 view .LVU1297
.LBB1196:
.LBB1197:
.LBB1198:
.LBI1198:
	.loc 14 29 3 view .LVU1298
	.loc 14 29 3 is_stmt 0 view .LVU1299
.LBE1198:
	.loc 13 53 7 is_stmt 1 view .LVU1300
	cmpb	$0, 96(%rbp)
	jne	.L326
	.loc 13 59 9 view .LVU1301
	.loc 13 59 17 is_stmt 0 view .LVU1302
	movb	$0, 56(%rsp)
.LVL450:
.L266:
	.loc 13 59 17 view .LVU1303
.LBE1197:
.LBE1196:
.LBE1195:
	.loc 12 465 7 is_stmt 1 view .LVU1304
.LBB1203:
.LBI1203:
	.loc 12 665 5 view .LVU1305
.LBB1204:
	.loc 12 669 3 view .LVU1306
	.loc 12 670 3 view .LVU1307
	.loc 12 670 42 is_stmt 0 view .LVU1308
	cmpl	$300000, %ebx
	ja	.L293
	movslq	%ebx, %rsi
.L267:
.LVL451:
.LBB1205:
.LBI1205:
	.file 34 "/usr/local/include/boost/asio/detail/impl/timer_queue_set.ipp"
	.loc 34 69 6 is_stmt 1 view .LVU1309
.LBB1206:
	.loc 34 71 3 view .LVU1310
	.loc 34 72 3 view .LVU1311
.LBB1207:
	.loc 34 72 26 is_stmt 0 view .LVU1312
	movq	120(%rbp), %rbx
.LVL452:
	.loc 34 72 26 view .LVU1313
	jmp	.L269
.LVL453:
.L326:
	.loc 34 72 26 view .LVU1314
.LBE1207:
.LBE1206:
.LBE1205:
.LBE1204:
.LBE1203:
.LBB1212:
.LBB1202:
.LBB1201:
	.loc 13 55 9 is_stmt 1 view .LVU1315
.LBB1199:
.LBI1199:
	.loc 16 50 8 view .LVU1316
.LBB1200:
	.loc 16 52 5 view .LVU1317
	.loc 16 52 31 is_stmt 0 view .LVU1318
	leaq	56(%rbp), %rdi
.LVL454:
	.loc 16 52 31 view .LVU1319
	call	pthread_mutex_lock@PLT
.LVL455:
	.loc 16 52 31 view .LVU1320
.LBE1200:
.LBE1199:
	.loc 13 56 9 is_stmt 1 view .LVU1321
	.loc 13 56 17 is_stmt 0 view .LVU1322
	movb	$1, 56(%rsp)
	jmp	.L266
.LVL456:
.L293:
	.loc 13 56 17 view .LVU1323
.LBE1201:
.LBE1202:
.LBE1212:
.LBE1194:
.LBE1226:
.LBE1229:
.LBE1313:
	.loc 12 670 42 view .LVU1324
	movl	$300000, %esi
	jmp	.L267
.LVL457:
.L327:
.LBB1314:
.LBB1230:
.LBB1227:
.LBB1224:
.LBB1213:
.LBB1211:
.LBB1210:
.LBB1209:
.LBB1208:
	.loc 34 73 41 view .LVU1325
	movq	%rax, %rsi
.LVL458:
	.loc 34 72 3 is_stmt 1 view .LVU1326
	.loc 34 72 43 is_stmt 0 view .LVU1327
	movq	8(%rbx), %rbx
.LVL459:
.L269:
	.loc 34 72 38 is_stmt 1 view .LVU1328
	testq	%rbx, %rbx
	je	.L268
	.loc 34 73 5 view .LVU1329
	.loc 34 73 54 is_stmt 0 view .LVU1330
	movq	(%rbx), %rax
	.loc 34 73 41 view .LVU1331
	movq	%rbx, %rdi
.LEHB6:
	call	*24(%rax)
.LVL460:
.LEHE6:
	.loc 34 73 41 view .LVU1332
	jmp	.L327
.LVL461:
.L268:
	.loc 34 73 41 view .LVU1333
.LBE1208:
	.loc 34 74 3 is_stmt 1 view .LVU1334
	.loc 34 74 3 is_stmt 0 view .LVU1335
.LBE1209:
.LBE1210:
	.loc 12 671 54 view .LVU1336
	movl	%esi, %ebx
.LVL462:
	.loc 12 671 54 view .LVU1337
.LBE1211:
.LBE1213:
.LBB1214:
.LBI1214:
	.loc 13 63 5 is_stmt 1 view .LVU1338
.LBB1215:
	.loc 13 65 7 view .LVU1339
	cmpb	$0, 56(%rsp)
	je	.L263
	.loc 13 66 9 view .LVU1340
.LVL463:
.LBB1216:
.LBI1216:
	.loc 16 56 8 view .LVU1341
.LBB1217:
	.loc 16 58 5 view .LVU1342
	.loc 16 58 33 is_stmt 0 view .LVU1343
	leaq	8(%r13), %rdi
.LVL464:
	.loc 16 58 33 view .LVU1344
	call	pthread_mutex_unlock@PLT
.LVL465:
	.loc 16 58 33 view .LVU1345
.LBE1217:
.LBE1216:
.LBB1218:
.LBI1218:
	.loc 14 30 3 is_stmt 1 view .LVU1346
	.loc 14 30 3 is_stmt 0 view .LVU1347
	jmp	.L263
.LVL466:
.L291:
	.loc 14 30 3 view .LVU1348
.LBE1218:
.LBE1215:
.LBE1214:
.LBE1224:
.LBE1227:
.LBE1230:
.LBE1314:
	.loc 12 458 13 view .LVU1349
	movl	$0, %ebx
	jmp	.L263
.LVL467:
.L334:
.LBB1315:
.LBB1303:
.LBB1293:
	.loc 12 521 7 is_stmt 1 view .LVU1350
	cmpl	$-1, 116(%rbp)
	jne	.L273
.LBE1293:
.LBE1303:
.LBE1315:
	.loc 12 522 22 is_stmt 0 view .LVU1351
	movl	%r10d, %r9d
	jmp	.L273
.LVL468:
.L335:
.LBB1316:
.LBB1304:
.LBB1294:
.LBB1286:
.LBB1280:
.LBB1250:
.LBB1242:
	.loc 22 145 42 view .LVU1352
	cmpq	8(%r12), %rdx
	je	.L274
.LVL469:
	.loc 22 145 42 view .LVU1353
.LBE1242:
.LBE1250:
	.loc 12 541 9 is_stmt 1 view .LVU1354
	.loc 12 541 42 is_stmt 0 view .LVU1355
	movslq	%r11d, %rbx
	leaq	(%rbx,%rbx,2), %rsi
	movl	80(%rsp,%rsi,4), %ecx
.LVL470:
.LBB1251:
.LBI1251:
	.loc 32 74 10 is_stmt 1 view .LVU1356
.LBB1252:
	.loc 32 74 46 view .LVU1357
	.loc 32 74 59 is_stmt 0 view .LVU1358
	movl	%ecx, 16(%rdx)
.LVL471:
	.loc 32 74 59 view .LVU1359
.LBE1252:
.LBE1251:
	.loc 12 542 9 is_stmt 1 view .LVU1360
.LBB1255:
.LBI1255:
	.loc 22 105 8 view .LVU1361
.LBB1256:
.LBB1257:
.LBI1257:
	.loc 22 39 15 view .LVU1362
.LBB1258:
	.loc 22 41 5 is_stmt 0 view .LVU1363
	movq	$0, (%rdx)
.LVL472:
	.loc 22 41 5 view .LVU1364
.LBE1258:
.LBE1257:
	.loc 22 108 9 view .LVU1365
	movq	8(%r12), %r13
	.loc 22 108 5 view .LVU1366
	testq	%r13, %r13
	je	.L275
.LVL473:
.LBB1261:
.LBI1261:
	.loc 22 39 15 is_stmt 1 view .LVU1367
.LBB1262:
	.loc 22 41 5 is_stmt 0 view .LVU1368
	movq	%rdx, 0(%r13)
.LVL474:
	.loc 22 41 5 view .LVU1369
.LBE1262:
.LBE1261:
	.loc 22 111 7 view .LVU1370
	movq	%rdx, 8(%r12)
	jmp	.L273
.L275:
	.loc 22 115 7 view .LVU1371
	movq	%rdx, 8(%r12)
	movq	%rdx, (%r12)
	jmp	.L273
.LVL475:
.L295:
	.loc 22 115 7 view .LVU1372
.LBE1256:
.LBE1255:
.LBE1280:
.LBE1286:
.LBE1294:
.LBE1304:
.LBE1316:
	.loc 12 530 20 view .LVU1373
	movl	%r10d, %r9d
	jmp	.L273
.LVL476:
.L271:
	.loc 12 551 3 is_stmt 1 view .LVU1374
.LBB1317:
	testb	%r9b, %r9b
	je	.L262
.LBB1318:
	.loc 12 553 5 view .LVU1375
	.loc 12 553 36 is_stmt 0 view .LVU1376
	leaq	48(%rbp), %r13
.LVL477:
.LBB1319:
.LBI1319:
	.loc 13 50 14 is_stmt 1 view .LVU1377
.LBB1320:
.LBB1321:
.LBB1322:
.LBI1322:
	.loc 14 29 3 view .LVU1378
	.loc 14 29 3 is_stmt 0 view .LVU1379
.LBE1322:
	.loc 13 53 7 is_stmt 1 view .LVU1380
	cmpb	$0, 96(%rbp)
	jne	.L328
	.loc 13 59 9 view .LVU1381
	.loc 13 59 17 is_stmt 0 view .LVU1382
	movb	$0, 8(%rsp)
.LVL478:
.L279:
	.loc 13 59 17 view .LVU1383
.LBE1321:
.LBE1320:
.LBE1319:
	.loc 12 554 5 is_stmt 1 view .LVU1384
.LBB1327:
.LBI1327:
	.loc 34 85 6 view .LVU1385
.LBE1327:
.LBE1318:
.LBE1317:
	.loc 34 87 3 view .LVU1386
.LBB1361:
.LBB1358:
.LBB1330:
.LBB1328:
	.loc 34 87 26 is_stmt 0 view .LVU1387
	movq	120(%rbp), %rbx
.LVL479:
	.loc 34 87 26 view .LVU1388
	jmp	.L281
.LVL480:
.L328:
	.loc 34 87 26 view .LVU1389
.LBE1328:
.LBE1330:
.LBB1331:
.LBB1326:
.LBB1325:
	.loc 13 55 9 is_stmt 1 view .LVU1390
.LBB1323:
.LBI1323:
	.loc 16 50 8 view .LVU1391
.LBB1324:
	.loc 16 52 5 view .LVU1392
	.loc 16 52 31 is_stmt 0 view .LVU1393
	leaq	56(%rbp), %rdi
	call	pthread_mutex_lock@PLT
.LVL481:
	.loc 16 52 31 view .LVU1394
.LBE1324:
.LBE1323:
	.loc 13 56 9 is_stmt 1 view .LVU1395
	.loc 13 56 17 is_stmt 0 view .LVU1396
	movb	$1, 8(%rsp)
	jmp	.L279
.LVL482:
.L329:
	.loc 13 56 17 view .LVU1397
.LBE1325:
.LBE1326:
.LBE1331:
.LBB1332:
.LBB1329:
	.loc 34 87 3 is_stmt 1 view .LVU1398
	.loc 34 87 43 is_stmt 0 view .LVU1399
	movq	8(%rbx), %rbx
.LVL483:
.L281:
	.loc 34 87 38 is_stmt 1 view .LVU1400
	testq	%rbx, %rbx
	je	.L280
	.loc 34 88 5 view .LVU1401
	.loc 34 88 28 is_stmt 0 view .LVU1402
	movq	(%rbx), %rax
	.loc 34 88 24 view .LVU1403
	movq	%r12, %rsi
	movq	%rbx, %rdi
.LEHB7:
	call	*40(%rax)
.LVL484:
	jmp	.L329
.L280:
.LVL485:
	.loc 34 88 24 view .LVU1404
.LBE1329:
.LBE1332:
	.loc 12 557 5 is_stmt 1 view .LVU1405
.LBB1333:
	cmpl	$-1, 116(%rbp)
	jne	.L330
.LVL486:
.L282:
	.loc 12 557 5 is_stmt 0 view .LVU1406
.LBE1333:
.LBB1345:
.LBI1345:
	.loc 13 63 5 is_stmt 1 discriminator 1 view .LVU1407
.LBB1346:
	.loc 13 65 7 discriminator 1 view .LVU1408
	cmpb	$0, 8(%rsp)
	jne	.L331
.LVL487:
.L262:
	.loc 13 65 7 is_stmt 0 discriminator 1 view .LVU1409
.LBE1346:
.LBE1345:
.LBE1358:
.LBE1361:
	.loc 12 566 1 view .LVU1410
	addq	$1624, %rsp
	.cfi_remember_state
	.cfi_def_cfa_offset 40
	popq	%rbx
	.cfi_def_cfa_offset 32
	popq	%rbp
	.cfi_def_cfa_offset 24
.LVL488:
	.loc 12 566 1 view .LVU1411
	popq	%r12
	.cfi_def_cfa_offset 16
	popq	%r13
	.cfi_def_cfa_offset 8
	ret
.LVL489:
.L330:
	.cfi_restore_state
.LBB1362:
.LBB1359:
.LBB1351:
.LBB1334:
	.loc 12 559 7 is_stmt 1 view .LVU1412
	.loc 12 560 7 view .LVU1413
	.loc 12 561 7 view .LVU1414
.LBB1335:
.LBI1335:
	.loc 12 675 5 view .LVU1415
.LBB1336:
	.loc 12 677 3 view .LVU1416
	.loc 12 677 25 is_stmt 0 view .LVU1417
	movq	$0, 16(%rsp)
	.loc 12 678 3 is_stmt 1 view .LVU1418
	.loc 12 678 26 is_stmt 0 view .LVU1419
	movq	$0, 24(%rsp)
	.loc 12 680 3 is_stmt 1 view .LVU1420
.LVL490:
.LBB1337:
.LBI1337:
	.loc 34 77 6 view .LVU1421
.LBB1338:
	.loc 34 79 3 view .LVU1422
	.loc 34 80 3 view .LVU1423
.LBB1339:
	.loc 34 80 26 is_stmt 0 view .LVU1424
	movq	120(%rbp), %rbx
.LVL491:
	.loc 34 80 26 view .LVU1425
.LBE1339:
.LBE1338:
.LBE1337:
.LBE1336:
	.loc 34 79 8 view .LVU1426
	movl	$300000000, %esi
	jmp	.L284
.LVL492:
.L332:
.LBB1343:
.LBB1342:
.LBB1341:
.LBB1340:
	.loc 34 81 41 view .LVU1427
	movq	%rax, %rsi
.LVL493:
	.loc 34 80 3 is_stmt 1 view .LVU1428
	.loc 34 80 43 is_stmt 0 view .LVU1429
	movq	8(%rbx), %rbx
.LVL494:
.L284:
	.loc 34 80 38 is_stmt 1 view .LVU1430
	testq	%rbx, %rbx
	je	.L283
	.loc 34 81 5 view .LVU1431
	.loc 34 81 54 is_stmt 0 view .LVU1432
	movq	(%rbx), %r12
	.loc 34 81 41 view .LVU1433
	movq	%rbx, %rdi
	call	*32(%r12)
.LVL495:
.LEHE7:
	.loc 34 81 41 view .LVU1434
	jmp	.L332
.LVL496:
.L283:
	.loc 34 81 41 view .LVU1435
.LBE1340:
	.loc 34 82 3 is_stmt 1 view .LVU1436
	.loc 34 82 3 is_stmt 0 view .LVU1437
.LBE1341:
.LBE1342:
	.loc 12 681 3 is_stmt 1 view .LVU1438
	.loc 12 681 29 is_stmt 0 view .LVU1439
	movabsq	$4835703278458516699, %r11
	movq	%rsi, %rax
	imulq	%r11
	sarq	$18, %rdx
	movq	%rsi, %rdi
	sarq	$63, %rdi
	subq	%rdi, %rdx
	.loc 12 681 22 view .LVU1440
	movq	%rdx, 32(%rsp)
	.loc 12 682 3 is_stmt 1 view .LVU1441
	.loc 12 682 30 is_stmt 0 view .LVU1442
	testq	%rsi, %rsi
	je	.L296
	.loc 12 682 38 view .LVU1443
	movabsq	$4835703278458516699, %r10
	movq	%rsi, %rax
	imulq	%r10
	sarq	$18, %rdx
	movq	%rsi, %rcx
	sarq	$63, %rcx
	subq	%rcx, %rdx
	imulq	$1000000, %rdx, %r9
	movq	%rsi, %rax
	subq	%r9, %rax
	.loc 12 682 30 view .LVU1444
	imulq	$1000, %rax, %r8
.L285:
	.loc 12 682 23 view .LVU1445
	movq	%r8, 40(%rsp)
	.loc 12 684 3 is_stmt 1 view .LVU1446
	.loc 12 684 15 is_stmt 0 view .LVU1447
	testq	%rsi, %rsi
	.loc 12 684 21 view .LVU1448
	sete	%sil
.LVL497:
	.loc 12 684 21 view .LVU1449
	movzbl	%sil, %esi
.LVL498:
	.loc 12 684 21 view .LVU1450
.LBE1343:
.LBE1335:
	.loc 12 562 7 is_stmt 1 view .LVU1451
	.loc 12 562 22 is_stmt 0 view .LVU1452
	leaq	48(%rsp), %rcx
	leaq	16(%rsp), %rdx
	movl	116(%rbp), %edi
	call	timerfd_settime@PLT
.LVL499:
	.loc 12 562 22 view .LVU1453
	jmp	.L282
.LVL500:
.L296:
.LBB1344:
	.loc 12 682 30 view .LVU1454
	movl	$1, %r8d
	jmp	.L285
.LVL501:
.L331:
	.loc 12 682 30 view .LVU1455
.LBE1344:
.LBE1334:
.LBE1351:
.LBB1352:
.LBB1350:
	.loc 13 66 9 is_stmt 1 view .LVU1456
.LBB1347:
.LBI1347:
	.loc 16 56 8 view .LVU1457
.LBB1348:
	.loc 16 58 5 view .LVU1458
	.loc 16 58 33 is_stmt 0 view .LVU1459
	leaq	8(%r13), %rdi
.LVL502:
	.loc 16 58 33 view .LVU1460
	call	pthread_mutex_unlock@PLT
.LVL503:
	.loc 16 58 33 view .LVU1461
.LBE1348:
.LBE1347:
.LBB1349:
.LBI1349:
	.loc 14 30 3 is_stmt 1 view .LVU1462
	.loc 14 30 3 is_stmt 0 view .LVU1463
	jmp	.L262
.LVL504:
.L297:
	.loc 14 30 3 view .LVU1464
	movq	%rax, %rbp
.LVL505:
	.loc 14 30 3 view .LVU1465
.LBE1349:
.LBE1350:
.LBE1352:
.LBE1359:
.LBE1362:
.LBB1363:
.LBB1231:
.LBB1228:
.LBB1225:
.LBB1219:
.LBI1219:
	.loc 13 63 5 is_stmt 1 view .LVU1466
.LBB1220:
	.loc 13 65 7 view .LVU1467
	cmpb	$0, 56(%rsp)
	je	.L288
	.loc 13 66 9 view .LVU1468
.LVL506:
.LBB1221:
.LBI1221:
	.loc 16 56 8 view .LVU1469
.LBB1222:
	.loc 16 58 5 view .LVU1470
	.loc 16 58 33 is_stmt 0 view .LVU1471
	leaq	8(%r13), %rdi
.LVL507:
	.loc 16 58 33 view .LVU1472
	call	pthread_mutex_unlock@PLT
.LVL508:
.L288:
	.loc 16 58 33 view .LVU1473
.LBE1222:
.LBE1221:
.LBB1223:
.LBI1223:
	.loc 14 30 3 is_stmt 1 view .LVU1474
	.loc 14 30 3 is_stmt 0 view .LVU1475
	movq	%rbp, %rdi
.LEHB8:
	call	_Unwind_Resume@PLT
.LVL509:
.L298:
	.loc 14 30 3 view .LVU1476
	movq	%rax, %rbp
.LVL510:
	.loc 14 30 3 view .LVU1477
.LBE1223:
.LBE1220:
.LBE1219:
.LBE1225:
.LBE1228:
.LBE1231:
.LBE1363:
.LBB1364:
.LBB1360:
.LBB1353:
.LBI1353:
	.loc 13 63 5 is_stmt 1 view .LVU1478
.LBB1354:
	.loc 13 65 7 view .LVU1479
	cmpb	$0, 8(%rsp)
	je	.L290
	.loc 13 66 9 view .LVU1480
.LVL511:
.LBB1355:
.LBI1355:
	.loc 16 56 8 view .LVU1481
.LBB1356:
	.loc 16 58 5 view .LVU1482
	.loc 16 58 33 is_stmt 0 view .LVU1483
	leaq	8(%r13), %rdi
.LVL512:
	.loc 16 58 33 view .LVU1484
	call	pthread_mutex_unlock@PLT
.LVL513:
.L290:
	.loc 16 58 33 view .LVU1485
.LBE1356:
.LBE1355:
.LBB1357:
.LBI1357:
	.loc 14 30 3 is_stmt 1 view .LVU1486
	.loc 14 30 3 is_stmt 0 view .LVU1487
	movq	%rbp, %rdi
	call	_Unwind_Resume@PLT
.LVL514:
.LEHE8:
.L325:
	.loc 14 30 3 view .LVU1488
.LBE1357:
.LBE1354:
.LBE1353:
.LBE1360:
.LBE1364:
	.loc 12 530 20 view .LVU1489
	movl	%r10d, %r9d
	jmp	.L316
.LVL515:
.L317:
.LBB1365:
.LBB1305:
.LBB1295:
.LBB1287:
.LBB1281:
.LBB1271:
.LBB1243:
	.loc 22 145 42 view .LVU1490
	cmpq	8(%r12), %rcx
	je	.L302
.LVL516:
	.loc 22 145 42 view .LVU1491
.LBE1243:
.LBE1271:
	.loc 12 541 9 is_stmt 1 view .LVU1492
	.loc 12 541 42 is_stmt 0 view .LVU1493
	movslq	%r11d, %rdx
	leaq	(%rdx,%rdx,2), %rbx
.LVL517:
	.loc 12 541 42 view .LVU1494
	movl	80(%rsp,%rbx,4), %esi
.LBB1272:
	.loc 32 74 10 is_stmt 1 view .LVU1495
.LBB1253:
	.loc 32 74 46 view .LVU1496
	.loc 32 74 59 is_stmt 0 view .LVU1497
	movl	%esi, 16(%rcx)
.LBE1253:
.LBE1272:
	.loc 12 542 9 is_stmt 1 view .LVU1498
.LVL518:
.LBB1273:
	.loc 22 105 8 view .LVU1499
.LBB1269:
.LBB1265:
	.loc 22 39 15 view .LVU1500
.LBB1259:
	.loc 22 41 5 is_stmt 0 view .LVU1501
	movq	$0, (%rcx)
.LVL519:
	.loc 22 41 5 view .LVU1502
.LBE1259:
.LBE1265:
	.loc 22 108 9 view .LVU1503
	movq	8(%r12), %r13
	.loc 22 108 5 view .LVU1504
	testq	%r13, %r13
	je	.L333
.LVL520:
.LBB1266:
	.loc 22 39 15 is_stmt 1 view .LVU1505
.LBB1263:
	.loc 22 41 5 is_stmt 0 view .LVU1506
	movq	%rcx, 0(%r13)
.LVL521:
	.loc 22 41 5 view .LVU1507
.LBE1263:
.LBE1266:
	.loc 22 111 7 view .LVU1508
	movq	%rcx, 8(%r12)
	jmp	.L316
.L333:
	.loc 22 115 7 view .LVU1509
	movq	%rcx, 8(%r12)
	movq	%rcx, (%r12)
	jmp	.L316
.LVL522:
.L314:
	.loc 22 115 7 view .LVU1510
.LBE1269:
.LBE1273:
.LBE1281:
.LBE1287:
	.loc 12 521 7 is_stmt 1 view .LVU1511
	cmpl	$-1, 116(%rbp)
	jne	.L316
.LBE1295:
.LBE1305:
.LBE1365:
	.loc 12 522 22 is_stmt 0 view .LVU1512
	movl	%r10d, %r9d
	jmp	.L316
.LVL523:
.L337:
	.loc 12 530 20 view .LVU1513
	movl	%r10d, %r9d
	jmp	.L320
.LVL524:
.L308:
.LBB1366:
.LBB1306:
.LBB1296:
.LBB1288:
.LBB1282:
	.loc 12 546 9 is_stmt 1 view .LVU1514
	.loc 12 546 42 is_stmt 0 view .LVU1515
	movslq	%edx, %rsi
	leaq	(%rsi,%rsi,2), %rdx
.LVL525:
	.loc 12 546 42 view .LVU1516
	movl	80(%rsp,%rdx,4), %r13d
.LBB1274:
	.loc 32 75 10 is_stmt 1 view .LVU1517
.LBB1248:
	.loc 32 75 46 view .LVU1518
	.loc 32 75 59 is_stmt 0 view .LVU1519
	orl	%r13d, 16(%rcx)
.L320:
	.loc 32 75 59 view .LVU1520
.LBE1248:
.LBE1274:
.LBE1282:
.LBE1288:
.LBE1296:
.LBE1306:
	.loc 12 510 3 is_stmt 1 view .LVU1521
	addl	$1, %r11d
.LVL526:
.L276:
	.loc 12 510 21 discriminator 1 view .LVU1522
	cmpl	%eax, %r11d
	jge	.L271
.LBB1307:
	.loc 12 512 5 view .LVU1523
	.loc 12 512 11 is_stmt 0 view .LVU1524
	movslq	%r11d, %rcx
	leaq	(%rcx,%rcx,2), %r13
	movq	84(%rsp,%r13,4), %rdx
.LVL527:
	.loc 12 513 5 is_stmt 1 view .LVU1525
.LBB1297:
	cmpq	%rdx, %rdi
	je	.L334
.LBE1297:
.LBE1307:
.LBE1366:
	.loc 12 528 10 view .LVU1526
.LBB1367:
.LBB1308:
.LBB1298:
.LBB1289:
	cmpq	%rdx, %r8
	je	.L295
.LBB1283:
	.loc 12 538 7 view .LVU1527
.LVL528:
	.loc 12 539 7 view .LVU1528
.LBB1275:
	.loc 22 143 8 view .LVU1529
.LBB1244:
.LBB1240:
	.loc 22 33 21 view .LVU1530
	.loc 22 33 21 is_stmt 0 view .LVU1531
.LBE1240:
	.loc 22 145 42 view .LVU1532
	cmpq	$0, (%rdx)
	je	.L335
.L274:
.LVL529:
	.loc 22 145 42 view .LVU1533
.LBE1244:
.LBE1275:
	.loc 12 546 9 is_stmt 1 view .LVU1534
	.loc 12 546 42 is_stmt 0 view .LVU1535
	movslq	%r11d, %rbx
	leaq	(%rbx,%rbx,2), %rsi
	movl	80(%rsp,%rsi,4), %ecx
.LVL530:
.LBB1276:
	.loc 32 75 10 is_stmt 1 view .LVU1536
.LBB1249:
	.loc 32 75 46 view .LVU1537
	.loc 32 75 59 is_stmt 0 view .LVU1538
	orl	%ecx, 16(%rdx)
.LVL531:
.L273:
	.loc 32 75 59 view .LVU1539
.LBE1249:
.LBE1276:
.LBE1283:
.LBE1289:
.LBE1298:
.LBE1308:
	.loc 12 510 3 is_stmt 1 discriminator 2 view .LVU1540
	addl	$1, %r11d
.LVL532:
	.loc 12 510 3 is_stmt 0 discriminator 2 view .LVU1541
	movl	%r11d, %edx
.LVL533:
	.loc 12 510 21 is_stmt 1 discriminator 2 view .LVU1542
.LBB1309:
	.loc 12 512 5 discriminator 2 view .LVU1543
	.loc 12 512 11 is_stmt 0 discriminator 2 view .LVU1544
	movslq	%r11d, %r13
	leaq	0(%r13,%r13,2), %rbx
	movq	84(%rsp,%rbx,4), %rcx
	.loc 12 513 5 is_stmt 1 discriminator 2 view .LVU1545
.LBB1299:
	cmpq	%rcx, %rdi
	je	.L336
.LBE1299:
.LBE1309:
.LBE1367:
	.loc 12 528 10 view .LVU1546
.LBB1368:
.LBB1310:
.LBB1300:
.LBB1290:
	cmpq	%rcx, %r8
	je	.L337
.LBB1284:
	.loc 12 538 7 view .LVU1547
	.loc 12 539 7 view .LVU1548
.LVL534:
.LBB1277:
	.loc 22 143 8 view .LVU1549
.LBB1245:
.LBB1241:
	.loc 22 33 21 view .LVU1550
.LBE1241:
	.loc 22 145 42 is_stmt 0 view .LVU1551
	cmpq	$0, (%rcx)
	jne	.L308
	cmpq	8(%r12), %rcx
	je	.L308
.LVL535:
	.loc 22 145 42 view .LVU1552
.LBE1245:
.LBE1277:
	.loc 12 541 9 is_stmt 1 view .LVU1553
	.loc 12 541 42 is_stmt 0 view .LVU1554
	movslq	%r11d, %rsi
	leaq	(%rsi,%rsi,2), %rdx
	movl	80(%rsp,%rdx,4), %r13d
.LBB1278:
	.loc 32 74 10 is_stmt 1 view .LVU1555
.LBB1254:
	.loc 32 74 46 view .LVU1556
	.loc 32 74 59 is_stmt 0 view .LVU1557
	movl	%r13d, 16(%rcx)
.LBE1254:
.LBE1278:
	.loc 12 542 9 is_stmt 1 view .LVU1558
.LVL536:
.LBB1279:
	.loc 22 105 8 view .LVU1559
.LBB1270:
.LBB1267:
	.loc 22 39 15 view .LVU1560
.LBB1260:
	.loc 22 41 5 is_stmt 0 view .LVU1561
	movq	$0, (%rcx)
.LVL537:
	.loc 22 41 5 view .LVU1562
.LBE1260:
.LBE1267:
	.loc 22 108 9 view .LVU1563
	movq	8(%r12), %rbx
	.loc 22 108 5 view .LVU1564
	testq	%rbx, %rbx
	je	.L338
.LVL538:
.LBB1268:
	.loc 22 39 15 is_stmt 1 view .LVU1565
.LBB1264:
	.loc 22 41 5 is_stmt 0 view .LVU1566
	movq	%rcx, (%rbx)
.LVL539:
	.loc 22 41 5 view .LVU1567
.LBE1264:
.LBE1268:
	.loc 22 111 7 view .LVU1568
	movq	%rcx, 8(%r12)
	jmp	.L320
.L338:
	.loc 22 115 7 view .LVU1569
	movq	%rcx, 8(%r12)
	movq	%rcx, (%r12)
	jmp	.L320
.LVL540:
.L336:
	.loc 22 115 7 view .LVU1570
.LBE1270:
.LBE1279:
.LBE1284:
.LBE1290:
	.loc 12 521 7 is_stmt 1 view .LVU1571
	cmpl	$-1, 116(%rbp)
	jne	.L320
.LBE1300:
.LBE1310:
.LBE1368:
	.loc 12 522 22 is_stmt 0 view .LVU1572
	movl	%r10d, %r9d
	jmp	.L320
	.cfi_endproc
.LFE53:
	.section	.gcc_except_table
.LLSDA53:
	.byte	0xff
	.byte	0xff
	.byte	0x1
	.uleb128 .LLSDACSE53-.LLSDACSB53
.LLSDACSB53:
	.uleb128 .LEHB5-.LFB53
	.uleb128 .LEHE5-.LEHB5
	.uleb128 0
	.uleb128 0
	.uleb128 .LEHB6-.LFB53
	.uleb128 .LEHE6-.LEHB6
	.uleb128 .L297-.LFB53
	.uleb128 0
	.uleb128 .LEHB7-.LFB53
	.uleb128 .LEHE7-.LEHB7
	.uleb128 .L298-.LFB53
	.uleb128 0
	.uleb128 .LEHB8-.LFB53
	.uleb128 .LEHE8-.LEHB8
	.uleb128 0
	.uleb128 0
.LLSDACSE53:
	.text
	.size	_ZN5boost4asio6detail13epoll_reactor3runElRNS1_8op_queueINS1_19scheduler_operationEEE, .-_ZN5boost4asio6detail13epoll_reactor3runElRNS1_8op_queueINS1_19scheduler_operationEEE
	.section	.rodata.str1.1
.LC11:
	.string	"Already open"
.LC12:
	.string	"End of file"
.LC13:
	.string	"Element not found"
	.section	.rodata.str1.8
	.align 8
.LC14:
	.string	"The descriptor does not fit into the select call's fd_set"
	.section	.rodata.str1.1
.LC15:
	.string	"asio.misc error"
	.text
	.align 2
	.globl	_ZNK5boost4asio5error6detail13misc_category7messageEi
	.hidden	_ZNK5boost4asio5error6detail13misc_category7messageEi
	.type	_ZNK5boost4asio5error6detail13misc_category7messageEi, @function
_ZNK5boost4asio5error6detail13misc_category7messageEi:
.LVL541:
.LFB55:
	.loc 4 102 15 is_stmt 1 view -0
	.cfi_startproc
	.loc 4 102 15 is_stmt 0 view .LVU1574
	pushq	%rbx
	.cfi_def_cfa_offset 16
	.cfi_offset 3, -16
	subq	$16, %rsp
	.cfi_def_cfa_offset 32
	movq	%rdi, %rbx
	.loc 4 104 5 is_stmt 1 view .LVU1575
	cmpl	$1, %edx
	je	.L346
	.loc 4 106 5 view .LVU1576
	cmpl	$2, %edx
	je	.L347
	.loc 4 108 5 view .LVU1577
	cmpl	$3, %edx
	je	.L348
	.loc 4 110 5 view .LVU1578
	cmpl	$4, %edx
	je	.L349
	.loc 4 112 5 view .LVU1579
.LVL542:
.LBB1369:
.LBI1369:
	.file 35 "/usr/include/c++/9/bits/allocator.h"
	.loc 35 138 7 view .LVU1580
.LBB1370:
.LBI1370:
	.file 36 "/usr/include/c++/9/ext/new_allocator.h"
	.loc 36 80 7 view .LVU1581
	.loc 36 80 7 is_stmt 0 view .LVU1582
.LBE1370:
.LBE1369:
	.loc 4 112 12 view .LVU1583
	leaq	15(%rsp), %rdx
.LVL543:
	.loc 4 112 12 view .LVU1584
	leaq	.LC15(%rip), %rsi
.LVL544:
	.loc 4 112 12 view .LVU1585
	call	_ZNSsC1EPKcRKSaIcE@PLT
.LVL545:
.L339:
	.loc 4 113 3 view .LVU1586
	movq	%rbx, %rax
	addq	$16, %rsp
	.cfi_remember_state
	.cfi_def_cfa_offset 16
	popq	%rbx
	.cfi_def_cfa_offset 8
.LVL546:
	.loc 4 113 3 view .LVU1587
	ret
.LVL547:
.L346:
	.cfi_restore_state
	.loc 4 105 7 is_stmt 1 view .LVU1588
.LBB1371:
.LBI1371:
	.loc 35 138 7 view .LVU1589
.LBB1372:
.LBI1372:
	.loc 36 80 7 view .LVU1590
	.loc 36 80 7 is_stmt 0 view .LVU1591
.LBE1372:
.LBE1371:
	.loc 4 105 14 view .LVU1592
	leaq	11(%rsp), %rdx
.LVL548:
	.loc 4 105 14 view .LVU1593
	leaq	.LC11(%rip), %rsi
.LVL549:
	.loc 4 105 14 view .LVU1594
	call	_ZNSsC1EPKcRKSaIcE@PLT
.LVL550:
	jmp	.L339
.LVL551:
.L347:
	.loc 4 107 7 is_stmt 1 view .LVU1595
.LBB1373:
.LBI1373:
	.loc 35 138 7 view .LVU1596
.LBB1374:
.LBI1374:
	.loc 36 80 7 view .LVU1597
	.loc 36 80 7 is_stmt 0 view .LVU1598
.LBE1374:
.LBE1373:
	.loc 4 107 14 view .LVU1599
	leaq	12(%rsp), %rdx
.LVL552:
	.loc 4 107 14 view .LVU1600
	leaq	.LC12(%rip), %rsi
.LVL553:
	.loc 4 107 14 view .LVU1601
	call	_ZNSsC1EPKcRKSaIcE@PLT
.LVL554:
	jmp	.L339
.LVL555:
.L348:
	.loc 4 109 7 is_stmt 1 view .LVU1602
.LBB1375:
.LBI1375:
	.loc 35 138 7 view .LVU1603
.LBB1376:
.LBI1376:
	.loc 36 80 7 view .LVU1604
	.loc 36 80 7 is_stmt 0 view .LVU1605
.LBE1376:
.LBE1375:
	.loc 4 109 14 view .LVU1606
	leaq	13(%rsp), %rdx
.LVL556:
	.loc 4 109 14 view .LVU1607
	leaq	.LC13(%rip), %rsi
.LVL557:
	.loc 4 109 14 view .LVU1608
	call	_ZNSsC1EPKcRKSaIcE@PLT
.LVL558:
	jmp	.L339
.LVL559:
.L349:
	.loc 4 111 7 is_stmt 1 view .LVU1609
.LBB1377:
.LBI1377:
	.loc 35 138 7 view .LVU1610
.LBB1378:
.LBI1378:
	.loc 36 80 7 view .LVU1611
	.loc 36 80 7 is_stmt 0 view .LVU1612
.LBE1378:
.LBE1377:
	.loc 4 111 14 view .LVU1613
	leaq	14(%rsp), %rdx
.LVL560:
	.loc 4 111 14 view .LVU1614
	leaq	.LC14(%rip), %rsi
.LVL561:
	.loc 4 111 14 view .LVU1615
	call	_ZNSsC1EPKcRKSaIcE@PLT
.LVL562:
	jmp	.L339
	.cfi_endproc
.LFE55:
	.size	_ZNK5boost4asio5error6detail13misc_category7messageEi, .-_ZNK5boost4asio5error6detail13misc_category7messageEi
	.section	.rodata.str1.1
.LC16:
	.string	"Service not found"
.LC17:
	.string	"Socket type not supported"
.LC18:
	.string	"asio.addrinfo error"
	.text
	.align 2
	.globl	_ZNK5boost4asio5error6detail17addrinfo_category7messageEi
	.hidden	_ZNK5boost4asio5error6detail17addrinfo_category7messageEi
	.type	_ZNK5boost4asio5error6detail17addrinfo_category7messageEi, @function
_ZNK5boost4asio5error6detail17addrinfo_category7messageEi:
.LVL563:
.LFB56:
	.loc 4 72 15 is_stmt 1 view -0
	.cfi_startproc
	.loc 4 72 15 is_stmt 0 view .LVU1617
	pushq	%rbx
	.cfi_def_cfa_offset 16
	.cfi_offset 3, -16
	subq	$16, %rsp
	.cfi_def_cfa_offset 32
	movq	%rdi, %rbx
	.loc 4 74 5 is_stmt 1 view .LVU1618
	cmpl	$-8, %edx
	je	.L355
	.loc 4 76 5 view .LVU1619
	cmpl	$-7, %edx
	je	.L356
	.loc 4 78 5 view .LVU1620
.LVL564:
.LBB1379:
.LBI1379:
	.loc 35 138 7 view .LVU1621
.LBB1380:
.LBI1380:
	.loc 36 80 7 view .LVU1622
	.loc 36 80 7 is_stmt 0 view .LVU1623
.LBE1380:
.LBE1379:
	.loc 4 78 12 view .LVU1624
	leaq	15(%rsp), %rdx
.LVL565:
	.loc 4 78 12 view .LVU1625
	leaq	.LC18(%rip), %rsi
.LVL566:
	.loc 4 78 12 view .LVU1626
	call	_ZNSsC1EPKcRKSaIcE@PLT
.LVL567:
.L350:
	.loc 4 79 3 view .LVU1627
	movq	%rbx, %rax
	addq	$16, %rsp
	.cfi_remember_state
	.cfi_def_cfa_offset 16
	popq	%rbx
	.cfi_def_cfa_offset 8
.LVL568:
	.loc 4 79 3 view .LVU1628
	ret
.LVL569:
.L355:
	.cfi_restore_state
	.loc 4 75 7 is_stmt 1 view .LVU1629
.LBB1381:
.LBI1381:
	.loc 35 138 7 view .LVU1630
.LBB1382:
.LBI1382:
	.loc 36 80 7 view .LVU1631
	.loc 36 80 7 is_stmt 0 view .LVU1632
.LBE1382:
.LBE1381:
	.loc 4 75 14 view .LVU1633
	leaq	13(%rsp), %rdx
.LVL570:
	.loc 4 75 14 view .LVU1634
	leaq	.LC16(%rip), %rsi
.LVL571:
	.loc 4 75 14 view .LVU1635
	call	_ZNSsC1EPKcRKSaIcE@PLT
.LVL572:
	jmp	.L350
.LVL573:
.L356:
	.loc 4 77 7 is_stmt 1 view .LVU1636
.LBB1383:
.LBI1383:
	.loc 35 138 7 view .LVU1637
.LBB1384:
.LBI1384:
	.loc 36 80 7 view .LVU1638
	.loc 36 80 7 is_stmt 0 view .LVU1639
.LBE1384:
.LBE1383:
	.loc 4 77 14 view .LVU1640
	leaq	14(%rsp), %rdx
.LVL574:
	.loc 4 77 14 view .LVU1641
	leaq	.LC17(%rip), %rsi
.LVL575:
	.loc 4 77 14 view .LVU1642
	call	_ZNSsC1EPKcRKSaIcE@PLT
.LVL576:
	jmp	.L350
	.cfi_endproc
.LFE56:
	.size	_ZNK5boost4asio5error6detail17addrinfo_category7messageEi, .-_ZNK5boost4asio5error6detail17addrinfo_category7messageEi
	.section	.rodata.str1.8
	.align 8
.LC19:
	.string	"Host not found (authoritative)"
	.align 8
.LC20:
	.string	"Host not found (non-authoritative), try again later"
	.align 8
.LC21:
	.string	"The query is valid, but it does not have associated data"
	.align 8
.LC22:
	.string	"A non-recoverable error occurred during database lookup"
	.section	.rodata.str1.1
.LC23:
	.string	"asio.netdb error"
	.text
	.align 2
	.globl	_ZNK5boost4asio5error6detail14netdb_category7messageEi
	.hidden	_ZNK5boost4asio5error6detail14netdb_category7messageEi
	.type	_ZNK5boost4asio5error6detail14netdb_category7messageEi, @function
_ZNK5boost4asio5error6detail14netdb_category7messageEi:
.LVL577:
.LFB57:
	.loc 4 40 15 is_stmt 1 view -0
	.cfi_startproc
	.loc 4 40 15 is_stmt 0 view .LVU1644
	pushq	%rbx
	.cfi_def_cfa_offset 16
	.cfi_offset 3, -16
	subq	$16, %rsp
	.cfi_def_cfa_offset 32
	movq	%rdi, %rbx
	.loc 4 42 5 is_stmt 1 view .LVU1645
	cmpl	$1, %edx
	je	.L364
	.loc 4 44 5 view .LVU1646
	cmpl	$2, %edx
	je	.L365
	.loc 4 46 5 view .LVU1647
	cmpl	$4, %edx
	je	.L366
	.loc 4 48 5 view .LVU1648
	cmpl	$3, %edx
	je	.L367
	.loc 4 50 5 view .LVU1649
.LVL578:
.LBB1385:
.LBI1385:
	.loc 35 138 7 view .LVU1650
.LBB1386:
.LBI1386:
	.loc 36 80 7 view .LVU1651
	.loc 36 80 7 is_stmt 0 view .LVU1652
.LBE1386:
.LBE1385:
	.loc 4 50 12 view .LVU1653
	leaq	15(%rsp), %rdx
.LVL579:
	.loc 4 50 12 view .LVU1654
	leaq	.LC23(%rip), %rsi
.LVL580:
	.loc 4 50 12 view .LVU1655
	call	_ZNSsC1EPKcRKSaIcE@PLT
.LVL581:
.L357:
	.loc 4 51 3 view .LVU1656
	movq	%rbx, %rax
	addq	$16, %rsp
	.cfi_remember_state
	.cfi_def_cfa_offset 16
	popq	%rbx
	.cfi_def_cfa_offset 8
.LVL582:
	.loc 4 51 3 view .LVU1657
	ret
.LVL583:
.L364:
	.cfi_restore_state
	.loc 4 43 7 is_stmt 1 view .LVU1658
.LBB1387:
.LBI1387:
	.loc 35 138 7 view .LVU1659
.LBB1388:
.LBI1388:
	.loc 36 80 7 view .LVU1660
	.loc 36 80 7 is_stmt 0 view .LVU1661
.LBE1388:
.LBE1387:
	.loc 4 43 14 view .LVU1662
	leaq	11(%rsp), %rdx
.LVL584:
	.loc 4 43 14 view .LVU1663
	leaq	.LC19(%rip), %rsi
.LVL585:
	.loc 4 43 14 view .LVU1664
	call	_ZNSsC1EPKcRKSaIcE@PLT
.LVL586:
	jmp	.L357
.LVL587:
.L365:
	.loc 4 45 7 is_stmt 1 view .LVU1665
.LBB1389:
.LBI1389:
	.loc 35 138 7 view .LVU1666
.LBB1390:
.LBI1390:
	.loc 36 80 7 view .LVU1667
	.loc 36 80 7 is_stmt 0 view .LVU1668
.LBE1390:
.LBE1389:
	.loc 4 45 14 view .LVU1669
	leaq	12(%rsp), %rdx
.LVL588:
	.loc 4 45 14 view .LVU1670
	leaq	.LC20(%rip), %rsi
.LVL589:
	.loc 4 45 14 view .LVU1671
	call	_ZNSsC1EPKcRKSaIcE@PLT
.LVL590:
	jmp	.L357
.LVL591:
.L366:
	.loc 4 47 7 is_stmt 1 view .LVU1672
.LBB1391:
.LBI1391:
	.loc 35 138 7 view .LVU1673
.LBB1392:
.LBI1392:
	.loc 36 80 7 view .LVU1674
	.loc 36 80 7 is_stmt 0 view .LVU1675
.LBE1392:
.LBE1391:
	.loc 4 47 14 view .LVU1676
	leaq	13(%rsp), %rdx
.LVL592:
	.loc 4 47 14 view .LVU1677
	leaq	.LC21(%rip), %rsi
.LVL593:
	.loc 4 47 14 view .LVU1678
	call	_ZNSsC1EPKcRKSaIcE@PLT
.LVL594:
	jmp	.L357
.LVL595:
.L367:
	.loc 4 49 7 is_stmt 1 view .LVU1679
.LBB1393:
.LBI1393:
	.loc 35 138 7 view .LVU1680
.LBB1394:
.LBI1394:
	.loc 36 80 7 view .LVU1681
	.loc 36 80 7 is_stmt 0 view .LVU1682
.LBE1394:
.LBE1393:
	.loc 4 49 14 view .LVU1683
	leaq	14(%rsp), %rdx
.LVL596:
	.loc 4 49 14 view .LVU1684
	leaq	.LC22(%rip), %rsi
.LVL597:
	.loc 4 49 14 view .LVU1685
	call	_ZNSsC1EPKcRKSaIcE@PLT
.LVL598:
	jmp	.L357
	.cfi_endproc
.LFE57:
	.size	_ZNK5boost4asio5error6detail14netdb_category7messageEi, .-_ZNK5boost4asio5error6detail14netdb_category7messageEi
	.section	.rodata.str1.1
.LC24:
	.string	": "
	.text
	.align 2
	.globl	_ZNK5boost6system12system_error4whatEv
	.hidden	_ZNK5boost6system12system_error4whatEv
	.type	_ZNK5boost6system12system_error4whatEv, @function
_ZNK5boost6system12system_error4whatEv:
.LVL599:
.LFB58:
	.file 37 "/usr/local/include/boost/system/system_error.hpp"
	.loc 37 61 5 is_stmt 1 view -0
	.cfi_startproc
	.cfi_personality 0x9b,DW.ref.__gxx_personality_v0
	.cfi_lsda 0x1b,.LLSDA58
	.loc 37 61 5 is_stmt 0 view .LVU1687
	pushq	%rbp
	.cfi_def_cfa_offset 16
	.cfi_offset 6, -16
	pushq	%rbx
	.cfi_def_cfa_offset 24
	.cfi_offset 3, -24
	subq	$24, %rsp
	.cfi_def_cfa_offset 48
	movq	%rdi, %rbx
	.loc 37 62 7 is_stmt 1 view .LVU1688
.LVL600:
.LBB1452:
.LBI1452:
	.file 38 "/usr/include/c++/9/bits/basic_string.h"
	.loc 38 4014 7 view .LVU1689
.LBB1453:
.LBI1453:
	.loc 38 3901 7 view .LVU1690
.LBB1454:
.LBB1455:
.LBI1455:
	.loc 38 3366 7 view .LVU1691
.LBB1456:
.LBI1456:
	.loc 38 3358 7 view .LVU1692
.LBB1457:
	.loc 38 3359 28 is_stmt 0 view .LVU1693
	movq	32(%rdi), %rax
.LVL601:
	.loc 38 3359 28 view .LVU1694
.LBE1457:
.LBE1456:
.LBE1455:
.LBE1454:
.LBE1453:
.LBE1452:
	.loc 37 62 7 view .LVU1695
	cmpq	$0, -24(%rax)
	je	.L377
.LVL602:
.L369:
	.loc 37 76 7 is_stmt 1 view .LVU1696
.LBB1458:
.LBI1458:
	.loc 38 5195 7 view .LVU1697
.LBB1459:
.LBI1459:
	.loc 38 3358 7 view .LVU1698
.LBB1460:
	.loc 38 3359 28 is_stmt 0 view .LVU1699
	movq	32(%rbx), %rbx
.LVL603:
.L368:
	.loc 38 3359 28 view .LVU1700
.LBE1460:
.LBE1459:
.LBE1458:
	.loc 37 77 5 view .LVU1701
	movq	%rbx, %rax
	addq	$24, %rsp
	.cfi_remember_state
	.cfi_def_cfa_offset 24
	popq	%rbx
	.cfi_def_cfa_offset 16
	popq	%rbp
	.cfi_def_cfa_offset 8
	ret
.LVL604:
.L377:
	.cfi_restore_state
	.loc 37 65 9 is_stmt 1 view .LVU1702
	.loc 37 68 11 view .LVU1703
	.loc 37 68 51 is_stmt 0 view .LVU1704
	call	_ZNKSt13runtime_error4whatEv@PLT
.LVL605:
	movq	%rax, %rsi
	leaq	32(%rbx), %rbp
.LVL606:
.LBB1461:
.LBI1461:
	.loc 38 3721 7 is_stmt 1 view .LVU1705
.LBB1462:
.LBI1462:
	.loc 38 4396 7 view .LVU1706
.LBB1463:
.LBB1464:
.LBI1464:
	.file 39 "/usr/include/c++/9/bits/char_traits.h"
	.loc 39 329 7 view .LVU1707
.LBB1465:
	.loc 39 332 2 view .LVU1708
	.loc 39 335 2 view .LVU1709
	.loc 39 335 25 is_stmt 0 view .LVU1710
	movq	$-1, %rcx
	movl	$0, %eax
.LVL607:
	.loc 39 335 25 view .LVU1711
	movq	%rsi, %rdi
	repnz scasb
	notq	%rcx
	leaq	-1(%rcx), %rdx
.LVL608:
	.loc 39 335 25 view .LVU1712
.LBE1465:
.LBE1464:
	.loc 38 4399 51 view .LVU1713
	movq	%rbp, %rdi
.LEHB9:
	call	_ZNSs6assignEPKcm@PLT
.LVL609:
	.loc 38 4399 51 view .LVU1714
.LBE1463:
.LBE1462:
.LBE1461:
	.loc 37 69 11 is_stmt 1 view .LVU1715
.LBB1466:
.LBI1466:
	.loc 38 4014 7 view .LVU1716
.LBB1467:
.LBI1467:
	.loc 38 3901 7 view .LVU1717
.LBB1468:
.LBB1469:
.LBI1469:
	.loc 38 3366 7 view .LVU1718
.LBB1470:
.LBI1470:
	.loc 38 3358 7 view .LVU1719
.LBB1471:
	.loc 38 3359 28 is_stmt 0 view .LVU1720
	movq	32(%rbx), %rdx
.LVL610:
	.loc 38 3359 28 view .LVU1721
.LBE1471:
.LBE1470:
.LBE1469:
.LBE1468:
.LBE1467:
.LBE1466:
	.loc 37 69 11 view .LVU1722
	cmpq	$0, -24(%rdx)
	jne	.L378
.L370:
	.loc 37 70 11 is_stmt 1 view .LVU1723
.LVL611:
.LBB1472:
.LBI1472:
	.loc 5 640 17 view .LVU1724
.LBB1473:
	.loc 5 642 9 view .LVU1725
	.loc 5 642 16 is_stmt 0 view .LVU1726
	movq	24(%rbx), %rsi
	.loc 5 642 39 view .LVU1727
	movq	(%rsi), %r8
.LVL612:
.LBB1474:
.LBI1474:
	.loc 5 625 19 is_stmt 1 view .LVU1728
.LBB1475:
	.loc 5 627 9 view .LVU1729
	.loc 5 627 16 is_stmt 0 view .LVU1730
	movl	16(%rbx), %edx
.LVL613:
	.loc 5 627 16 view .LVU1731
.LBE1475:
.LBE1474:
	.loc 5 642 39 view .LVU1732
	movq	%rsp, %rdi
	call	*32(%r8)
.LVL614:
	jmp	.L379
.LVL615:
.L378:
	.loc 5 642 39 view .LVU1733
.LBE1473:
.LBE1472:
	.loc 37 69 34 is_stmt 1 view .LVU1734
.LBB1476:
.LBI1476:
	.loc 38 4163 7 view .LVU1735
.LBB1477:
.LBI1477:
	.loc 38 4240 7 view .LVU1736
	.loc 38 4240 7 is_stmt 0 view .LVU1737
.LBE1477:
.LBE1476:
	.loc 39 332 2 is_stmt 1 view .LVU1738
	.loc 39 335 2 view .LVU1739
.LBB1480:
.LBB1479:
.LBB1478:
	.loc 38 4243 51 is_stmt 0 view .LVU1740
	movl	$2, %edx
	leaq	.LC24(%rip), %rsi
	movq	%rbp, %rdi
	call	_ZNSs6appendEPKcm@PLT
.LVL616:
.LEHE9:
	jmp	.L370
.LVL617:
.L379:
	.loc 38 4243 51 view .LVU1741
.LBE1478:
.LBE1479:
.LBE1480:
.LBB1481:
.LBI1481:
	.loc 38 4154 7 is_stmt 1 discriminator 1 view .LVU1742
.LBB1482:
	.loc 38 4155 34 is_stmt 0 discriminator 1 view .LVU1743
	movq	%rsp, %rsi
	movq	%rbp, %rdi
.LEHB10:
	call	_ZNSs6appendERKSs@PLT
.LVL618:
.LEHE10:
	.loc 38 4155 34 discriminator 1 view .LVU1744
.LBE1482:
.LBE1481:
.LBB1483:
.LBI1483:
	.loc 38 3705 7 is_stmt 1 view .LVU1745
.LBB1484:
.LBB1485:
.LBI1485:
	.loc 38 3366 7 view .LVU1746
.LBB1486:
.LBB1487:
.LBI1487:
	.loc 38 3358 7 view .LVU1747
	.loc 38 3358 7 is_stmt 0 view .LVU1748
.LBE1487:
	.loc 38 3367 59 view .LVU1749
	movq	(%rsp), %r9
	leaq	-24(%r9), %rdi
.LVL619:
	.loc 38 3367 59 view .LVU1750
.LBE1486:
.LBE1485:
.LBB1488:
.LBI1488:
	.loc 38 5229 7 is_stmt 1 view .LVU1751
.LBB1489:
.LBI1489:
	.loc 35 141 7 view .LVU1752
.LBB1490:
.LBI1490:
	.loc 36 83 7 view .LVU1753
	.loc 36 83 7 is_stmt 0 view .LVU1754
.LBE1490:
.LBE1489:
.LBE1488:
	.loc 38 3706 9 view .LVU1755
	leaq	14(%rsp), %rsi
	call	_ZNSs4_Rep10_M_disposeERKSaIcE@PLT
.LVL620:
.LBB1491:
.LBI1491:
	.loc 35 153 7 is_stmt 1 view .LVU1756
	.loc 35 153 7 is_stmt 0 view .LVU1757
.LBE1491:
.LBB1492:
.LBI1492:
	.loc 38 3338 14 is_stmt 1 view .LVU1758
.LBB1493:
.LBI1493:
	.loc 35 153 7 view .LVU1759
	.loc 35 153 7 is_stmt 0 view .LVU1760
	jmp	.L369
.LVL621:
.L375:
	.loc 35 153 7 view .LVU1761
	movq	%rax, %rbp
.LVL622:
	.loc 35 153 7 view .LVU1762
.LBE1493:
.LBE1492:
.LBE1484:
.LBE1483:
.LBB1494:
.LBI1494:
	.loc 38 3705 7 is_stmt 1 view .LVU1763
.LBB1495:
.LBB1496:
.LBI1496:
	.loc 38 3366 7 view .LVU1764
.LBB1497:
.LBB1498:
.LBI1498:
	.loc 38 3358 7 view .LVU1765
	.loc 38 3358 7 is_stmt 0 view .LVU1766
.LBE1498:
	.loc 38 3367 59 view .LVU1767
	movq	(%rsp), %rsi
	leaq	-24(%rsi), %rdi
.LVL623:
	.loc 38 3367 59 view .LVU1768
.LBE1497:
.LBE1496:
.LBB1499:
.LBI1499:
	.loc 38 5229 7 is_stmt 1 view .LVU1769
.LBB1500:
.LBI1500:
	.loc 35 141 7 view .LVU1770
.LBB1501:
.LBI1501:
	.loc 36 83 7 view .LVU1771
	.loc 36 83 7 is_stmt 0 view .LVU1772
.LBE1501:
.LBE1500:
.LBE1499:
	.loc 38 3706 9 view .LVU1773
	leaq	15(%rsp), %rsi
	call	_ZNSs4_Rep10_M_disposeERKSaIcE@PLT
.LVL624:
.LBB1502:
.LBI1502:
	.loc 35 153 7 is_stmt 1 view .LVU1774
	.loc 35 153 7 is_stmt 0 view .LVU1775
.LBE1502:
.LBB1503:
.LBI1503:
	.loc 38 3338 14 is_stmt 1 view .LVU1776
.LBB1504:
.LBI1504:
	.loc 35 153 7 view .LVU1777
	.loc 35 153 7 is_stmt 0 view .LVU1778
	movq	%rbp, %rdi
.LVL625:
.L372:
	.loc 35 153 7 view .LVU1779
.LBE1504:
.LBE1503:
.LBE1495:
.LBE1494:
	.loc 37 73 16 view .LVU1780
	call	__cxa_begin_catch@PLT
.LVL626:
	.loc 37 73 23 is_stmt 1 view .LVU1781
	.loc 37 73 54 is_stmt 0 view .LVU1782
	movq	%rbx, %rdi
	call	_ZNKSt13runtime_error4whatEv@PLT
.LVL627:
	movq	%rax, %rbx
.LVL628:
	.loc 37 73 16 view .LVU1783
	call	__cxa_end_catch@PLT
.LVL629:
	jmp	.L368
.LVL630:
.L374:
	.loc 37 73 16 view .LVU1784
	movq	%rax, %rdi
	jmp	.L372
	.cfi_endproc
.LFE58:
	.section	.gcc_except_table
	.align 4
.LLSDA58:
	.byte	0xff
	.byte	0x9b
	.uleb128 .LLSDATT58-.LLSDATTD58
.LLSDATTD58:
	.byte	0x1
	.uleb128 .LLSDACSE58-.LLSDACSB58
.LLSDACSB58:
	.uleb128 .LEHB9-.LFB58
	.uleb128 .LEHE9-.LEHB9
	.uleb128 .L374-.LFB58
	.uleb128 0x1
	.uleb128 .LEHB10-.LFB58
	.uleb128 .LEHE10-.LEHB10
	.uleb128 .L375-.LFB58
	.uleb128 0x3
.LLSDACSE58:
	.byte	0x1
	.byte	0
	.byte	0
	.byte	0x7d
	.align 4
	.long	0

.LLSDATT58:
	.text
	.size	_ZNK5boost6system12system_error4whatEv, .-_ZNK5boost6system12system_error4whatEv
	.align 2
	.globl	_ZN5boost6system12system_errorD0Ev
	.hidden	_ZN5boost6system12system_errorD0Ev
	.type	_ZN5boost6system12system_errorD0Ev, @function
_ZN5boost6system12system_errorD0Ev:
.LVL631:
.LFB61:
	.loc 37 47 15 is_stmt 1 view -0
	.cfi_startproc
	.loc 37 47 15 is_stmt 0 view .LVU1786
	pushq	%rbx
	.cfi_def_cfa_offset 16
	.cfi_offset 3, -16
	subq	$16, %rsp
	.cfi_def_cfa_offset 32
	movq	%rdi, %rbx
.LVL632:
.LBB1530:
.LBB1531:
	.loc 37 47 40 is_stmt 1 view .LVU1787
	leaq	16+_ZTVN5boost6system12system_errorE(%rip), %rax
	movq	%rax, (%rdi)
.LVL633:
.LBB1532:
.LBB1533:
.LBB1534:
.LBB1535:
	.loc 38 3367 59 view .LVU1788
	movq	32(%rdi), %rdx
	leaq	-24(%rdx), %rdi
.LVL634:
	.loc 38 3367 59 is_stmt 0 view .LVU1789
.LBE1535:
.LBE1534:
.LBB1536:
.LBB1537:
	.loc 38 3298 4 is_stmt 1 view .LVU1790
	cmpq	_ZNSs4_Rep20_S_empty_rep_storageE@GOTPCREL(%rip), %rdi
	jne	.L385
.LVL635:
.L381:
	.loc 38 3298 4 is_stmt 0 view .LVU1791
.LBE1537:
.LBE1536:
.LBE1533:
.LBE1532:
	.loc 37 47 40 is_stmt 1 view .LVU1792
	movq	%rbx, %rdi
	call	_ZNSt13runtime_errorD2Ev@PLT
.LVL636:
	.loc 37 47 40 is_stmt 0 view .LVU1793
.LBE1531:
.LBE1530:
	.loc 37 47 41 is_stmt 1 view .LVU1794
	movl	$40, %esi
	movq	%rbx, %rdi
	call	_ZdlPvm@PLT
.LVL637:
	addq	$16, %rsp
	.cfi_remember_state
	.cfi_def_cfa_offset 16
	popq	%rbx
	.cfi_def_cfa_offset 8
.LVL638:
	.loc 37 47 41 is_stmt 0 view .LVU1795
	ret
.LVL639:
.L385:
	.cfi_restore_state
.LBB1551:
.LBB1550:
.LBB1549:
.LBB1548:
.LBB1547:
.LBB1546:
	.loc 38 3311 50 is_stmt 1 view .LVU1796
	leaq	16(%rdi), %rcx
.LVL640:
.LBB1538:
.LBB1539:
	.file 40 "/usr/include/c++/9/ext/atomicity.h"
	.loc 40 81 5 view .LVU1797
	cmpq	$0, _ZL28__gthrw___pthread_key_createPjPFvPvE@GOTPCREL(%rip)
	je	.L382
.LVL641:
.LBB1540:
.LBB1541:
	.loc 40 49 46 view .LVU1798
	movl	$-1, %esi
	lock xaddl	%esi, (%rcx)
.LVL642:
.L383:
	.loc 40 49 46 is_stmt 0 view .LVU1799
.LBE1541:
.LBE1540:
.LBE1539:
.LBE1538:
	.loc 38 3311 8 is_stmt 1 view .LVU1800
	testl	%esi, %esi
	jg	.L381
	.loc 38 3315 5 view .LVU1801
	leaq	15(%rsp), %rsi
.LVL643:
	.loc 38 3315 5 is_stmt 0 view .LVU1802
	call	_ZNSs4_Rep10_M_destroyERKSaIcE@PLT
.LVL644:
	.loc 38 3315 5 view .LVU1803
	jmp	.L381
.LVL645:
.L382:
.LBB1545:
.LBB1544:
.LBB1542:
.LBB1543:
	.loc 40 67 18 is_stmt 1 view .LVU1804
	movl	16(%rdi), %esi
.LVL646:
	.loc 40 68 12 view .LVU1805
	leal	-1(%rsi), %r8d
	movl	%r8d, 16(%rdi)
.LVL647:
	.loc 40 68 12 is_stmt 0 view .LVU1806
	jmp	.L383
.LBE1543:
.LBE1542:
.LBE1544:
.LBE1545:
.LBE1546:
.LBE1547:
.LBE1548:
.LBE1549:
.LBE1550:
.LBE1551:
	.cfi_endproc
.LFE61:
	.size	_ZN5boost6system12system_errorD0Ev, .-_ZN5boost6system12system_errorD0Ev
	.align 2
	.globl	_ZN5boost6system12system_errorD2Ev
	.hidden	_ZN5boost6system12system_errorD2Ev
	.type	_ZN5boost6system12system_errorD2Ev, @function
_ZN5boost6system12system_errorD2Ev:
.LVL648:
.LFB62:
	.loc 37 47 15 is_stmt 1 view -0
	.cfi_startproc
	.loc 37 47 15 is_stmt 0 view .LVU1808
	pushq	%rbx
	.cfi_def_cfa_offset 16
	.cfi_offset 3, -16
	subq	$16, %rsp
	.cfi_def_cfa_offset 32
	movq	%rdi, %rbx
.LBB1575:
	.loc 37 47 40 view .LVU1809
	leaq	16+_ZTVN5boost6system12system_errorE(%rip), %rax
	movq	%rax, (%rdi)
.LVL649:
.LBB1576:
.LBI1576:
	.loc 38 3705 7 is_stmt 1 view .LVU1810
.LBB1577:
.LBB1578:
.LBI1578:
	.loc 38 3366 7 view .LVU1811
.LBB1579:
.LBB1580:
.LBI1580:
	.loc 38 3358 7 view .LVU1812
	.loc 38 3358 7 is_stmt 0 view .LVU1813
.LBE1580:
	.loc 38 3367 59 view .LVU1814
	movq	32(%rdi), %rdx
	leaq	-24(%rdx), %rdi
.LVL650:
	.loc 38 3367 59 view .LVU1815
.LBE1579:
.LBE1578:
.LBB1581:
.LBI1581:
	.loc 38 5229 7 is_stmt 1 view .LVU1816
.LBB1582:
.LBI1582:
	.loc 35 141 7 view .LVU1817
.LBB1583:
.LBI1583:
	.loc 36 83 7 view .LVU1818
	.loc 36 83 7 is_stmt 0 view .LVU1819
.LBE1583:
.LBE1582:
.LBE1581:
.LBB1584:
.LBI1584:
	.loc 38 3295 2 is_stmt 1 view .LVU1820
.LBB1585:
.LBB1586:
.LBI1586:
	.loc 38 3218 9 view .LVU1821
	.loc 38 3218 9 is_stmt 0 view .LVU1822
.LBE1586:
	.loc 38 3298 4 view .LVU1823
	cmpq	_ZNSs4_Rep20_S_empty_rep_storageE@GOTPCREL(%rip), %rdi
	jne	.L391
.LVL651:
.L387:
	.loc 38 3298 4 view .LVU1824
.LBE1585:
.LBE1584:
.LBB1600:
.LBI1600:
	.loc 35 153 7 is_stmt 1 view .LVU1825
	.loc 35 153 7 is_stmt 0 view .LVU1826
.LBE1600:
.LBB1601:
.LBI1601:
	.loc 38 3338 14 is_stmt 1 view .LVU1827
.LBB1602:
.LBI1602:
	.loc 35 153 7 view .LVU1828
	.loc 35 153 7 is_stmt 0 view .LVU1829
.LBE1602:
.LBE1601:
.LBE1577:
.LBE1576:
	.loc 37 47 40 view .LVU1830
	movq	%rbx, %rdi
	call	_ZNSt13runtime_errorD2Ev@PLT
.LVL652:
.LBE1575:
	.loc 37 47 41 view .LVU1831
	addq	$16, %rsp
	.cfi_remember_state
	.cfi_def_cfa_offset 16
	popq	%rbx
	.cfi_def_cfa_offset 8
.LVL653:
	.loc 37 47 41 view .LVU1832
	ret
.LVL654:
.L391:
	.cfi_restore_state
.LBB1609:
.LBB1607:
.LBB1605:
.LBB1603:
.LBB1598:
	.loc 38 3311 50 view .LVU1833
	leaq	16(%rdi), %rcx
.LVL655:
.LBB1587:
.LBI1587:
	.loc 40 78 3 is_stmt 1 view .LVU1834
.LBB1588:
	.loc 40 81 5 view .LVU1835
.LBB1589:
.LBI1589:
	.file 41 "/usr/include/c++/9/x86_64-suse-linux/bits/gthr-default.h"
	.loc 41 248 1 view .LVU1836
.LBE1589:
.LBE1588:
.LBE1587:
.LBE1598:
.LBE1603:
.LBE1605:
.LBE1607:
.LBE1609:
	.loc 41 250 3 view .LVU1837
	.loc 41 252 3 view .LVU1838
.LBB1610:
.LBB1608:
.LBB1606:
.LBB1604:
.LBB1599:
.LBB1596:
.LBB1594:
	.loc 40 81 5 is_stmt 0 view .LVU1839
	cmpq	$0, _ZL28__gthrw___pthread_key_createPjPFvPvE@GOTPCREL(%rip)
	je	.L388
	.loc 40 82 7 is_stmt 1 view .LVU1840
.LVL656:
.LBB1590:
.LBI1590:
	.loc 40 48 3 view .LVU1841
.LBB1591:
	.loc 40 49 5 view .LVU1842
	.loc 40 49 46 is_stmt 0 view .LVU1843
	movl	$-1, %esi
	lock xaddl	%esi, (%rcx)
.LVL657:
.L389:
	.loc 40 49 46 view .LVU1844
.LBE1591:
.LBE1590:
.LBE1594:
.LBE1596:
	.loc 38 3311 8 view .LVU1845
	testl	%esi, %esi
	jg	.L387
	.loc 38 3315 5 view .LVU1846
	leaq	15(%rsp), %rsi
.LVL658:
	.loc 38 3315 5 view .LVU1847
	call	_ZNSs4_Rep10_M_destroyERKSaIcE@PLT
.LVL659:
	.loc 38 3315 5 view .LVU1848
	jmp	.L387
.LVL660:
.L388:
.LBB1597:
.LBB1595:
	.loc 40 84 7 is_stmt 1 view .LVU1849
.LBB1592:
.LBI1592:
	.loc 40 65 3 view .LVU1850
.LBB1593:
	.loc 40 67 5 view .LVU1851
	.loc 40 67 18 is_stmt 0 view .LVU1852
	movl	16(%rdi), %esi
.LVL661:
	.loc 40 68 5 is_stmt 1 view .LVU1853
	.loc 40 68 12 is_stmt 0 view .LVU1854
	leal	-1(%rsi), %r8d
	movl	%r8d, 16(%rdi)
	.loc 40 69 5 is_stmt 1 view .LVU1855
.LVL662:
	.loc 40 69 5 is_stmt 0 view .LVU1856
	jmp	.L389
.LBE1593:
.LBE1592:
.LBE1595:
.LBE1597:
.LBE1599:
.LBE1604:
.LBE1606:
.LBE1608:
.LBE1610:
	.cfi_endproc
.LFE62:
	.size	_ZN5boost6system12system_errorD2Ev, .-_ZN5boost6system12system_errorD2Ev
	.globl	_ZN5boost6system12system_errorD1Ev
	.hidden	_ZN5boost6system12system_errorD1Ev
	.set	_ZN5boost6system12system_errorD1Ev,_ZN5boost6system12system_errorD2Ev
	.align 2
	.globl	_ZNK5boost6system6detail21system_error_category7messageEiPcm
	.hidden	_ZNK5boost6system6detail21system_error_category7messageEiPcm
	.type	_ZNK5boost6system6detail21system_error_category7messageEiPcm, @function
_ZNK5boost6system6detail21system_error_category7messageEiPcm:
.LVL663:
.LFB64:
	.loc 5 953 1 is_stmt 1 view -0
	.cfi_startproc
	.loc 5 953 1 is_stmt 0 view .LVU1858
	subq	$8, %rsp
	.cfi_def_cfa_offset 16
	movl	%esi, %edi
.LVL664:
	.loc 5 953 1 view .LVU1859
	movq	%rdx, %rsi
.LVL665:
	.loc 5 953 1 view .LVU1860
	movq	%rcx, %rdx
.LVL666:
	.loc 5 954 5 is_stmt 1 view .LVU1861
.LBB1611:
.LBI1611:
	.file 42 "/usr/local/include/boost/system/detail/generic_category.hpp"
	.loc 42 35 21 view .LVU1862
.LBB1612:
	.loc 42 37 5 view .LVU1863
	.loc 42 37 41 is_stmt 0 view .LVU1864
	call	strerror_r@PLT
.LVL667:
	.loc 42 37 41 view .LVU1865
.LBE1612:
.LBE1611:
	.loc 42 27 5 is_stmt 1 view .LVU1866
	.loc 5 955 1 is_stmt 0 view .LVU1867
	addq	$8, %rsp
	.cfi_def_cfa_offset 8
	ret
	.cfi_endproc
.LFE64:
	.size	_ZNK5boost6system6detail21system_error_category7messageEiPcm, .-_ZNK5boost6system6detail21system_error_category7messageEiPcm
	.align 2
	.type	_ZNK5boost6system6detail22generic_error_category7messageEi, @function
_ZNK5boost6system6detail22generic_error_category7messageEi:
.LVL668:
.LFB65:
	.loc 5 908 1 is_stmt 1 view -0
	.cfi_startproc
	.loc 5 908 1 is_stmt 0 view .LVU1869
	pushq	%rbx
	.cfi_def_cfa_offset 16
	.cfi_offset 3, -16
	subq	$144, %rsp
	.cfi_def_cfa_offset 160
	movq	%rdi, %rbx
	movl	%edx, %edi
.LVL669:
	.loc 5 909 5 is_stmt 1 view .LVU1870
.LBB1619:
.LBI1619:
	.loc 42 40 20 view .LVU1871
.LBB1620:
	.loc 42 42 5 view .LVU1872
	.loc 42 43 5 view .LVU1873
.LBB1621:
.LBI1621:
	.loc 35 138 7 view .LVU1874
.LBB1622:
.LBI1622:
	.loc 36 80 7 view .LVU1875
	.loc 36 80 7 is_stmt 0 view .LVU1876
.LBE1622:
.LBE1621:
.LBB1623:
.LBI1623:
	.loc 42 35 21 is_stmt 1 view .LVU1877
.LBB1624:
	.loc 42 37 5 view .LVU1878
	.loc 42 37 41 is_stmt 0 view .LVU1879
	movq	%rsp, %rsi
.LVL670:
	.loc 42 37 41 view .LVU1880
	movl	$128, %edx
.LVL671:
	.loc 42 37 41 view .LVU1881
	call	strerror_r@PLT
.LVL672:
	.loc 42 37 41 view .LVU1882
	movq	%rax, %rsi
.LVL673:
	.loc 42 37 41 view .LVU1883
.LBE1624:
.LBE1623:
.LBE1620:
.LBE1619:
	.loc 42 27 5 is_stmt 1 view .LVU1884
.LBB1626:
.LBB1625:
	.loc 42 43 73 is_stmt 0 view .LVU1885
	leaq	143(%rsp), %rdx
	movq	%rbx, %rdi
	call	_ZNSsC1EPKcRKSaIcE@PLT
.LVL674:
	.loc 42 43 73 view .LVU1886
.LBE1625:
.LBE1626:
	.loc 5 910 1 view .LVU1887
	movq	%rbx, %rax
	addq	$144, %rsp
	.cfi_def_cfa_offset 16
	popq	%rbx
	.cfi_def_cfa_offset 8
.LVL675:
	.loc 5 910 1 view .LVU1888
	ret
	.cfi_endproc
.LFE65:
	.size	_ZNK5boost6system6detail22generic_error_category7messageEi, .-_ZNK5boost6system6detail22generic_error_category7messageEi
	.align 2
	.globl	_ZNK5boost6system6detail21system_error_category7messageEi
	.hidden	_ZNK5boost6system6detail21system_error_category7messageEi
	.type	_ZNK5boost6system6detail21system_error_category7messageEi, @function
_ZNK5boost6system6detail21system_error_category7messageEi:
.LVL676:
.LFB67:
	.loc 5 948 1 is_stmt 1 view -0
	.cfi_startproc
	.loc 5 948 1 is_stmt 0 view .LVU1890
	pushq	%rbx
	.cfi_def_cfa_offset 16
	.cfi_offset 3, -16
	subq	$144, %rsp
	.cfi_def_cfa_offset 160
	movq	%rdi, %rbx
	movl	%edx, %edi
.LVL677:
	.loc 5 949 5 is_stmt 1 view .LVU1891
.LBB1633:
.LBI1633:
	.loc 42 40 20 view .LVU1892
.LBB1634:
	.loc 42 42 5 view .LVU1893
	.loc 42 43 5 view .LVU1894
.LBB1635:
.LBI1635:
	.loc 35 138 7 view .LVU1895
.LBB1636:
.LBI1636:
	.loc 36 80 7 view .LVU1896
	.loc 36 80 7 is_stmt 0 view .LVU1897
.LBE1636:
.LBE1635:
.LBB1637:
.LBI1637:
	.loc 42 35 21 is_stmt 1 view .LVU1898
.LBB1638:
	.loc 42 37 5 view .LVU1899
	.loc 42 37 41 is_stmt 0 view .LVU1900
	movq	%rsp, %rsi
.LVL678:
	.loc 42 37 41 view .LVU1901
	movl	$128, %edx
.LVL679:
	.loc 42 37 41 view .LVU1902
	call	strerror_r@PLT
.LVL680:
	.loc 42 37 41 view .LVU1903
	movq	%rax, %rsi
.LVL681:
	.loc 42 37 41 view .LVU1904
.LBE1638:
.LBE1637:
.LBE1634:
.LBE1633:
	.loc 42 27 5 is_stmt 1 view .LVU1905
.LBB1640:
.LBB1639:
	.loc 42 43 73 is_stmt 0 view .LVU1906
	leaq	143(%rsp), %rdx
	movq	%rbx, %rdi
	call	_ZNSsC1EPKcRKSaIcE@PLT
.LVL682:
	.loc 42 43 73 view .LVU1907
.LBE1639:
.LBE1640:
	.loc 5 950 1 view .LVU1908
	movq	%rbx, %rax
	addq	$144, %rsp
	.cfi_def_cfa_offset 16
	popq	%rbx
	.cfi_def_cfa_offset 8
.LVL683:
	.loc 5 950 1 view .LVU1909
	ret
	.cfi_endproc
.LFE67:
	.size	_ZNK5boost6system6detail21system_error_category7messageEi, .-_ZNK5boost6system6detail21system_error_category7messageEi
	.align 2
	.type	_ZNK5boost6system6detail22generic_error_category7messageEiPcm, @function
_ZNK5boost6system6detail22generic_error_category7messageEiPcm:
.LVL684:
.LFB68:
	.loc 5 913 1 is_stmt 1 view -0
	.cfi_startproc
	.loc 5 913 1 is_stmt 0 view .LVU1911
	subq	$8, %rsp
	.cfi_def_cfa_offset 16
	movl	%esi, %edi
.LVL685:
	.loc 5 913 1 view .LVU1912
	movq	%rdx, %rsi
.LVL686:
	.loc 5 913 1 view .LVU1913
	movq	%rcx, %rdx
.LVL687:
	.loc 5 914 5 is_stmt 1 view .LVU1914
.LBB1641:
.LBI1641:
	.loc 42 35 21 view .LVU1915
.LBB1642:
	.loc 42 37 5 view .LVU1916
	.loc 42 37 41 is_stmt 0 view .LVU1917
	call	strerror_r@PLT
.LVL688:
	.loc 42 37 41 view .LVU1918
.LBE1642:
.LBE1641:
	.loc 42 27 5 is_stmt 1 view .LVU1919
	.loc 5 915 1 is_stmt 0 view .LVU1920
	addq	$8, %rsp
	.cfi_def_cfa_offset 8
	ret
	.cfi_endproc
.LFE68:
	.size	_ZNK5boost6system6detail22generic_error_category7messageEiPcm, .-_ZNK5boost6system6detail22generic_error_category7messageEiPcm
	.section	.rodata.str1.1
.LC25:
	.string	"Message text unavailable"
	.text
	.align 2
	.globl	_ZNK5boost6system14error_category7messageEiPcm
	.hidden	_ZNK5boost6system14error_category7messageEiPcm
	.type	_ZNK5boost6system14error_category7messageEiPcm, @function
_ZNK5boost6system14error_category7messageEiPcm:
.LVL689:
.LFB69:
	.loc 5 847 1 is_stmt 1 view -0
	.cfi_startproc
	.cfi_personality 0x9b,DW.ref.__gxx_personality_v0
	.cfi_lsda 0x1b,.LLSDA69
	.loc 5 847 1 is_stmt 0 view .LVU1922
	pushq	%r12
	.cfi_def_cfa_offset 16
	.cfi_offset 12, -16
	pushq	%rbp
	.cfi_def_cfa_offset 24
	.cfi_offset 6, -24
	pushq	%rbx
	.cfi_def_cfa_offset 32
	.cfi_offset 3, -32
	subq	$16, %rsp
	.cfi_def_cfa_offset 48
	movq	%rdx, %rbp
	.loc 5 848 5 is_stmt 1 view .LVU1923
	testq	%rcx, %rcx
	je	.L405
	movq	%rcx, %rbx
	.loc 5 853 5 view .LVU1924
	cmpq	$1, %rcx
	je	.L407
	.loc 5 860 5 view .LVU1925
.LBB1643:
	.loc 5 863 9 view .LVU1926
	.loc 5 863 43 is_stmt 0 view .LVU1927
	movq	%rsp, %rcx
.LVL690:
	.loc 5 863 43 view .LVU1928
	movq	(%rdi), %rax
	movl	%esi, %edx
.LVL691:
	.loc 5 863 43 view .LVU1929
	movq	%rdi, %rsi
.LVL692:
	.loc 5 863 43 view .LVU1930
	movq	%rcx, %rdi
.LVL693:
.LEHB11:
	.loc 5 863 43 view .LVU1931
	call	*32(%rax)
.LVL694:
.LEHE11:
	.loc 5 863 43 view .LVU1932
	jmp	.L408
.LVL695:
.L407:
	.loc 5 863 43 view .LVU1933
.LBE1643:
	.loc 5 855 9 is_stmt 1 view .LVU1934
	.loc 5 855 19 is_stmt 0 view .LVU1935
	movb	$0, (%rdx)
	.loc 5 856 9 is_stmt 1 view .LVU1936
	jmp	.L405
.LVL696:
.L408:
.LBB1657:
	.loc 5 875 9 view .LVU1937
	.loc 5 875 21 is_stmt 0 view .LVU1938
	subq	$1, %rbx
.LVL697:
.LBB1644:
.LBI1644:
	.loc 38 5195 7 is_stmt 1 view .LVU1939
.LBB1645:
.LBI1645:
	.loc 38 3358 7 view .LVU1940
.LBB1646:
	.loc 38 3359 28 is_stmt 0 view .LVU1941
	movq	(%rsp), %r12
.LVL698:
	.loc 38 3359 28 view .LVU1942
.LBE1646:
.LBE1645:
.LBE1644:
	.loc 5 875 21 view .LVU1943
	movq	%rbx, %rdx
	movq	%r12, %rsi
	movq	%rbp, %rdi
	call	strncpy@PLT
.LVL699:
	.loc 5 876 9 is_stmt 1 view .LVU1944
	.loc 5 876 25 is_stmt 0 view .LVU1945
	movb	$0, 0(%rbp,%rbx)
	.loc 5 884 9 is_stmt 1 view .LVU1946
.LVL700:
.LBB1647:
.LBI1647:
	.loc 38 3705 7 view .LVU1947
.LBB1648:
.LBB1649:
.LBI1649:
	.loc 38 3366 7 view .LVU1948
.LBB1650:
	.loc 38 3367 59 is_stmt 0 view .LVU1949
	leaq	-24(%r12), %rdi
.LVL701:
	.loc 38 3367 59 view .LVU1950
.LBE1650:
.LBE1649:
.LBB1651:
.LBI1651:
	.loc 38 5229 7 is_stmt 1 view .LVU1951
.LBB1652:
.LBI1652:
	.loc 35 141 7 view .LVU1952
.LBB1653:
.LBI1653:
	.loc 36 83 7 view .LVU1953
	.loc 36 83 7 is_stmt 0 view .LVU1954
.LBE1653:
.LBE1652:
.LBE1651:
	.loc 38 3706 9 view .LVU1955
	leaq	15(%rsp), %rsi
	call	_ZNSs4_Rep10_M_disposeERKSaIcE@PLT
.LVL702:
.LBB1654:
.LBI1654:
	.loc 35 153 7 is_stmt 1 view .LVU1956
	.loc 35 153 7 is_stmt 0 view .LVU1957
.LBE1654:
.LBB1655:
.LBI1655:
	.loc 38 3338 14 is_stmt 1 view .LVU1958
.LBB1656:
.LBI1656:
	.loc 35 153 7 view .LVU1959
.L405:
	.loc 35 153 7 is_stmt 0 view .LVU1960
.LBE1656:
.LBE1655:
.LBE1648:
.LBE1647:
.LBE1657:
	.loc 5 892 1 view .LVU1961
	movq	%rbp, %rax
	addq	$16, %rsp
	.cfi_remember_state
	.cfi_def_cfa_offset 32
	popq	%rbx
	.cfi_def_cfa_offset 24
	popq	%rbp
	.cfi_def_cfa_offset 16
	popq	%r12
	.cfi_def_cfa_offset 8
	ret
.LVL703:
.L404:
	.cfi_restore_state
	.loc 5 892 1 view .LVU1962
	movq	%rax, %rdi
	.loc 5 887 12 view .LVU1963
	call	__cxa_begin_catch@PLT
.LVL704:
	.loc 5 889 9 is_stmt 1 view .LVU1964
	.loc 5 887 12 is_stmt 0 view .LVU1965
	call	__cxa_end_catch@PLT
.LVL705:
	.loc 5 889 16 view .LVU1966
	leaq	.LC25(%rip), %rbp
.LVL706:
	.loc 5 889 16 view .LVU1967
	jmp	.L405
	.cfi_endproc
.LFE69:
	.section	.gcc_except_table
	.align 4
.LLSDA69:
	.byte	0xff
	.byte	0x9b
	.uleb128 .LLSDATT69-.LLSDATTD69
.LLSDATTD69:
	.byte	0x1
	.uleb128 .LLSDACSE69-.LLSDACSB69
.LLSDACSB69:
	.uleb128 .LEHB11-.LFB69
	.uleb128 .LEHE11-.LEHB11
	.uleb128 .L404-.LFB69
	.uleb128 0x1
.LLSDACSE69:
	.byte	0x1
	.byte	0
	.align 4
	.long	0

.LLSDATT69:
	.text
	.size	_ZNK5boost6system14error_category7messageEiPcm, .-_ZNK5boost6system14error_category7messageEiPcm
	.globl	_ZN5boost4asio9execution6detail17any_executor_base21blocking_execute_voidERKS3_NS0_6detail22executor_function_viewE
	.hidden	_ZN5boost4asio9execution6detail17any_executor_base21blocking_execute_voidERKS3_NS0_6detail22executor_function_viewE
	.type	_ZN5boost4asio9execution6detail17any_executor_base21blocking_execute_voidERKS3_NS0_6detail22executor_function_viewE, @function
_ZN5boost4asio9execution6detail17any_executor_base21blocking_execute_voidERKS3_NS0_6detail22executor_function_viewE:
.LFB70:
	.loc 7 826 15 is_stmt 1 view -0
	.cfi_startproc
	.cfi_personality 0x9b,DW.ref.__gcc_personality_v0
	.cfi_lsda 0x1b,.LLSDA70
	pushq	%rbx
	.cfi_def_cfa_offset 16
	.cfi_offset 3, -16
	subq	$16, %rsp
	.cfi_def_cfa_offset 32
	.loc 7 828 5 view .LVU1969
.LVL707:
.LBB1658:
.LBI1658:
	.loc 8 27 1 view .LVU1970
.LBB1659:
.LBB1660:
.LBI1660:
	.file 43 "/usr/include/c++/9/bits/exception.h"
	.loc 43 63 5 view .LVU1971
	.loc 43 63 5 is_stmt 0 view .LVU1972
.LBE1660:
	.loc 8 27 30 view .LVU1973
	leaq	16+_ZTVN5boost4asio9execution12bad_executorE(%rip), %rax
	movq	%rax, 8(%rsp)
.LVL708:
	.loc 8 27 30 view .LVU1974
.LBE1659:
.LBE1658:
	.loc 7 829 5 is_stmt 1 view .LVU1975
	.loc 7 829 41 is_stmt 0 view .LVU1976
	leaq	8(%rsp), %rdi
.LEHB12:
	call	_ZN5boost15throw_exceptionINS_4asio9execution12bad_executorEEEvRKT_
.LVL709:
.LEHE12:
.L411:
	movq	%rax, %rbx
.LVL710:
.LBB1661:
.LBI1661:
	.file 44 "/usr/local/include/boost/asio/execution/bad_executor.hpp"
	.loc 44 27 7 is_stmt 1 view .LVU1977
.LBB1662:
	leaq	16+_ZTVN5boost4asio9execution12bad_executorE(%rip), %rcx
	movq	%rcx, 8(%rsp)
	leaq	8(%rsp), %rdi
.LVL711:
	.loc 44 27 7 is_stmt 0 view .LVU1978
	call	_ZNSt9exceptionD2Ev@PLT
.LVL712:
	.loc 44 27 7 view .LVU1979
	movq	%rbx, %rdi
.LEHB13:
	call	_Unwind_Resume@PLT
.LVL713:
.LEHE13:
.LBE1662:
.LBE1661:
	.cfi_endproc
.LFE70:
	.section	.gcc_except_table
.LLSDA70:
	.byte	0xff
	.byte	0xff
	.byte	0x1
	.uleb128 .LLSDACSE70-.LLSDACSB70
.LLSDACSB70:
	.uleb128 .LEHB12-.LFB70
	.uleb128 .LEHE12-.LEHB12
	.uleb128 .L411-.LFB70
	.uleb128 0
	.uleb128 .LEHB13-.LFB70
	.uleb128 .LEHE13-.LEHB13
	.uleb128 0
	.uleb128 0
.LLSDACSE70:
	.text
	.size	_ZN5boost4asio9execution6detail17any_executor_base21blocking_execute_voidERKS3_NS0_6detail22executor_function_viewE, .-_ZN5boost4asio9execution6detail17any_executor_base21blocking_execute_voidERKS3_NS0_6detail22executor_function_viewE
	.globl	_ZN5boost4asio9execution6detail17any_executor_base12execute_voidERKS3_ONS0_6detail17executor_functionE
	.hidden	_ZN5boost4asio9execution6detail17any_executor_base12execute_voidERKS3_ONS0_6detail17executor_functionE
	.type	_ZN5boost4asio9execution6detail17any_executor_base12execute_voidERKS3_ONS0_6detail17executor_functionE, @function
_ZN5boost4asio9execution6detail17any_executor_base12execute_voidERKS3_ONS0_6detail17executor_functionE:
.LFB71:
	.loc 7 819 15 is_stmt 1 view -0
	.cfi_startproc
	.cfi_personality 0x9b,DW.ref.__gcc_personality_v0
	.cfi_lsda 0x1b,.LLSDA71
	pushq	%rbx
	.cfi_def_cfa_offset 16
	.cfi_offset 3, -16
	subq	$16, %rsp
	.cfi_def_cfa_offset 32
	.loc 7 822 5 view .LVU1981
.LVL714:
.LBB1663:
.LBI1663:
	.loc 8 27 1 view .LVU1982
.LBB1664:
.LBB1665:
.LBI1665:
	.loc 43 63 5 view .LVU1983
	.loc 43 63 5 is_stmt 0 view .LVU1984
.LBE1665:
	.loc 8 27 30 view .LVU1985
	leaq	16+_ZTVN5boost4asio9execution12bad_executorE(%rip), %rax
	movq	%rax, 8(%rsp)
.LVL715:
	.loc 8 27 30 view .LVU1986
.LBE1664:
.LBE1663:
	.loc 7 823 5 is_stmt 1 view .LVU1987
	.loc 7 823 41 is_stmt 0 view .LVU1988
	leaq	8(%rsp), %rdi
.LEHB14:
	call	_ZN5boost15throw_exceptionINS_4asio9execution12bad_executorEEEvRKT_
.LVL716:
.LEHE14:
.L415:
	movq	%rax, %rbx
.LVL717:
.LBB1666:
.LBI1666:
	.loc 44 27 7 is_stmt 1 view .LVU1989
.LBB1667:
	leaq	16+_ZTVN5boost4asio9execution12bad_executorE(%rip), %rcx
	movq	%rcx, 8(%rsp)
	leaq	8(%rsp), %rdi
.LVL718:
	.loc 44 27 7 is_stmt 0 view .LVU1990
	call	_ZNSt9exceptionD2Ev@PLT
.LVL719:
	.loc 44 27 7 view .LVU1991
	movq	%rbx, %rdi
.LEHB15:
	call	_Unwind_Resume@PLT
.LVL720:
.LEHE15:
.LBE1667:
.LBE1666:
	.cfi_endproc
.LFE71:
	.section	.gcc_except_table
.LLSDA71:
	.byte	0xff
	.byte	0xff
	.byte	0x1
	.uleb128 .LLSDACSE71-.LLSDACSB71
.LLSDACSB71:
	.uleb128 .LEHB14-.LFB71
	.uleb128 .LEHE14-.LEHB14
	.uleb128 .L415-.LFB71
	.uleb128 0
	.uleb128 .LEHB15-.LFB71
	.uleb128 .LEHE15-.LEHB15
	.uleb128 0
	.uleb128 0
.LLSDACSE71:
	.text
	.size	_ZN5boost4asio9execution6detail17any_executor_base12execute_voidERKS3_ONS0_6detail17executor_functionE, .-_ZN5boost4asio9execution6detail17any_executor_base12execute_voidERKS3_ONS0_6detail17executor_functionE
	.align 2
	.globl	_ZN5boost4asio6detail18signal_set_service3addERNS2_19implementation_typeEiRNS_6system10error_codeE
	.hidden	_ZN5boost4asio6detail18signal_set_service3addERNS2_19implementation_typeEiRNS_6system10error_codeE
	.type	_ZN5boost4asio6detail18signal_set_service3addERNS2_19implementation_typeEiRNS_6system10error_codeE, @function
_ZN5boost4asio6detail18signal_set_service3addERNS2_19implementation_typeEiRNS_6system10error_codeE:
.LVL721:
.LFB72:
	.loc 17 247 1 is_stmt 1 view -0
	.cfi_startproc
	.cfi_personality 0x9b,DW.ref.__gcc_personality_v0
	.cfi_lsda 0x1b,.LLSDA72
	.loc 17 247 1 is_stmt 0 view .LVU1993
	pushq	%r15
	.cfi_def_cfa_offset 16
	.cfi_offset 15, -16
	pushq	%r14
	.cfi_def_cfa_offset 24
	.cfi_offset 14, -24
	pushq	%r13
	.cfi_def_cfa_offset 32
	.cfi_offset 13, -32
	pushq	%r12
	.cfi_def_cfa_offset 40
	.cfi_offset 12, -40
	pushq	%rbp
	.cfi_def_cfa_offset 48
	.cfi_offset 6, -48
	pushq	%rbx
	.cfi_def_cfa_offset 56
	.cfi_offset 3, -56
	subq	$184, %rsp
	.cfi_def_cfa_offset 240
	movq	%rdi, (%rsp)
	movq	%rcx, %r12
	.loc 17 249 3 is_stmt 1 view .LVU1994
	cmpl	$64, %edx
	jbe	.L418
	.loc 17 251 5 view .LVU1995
.LVL722:
.LBB1668:
.LBI1668:
	.loc 5 610 9 view .LVU1996
.LBB1669:
.LBB1670:
.LBI1670:
	.loc 11 305 34 view .LVU1997
.LBB1671:
	.loc 11 307 3 view .LVU1998
.LBB1672:
.LBI1672:
	.loc 11 228 45 view .LVU1999
.LBE1672:
.LBE1671:
.LBE1670:
.LBE1669:
.LBE1668:
	.loc 11 230 3 view .LVU2000
.LBB1681:
.LBB1679:
.LBB1678:
.LBB1677:
.LBB1673:
.LBI1673:
	.loc 5 588 15 view .LVU2001
.LBB1674:
.LBB1675:
.LBB1676:
.LBI1676:
	.loc 5 415 23 view .LVU2002
.LBE1676:
.LBE1675:
.LBE1674:
.LBE1673:
.LBE1677:
.LBE1678:
.LBE1679:
.LBE1681:
	.loc 5 417 5 view .LVU2003
	.loc 5 235 9 view .LVU2004
	.loc 5 419 9 view .LVU2005
.LBB1682:
.LBB1680:
	.loc 5 612 32 is_stmt 0 view .LVU2006
	movabsq	$4294967318, %r8
	movq	%r8, (%rcx)
	movq	_ZN5boost6system6detail10cat_holderIvE24system_category_instanceE@GOTPCREL(%rip), %r9
	movq	%r9, 8(%rcx)
.LVL723:
	.loc 5 612 32 view .LVU2007
.LBE1680:
.LBE1682:
	.loc 17 252 5 is_stmt 1 view .LVU2008
	.loc 17 252 12 is_stmt 0 view .LVU2009
	movq	8(%rcx), %r13
	movq	(%rcx), %r12
.LVL724:
.L431:
	.loc 17 316 1 view .LVU2010
	movq	%r12, %rax
	movq	%r13, %rdx
	addq	$184, %rsp
	.cfi_remember_state
	.cfi_def_cfa_offset 56
.LVL725:
	.loc 17 316 1 view .LVU2011
	popq	%rbx
	.cfi_def_cfa_offset 48
	popq	%rbp
	.cfi_def_cfa_offset 40
	popq	%r12
	.cfi_def_cfa_offset 32
	popq	%r13
	.cfi_def_cfa_offset 24
	popq	%r14
	.cfi_def_cfa_offset 16
	popq	%r15
	.cfi_def_cfa_offset 8
	ret
.LVL726:
.L418:
	.cfi_restore_state
	.loc 17 316 1 view .LVU2012
	movq	%rsi, %r13
	movl	%edx, %ebp
	.loc 17 255 3 is_stmt 1 view .LVU2013
	.loc 17 57 3 view .LVU2014
	.loc 17 59 3 view .LVU2015
.LVL727:
	.loc 17 256 3 view .LVU2016
.LBB1683:
.LBI1683:
	.loc 20 43 12 view .LVU2017
.LBB1684:
.LBI1684:
	.loc 14 29 3 view .LVU2018
	.loc 14 29 3 is_stmt 0 view .LVU2019
.LBE1684:
.LBB1685:
.LBI1685:
	.loc 21 42 8 is_stmt 1 view .LVU2020
.LBB1686:
	.loc 21 44 5 view .LVU2021
	.loc 21 44 31 is_stmt 0 view .LVU2022
	leaq	_ZZN5boost4asio6detail16get_signal_stateEvE5state(%rip), %rdi
.LVL728:
	.loc 21 44 31 view .LVU2023
	call	pthread_mutex_lock@PLT
.LVL729:
	.loc 21 44 31 view .LVU2024
.LBE1686:
.LBE1685:
.LBE1683:
	.loc 17 259 3 is_stmt 1 view .LVU2025
	.loc 17 259 18 is_stmt 0 view .LVU2026
	leaq	16(%r13), %r15
.LVL730:
	.loc 17 260 3 is_stmt 1 view .LVU2027
	.loc 17 260 17 is_stmt 0 view .LVU2028
	movq	16(%r13), %rbx
.LVL731:
.L421:
	.loc 17 261 3 is_stmt 1 view .LVU2029
	.loc 17 261 15 view .LVU2030
	testq	%rbx, %rbx
	je	.L420
	.loc 17 261 15 is_stmt 0 discriminator 1 view .LVU2031
	cmpl	%ebp, (%rbx)
	jge	.L420
	.loc 17 263 5 is_stmt 1 view .LVU2032
	.loc 17 263 21 is_stmt 0 view .LVU2033
	leaq	40(%rbx), %r15
.LVL732:
	.loc 17 264 5 is_stmt 1 view .LVU2034
	.loc 17 264 10 is_stmt 0 view .LVU2035
	movq	40(%rbx), %rbx
.LVL733:
	.loc 17 264 10 view .LVU2036
	jmp	.L421
.LVL734:
.L420:
	.loc 17 268 3 is_stmt 1 view .LVU2037
.LBB1687:
	testq	%rbx, %rbx
	je	.L422
	.loc 17 268 17 is_stmt 0 discriminator 1 view .LVU2038
	cmpl	%ebp, (%rbx)
	je	.L423
.L422:
.LBB1688:
	.loc 17 270 5 is_stmt 1 view .LVU2039
	.loc 17 270 42 is_stmt 0 view .LVU2040
	movl	$48, %edi
.LEHB16:
	call	_Znwm@PLT
.LVL735:
.LEHE16:
	movq	%rax, %r14
.LVL736:
.LBB1689:
.LBI1689:
	.file 45 "/usr/local/include/boost/asio/detail/signal_set_service.hpp"
	.loc 45 66 5 is_stmt 1 view .LVU2041
.LBB1690:
	.loc 45 72 23 is_stmt 0 view .LVU2042
	movl	$0, (%rax)
	movq	$0, 8(%rax)
	movq	$0, 16(%rax)
	movq	$0, 24(%rax)
	movq	$0, 32(%rax)
	movq	$0, 40(%rax)
.LVL737:
	.loc 45 72 23 view .LVU2043
.LBE1690:
.LBE1689:
	.loc 17 274 5 is_stmt 1 view .LVU2044
.LBB1691:
	.loc 17 274 49 is_stmt 0 view .LVU2045
	movslq	%ebp, %rax
.LVL738:
	.loc 17 274 5 view .LVU2046
	leaq	_ZZN5boost4asio6detail16get_signal_stateEvE5state(%rip), %rdx
	cmpq	$0, 64(%rdx,%rax,8)
	je	.L433
.L424:
.LBE1691:
	.loc 17 300 5 is_stmt 1 view .LVU2047
	.loc 17 300 38 is_stmt 0 view .LVU2048
	movl	%ebp, (%r14)
	.loc 17 301 5 is_stmt 1 view .LVU2049
	.loc 17 301 30 is_stmt 0 view .LVU2050
	movq	%r13, 8(%r14)
	.loc 17 302 5 is_stmt 1 view .LVU2051
	.loc 17 302 36 is_stmt 0 view .LVU2052
	movq	%rbx, 40(%r14)
	.loc 17 303 5 is_stmt 1 view .LVU2053
	.loc 17 303 22 is_stmt 0 view .LVU2054
	movq	%r14, (%r15)
	.loc 17 306 5 is_stmt 1 view .LVU2055
	.loc 17 306 68 is_stmt 0 view .LVU2056
	movslq	%ebp, %r9
	movq	(%rsp), %r10
	movq	64(%r10,%r9,8), %r11
	.loc 17 306 38 view .LVU2057
	movq	%r11, 24(%r14)
	.loc 17 307 5 is_stmt 1 view .LVU2058
	testq	%r11, %r11
	je	.L428
	.loc 17 308 7 view .LVU2059
	.loc 17 308 53 is_stmt 0 view .LVU2060
	movq	%r14, 32(%r11)
.L428:
	.loc 17 309 5 is_stmt 1 view .LVU2061
	.loc 17 309 35 is_stmt 0 view .LVU2062
	movslq	%ebp, %r13
.LVL739:
	.loc 17 309 35 view .LVU2063
	addq	$8, %r13
	movq	(%rsp), %rbp
.LVL740:
	.loc 17 309 35 view .LVU2064
	movq	%r14, 0(%rbp,%r13,8)
	.loc 17 311 5 is_stmt 1 view .LVU2065
	.loc 17 311 47 is_stmt 0 view .LVU2066
	leaq	_ZZN5boost4asio6detail16get_signal_stateEvE5state(%rip), %r15
	.loc 17 311 5 view .LVU2067
	movq	(%r15,%r13,8), %rbx
.LVL741:
	.loc 17 311 5 view .LVU2068
	addq	$1, %rbx
	movq	%rbx, (%r15,%r13,8)
.LVL742:
.L423:
	.loc 17 311 5 view .LVU2069
.LBE1688:
.LBE1687:
	.loc 17 314 3 is_stmt 1 view .LVU2070
.LBB1712:
.LBI1712:
	.loc 5 583 15 view .LVU2071
	.loc 5 583 15 is_stmt 0 view .LVU2072
.LBE1712:
	.loc 17 314 6 view .LVU2073
	movq	$0, (%r12)
	movq	_ZN5boost6system6detail10cat_holderIvE24system_category_instanceE@GOTPCREL(%rip), %r14
	movq	%r14, 8(%r12)
	.loc 17 315 3 is_stmt 1 view .LVU2074
	.loc 17 315 10 is_stmt 0 view .LVU2075
	movq	8(%r12), %r13
	movq	(%r12), %r12
.LVL743:
.L427:
.LBB1713:
.LBI1713:
	.loc 20 51 3 is_stmt 1 view .LVU2076
.LBB1714:
.LBI1714:
	.loc 21 48 8 view .LVU2077
.LBB1715:
	.loc 21 50 5 view .LVU2078
	.loc 21 50 33 is_stmt 0 view .LVU2079
	leaq	_ZZN5boost4asio6detail16get_signal_stateEvE5state(%rip), %rdi
	call	pthread_mutex_unlock@PLT
.LVL744:
	.loc 21 50 33 view .LVU2080
.LBE1715:
.LBE1714:
.LBB1716:
.LBI1716:
	.loc 14 30 3 is_stmt 1 view .LVU2081
	.loc 14 30 3 is_stmt 0 view .LVU2082
	jmp	.L431
.LVL745:
.L433:
	.loc 14 30 3 view .LVU2083
.LBE1716:
.LBE1713:
.LBB1717:
.LBB1709:
.LBB1706:
.LBB1692:
	.loc 17 277 7 is_stmt 1 view .LVU2084
	.loc 17 278 7 view .LVU2085
	.loc 17 279 7 view .LVU2086
	.loc 17 279 13 is_stmt 0 view .LVU2087
	leaq	16(%rsp), %rcx
	movq	%rcx, 8(%rsp)
	leaq	24(%rsp), %rsi
	movl	$36, %ecx
	movl	$0, %eax
	movq	%rsi, %rdi
	rep stosl
	.loc 17 280 7 is_stmt 1 view .LVU2088
	.loc 17 280 41 is_stmt 0 view .LVU2089
	leaq	boost_asio_signal_handler(%rip), %r8
	movq	%r8, 16(%rsp)
	.loc 17 281 7 is_stmt 1 view .LVU2090
	.loc 17 281 17 is_stmt 0 view .LVU2091
	movq	%rsi, %rdi
	call	sigfillset@PLT
.LVL746:
	.loc 17 282 7 is_stmt 1 view .LVU2092
	.loc 17 282 22 is_stmt 0 view .LVU2093
	movl	$0, %edx
	movq	8(%rsp), %rsi
	movl	%ebp, %edi
	call	sigaction@PLT
.LVL747:
	.loc 17 282 7 view .LVU2094
	cmpl	$-1, %eax
	jne	.L424
	.loc 17 290 9 is_stmt 1 view .LVU2095
.LBB1693:
.LBI1693:
	.loc 11 228 45 view .LVU2096
.LBE1693:
.LBE1692:
.LBE1706:
.LBE1709:
.LBE1717:
	.loc 11 230 3 view .LVU2097
.LBB1718:
.LBB1710:
.LBB1707:
.LBB1704:
	.loc 17 290 59 is_stmt 0 view .LVU2098
	call	__errno_location@PLT
.LVL748:
	.loc 17 290 29 view .LVU2099
	movl	(%rax), %esi
.LVL749:
.LBB1694:
.LBI1694:
	.loc 5 588 15 is_stmt 1 view .LVU2100
.LBB1695:
.LBB1696:
.LBB1697:
.LBI1697:
	.loc 5 415 23 view .LVU2101
.LBB1698:
	.loc 5 417 5 view .LVU2102
	.loc 5 417 5 is_stmt 0 view .LVU2103
.LBE1698:
.LBE1697:
.LBE1696:
.LBE1695:
.LBE1694:
.LBE1704:
.LBE1707:
.LBE1710:
.LBE1718:
	.loc 5 235 9 is_stmt 1 view .LVU2104
.LBB1719:
.LBB1711:
.LBB1708:
.LBB1705:
.LBB1703:
.LBB1702:
.LBB1701:
.LBB1700:
.LBB1699:
	.loc 5 419 9 view .LVU2105
	.loc 5 419 22 is_stmt 0 view .LVU2106
	testl	%esi, %esi
.LVL750:
	.loc 5 419 22 view .LVU2107
.LBE1699:
.LBE1700:
	.loc 5 589 77 view .LVU2108
	setne	%dl
	movzbl	%dl, %ecx
	salq	$32, %rcx
	movl	%esi, %eax
	orq	%rcx, %rax
.LVL751:
	.loc 5 589 77 view .LVU2109
.LBE1701:
.LBE1702:
.LBE1703:
	.loc 17 290 12 view .LVU2110
	movq	%rax, (%r12)
	movq	_ZN5boost6system6detail10cat_holderIvE24system_category_instanceE@GOTPCREL(%rip), %rdi
	movq	%rdi, 8(%r12)
	.loc 17 293 9 is_stmt 1 view .LVU2111
	.loc 17 293 32 is_stmt 0 view .LVU2112
	testq	%r14, %r14
	je	.L426
	.loc 17 293 16 discriminator 1 view .LVU2113
	movl	$48, %esi
	movq	%r14, %rdi
	call	_ZdlPvm@PLT
.LVL752:
.L426:
	.loc 17 294 9 is_stmt 1 view .LVU2114
	.loc 17 294 16 is_stmt 0 view .LVU2115
	movq	8(%r12), %r13
.LVL753:
	.loc 17 294 16 view .LVU2116
	movq	(%r12), %r12
.LVL754:
	.loc 17 294 16 view .LVU2117
	jmp	.L427
.LVL755:
.L430:
	.loc 17 294 16 view .LVU2118
	movq	%rax, %rbp
.LVL756:
	.loc 17 294 16 view .LVU2119
.LBE1705:
.LBE1708:
.LBE1711:
.LBE1719:
.LBB1720:
.LBI1720:
	.loc 20 51 3 is_stmt 1 view .LVU2120
.LBB1721:
.LBI1721:
	.loc 21 48 8 view .LVU2121
.LBB1722:
	.loc 21 50 5 view .LVU2122
	.loc 21 50 33 is_stmt 0 view .LVU2123
	leaq	_ZZN5boost4asio6detail16get_signal_stateEvE5state(%rip), %rdi
	call	pthread_mutex_unlock@PLT
.LVL757:
	.loc 21 50 33 view .LVU2124
.LBE1722:
.LBE1721:
.LBB1723:
.LBI1723:
	.loc 14 30 3 is_stmt 1 view .LVU2125
	.loc 14 30 3 is_stmt 0 view .LVU2126
	movq	%rbp, %rdi
.LEHB17:
	call	_Unwind_Resume@PLT
.LVL758:
.LEHE17:
.LBE1723:
.LBE1720:
	.cfi_endproc
.LFE72:
	.section	.gcc_except_table
.LLSDA72:
	.byte	0xff
	.byte	0xff
	.byte	0x1
	.uleb128 .LLSDACSE72-.LLSDACSB72
.LLSDACSB72:
	.uleb128 .LEHB16-.LFB72
	.uleb128 .LEHE16-.LEHB16
	.uleb128 .L430-.LFB72
	.uleb128 0
	.uleb128 .LEHB17-.LFB72
	.uleb128 .LEHE17-.LEHB17
	.uleb128 0
	.uleb128 0
.LLSDACSE72:
	.text
	.size	_ZN5boost4asio6detail18signal_set_service3addERNS2_19implementation_typeEiRNS_6system10error_codeE, .-_ZN5boost4asio6detail18signal_set_service3addERNS2_19implementation_typeEiRNS_6system10error_codeE
	.align 2
	.type	_ZN5boost4asio6detail13epoll_reactor30deregister_internal_descriptorEiRPNS2_16descriptor_stateE, @function
_ZN5boost4asio6detail13epoll_reactor30deregister_internal_descriptorEiRPNS2_16descriptor_stateE:
.LVL759:
.LFB73:
	.loc 12 402 1 is_stmt 1 view -0
	.cfi_startproc
	.loc 12 402 1 is_stmt 0 view .LVU2128
	pushq	%r13
	.cfi_def_cfa_offset 16
	.cfi_offset 13, -16
	pushq	%r12
	.cfi_def_cfa_offset 24
	.cfi_offset 12, -24
	pushq	%rbp
	.cfi_def_cfa_offset 32
	.cfi_offset 6, -32
	pushq	%rbx
	.cfi_def_cfa_offset 40
	.cfi_offset 3, -40
	subq	$56, %rsp
	.cfi_def_cfa_offset 96
	movq	%rdi, %r13
	.loc 12 403 3 is_stmt 1 view .LVU2129
	.loc 12 403 8 is_stmt 0 view .LVU2130
	movq	(%rdx), %rdi
.LVL760:
	.loc 12 403 3 view .LVU2131
	testq	%rdi, %rdi
	je	.L434
	movl	%esi, %r12d
	movq	%rdx, %rbx
	.loc 12 406 3 is_stmt 1 view .LVU2132
	.loc 12 406 55 is_stmt 0 view .LVU2133
	leaq	40(%rdi), %rbp
.LVL761:
.LBB1752:
.LBI1752:
	.loc 13 50 14 is_stmt 1 view .LVU2134
.LBB1753:
.LBB1754:
.LBB1755:
.LBI1755:
	.loc 14 29 3 view .LVU2135
	.loc 14 29 3 is_stmt 0 view .LVU2136
.LBE1755:
	.loc 13 53 7 is_stmt 1 view .LVU2137
	cmpb	$0, 88(%rdi)
	jne	.L450
	.loc 13 59 9 view .LVU2138
	.loc 13 59 17 is_stmt 0 view .LVU2139
	movb	$0, 40(%rsp)
.LVL762:
.L438:
	.loc 13 59 17 view .LVU2140
.LBE1754:
.LBE1753:
.LBE1752:
	.loc 12 408 3 is_stmt 1 view .LVU2141
.LBB1760:
	.loc 12 408 8 is_stmt 0 view .LVU2142
	movq	(%rbx), %rax
	.loc 12 408 3 view .LVU2143
	cmpb	$0, 163(%rax)
	je	.L451
	.loc 12 433 5 is_stmt 1 view .LVU2144
	.loc 12 433 21 is_stmt 0 view .LVU2145
	movq	$0, (%rbx)
.L447:
.LVL763:
	.loc 12 433 21 view .LVU2146
.LBE1760:
.LBB1784:
.LBI1784:
	.loc 13 63 5 is_stmt 1 discriminator 1 view .LVU2147
.LBB1785:
	.loc 13 65 7 discriminator 1 view .LVU2148
	cmpb	$0, 40(%rsp)
	jne	.L452
.LVL764:
.L434:
	.loc 13 65 7 is_stmt 0 discriminator 1 view .LVU2149
.LBE1785:
.LBE1784:
	.loc 12 435 1 view .LVU2150
	addq	$56, %rsp
	.cfi_remember_state
	.cfi_def_cfa_offset 40
	popq	%rbx
	.cfi_def_cfa_offset 32
	popq	%rbp
	.cfi_def_cfa_offset 24
	popq	%r12
	.cfi_def_cfa_offset 16
	popq	%r13
	.cfi_def_cfa_offset 8
.LVL765:
	.loc 12 435 1 view .LVU2151
	ret
.LVL766:
.L450:
	.cfi_restore_state
.LBB1790:
.LBB1759:
.LBB1758:
	.loc 13 55 9 is_stmt 1 view .LVU2152
.LBB1756:
.LBI1756:
	.loc 16 50 8 view .LVU2153
.LBB1757:
	.loc 16 52 5 view .LVU2154
	.loc 16 52 31 is_stmt 0 view .LVU2155
	addq	$48, %rdi
	call	pthread_mutex_lock@PLT
.LVL767:
	.loc 16 52 31 view .LVU2156
.LBE1757:
.LBE1756:
	.loc 13 56 9 is_stmt 1 view .LVU2157
	.loc 13 56 17 is_stmt 0 view .LVU2158
	movb	$1, 40(%rsp)
	jmp	.L438
.LVL768:
.L451:
	.loc 13 56 17 view .LVU2159
.LBE1758:
.LBE1759:
.LBE1790:
.LBB1791:
.LBB1761:
	.loc 12 410 5 is_stmt 1 view .LVU2160
	.loc 12 410 17 is_stmt 0 view .LVU2161
	movl	$0, 4(%rsp)
	movq	$0, 8(%rsp)
	.loc 12 411 5 is_stmt 1 view .LVU2162
	.loc 12 411 14 is_stmt 0 view .LVU2163
	leaq	4(%rsp), %rcx
	movl	112(%r13), %edi
	movl	%r12d, %edx
	movl	$2, %esi
	call	epoll_ctl@PLT
.LVL769:
	.loc 12 413 5 is_stmt 1 view .LVU2164
.LBB1762:
.LBI1762:
	.loc 22 69 3 view .LVU2165
.LBB1763:
.LBB1764:
.LBB1765:
.LBI1765:
	.loc 14 29 3 view .LVU2166
	.loc 14 29 3 is_stmt 0 view .LVU2167
.LBE1765:
	.loc 22 71 14 view .LVU2168
	movq	$0, 16(%rsp)
	movq	$0, 24(%rsp)
.LVL770:
	.loc 22 71 14 view .LVU2169
.LBE1764:
.LBE1763:
.LBE1762:
	.loc 12 414 5 is_stmt 1 view .LVU2170
	.loc 12 414 5 is_stmt 0 view .LVU2171
.LBE1761:
.LBE1791:
	.loc 12 414 14 view .LVU2172
	movl	$0, %edx
	jmp	.L444
.LVL771:
.L442:
.LBB1792:
.LBB1783:
.LBB1766:
.LBB1767:
.LBB1768:
	.loc 22 129 9 view .LVU2173
	movq	%rcx, 16(%rsp)
.L443:
	.loc 22 130 7 view .LVU2174
	movq	8(%rdi), %r8
	movq	%r8, 24(%rsp)
	.loc 22 131 7 view .LVU2175
	movq	$0, (%rdi)
	.loc 22 132 7 view .LVU2176
	movq	$0, 8(%rdi)
.L441:
.LVL772:
	.loc 22 132 7 view .LVU2177
.LBE1768:
.LBE1767:
	.loc 12 414 5 is_stmt 1 view .LVU2178
	addl	$1, %edx
.LVL773:
.L444:
	.loc 12 414 23 discriminator 1 view .LVU2179
	cmpl	$2, %edx
	jg	.L440
	.loc 12 415 7 view .LVU2180
	.loc 12 415 44 is_stmt 0 view .LVU2181
	movslq	%edx, %rdi
	addq	$7, %rdi
	salq	$4, %rdi
	addq	(%rbx), %rdi
.LVL774:
.LBB1772:
.LBI1767:
	.loc 22 122 8 is_stmt 1 view .LVU2182
.LBB1771:
	.loc 22 124 20 is_stmt 0 view .LVU2183
	movq	(%rdi), %rcx
.LVL775:
	.loc 22 124 5 view .LVU2184
	testq	%rcx, %rcx
	je	.L441
	.loc 22 126 11 view .LVU2185
	movq	24(%rsp), %rsi
	.loc 22 126 7 view .LVU2186
	testq	%rsi, %rsi
	je	.L442
.LVL776:
.LBB1769:
.LBI1769:
	.loc 22 39 15 is_stmt 1 view .LVU2187
.LBB1770:
	.loc 22 41 5 is_stmt 0 view .LVU2188
	movq	%rcx, (%rsi)
	jmp	.L443
.LVL777:
.L440:
	.loc 22 41 5 view .LVU2189
.LBE1770:
.LBE1769:
.LBE1771:
.LBE1772:
.LBE1766:
	.loc 12 417 5 is_stmt 1 view .LVU2190
	movq	(%rbx), %r9
	.loc 12 417 34 is_stmt 0 view .LVU2191
	movl	$-1, 104(%r9)
	.loc 12 418 5 is_stmt 1 view .LVU2192
	movq	(%rbx), %r10
	.loc 12 418 32 is_stmt 0 view .LVU2193
	movb	$1, 163(%r10)
	.loc 12 420 5 is_stmt 1 view .LVU2194
.LVL778:
.LBB1773:
.LBI1773:
	.loc 13 80 10 view .LVU2195
.LBB1774:
	.loc 13 82 7 view .LVU2196
	cmpb	$0, 40(%rsp)
	je	.L445
	.loc 13 84 9 view .LVU2197
.LVL779:
.LBB1775:
.LBI1775:
	.loc 13 132 8 view .LVU2198
.LBB1776:
	.loc 13 134 5 view .LVU2199
	cmpb	$0, 48(%rbp)
	jne	.L453
.LVL780:
.L446:
	.loc 13 134 5 is_stmt 0 view .LVU2200
.LBE1776:
.LBE1775:
	.loc 13 85 9 is_stmt 1 view .LVU2201
	.loc 13 85 17 is_stmt 0 view .LVU2202
	movb	$0, 40(%rsp)
.L445:
.LVL781:
	.loc 13 85 17 view .LVU2203
.LBE1774:
.LBE1773:
	.loc 12 422 5 is_stmt 1 view .LVU2204
	.loc 12 413 25 is_stmt 0 view .LVU2205
	leaq	16(%rsp), %rdi
	call	_ZN5boost4asio6detail8op_queueINS1_19scheduler_operationEED1Ev
.LVL782:
	jmp	.L447
.LVL783:
.L453:
.LBB1782:
.LBB1781:
.LBB1780:
.LBB1779:
	.loc 13 135 7 is_stmt 1 view .LVU2206
.LBB1777:
.LBI1777:
	.loc 16 56 8 view .LVU2207
.LBB1778:
	.loc 16 58 5 view .LVU2208
	.loc 16 58 33 is_stmt 0 view .LVU2209
	leaq	8(%rbp), %rdi
.LVL784:
	.loc 16 58 33 view .LVU2210
	call	pthread_mutex_unlock@PLT
.LVL785:
	.loc 16 58 33 view .LVU2211
	jmp	.L446
.LVL786:
.L452:
	.loc 16 58 33 view .LVU2212
.LBE1778:
.LBE1777:
.LBE1779:
.LBE1780:
.LBE1781:
.LBE1782:
.LBE1783:
.LBE1792:
.LBB1793:
.LBB1789:
	.loc 13 66 9 is_stmt 1 view .LVU2213
.LBB1786:
.LBI1786:
	.loc 16 56 8 view .LVU2214
.LBB1787:
	.loc 16 58 5 view .LVU2215
	.loc 16 58 33 is_stmt 0 view .LVU2216
	leaq	8(%rbp), %rdi
.LVL787:
	.loc 16 58 33 view .LVU2217
	call	pthread_mutex_unlock@PLT
.LVL788:
	.loc 16 58 33 view .LVU2218
.LBE1787:
.LBE1786:
.LBB1788:
.LBI1788:
	.loc 14 30 3 is_stmt 1 view .LVU2219
	.loc 14 30 3 is_stmt 0 view .LVU2220
	jmp	.L434
.LBE1788:
.LBE1789:
.LBE1793:
	.cfi_endproc
.LFE73:
	.size	_ZN5boost4asio6detail13epoll_reactor30deregister_internal_descriptorEiRPNS2_16descriptor_stateE, .-_ZN5boost4asio6detail13epoll_reactor30deregister_internal_descriptorEiRPNS2_16descriptor_stateE
	.align 2
	.type	_ZN5boost4asio6detail18signal_set_service14remove_serviceEPS2_, @function
_ZN5boost4asio6detail18signal_set_service14remove_serviceEPS2_:
.LVL789:
.LFB75:
	.loc 17 550 1 is_stmt 1 view -0
	.cfi_startproc
	.cfi_personality 0x9b,DW.ref.__gcc_personality_v0
	.cfi_lsda 0x1b,.LLSDA75
	.loc 17 550 1 is_stmt 0 view .LVU2222
	pushq	%r14
	.cfi_def_cfa_offset 16
	.cfi_offset 14, -16
	pushq	%r13
	.cfi_def_cfa_offset 24
	.cfi_offset 13, -24
	pushq	%r12
	.cfi_def_cfa_offset 32
	.cfi_offset 12, -32
	pushq	%rbp
	.cfi_def_cfa_offset 40
	.cfi_offset 6, -40
	pushq	%rbx
	.cfi_def_cfa_offset 48
	.cfi_offset 3, -48
	subq	$64, %rsp
	.cfi_def_cfa_offset 112
	movq	%rdi, %rbx
	.loc 17 551 3 is_stmt 1 view .LVU2223
	.loc 17 57 3 view .LVU2224
	.loc 17 59 3 view .LVU2225
.LVL790:
	.loc 17 552 3 view .LVU2226
.LBB1867:
.LBI1867:
	.loc 20 43 12 view .LVU2227
.LBB1868:
.LBB1869:
.LBB1870:
.LBI1870:
	.loc 14 29 3 view .LVU2228
	.loc 14 29 3 is_stmt 0 view .LVU2229
.LBE1870:
.LBB1871:
.LBI1871:
	.loc 21 42 8 is_stmt 1 view .LVU2230
.LBB1872:
	.loc 21 44 5 view .LVU2231
	.loc 21 44 31 is_stmt 0 view .LVU2232
	leaq	_ZZN5boost4asio6detail16get_signal_stateEvE5state(%rip), %rdi
.LVL791:
	.loc 21 44 31 view .LVU2233
	call	pthread_mutex_lock@PLT
.LVL792:
	.loc 21 44 31 view .LVU2234
.LBE1872:
.LBE1871:
	.loc 20 47 5 view .LVU2235
	movb	$1, 56(%rsp)
.LVL793:
	.loc 20 47 5 view .LVU2236
.LBE1869:
.LBE1868:
.LBE1867:
	.loc 17 554 3 is_stmt 1 view .LVU2237
.LBB1873:
	cmpq	$0, 584(%rbx)
	je	.L487
.L455:
.LBB1874:
	.loc 17 560 5 view .LVU2238
	.loc 17 560 9 is_stmt 0 view .LVU2239
	movl	40+_ZZN5boost4asio6detail16get_signal_stateEvE5state(%rip), %r13d
.LVL794:
	.loc 17 561 5 is_stmt 1 view .LVU2240
.LBB1875:
.LBI1875:
	.loc 20 68 8 view .LVU2241
.LBB1876:
.LBI1876:
	.loc 21 48 8 view .LVU2242
.LBB1877:
	.loc 21 50 5 view .LVU2243
	.loc 21 50 33 is_stmt 0 view .LVU2244
	leaq	_ZZN5boost4asio6detail16get_signal_stateEvE5state(%rip), %rdi
	call	pthread_mutex_unlock@PLT
.LVL795:
	.loc 21 50 33 view .LVU2245
.LBE1877:
.LBE1876:
.LBE1875:
	.loc 17 562 5 is_stmt 1 view .LVU2246
	.loc 17 562 14 is_stmt 0 view .LVU2247
	movq	48(%rbx), %r14
	.loc 17 563 35 view .LVU2248
	leaq	56(%rbx), %rbp
.LVL796:
.LBB1878:
.LBI1878:
	.loc 12 400 6 is_stmt 1 view .LVU2249
.LBB1879:
	.loc 12 403 8 is_stmt 0 view .LVU2250
	movq	56(%rbx), %rdi
	.loc 12 403 3 view .LVU2251
	testq	%rdi, %rdi
	je	.L458
	.loc 12 406 55 view .LVU2252
	leaq	40(%rdi), %r12
.LVL797:
.LBB1880:
.LBB1881:
.LBB1882:
	.loc 13 53 7 view .LVU2253
	cmpb	$0, 88(%rdi)
	jne	.L488
	.loc 13 59 17 view .LVU2254
	movb	$0, 24(%rsp)
.L460:
.LVL798:
	.loc 13 59 17 view .LVU2255
.LBE1882:
.LBE1881:
.LBE1880:
.LBB1887:
	.loc 12 408 8 view .LVU2256
	movq	56(%rbx), %rax
	.loc 12 408 3 view .LVU2257
	cmpb	$0, 163(%rax)
	je	.L489
	.loc 12 433 21 view .LVU2258
	movq	$0, 56(%rbx)
.L469:
.LVL799:
	.loc 12 433 21 view .LVU2259
.LBE1887:
.LBB1910:
.LBB1911:
	.loc 13 65 7 view .LVU2260
	cmpb	$0, 24(%rsp)
	jne	.L490
.LVL800:
.L458:
	.loc 13 65 7 view .LVU2261
.LBE1911:
.LBE1910:
.LBE1879:
.LBE1878:
	.loc 17 564 5 is_stmt 1 view .LVU2262
	.loc 17 564 14 is_stmt 0 view .LVU2263
	movq	48(%rbx), %r14
.LVL801:
.LBB1921:
.LBI1921:
	.loc 12 437 6 is_stmt 1 view .LVU2264
.LBB1922:
	.loc 12 440 3 view .LVU2265
	.loc 12 440 7 is_stmt 0 view .LVU2266
	movq	56(%rbx), %rbp
.LVL802:
	.loc 12 440 3 view .LVU2267
	testq	%rbp, %rbp
	je	.L471
	.loc 12 442 5 is_stmt 1 view .LVU2268
.LVL803:
.LBB1923:
.LBI1923:
	.loc 12 632 6 view .LVU2269
.LBB1924:
	.loc 12 634 39 is_stmt 0 view .LVU2270
	leaq	136(%r14), %r13
.LVL804:
.LBB1925:
.LBB1926:
.LBB1927:
	.loc 13 53 7 view .LVU2271
	cmpb	$0, 184(%r14)
	jne	.L491
	.loc 13 59 17 view .LVU2272
	movb	$0, 40(%rsp)
.L473:
.LVL805:
	.loc 13 59 17 view .LVU2273
.LBE1927:
.LBE1926:
.LBE1925:
.LBB1932:
.LBB1933:
	.loc 15 128 5 view .LVU2274
	cmpq	192(%r14), %rbp
	je	.L492
.L474:
	.loc 15 131 5 view .LVU2275
	movq	32(%rbp), %r12
	testq	%r12, %r12
	je	.L475
	.loc 15 133 7 view .LVU2276
	movq	24(%rbp), %rax
	movq	%rax, 24(%r12)
.L475:
	.loc 15 137 5 view .LVU2277
	movq	24(%rbp), %rdi
	testq	%rdi, %rdi
	je	.L476
	.loc 15 139 7 view .LVU2278
	movq	32(%rbp), %rdx
	movq	%rdx, 32(%rdi)
.L476:
	.loc 15 143 35 view .LVU2279
	movq	200(%r14), %rcx
	.loc 15 143 5 view .LVU2280
	movq	%rcx, 24(%rbp)
	.loc 15 144 5 view .LVU2281
	movq	$0, 32(%rbp)
	.loc 15 145 5 view .LVU2282
	movq	%rbp, 200(%r14)
.LVL806:
	.loc 15 145 5 view .LVU2283
.LBE1933:
.LBE1932:
.LBB1935:
.LBB1936:
	.loc 13 65 7 view .LVU2284
	cmpb	$0, 40(%rsp)
	jne	.L493
.L477:
.LVL807:
	.loc 13 65 7 view .LVU2285
.LBE1936:
.LBE1935:
.LBE1924:
.LBE1923:
	.loc 12 443 5 is_stmt 1 view .LVU2286
	.loc 12 443 21 is_stmt 0 view .LVU2287
	movq	$0, 56(%rbx)
.L471:
.LVL808:
	.loc 12 443 21 view .LVU2288
.LBE1922:
.LBE1921:
	.loc 17 565 5 is_stmt 1 view .LVU2289
.LBB1946:
.LBI1946:
	.loc 20 58 8 view .LVU2290
.LBB1947:
.LBB1948:
.LBI1948:
	.loc 21 42 8 view .LVU2291
.LBB1949:
	.loc 21 44 5 view .LVU2292
	.loc 21 44 31 is_stmt 0 view .LVU2293
	leaq	_ZZN5boost4asio6detail16get_signal_stateEvE5state(%rip), %rdi
	call	pthread_mutex_lock@PLT
.LVL809:
	.loc 21 44 31 view .LVU2294
.LBE1949:
.LBE1948:
	.loc 20 63 7 view .LVU2295
	movb	$1, 56(%rsp)
.LVL810:
	.loc 20 63 7 view .LVU2296
.LBE1947:
.LBE1946:
	.loc 17 571 5 is_stmt 1 view .LVU2297
	cmpq	%rbx, 56+_ZZN5boost4asio6detail16get_signal_stateEvE5state(%rip)
	je	.L494
.L478:
	.loc 17 573 5 view .LVU2298
	.loc 17 573 18 is_stmt 0 view .LVU2299
	movq	592(%rbx), %r8
	.loc 17 573 5 view .LVU2300
	testq	%r8, %r8
	je	.L479
	.loc 17 574 7 is_stmt 1 view .LVU2301
	.loc 17 574 40 is_stmt 0 view .LVU2302
	movq	584(%rbx), %r9
	.loc 17 574 29 view .LVU2303
	movq	%r9, 584(%r8)
.L479:
	.loc 17 575 5 is_stmt 1 view .LVU2304
	.loc 17 575 18 is_stmt 0 view .LVU2305
	movq	584(%rbx), %r10
	.loc 17 575 5 view .LVU2306
	testq	%r10, %r10
	je	.L480
	.loc 17 576 7 is_stmt 1 view .LVU2307
	.loc 17 576 39 is_stmt 0 view .LVU2308
	movq	592(%rbx), %r14
	.loc 17 576 28 view .LVU2309
	movq	%r14, 592(%r10)
.L480:
	.loc 17 577 5 is_stmt 1 view .LVU2310
	.loc 17 577 20 is_stmt 0 view .LVU2311
	movq	$0, 584(%rbx)
	.loc 17 578 5 is_stmt 1 view .LVU2312
	.loc 17 578 20 is_stmt 0 view .LVU2313
	movq	$0, 592(%rbx)
	.loc 17 582 5 is_stmt 1 view .LVU2314
	cmpq	$0, 56+_ZZN5boost4asio6detail16get_signal_stateEvE5state(%rip)
	je	.L495
.L456:
.LVL811:
	.loc 17 582 5 is_stmt 0 view .LVU2315
.LBE1874:
.LBE1873:
.LBB1958:
.LBI1958:
	.loc 20 51 3 is_stmt 1 view .LVU2316
.LBB1959:
	.loc 20 53 5 is_stmt 0 view .LVU2317
	cmpb	$0, 56(%rsp)
	jne	.L496
.LVL812:
.L454:
	.loc 20 53 5 view .LVU2318
.LBE1959:
.LBE1958:
	.loc 17 586 1 view .LVU2319
	addq	$64, %rsp
	.cfi_remember_state
	.cfi_def_cfa_offset 48
	popq	%rbx
	.cfi_def_cfa_offset 40
.LVL813:
	.loc 17 586 1 view .LVU2320
	popq	%rbp
	.cfi_def_cfa_offset 32
	popq	%r12
	.cfi_def_cfa_offset 24
	popq	%r13
	.cfi_def_cfa_offset 16
	popq	%r14
	.cfi_def_cfa_offset 8
	ret
.LVL814:
.L487:
	.cfi_restore_state
.LBB1964:
	.loc 17 554 22 discriminator 1 view .LVU2321
	cmpq	$0, 592(%rbx)
	jne	.L455
	.loc 17 554 40 discriminator 2 view .LVU2322
	cmpq	%rbx, 56+_ZZN5boost4asio6detail16get_signal_stateEvE5state(%rip)
	jne	.L456
	jmp	.L455
.LVL815:
.L488:
.LBB1956:
.LBB1950:
.LBB1919:
.LBB1915:
.LBB1886:
.LBB1885:
.LBB1883:
.LBB1884:
	.loc 16 52 31 view .LVU2323
	addq	$48, %rdi
	call	pthread_mutex_lock@PLT
.LVL816:
	.loc 16 52 31 view .LVU2324
.LBE1884:
.LBE1883:
	.loc 13 56 17 view .LVU2325
	movb	$1, 24(%rsp)
	jmp	.L460
.LVL817:
.L489:
	.loc 13 56 17 view .LVU2326
.LBE1885:
.LBE1886:
.LBE1915:
.LBB1916:
.LBB1888:
	.loc 12 410 17 view .LVU2327
	movl	$0, 4(%rsp)
	movq	$0, 8(%rsp)
	.loc 12 411 14 view .LVU2328
	leaq	4(%rsp), %rcx
	movl	112(%r14), %edi
	movl	%r13d, %edx
	movl	$2, %esi
	call	epoll_ctl@PLT
.LVL818:
.LBB1889:
.LBB1890:
.LBB1891:
	.loc 22 71 14 view .LVU2329
	movq	$0, 32(%rsp)
	movq	$0, 40(%rsp)
.LVL819:
	.loc 22 71 14 view .LVU2330
.LBE1891:
.LBE1890:
.LBE1889:
.LBE1888:
.LBE1916:
.LBE1919:
	.loc 12 414 14 view .LVU2331
	movl	$0, %edx
	jmp	.L466
.LVL820:
.L464:
.LBB1920:
.LBB1917:
.LBB1909:
.LBB1892:
.LBB1893:
.LBB1894:
	.loc 22 129 9 view .LVU2332
	movq	%rcx, 32(%rsp)
.L465:
	.loc 22 130 7 view .LVU2333
	movq	8(%rdi), %r8
	movq	%r8, 40(%rsp)
	.loc 22 131 7 view .LVU2334
	movq	$0, (%rdi)
	.loc 22 132 7 view .LVU2335
	movq	$0, 8(%rdi)
.L463:
.LVL821:
	.loc 22 132 7 view .LVU2336
.LBE1894:
.LBE1893:
	.loc 12 414 5 view .LVU2337
	addl	$1, %edx
.LVL822:
.L466:
	.loc 12 414 23 view .LVU2338
	cmpl	$2, %edx
	jg	.L462
	.loc 12 415 44 view .LVU2339
	movslq	%edx, %rdi
	addq	$7, %rdi
	salq	$4, %rdi
	addq	0(%rbp), %rdi
.LVL823:
.LBB1898:
.LBB1897:
	.loc 22 124 20 view .LVU2340
	movq	(%rdi), %rcx
.LVL824:
	.loc 22 124 5 view .LVU2341
	testq	%rcx, %rcx
	je	.L463
	.loc 22 126 11 view .LVU2342
	movq	40(%rsp), %rsi
	.loc 22 126 7 view .LVU2343
	testq	%rsi, %rsi
	je	.L464
.LVL825:
.LBB1895:
.LBB1896:
	.loc 22 41 5 view .LVU2344
	movq	%rcx, (%rsi)
	jmp	.L465
.LVL826:
.L462:
	.loc 22 41 5 view .LVU2345
.LBE1896:
.LBE1895:
.LBE1897:
.LBE1898:
.LBE1892:
	.loc 12 417 5 view .LVU2346
	movq	56(%rbx), %r9
	.loc 12 417 34 view .LVU2347
	movl	$-1, 104(%r9)
	.loc 12 418 5 view .LVU2348
	movq	56(%rbx), %r10
	.loc 12 418 32 view .LVU2349
	movb	$1, 163(%r10)
.LVL827:
.LBB1899:
.LBB1900:
	.loc 13 82 7 view .LVU2350
	cmpb	$0, 24(%rsp)
	je	.L467
.LVL828:
.LBB1901:
.LBB1902:
	.loc 13 134 5 view .LVU2351
	cmpb	$0, 48(%r12)
	jne	.L497
.LVL829:
.L468:
	.loc 13 134 5 view .LVU2352
.LBE1902:
.LBE1901:
	.loc 13 85 17 view .LVU2353
	movb	$0, 24(%rsp)
.L467:
.LVL830:
	.loc 13 85 17 view .LVU2354
.LBE1900:
.LBE1899:
	.loc 12 413 25 view .LVU2355
	leaq	32(%rsp), %rdi
	call	_ZN5boost4asio6detail8op_queueINS1_19scheduler_operationEED1Ev
.LVL831:
	jmp	.L469
.LVL832:
.L497:
.LBB1908:
.LBB1907:
.LBB1906:
.LBB1905:
.LBB1903:
.LBB1904:
	.loc 16 58 33 view .LVU2356
	leaq	8(%r12), %rdi
.LVL833:
	.loc 16 58 33 view .LVU2357
	call	pthread_mutex_unlock@PLT
.LVL834:
	.loc 16 58 33 view .LVU2358
	jmp	.L468
.LVL835:
.L490:
	.loc 16 58 33 view .LVU2359
.LBE1904:
.LBE1903:
.LBE1905:
.LBE1906:
.LBE1907:
.LBE1908:
.LBE1909:
.LBE1917:
.LBB1918:
.LBB1914:
.LBB1912:
.LBB1913:
	leaq	8(%r12), %rdi
.LVL836:
	.loc 16 58 33 view .LVU2360
	call	pthread_mutex_unlock@PLT
.LVL837:
	.loc 16 58 33 view .LVU2361
	jmp	.L458
.LVL838:
.L491:
	.loc 16 58 33 view .LVU2362
.LBE1913:
.LBE1912:
.LBE1914:
.LBE1918:
.LBE1920:
.LBE1950:
.LBB1951:
.LBB1945:
.LBB1944:
.LBB1943:
.LBB1940:
.LBB1931:
.LBB1930:
.LBB1928:
.LBB1929:
	.loc 16 52 31 view .LVU2363
	leaq	144(%r14), %rdi
	call	pthread_mutex_lock@PLT
.LVL839:
	.loc 16 52 31 view .LVU2364
.LBE1929:
.LBE1928:
	.loc 13 56 17 view .LVU2365
	movb	$1, 40(%rsp)
	jmp	.L473
.LVL840:
.L492:
	.loc 13 56 17 view .LVU2366
.LBE1930:
.LBE1931:
.LBE1940:
.LBB1941:
.LBB1934:
	.loc 15 129 7 view .LVU2367
	movq	24(%rbp), %r11
	movq	%r11, 192(%r14)
	jmp	.L474
.LVL841:
.L493:
	.loc 15 129 7 view .LVU2368
.LBE1934:
.LBE1941:
.LBB1942:
.LBB1939:
.LBB1937:
.LBB1938:
	.loc 16 58 33 view .LVU2369
	leaq	8(%r13), %rdi
.LVL842:
	.loc 16 58 33 view .LVU2370
	call	pthread_mutex_unlock@PLT
.LVL843:
	.loc 16 58 33 view .LVU2371
	jmp	.L477
.LVL844:
.L494:
	.loc 16 58 33 view .LVU2372
.LBE1938:
.LBE1937:
.LBE1939:
.LBE1942:
.LBE1943:
.LBE1944:
.LBE1945:
.LBE1951:
	.loc 17 572 7 is_stmt 1 view .LVU2373
	.loc 17 572 39 is_stmt 0 view .LVU2374
	movq	584(%rbx), %rsi
	.loc 17 572 28 view .LVU2375
	movq	%rsi, 56+_ZZN5boost4asio6detail16get_signal_stateEvE5state(%rip)
	jmp	.L478
.L495:
	.loc 17 583 7 is_stmt 1 view .LVU2376
.LBB1952:
.LBI1952:
	.loc 17 620 6 view .LVU2377
.LBB1953:
	.loc 17 625 3 view .LVU2378
.LBE1953:
.LBE1952:
.LBE1956:
.LBE1964:
	.loc 17 57 3 view .LVU2379
	.loc 17 59 3 view .LVU2380
.LVL845:
.LBB1965:
.LBB1957:
.LBB1955:
.LBB1954:
	.loc 17 627 3 view .LVU2381
	.loc 17 627 14 is_stmt 0 view .LVU2382
	movl	40+_ZZN5boost4asio6detail16get_signal_stateEvE5state(%rip), %edi
	.loc 17 627 3 view .LVU2383
	cmpl	$-1, %edi
	jne	.L498
.L481:
	.loc 17 629 3 is_stmt 1 view .LVU2384
	.loc 17 629 27 is_stmt 0 view .LVU2385
	movl	$-1, 40+_ZZN5boost4asio6detail16get_signal_stateEvE5state(%rip)
	.loc 17 631 3 is_stmt 1 view .LVU2386
	.loc 17 631 14 is_stmt 0 view .LVU2387
	movl	44+_ZZN5boost4asio6detail16get_signal_stateEvE5state(%rip), %edi
	.loc 17 631 3 view .LVU2388
	cmpl	$-1, %edi
	jne	.L499
.L482:
	.loc 17 633 3 is_stmt 1 view .LVU2389
	.loc 17 633 28 is_stmt 0 view .LVU2390
	movl	$-1, 44+_ZZN5boost4asio6detail16get_signal_stateEvE5state(%rip)
	jmp	.L456
.L498:
	.loc 17 628 5 is_stmt 1 view .LVU2391
.LEHB18:
	.loc 17 628 12 is_stmt 0 view .LVU2392
	call	close@PLT
.LVL846:
	jmp	.L481
.L499:
	.loc 17 632 5 is_stmt 1 view .LVU2393
	.loc 17 632 12 is_stmt 0 view .LVU2394
	call	close@PLT
.LVL847:
.LEHE18:
	jmp	.L482
.LVL848:
.L496:
	.loc 17 632 12 view .LVU2395
.LBE1954:
.LBE1955:
.LBE1957:
.LBE1965:
.LBB1966:
.LBB1963:
.LBB1960:
.LBI1960:
	.loc 21 48 8 is_stmt 1 view .LVU2396
.LBB1961:
	.loc 21 50 5 view .LVU2397
	.loc 21 50 33 is_stmt 0 view .LVU2398
	leaq	_ZZN5boost4asio6detail16get_signal_stateEvE5state(%rip), %rdi
	call	pthread_mutex_unlock@PLT
.LVL849:
	.loc 21 50 33 view .LVU2399
.LBE1961:
.LBE1960:
.LBB1962:
.LBI1962:
	.loc 14 30 3 is_stmt 1 view .LVU2400
	.loc 14 30 3 is_stmt 0 view .LVU2401
	jmp	.L454
.LVL850:
.L485:
	.loc 14 30 3 view .LVU2402
	movq	%rax, %rbx
.LVL851:
	.loc 14 30 3 view .LVU2403
.LBE1962:
.LBE1963:
.LBE1966:
.LBB1967:
.LBI1967:
	.loc 20 51 3 is_stmt 1 view .LVU2404
.LBB1968:
.LBI1968:
	.loc 21 48 8 view .LVU2405
.LBB1969:
	.loc 21 50 5 view .LVU2406
	.loc 21 50 33 is_stmt 0 view .LVU2407
	leaq	_ZZN5boost4asio6detail16get_signal_stateEvE5state(%rip), %rdi
	call	pthread_mutex_unlock@PLT
.LVL852:
	.loc 21 50 33 view .LVU2408
.LBE1969:
.LBE1968:
.LBB1970:
.LBI1970:
	.loc 14 30 3 is_stmt 1 view .LVU2409
	.loc 14 30 3 is_stmt 0 view .LVU2410
	movq	%rbx, %rdi
.LEHB19:
	call	_Unwind_Resume@PLT
.LVL853:
.LEHE19:
.LBE1970:
.LBE1967:
	.cfi_endproc
.LFE75:
	.section	.gcc_except_table
.LLSDA75:
	.byte	0xff
	.byte	0xff
	.byte	0x1
	.uleb128 .LLSDACSE75-.LLSDACSB75
.LLSDACSB75:
	.uleb128 .LEHB18-.LFB75
	.uleb128 .LEHE18-.LEHB18
	.uleb128 .L485-.LFB75
	.uleb128 0
	.uleb128 .LEHB19-.LFB75
	.uleb128 .LEHE19-.LEHB19
	.uleb128 0
	.uleb128 0
.LLSDACSE75:
	.text
	.size	_ZN5boost4asio6detail18signal_set_service14remove_serviceEPS2_, .-_ZN5boost4asio6detail18signal_set_service14remove_serviceEPS2_
	.align 2
	.globl	_ZN5boost4asio6detail18signal_set_serviceD0Ev
	.hidden	_ZN5boost4asio6detail18signal_set_serviceD0Ev
	.type	_ZN5boost4asio6detail18signal_set_serviceD0Ev, @function
_ZN5boost4asio6detail18signal_set_serviceD0Ev:
.LVL854:
.LFB77:
	.loc 17 152 1 is_stmt 1 view -0
	.cfi_startproc
	.cfi_personality 0x9b,DW.ref.__gxx_personality_v0
	.cfi_lsda 0x1b,.LLSDA77
	.loc 17 152 1 is_stmt 0 view .LVU2412
	pushq	%rbx
	.cfi_def_cfa_offset 16
	.cfi_offset 3, -16
	movq	%rdi, %rbx
.LVL855:
.LBB1971:
.LBI1971:
	.loc 17 152 1 is_stmt 1 view .LVU2413
.LBB1972:
	.loc 17 152 41 is_stmt 0 view .LVU2414
	leaq	16+_ZTVN5boost4asio6detail18signal_set_serviceE(%rip), %rax
	movq	%rax, (%rdi)
	.loc 17 154 3 is_stmt 1 view .LVU2415
	.loc 17 154 17 is_stmt 0 view .LVU2416
	call	_ZN5boost4asio6detail18signal_set_service14remove_serviceEPS2_
.LVL856:
.LBB1973:
.LBI1973:
	.file 46 "/usr/local/include/boost/asio/execution_context.hpp"
	.loc 46 387 7 is_stmt 1 view .LVU2417
.LBB1974:
.LBI1974:
	.loc 3 61 1 view .LVU2418
.LBB1975:
.LBI1975:
	.loc 14 30 3 view .LVU2419
	.loc 14 30 3 is_stmt 0 view .LVU2420
.LBE1975:
.LBE1974:
.LBE1973:
.LBE1972:
.LBE1971:
	.loc 17 155 1 view .LVU2421
	movl	$600, %esi
	movq	%rbx, %rdi
	call	_ZdlPvm@PLT
.LVL857:
	popq	%rbx
	.cfi_def_cfa_offset 8
.LVL858:
	.loc 17 155 1 view .LVU2422
	ret
	.cfi_endproc
.LFE77:
	.section	.gcc_except_table
.LLSDA77:
	.byte	0xff
	.byte	0xff
	.byte	0x1
	.uleb128 .LLSDACSE77-.LLSDACSB77
.LLSDACSB77:
.LLSDACSE77:
	.text
	.size	_ZN5boost4asio6detail18signal_set_serviceD0Ev, .-_ZN5boost4asio6detail18signal_set_serviceD0Ev
	.align 2
	.globl	_ZN5boost4asio6detail18signal_set_serviceD2Ev.lto_priv.0
	.hidden	_ZN5boost4asio6detail18signal_set_serviceD2Ev.lto_priv.0
	.type	_ZN5boost4asio6detail18signal_set_serviceD2Ev.lto_priv.0, @function
_ZN5boost4asio6detail18signal_set_serviceD2Ev.lto_priv.0:
.LVL859:
.LFB78:
	.loc 17 152 1 is_stmt 1 view -0
	.cfi_startproc
	.cfi_personality 0x9b,DW.ref.__gxx_personality_v0
	.cfi_lsda 0x1b,.LLSDA78
	.loc 17 152 1 is_stmt 0 view .LVU2424
	subq	$8, %rsp
	.cfi_def_cfa_offset 16
.LBB1976:
	.loc 17 152 41 view .LVU2425
	leaq	16+_ZTVN5boost4asio6detail18signal_set_serviceE(%rip), %rax
	movq	%rax, (%rdi)
	.loc 17 154 3 is_stmt 1 view .LVU2426
	.loc 17 154 17 is_stmt 0 view .LVU2427
	call	_ZN5boost4asio6detail18signal_set_service14remove_serviceEPS2_
.LVL860:
.LBB1977:
.LBI1977:
	.loc 46 387 7 is_stmt 1 view .LVU2428
.LBB1978:
.LBI1978:
	.loc 3 61 1 view .LVU2429
.LBB1979:
.LBI1979:
	.loc 14 30 3 view .LVU2430
	.loc 14 30 3 is_stmt 0 view .LVU2431
.LBE1979:
.LBE1978:
.LBE1977:
.LBE1976:
	.loc 17 155 1 view .LVU2432
	addq	$8, %rsp
	.cfi_def_cfa_offset 8
	ret
	.cfi_endproc
.LFE78:
	.section	.gcc_except_table
.LLSDA78:
	.byte	0xff
	.byte	0xff
	.byte	0x1
	.uleb128 .LLSDACSE78-.LLSDACSB78
.LLSDACSB78:
.LLSDACSE78:
	.text
	.size	_ZN5boost4asio6detail18signal_set_serviceD2Ev.lto_priv.0, .-_ZN5boost4asio6detail18signal_set_serviceD2Ev.lto_priv.0
	.globl	_ZN5boost4asio6detail18signal_set_serviceD1Ev.lto_priv.0
	.hidden	_ZN5boost4asio6detail18signal_set_serviceD1Ev.lto_priv.0
	.set	_ZN5boost4asio6detail18signal_set_serviceD1Ev.lto_priv.0,_ZN5boost4asio6detail18signal_set_serviceD2Ev.lto_priv.0
	.align 2
	.globl	_ZN5boost4asio6detail18signal_set_service8shutdownEv
	.hidden	_ZN5boost4asio6detail18signal_set_service8shutdownEv
	.type	_ZN5boost4asio6detail18signal_set_service8shutdownEv, @function
_ZN5boost4asio6detail18signal_set_service8shutdownEv:
.LVL861:
.LFB79:
	.loc 17 158 1 is_stmt 1 view -0
	.cfi_startproc
	.loc 17 158 1 is_stmt 0 view .LVU2434
	pushq	%rbx
	.cfi_def_cfa_offset 16
	.cfi_offset 3, -16
	subq	$32, %rsp
	.cfi_def_cfa_offset 48
	movq	%rdi, %rbx
	.loc 17 159 3 is_stmt 1 view .LVU2435
	.loc 17 159 17 is_stmt 0 view .LVU2436
	call	_ZN5boost4asio6detail18signal_set_service14remove_serviceEPS2_
.LVL862:
	.loc 17 161 3 is_stmt 1 view .LVU2437
.LBB1980:
.LBI1980:
	.loc 22 69 3 view .LVU2438
.LBB1981:
.LBB1982:
.LBB1983:
.LBI1983:
	.loc 14 29 3 view .LVU2439
	.loc 14 29 3 is_stmt 0 view .LVU2440
.LBE1983:
	.loc 22 71 14 view .LVU2441
	movq	$0, 16(%rsp)
	movq	$0, 24(%rsp)
.LVL863:
	.loc 22 71 14 view .LVU2442
.LBE1982:
.LBE1981:
.LBE1980:
	.loc 17 163 3 is_stmt 1 view .LVU2443
	.loc 17 163 12 is_stmt 0 view .LVU2444
	movl	$0, %edi
	jmp	.L511
.LVL864:
.L508:
.LBB1984:
.LBB1985:
.LBB1986:
.LBB1987:
	.loc 22 129 9 view .LVU2445
	movq	%rcx, 16(%rsp)
.L509:
	.loc 22 130 7 view .LVU2446
	movq	8(%rdx), %r8
	movq	%r8, 24(%rsp)
	.loc 22 131 7 view .LVU2447
	movq	$0, (%rdx)
	.loc 22 132 7 view .LVU2448
	movq	$0, 8(%rdx)
.L507:
.LVL865:
	.loc 22 132 7 view .LVU2449
.LBE1987:
.LBE1986:
	.loc 17 169 7 is_stmt 1 view .LVU2450
	.loc 17 169 11 is_stmt 0 view .LVU2451
	movq	24(%r9), %r9
.LVL866:
.L510:
	.loc 17 166 5 is_stmt 1 view .LVU2452
	.loc 17 166 12 view .LVU2453
	testq	%r9, %r9
	je	.L506
	.loc 17 168 7 view .LVU2454
	.loc 17 168 22 is_stmt 0 view .LVU2455
	movq	8(%r9), %rdx
.LVL867:
.LBB1991:
.LBI1986:
	.loc 22 122 8 is_stmt 1 view .LVU2456
.LBB1990:
	.loc 22 124 20 is_stmt 0 view .LVU2457
	movq	(%rdx), %rcx
.LVL868:
	.loc 22 124 5 view .LVU2458
	testq	%rcx, %rcx
	je	.L507
	.loc 22 126 11 view .LVU2459
	movq	24(%rsp), %rsi
	.loc 22 126 7 view .LVU2460
	testq	%rsi, %rsi
	je	.L508
.LVL869:
.LBB1988:
.LBI1988:
	.loc 22 39 15 is_stmt 1 view .LVU2461
.LBB1989:
	.loc 22 41 5 is_stmt 0 view .LVU2462
	movq	%rcx, (%rsi)
	jmp	.L509
.LVL870:
.L506:
	.loc 22 41 5 view .LVU2463
.LBE1989:
.LBE1988:
.LBE1990:
.LBE1991:
.LBE1985:
	.loc 17 163 3 is_stmt 1 discriminator 2 view .LVU2464
	addl	$1, %edi
.LVL871:
.L511:
	.loc 17 163 21 discriminator 1 view .LVU2465
	cmpl	$64, %edi
	jg	.L505
.LBB1992:
	.loc 17 165 5 view .LVU2466
	.loc 17 165 19 is_stmt 0 view .LVU2467
	movslq	%edi, %rax
	movq	64(%rbx,%rax,8), %r9
.LVL872:
	.loc 17 165 19 view .LVU2468
	jmp	.L510
.LVL873:
.L505:
	.loc 17 165 19 view .LVU2469
.LBE1992:
.LBE1984:
	.loc 17 173 3 is_stmt 1 view .LVU2470
.LBB1993:
.LBI1993:
	.loc 23 430 6 view .LVU2471
.LBB1994:
	.loc 23 433 3 view .LVU2472
.LBB1995:
.LBI1995:
	.loc 22 69 3 view .LVU2473
.LBB1996:
.LBB1997:
.LBB1998:
.LBI1998:
	.loc 14 29 3 view .LVU2474
	.loc 14 29 3 is_stmt 0 view .LVU2475
.LBE1998:
	.loc 22 71 14 view .LVU2476
	movq	$0, (%rsp)
	movq	$0, 8(%rsp)
.LVL874:
	.loc 22 71 14 view .LVU2477
.LBE1997:
.LBE1996:
.LBE1995:
	.loc 23 434 3 is_stmt 1 view .LVU2478
.LBB1999:
.LBI1999:
	.loc 22 122 8 view .LVU2479
.LBB2000:
	.loc 22 124 20 is_stmt 0 view .LVU2480
	movq	16(%rsp), %r10
.LVL875:
	.loc 22 124 5 view .LVU2481
	testq	%r10, %r10
	je	.L512
	.loc 22 129 9 view .LVU2482
	movq	%r10, (%rsp)
	.loc 22 130 7 view .LVU2483
	movq	24(%rsp), %r11
	movq	%r11, 8(%rsp)
	.loc 22 131 7 view .LVU2484
	movq	$0, 16(%rsp)
	.loc 22 132 7 view .LVU2485
	movq	$0, 24(%rsp)
.L512:
.LVL876:
	.loc 22 132 7 view .LVU2486
.LBE2000:
.LBE1999:
	.loc 23 433 34 view .LVU2487
	movq	%rsp, %rdi
.LVL877:
	.loc 23 433 34 view .LVU2488
	call	_ZN5boost4asio6detail8op_queueINS1_19scheduler_operationEED1Ev
.LVL878:
	.loc 23 433 34 view .LVU2489
.LBE1994:
.LBE1993:
	.loc 17 161 23 view .LVU2490
	leaq	16(%rsp), %rdi
	call	_ZN5boost4asio6detail8op_queueINS1_19scheduler_operationEED1Ev
.LVL879:
	.loc 17 174 1 view .LVU2491
	addq	$32, %rsp
	.cfi_def_cfa_offset 16
	popq	%rbx
	.cfi_def_cfa_offset 8
.LVL880:
	.loc 17 174 1 view .LVU2492
	ret
	.cfi_endproc
.LFE79:
	.size	_ZN5boost4asio6detail18signal_set_service8shutdownEv, .-_ZN5boost4asio6detail18signal_set_service8shutdownEv
	.align 2
	.type	_ZN5boost4asio6detail9schedulerD2Ev, @function
_ZN5boost4asio6detail9schedulerD2Ev:
.LVL881:
.LFB52:
	.loc 23 135 1 is_stmt 1 view -0
	.cfi_startproc
	.cfi_personality 0x9b,DW.ref.__gxx_personality_v0
	.cfi_lsda 0x1b,.LLSDA52
	.loc 23 135 1 is_stmt 0 view .LVU2494
	pushq	%rbp
	.cfi_def_cfa_offset 16
	.cfi_offset 6, -16
	pushq	%rbx
	.cfi_def_cfa_offset 24
	.cfi_offset 3, -24
	subq	$40, %rsp
	.cfi_def_cfa_offset 64
	movq	%rdi, %rbx
.LBB2055:
	.loc 23 135 23 view .LVU2495
	leaq	16+_ZTVN5boost4asio6detail9schedulerE(%rip), %rax
	movq	%rax, (%rdi)
.LBE2055:
	.loc 23 137 3 is_stmt 1 view .LVU2496
.LBB2126:
.LBB2056:
	cmpq	$0, 240(%rdi)
	je	.L515
.LBB2057:
	.loc 23 139 5 view .LVU2497
	.loc 23 139 29 is_stmt 0 view .LVU2498
	leaq	48(%rdi), %rdx
.LVL882:
.LBB2058:
.LBI2058:
	.loc 13 50 14 is_stmt 1 view .LVU2499
.LBB2059:
.LBB2060:
.LBB2061:
.LBI2061:
	.loc 14 29 3 view .LVU2500
	.loc 14 29 3 is_stmt 0 view .LVU2501
.LBE2061:
	.loc 13 51 17 view .LVU2502
	movq	%rdx, 16(%rsp)
	.loc 13 53 7 is_stmt 1 view .LVU2503
	cmpb	$0, 96(%rdi)
	jne	.L528
	.loc 13 59 9 view .LVU2504
	.loc 13 59 17 is_stmt 0 view .LVU2505
	movb	$0, 24(%rsp)
.LVL883:
.L517:
	.loc 13 59 17 view .LVU2506
.LBE2060:
.LBE2059:
.LBE2058:
	.loc 23 140 5 is_stmt 1 view .LVU2507
	.loc 23 140 15 is_stmt 0 view .LVU2508
	movb	$1, 233(%rbx)
	.loc 23 141 5 is_stmt 1 view .LVU2509
.LVL884:
.LBB2066:
.LBI2066:
	.loc 23 623 6 view .LVU2510
.LBB2067:
	.loc 23 626 3 view .LVU2511
	.loc 23 626 12 is_stmt 0 view .LVU2512
	movb	$1, 232(%rbx)
	.loc 23 627 3 is_stmt 1 view .LVU2513
.LVL885:
.LBB2068:
.LBI2068:
	.loc 26 54 8 view .LVU2514
.LBB2069:
	.loc 26 56 5 view .LVU2515
	movq	16(%rsp), %rcx
	cmpb	$0, 48(%rcx)
	jne	.L529
.L518:
.LVL886:
	.loc 26 56 5 is_stmt 0 view .LVU2516
.LBE2069:
.LBE2068:
	.loc 23 629 3 is_stmt 1 view .LVU2517
	cmpb	$0, 200(%rbx)
	jne	.L520
	.loc 23 629 29 is_stmt 0 view .LVU2518
	movq	168(%rbx), %rdi
	.loc 23 629 26 view .LVU2519
	testq	%rdi, %rdi
	je	.L520
	.loc 23 631 5 is_stmt 1 view .LVU2520
	.loc 23 631 23 is_stmt 0 view .LVU2521
	movb	$1, 200(%rbx)
	.loc 23 632 5 is_stmt 1 view .LVU2522
.LVL887:
.LBB2075:
.LBI2075:
	.loc 12 568 6 view .LVU2523
.LBB2076:
	.loc 12 570 3 view .LVU2524
	.loc 12 571 3 view .LVU2525
	.loc 12 571 13 is_stmt 0 view .LVU2526
	movl	$-2147483639, 4(%rsp)
	.loc 12 572 3 is_stmt 1 view .LVU2527
	.loc 12 572 17 is_stmt 0 view .LVU2528
	leaq	104(%rdi), %rbp
	.loc 12 572 15 view .LVU2529
	movq	%rbp, 8(%rsp)
	.loc 12 573 3 is_stmt 1 view .LVU2530
.LVL888:
.LBB2077:
.LBI2077:
	.loc 27 48 7 view .LVU2531
.LBB2078:
	.loc 27 50 5 view .LVU2532
	.loc 27 50 12 is_stmt 0 view .LVU2533
	movl	104(%rdi), %edx
.LVL889:
	.loc 27 50 12 view .LVU2534
.LBE2078:
.LBE2077:
	.loc 12 573 12 view .LVU2535
	leaq	4(%rsp), %rcx
	movl	112(%rdi), %edi
.LVL890:
	.loc 12 573 12 view .LVU2536
	movl	$3, %esi
	call	epoll_ctl@PLT
.LVL891:
.L520:
	.loc 12 573 12 view .LVU2537
.LBE2076:
.LBE2075:
.LBE2067:
.LBE2066:
	.loc 23 142 5 is_stmt 1 view .LVU2538
.LBB2081:
.LBI2081:
	.loc 13 80 10 view .LVU2539
.LBB2082:
	.loc 13 82 7 view .LVU2540
	cmpb	$0, 24(%rsp)
	je	.L521
	.loc 13 84 9 view .LVU2541
	movq	16(%rsp), %rdi
.LVL892:
.LBB2083:
.LBI2083:
	.loc 13 132 8 view .LVU2542
.LBB2084:
	.loc 13 134 5 view .LVU2543
	cmpb	$0, 48(%rdi)
	jne	.L530
.LVL893:
.L522:
	.loc 13 134 5 is_stmt 0 view .LVU2544
.LBE2084:
.LBE2083:
	.loc 13 85 9 is_stmt 1 view .LVU2545
	.loc 13 85 17 is_stmt 0 view .LVU2546
	movb	$0, 24(%rsp)
.L521:
.LVL894:
	.loc 13 85 17 view .LVU2547
.LBE2082:
.LBE2081:
	.loc 23 143 5 is_stmt 1 view .LVU2548
	movq	240(%rbx), %rbp
.LVL895:
.LBB2090:
.LBI2090:
	.loc 1 38 6 view .LVU2549
.LBB2091:
	.loc 1 40 3 view .LVU2550
	cmpb	$0, 8(%rbp)
	je	.L531
.L523:
.LVL896:
	.loc 1 40 3 is_stmt 0 view .LVU2551
.LBE2091:
.LBE2090:
	.loc 23 144 5 is_stmt 1 view .LVU2552
	.loc 23 144 12 is_stmt 0 view .LVU2553
	movq	240(%rbx), %rbp
	.loc 23 144 19 view .LVU2554
	testq	%rbp, %rbp
	je	.L524
.LVL897:
.LBB2093:
.LBI2093:
	.loc 1 32 1 is_stmt 1 view .LVU2555
.LBB2094:
	.loc 1 34 3 view .LVU2556
	cmpb	$0, 8(%rbp)
	je	.L532
.L525:
.LVL898:
.LBB2095:
.LBI2095:
	.loc 14 30 3 view .LVU2557
	.loc 14 30 3 is_stmt 0 view .LVU2558
.LBE2095:
.LBE2094:
.LBE2093:
	.loc 23 144 12 view .LVU2559
	movl	$16, %esi
	movq	%rbp, %rdi
	call	_ZdlPvm@PLT
.LVL899:
.L524:
.LBB2097:
.LBI2097:
	.loc 13 63 5 is_stmt 1 view .LVU2560
.LBB2098:
	.loc 13 65 7 view .LVU2561
	cmpb	$0, 24(%rsp)
	jne	.L533
.LVL900:
.L515:
	.loc 13 65 7 is_stmt 0 view .LVU2562
.LBE2098:
.LBE2097:
.LBE2057:
.LBE2056:
	.loc 23 135 23 view .LVU2563
	leaq	216(%rbx), %rdi
	call	_ZN5boost4asio6detail8op_queueINS1_19scheduler_operationEED1Ev
.LVL901:
.LBB2110:
.LBI2110:
	.loc 31 197 10 is_stmt 1 view .LVU2564
.LBB2111:
.LBI2111:
	.loc 19 61 3 view .LVU2565
	.loc 19 61 3 is_stmt 0 view .LVU2566
.LBE2111:
.LBE2110:
.LBB2112:
.LBI2112:
	.loc 26 42 3 is_stmt 1 view .LVU2567
.LBB2113:
.LBI2113:
	.loc 28 41 3 view .LVU2568
.LBB2114:
	.loc 28 43 5 view .LVU2569
	.loc 28 43 27 is_stmt 0 view .LVU2570
	leaq	112(%rbx), %rdi
	call	pthread_cond_destroy@PLT
.LVL902:
.LBB2115:
.LBI2115:
	.loc 14 30 3 is_stmt 1 view .LVU2571
	.loc 14 30 3 is_stmt 0 view .LVU2572
.LBE2115:
.LBE2114:
.LBE2113:
.LBB2116:
.LBI2116:
	.loc 14 30 3 is_stmt 1 view .LVU2573
	.loc 14 30 3 is_stmt 0 view .LVU2574
.LBE2116:
.LBE2112:
.LBB2117:
.LBI2117:
	.loc 13 114 3 is_stmt 1 view .LVU2575
.LBB2118:
.LBI2118:
	.loc 16 44 3 view .LVU2576
.LBB2119:
	.loc 16 46 5 view .LVU2577
	.loc 16 46 28 is_stmt 0 view .LVU2578
	leaq	56(%rbx), %rdi
	call	pthread_mutex_destroy@PLT
.LVL903:
.LBB2120:
.LBI2120:
	.loc 14 30 3 is_stmt 1 view .LVU2579
	.loc 14 30 3 is_stmt 0 view .LVU2580
.LBE2120:
.LBE2119:
.LBE2118:
.LBB2121:
.LBI2121:
	.loc 14 30 3 is_stmt 1 view .LVU2581
	.loc 14 30 3 is_stmt 0 view .LVU2582
.LBE2121:
.LBE2117:
.LBB2122:
.LBI2122:
	.loc 46 387 7 is_stmt 1 view .LVU2583
.LBB2123:
.LBI2123:
	.loc 3 61 1 view .LVU2584
.LBB2124:
.LBI2124:
	.loc 14 30 3 view .LVU2585
	.loc 14 30 3 is_stmt 0 view .LVU2586
.LBE2124:
.LBE2123:
.LBE2122:
.LBE2126:
	.loc 23 146 1 view .LVU2587
	addq	$40, %rsp
	.cfi_remember_state
	.cfi_def_cfa_offset 24
	popq	%rbx
	.cfi_def_cfa_offset 16
.LVL904:
	.loc 23 146 1 view .LVU2588
	popq	%rbp
	.cfi_def_cfa_offset 8
	ret
.LVL905:
.L528:
	.cfi_restore_state
.LBB2127:
.LBB2125:
.LBB2109:
.LBB2103:
.LBB2065:
.LBB2064:
	.loc 13 55 9 is_stmt 1 view .LVU2589
.LBB2062:
.LBI2062:
	.loc 16 50 8 view .LVU2590
.LBB2063:
	.loc 16 52 5 view .LVU2591
	.loc 16 52 31 is_stmt 0 view .LVU2592
	leaq	56(%rdi), %rdi
	call	pthread_mutex_lock@PLT
.LVL906:
	.loc 16 52 31 view .LVU2593
.LBE2063:
.LBE2062:
	.loc 13 56 9 is_stmt 1 view .LVU2594
	.loc 13 56 17 is_stmt 0 view .LVU2595
	movb	$1, 24(%rsp)
	jmp	.L517
.LVL907:
.L529:
	.loc 13 56 17 view .LVU2596
.LBE2064:
.LBE2065:
.LBE2103:
.LBB2104:
.LBB2080:
.LBB2079:
.LBB2074:
	.loc 26 57 7 is_stmt 1 view .LVU2597
	.loc 26 57 24 is_stmt 0 view .LVU2598
	leaq	112(%rbx), %rdi
.LVL908:
.LBB2070:
.LBI2070:
	.loc 28 55 8 is_stmt 1 view .LVU2599
.LBB2071:
.LBB2072:
.LBI2072:
	.loc 13 90 10 view .LVU2600
.LBB2073:
	.loc 13 92 7 view .LVU2601
	.loc 13 92 7 is_stmt 0 view .LVU2602
.LBE2073:
.LBE2072:
	.loc 28 57 41 view .LVU2603
	cmpb	$0, 24(%rsp)
	je	.L534
	.loc 28 59 12 view .LVU2604
	movq	48(%rdi), %rsi
	orq	$1, %rsi
	.loc 28 59 5 view .LVU2605
	movq	%rsi, 48(%rdi)
	.loc 28 60 29 view .LVU2606
	call	pthread_cond_broadcast@PLT
.LVL909:
	.loc 28 60 29 view .LVU2607
	jmp	.L518
.LVL910:
.L534:
	.loc 28 57 68 view .LVU2608
	leaq	.LC10(%rip), %rcx
	movl	$57, %edx
	leaq	.LC8(%rip), %rsi
	leaq	.LC9(%rip), %rdi
.LVL911:
	.loc 28 57 68 view .LVU2609
	call	__assert_fail@PLT
.LVL912:
.L530:
	.loc 28 57 68 view .LVU2610
.LBE2071:
.LBE2070:
.LBE2074:
.LBE2079:
.LBE2080:
.LBE2104:
.LBB2105:
.LBB2089:
.LBB2088:
.LBB2087:
	.loc 13 135 7 is_stmt 1 view .LVU2611
.LBB2085:
.LBI2085:
	.loc 16 56 8 view .LVU2612
.LBB2086:
	.loc 16 58 5 view .LVU2613
	.loc 16 58 33 is_stmt 0 view .LVU2614
	addq	$8, %rdi
.LVL913:
	.loc 16 58 33 view .LVU2615
	call	pthread_mutex_unlock@PLT
.LVL914:
	.loc 16 58 33 view .LVU2616
	jmp	.L522
.LVL915:
.L531:
	.loc 16 58 33 view .LVU2617
.LBE2086:
.LBE2085:
.LBE2087:
.LBE2088:
.LBE2089:
.LBE2105:
.LBB2106:
.LBB2092:
	.loc 1 42 5 is_stmt 1 view .LVU2618
	.loc 1 42 19 is_stmt 0 view .LVU2619
	movl	$0, %esi
	movq	0(%rbp), %rdi
	call	pthread_join@PLT
.LVL916:
	.loc 1 43 5 is_stmt 1 view .LVU2620
	.loc 1 43 13 is_stmt 0 view .LVU2621
	movb	$1, 8(%rbp)
	jmp	.L523
.LVL917:
.L532:
	.loc 1 43 13 view .LVU2622
.LBE2092:
.LBE2106:
.LBB2107:
.LBB2096:
	.loc 1 35 5 is_stmt 1 view .LVU2623
	.loc 1 35 21 is_stmt 0 view .LVU2624
	movq	0(%rbp), %rdi
	call	pthread_detach@PLT
.LVL918:
	jmp	.L525
.LVL919:
.L533:
	.loc 1 35 21 view .LVU2625
.LBE2096:
.LBE2107:
.LBB2108:
.LBB2102:
	.loc 13 66 9 is_stmt 1 view .LVU2626
.LBB2099:
.LBI2099:
	.loc 16 56 8 view .LVU2627
.LBB2100:
	.loc 16 58 5 view .LVU2628
	.loc 16 58 33 is_stmt 0 view .LVU2629
	movq	16(%rsp), %r8
	leaq	8(%r8), %rdi
.LVL920:
	.loc 16 58 33 view .LVU2630
	call	pthread_mutex_unlock@PLT
.LVL921:
	.loc 16 58 33 view .LVU2631
.LBE2100:
.LBE2099:
.LBB2101:
.LBI2101:
	.loc 14 30 3 is_stmt 1 view .LVU2632
	.loc 14 30 3 is_stmt 0 view .LVU2633
	jmp	.L515
.LBE2101:
.LBE2102:
.LBE2108:
.LBE2109:
.LBE2125:
.LBE2127:
	.cfi_endproc
.LFE52:
	.section	.gcc_except_table
.LLSDA52:
	.byte	0xff
	.byte	0xff
	.byte	0x1
	.uleb128 .LLSDACSE52-.LLSDACSB52
.LLSDACSB52:
.LLSDACSE52:
	.text
	.size	_ZN5boost4asio6detail9schedulerD2Ev, .-_ZN5boost4asio6detail9schedulerD2Ev
	.set	_ZN5boost4asio6detail9schedulerD1Ev,_ZN5boost4asio6detail9schedulerD2Ev
	.align 2
	.globl	_ZN5boost4asio6detail13epoll_reactor8shutdownEv
	.hidden	_ZN5boost4asio6detail13epoll_reactor8shutdownEv
	.type	_ZN5boost4asio6detail13epoll_reactor8shutdownEv, @function
_ZN5boost4asio6detail13epoll_reactor8shutdownEv:
.LVL922:
.LFB80:
	.loc 12 74 1 is_stmt 1 view -0
	.cfi_startproc
	.cfi_personality 0x9b,DW.ref.__gcc_personality_v0
	.cfi_lsda 0x1b,.LLSDA80
	.loc 12 74 1 is_stmt 0 view .LVU2635
	pushq	%r12
	.cfi_def_cfa_offset 16
	.cfi_offset 12, -16
	pushq	%rbp
	.cfi_def_cfa_offset 24
	.cfi_offset 6, -24
	pushq	%rbx
	.cfi_def_cfa_offset 32
	.cfi_offset 3, -32
	subq	$48, %rsp
	.cfi_def_cfa_offset 80
	movq	%rdi, %rbx
	.loc 12 75 3 is_stmt 1 view .LVU2636
	.loc 12 75 27 is_stmt 0 view .LVU2637
	leaq	48(%rdi), %rbp
.LVL923:
.LBB2128:
.LBI2128:
	.loc 13 50 14 is_stmt 1 view .LVU2638
.LBB2129:
.LBB2130:
.LBB2131:
.LBI2131:
	.loc 14 29 3 view .LVU2639
	.loc 14 29 3 is_stmt 0 view .LVU2640
.LBE2131:
	.loc 13 53 7 is_stmt 1 view .LVU2641
	cmpb	$0, 96(%rdi)
	jne	.L558
	.loc 13 59 9 view .LVU2642
	.loc 13 59 17 is_stmt 0 view .LVU2643
	movb	$0, 40(%rsp)
.LVL924:
.L537:
	.loc 13 59 17 view .LVU2644
.LBE2130:
.LBE2129:
.LBE2128:
	.loc 12 76 3 is_stmt 1 view .LVU2645
	.loc 12 76 13 is_stmt 0 view .LVU2646
	movb	$1, 128(%rbx)
	.loc 12 77 3 is_stmt 1 view .LVU2647
.LVL925:
.LBB2136:
.LBI2136:
	.loc 13 80 10 view .LVU2648
.LBB2137:
	.loc 13 82 7 view .LVU2649
	cmpb	$0, 40(%rsp)
	je	.L538
	.loc 13 84 9 view .LVU2650
.LVL926:
.LBB2138:
.LBI2138:
	.loc 13 132 8 view .LVU2651
.LBB2139:
	.loc 13 134 5 view .LVU2652
	cmpb	$0, 48(%rbp)
	jne	.L559
.L539:
.LVL927:
	.loc 13 134 5 is_stmt 0 view .LVU2653
.LBE2139:
.LBE2138:
	.loc 13 85 9 is_stmt 1 view .LVU2654
	.loc 13 85 17 is_stmt 0 view .LVU2655
	movb	$0, 40(%rsp)
.L538:
.LVL928:
	.loc 13 85 17 view .LVU2656
.LBE2137:
.LBE2136:
	.loc 12 79 3 is_stmt 1 view .LVU2657
.LBB2145:
.LBI2145:
	.loc 22 69 3 view .LVU2658
.LBB2146:
.LBB2147:
.LBB2148:
.LBI2148:
	.loc 14 29 3 view .LVU2659
	.loc 14 29 3 is_stmt 0 view .LVU2660
.LBE2148:
	.loc 22 71 14 view .LVU2661
	movq	$0, 16(%rsp)
	movq	$0, 24(%rsp)
	jmp	.L549
.LVL929:
.L558:
	.loc 22 71 14 view .LVU2662
.LBE2147:
.LBE2146:
.LBE2145:
.LBB2149:
.LBB2135:
.LBB2134:
	.loc 13 55 9 is_stmt 1 view .LVU2663
.LBB2132:
.LBI2132:
	.loc 16 50 8 view .LVU2664
.LBB2133:
	.loc 16 52 5 view .LVU2665
	.loc 16 52 31 is_stmt 0 view .LVU2666
	leaq	56(%rdi), %rdi
	call	pthread_mutex_lock@PLT
.LVL930:
	.loc 16 52 31 view .LVU2667
.LBE2133:
.LBE2132:
	.loc 13 56 9 is_stmt 1 view .LVU2668
	.loc 13 56 17 is_stmt 0 view .LVU2669
	movb	$1, 40(%rsp)
	jmp	.L537
.LVL931:
.L559:
	.loc 13 56 17 view .LVU2670
.LBE2134:
.LBE2135:
.LBE2149:
.LBB2150:
.LBB2144:
.LBB2143:
.LBB2142:
	.loc 13 135 7 is_stmt 1 view .LVU2671
.LBB2140:
.LBI2140:
	.loc 16 56 8 view .LVU2672
.LBB2141:
	.loc 16 58 5 view .LVU2673
	.loc 16 58 33 is_stmt 0 view .LVU2674
	leaq	8(%rbp), %rdi
.LVL932:
	.loc 16 58 33 view .LVU2675
	call	pthread_mutex_unlock@PLT
.LVL933:
	.loc 16 58 33 view .LVU2676
	jmp	.L539
.LVL934:
.L543:
	.loc 16 58 33 view .LVU2677
.LBE2141:
.LBE2140:
.LBE2142:
.LBE2143:
.LBE2144:
.LBE2150:
.LBB2151:
.LBB2152:
.LBB2153:
.LBB2154:
	.loc 22 129 9 view .LVU2678
	movq	%rsi, 16(%rsp)
.L544:
	.loc 22 130 7 view .LVU2679
	movq	8(%rax), %r8
	movq	%r8, 24(%rsp)
	.loc 22 131 7 view .LVU2680
	movq	$0, (%rax)
	.loc 22 132 7 view .LVU2681
	movq	$0, 8(%rax)
.L542:
.LVL935:
	.loc 22 132 7 view .LVU2682
.LBE2154:
.LBE2153:
	.loc 12 83 5 is_stmt 1 view .LVU2683
	addl	$1, %edx
.LVL936:
.L545:
	.loc 12 83 23 discriminator 1 view .LVU2684
	cmpl	$2, %edx
	jg	.L541
	.loc 12 84 7 view .LVU2685
	.loc 12 84 34 is_stmt 0 view .LVU2686
	movslq	%edx, %rax
	addq	$7, %rax
	salq	$4, %rax
	addq	%rcx, %rax
.LVL937:
.LBB2158:
.LBI2153:
	.loc 22 122 8 is_stmt 1 view .LVU2687
.LBB2157:
	.loc 22 124 20 is_stmt 0 view .LVU2688
	movq	(%rax), %rsi
.LVL938:
	.loc 22 124 5 view .LVU2689
	testq	%rsi, %rsi
	je	.L542
	.loc 22 126 11 view .LVU2690
	movq	24(%rsp), %rdi
	.loc 22 126 7 view .LVU2691
	testq	%rdi, %rdi
	je	.L543
.LVL939:
.LBB2155:
.LBI2155:
	.loc 22 39 15 is_stmt 1 view .LVU2692
.LBB2156:
	.loc 22 41 5 is_stmt 0 view .LVU2693
	movq	%rsi, (%rdi)
	jmp	.L544
.LVL940:
.L541:
	.loc 22 41 5 view .LVU2694
.LBE2156:
.LBE2155:
.LBE2157:
.LBE2158:
.LBE2152:
	.loc 12 85 5 is_stmt 1 view .LVU2695
	.loc 12 85 22 is_stmt 0 view .LVU2696
	movb	$1, 163(%rcx)
	.loc 12 86 5 is_stmt 1 view .LVU2697
.LVL941:
.LBB2159:
.LBI2159:
	.loc 15 126 8 view .LVU2698
.LBB2160:
	.loc 15 128 5 is_stmt 0 view .LVU2699
	cmpq	192(%rbx), %rcx
	je	.L560
.L546:
	.loc 15 131 5 view .LVU2700
	movq	32(%rcx), %r10
	testq	%r10, %r10
	je	.L547
	.loc 15 133 7 view .LVU2701
	movq	24(%rcx), %r11
	movq	%r11, 24(%r10)
.L547:
	.loc 15 137 5 view .LVU2702
	movq	24(%rcx), %r12
	testq	%r12, %r12
	je	.L548
	.loc 15 139 7 view .LVU2703
	movq	32(%rcx), %rdx
.LVL942:
	.loc 15 139 7 view .LVU2704
	movq	%rdx, 32(%r12)
.L548:
	.loc 15 143 35 view .LVU2705
	movq	200(%rbx), %rax
	.loc 15 143 5 view .LVU2706
	movq	%rax, 24(%rcx)
	.loc 15 144 5 view .LVU2707
	movq	$0, 32(%rcx)
	.loc 15 145 5 view .LVU2708
	movq	%rcx, 200(%rbx)
.LVL943:
.L549:
	.loc 15 145 5 view .LVU2709
.LBE2160:
.LBE2159:
.LBE2151:
	.loc 12 81 3 is_stmt 1 view .LVU2710
.LBB2165:
.LBB2162:
.LBI2162:
	.loc 15 83 11 view .LVU2711
.LBB2163:
	.loc 15 85 12 is_stmt 0 view .LVU2712
	movq	192(%rbx), %rcx
.LVL944:
	.loc 15 85 12 view .LVU2713
.LBE2163:
.LBE2162:
	.loc 12 81 66 view .LVU2714
	testq	%rcx, %rcx
	je	.L540
.LBE2165:
	.loc 12 83 14 view .LVU2715
	movl	$0, %edx
	jmp	.L545
.LVL945:
.L560:
.LBB2166:
.LBB2164:
.LBB2161:
	.loc 15 129 7 view .LVU2716
	movq	24(%rcx), %r9
	movq	%r9, 192(%rbx)
	jmp	.L546
.LVL946:
.L540:
	.loc 15 129 7 view .LVU2717
.LBE2161:
.LBE2164:
.LBE2166:
	.loc 12 89 3 is_stmt 1 view .LVU2718
.LBB2167:
.LBI2167:
	.loc 34 91 6 view .LVU2719
.LBE2167:
	.loc 34 93 3 view .LVU2720
.LBB2169:
.LBB2168:
	.loc 34 93 26 is_stmt 0 view .LVU2721
	movq	120(%rbx), %rbx
.LVL947:
	.loc 34 94 22 view .LVU2722
	leaq	16(%rsp), %r12
.LVL948:
	.loc 34 94 22 view .LVU2723
	jmp	.L551
.LVL949:
.L561:
	.loc 34 93 3 is_stmt 1 view .LVU2724
	.loc 34 93 43 is_stmt 0 view .LVU2725
	movq	8(%rbx), %rbx
.LVL950:
.L551:
	.loc 34 93 38 is_stmt 1 view .LVU2726
	testq	%rbx, %rbx
	je	.L550
	.loc 34 94 5 view .LVU2727
	.loc 34 94 26 is_stmt 0 view .LVU2728
	movq	(%rbx), %rcx
	.loc 34 94 22 view .LVU2729
	movq	%r12, %rsi
	movq	%rbx, %rdi
.LEHB20:
	call	*48(%rcx)
.LVL951:
.LEHE20:
	jmp	.L561
.L550:
.LVL952:
	.loc 34 94 22 view .LVU2730
.LBE2168:
.LBE2169:
	.loc 12 91 3 is_stmt 1 view .LVU2731
.LBB2170:
.LBI2170:
	.loc 23 430 6 view .LVU2732
.LBB2171:
	.loc 23 433 3 view .LVU2733
.LBB2172:
.LBI2172:
	.loc 22 69 3 view .LVU2734
.LBB2173:
.LBB2174:
.LBB2175:
.LBI2175:
	.loc 14 29 3 view .LVU2735
	.loc 14 29 3 is_stmt 0 view .LVU2736
.LBE2175:
	.loc 22 71 14 view .LVU2737
	movq	$0, (%rsp)
	movq	$0, 8(%rsp)
.LVL953:
	.loc 22 71 14 view .LVU2738
.LBE2174:
.LBE2173:
.LBE2172:
	.loc 23 434 3 is_stmt 1 view .LVU2739
.LBB2176:
.LBI2176:
	.loc 22 122 8 view .LVU2740
.LBB2177:
	.loc 22 124 20 is_stmt 0 view .LVU2741
	movq	16(%rsp), %rsi
.LVL954:
	.loc 22 124 5 view .LVU2742
	testq	%rsi, %rsi
	je	.L552
	.loc 22 129 9 view .LVU2743
	movq	%rsi, (%rsp)
	.loc 22 130 7 view .LVU2744
	movq	24(%rsp), %rdi
	movq	%rdi, 8(%rsp)
	.loc 22 131 7 view .LVU2745
	movq	$0, 16(%rsp)
	.loc 22 132 7 view .LVU2746
	movq	$0, 24(%rsp)
.L552:
.LVL955:
	.loc 22 132 7 view .LVU2747
.LBE2177:
.LBE2176:
	.loc 23 433 34 view .LVU2748
	movq	%rsp, %rdi
	call	_ZN5boost4asio6detail8op_queueINS1_19scheduler_operationEED1Ev
.LVL956:
	.loc 23 433 34 view .LVU2749
.LBE2171:
.LBE2170:
	.loc 12 79 23 view .LVU2750
	leaq	16(%rsp), %rdi
	call	_ZN5boost4asio6detail8op_queueINS1_19scheduler_operationEED1Ev
.LVL957:
.LBB2178:
.LBI2178:
	.loc 13 63 5 is_stmt 1 view .LVU2751
.LBB2179:
	.loc 13 65 7 view .LVU2752
	cmpb	$0, 40(%rsp)
	jne	.L562
.LVL958:
.L535:
	.loc 13 65 7 is_stmt 0 view .LVU2753
.LBE2179:
.LBE2178:
	.loc 12 92 1 view .LVU2754
	addq	$48, %rsp
	.cfi_remember_state
	.cfi_def_cfa_offset 32
	popq	%rbx
	.cfi_def_cfa_offset 24
	popq	%rbp
	.cfi_def_cfa_offset 16
.LVL959:
	.loc 12 92 1 view .LVU2755
	popq	%r12
	.cfi_def_cfa_offset 8
	ret
.LVL960:
.L562:
	.cfi_restore_state
.LBB2184:
.LBB2183:
	.loc 13 66 9 is_stmt 1 view .LVU2756
.LBB2180:
.LBI2180:
	.loc 16 56 8 view .LVU2757
.LBB2181:
	.loc 16 58 5 view .LVU2758
	.loc 16 58 33 is_stmt 0 view .LVU2759
	leaq	8(%rbp), %rdi
.LVL961:
	.loc 16 58 33 view .LVU2760
	call	pthread_mutex_unlock@PLT
.LVL962:
	.loc 16 58 33 view .LVU2761
.LBE2181:
.LBE2180:
.LBB2182:
.LBI2182:
	.loc 14 30 3 is_stmt 1 view .LVU2762
	.loc 14 30 3 is_stmt 0 view .LVU2763
	jmp	.L535
.LVL963:
.L556:
	.loc 14 30 3 view .LVU2764
	movq	%rax, %rbx
.LVL964:
	.loc 14 30 3 view .LVU2765
.LBE2182:
.LBE2183:
.LBE2184:
	.loc 12 79 23 view .LVU2766
	leaq	16(%rsp), %rdi
	call	_ZN5boost4asio6detail8op_queueINS1_19scheduler_operationEED1Ev
.LVL965:
.LBB2185:
.LBI2185:
	.loc 13 63 5 is_stmt 1 view .LVU2767
.LBB2186:
	.loc 13 65 7 view .LVU2768
	cmpb	$0, 40(%rsp)
	je	.L555
	.loc 13 66 9 view .LVU2769
.LVL966:
.LBB2187:
.LBI2187:
	.loc 16 56 8 view .LVU2770
.LBB2188:
	.loc 16 58 5 view .LVU2771
	.loc 16 58 33 is_stmt 0 view .LVU2772
	leaq	8(%rbp), %rdi
.LVL967:
	.loc 16 58 33 view .LVU2773
	call	pthread_mutex_unlock@PLT
.LVL968:
.L555:
	.loc 16 58 33 view .LVU2774
.LBE2188:
.LBE2187:
.LBB2189:
.LBI2189:
	.loc 14 30 3 is_stmt 1 view .LVU2775
	.loc 14 30 3 is_stmt 0 view .LVU2776
	movq	%rbx, %rdi
.LEHB21:
	call	_Unwind_Resume@PLT
.LVL969:
.LEHE21:
.LBE2189:
.LBE2186:
.LBE2185:
	.cfi_endproc
.LFE80:
	.section	.gcc_except_table
.LLSDA80:
	.byte	0xff
	.byte	0xff
	.byte	0x1
	.uleb128 .LLSDACSE80-.LLSDACSB80
.LLSDACSB80:
	.uleb128 .LEHB20-.LFB80
	.uleb128 .LEHE20-.LEHB20
	.uleb128 .L556-.LFB80
	.uleb128 0
	.uleb128 .LEHB21-.LFB80
	.uleb128 .LEHE21-.LEHB21
	.uleb128 0
	.uleb128 0
.LLSDACSE80:
	.text
	.size	_ZN5boost4asio6detail13epoll_reactor8shutdownEv, .-_ZN5boost4asio6detail13epoll_reactor8shutdownEv
	.align 2
	.globl	_ZN5boost4asio6detail9scheduler26wake_one_thread_and_unlockERNS1_27conditionally_enabled_mutex11scoped_lockE
	.hidden	_ZN5boost4asio6detail9scheduler26wake_one_thread_and_unlockERNS1_27conditionally_enabled_mutex11scoped_lockE
	.type	_ZN5boost4asio6detail9scheduler26wake_one_thread_and_unlockERNS1_27conditionally_enabled_mutex11scoped_lockE, @function
_ZN5boost4asio6detail9scheduler26wake_one_thread_and_unlockERNS1_27conditionally_enabled_mutex11scoped_lockE:
.LVL970:
.LFB31:
	.loc 23 638 1 is_stmt 1 view -0
	.cfi_startproc
	.loc 23 638 1 is_stmt 0 view .LVU2778
	pushq	%r13
	.cfi_def_cfa_offset 16
	.cfi_offset 13, -16
	pushq	%r12
	.cfi_def_cfa_offset 24
	.cfi_offset 12, -24
	pushq	%rbp
	.cfi_def_cfa_offset 32
	.cfi_offset 6, -32
	pushq	%rbx
	.cfi_def_cfa_offset 40
	.cfi_offset 3, -40
	subq	$24, %rsp
	.cfi_def_cfa_offset 64
	movq	%rdi, %rbp
	movq	%rsi, %rbx
	.loc 23 639 3 is_stmt 1 view .LVU2779
.LVL971:
.LBB2212:
.LBI2212:
	.loc 26 77 8 view .LVU2780
.LBB2213:
	.loc 26 80 5 view .LVU2781
	.loc 26 80 14 is_stmt 0 view .LVU2782
	movq	(%rsi), %rax
	.loc 26 80 5 view .LVU2783
	cmpb	$0, 48(%rax)
	jne	.L574
.LVL972:
.L564:
	.loc 26 80 5 view .LVU2784
.LBE2213:
.LBE2212:
	.loc 23 641 5 is_stmt 1 view .LVU2785
	cmpb	$0, 200(%rbp)
	jne	.L570
	.loc 23 641 31 is_stmt 0 discriminator 1 view .LVU2786
	movq	168(%rbp), %rsi
	.loc 23 641 28 discriminator 1 view .LVU2787
	testq	%rsi, %rsi
	je	.L570
	.loc 23 643 7 is_stmt 1 view .LVU2788
	.loc 23 643 25 is_stmt 0 view .LVU2789
	movb	$1, 200(%rbp)
	.loc 23 644 7 is_stmt 1 view .LVU2790
.LVL973:
.LBB2232:
.LBI2232:
	.loc 12 568 6 view .LVU2791
.LBB2233:
	.loc 12 570 3 view .LVU2792
	.loc 12 571 3 view .LVU2793
	.loc 12 571 13 is_stmt 0 view .LVU2794
	movl	$-2147483639, 4(%rsp)
	.loc 12 572 3 is_stmt 1 view .LVU2795
	.loc 12 572 17 is_stmt 0 view .LVU2796
	leaq	104(%rsi), %rcx
	.loc 12 572 15 view .LVU2797
	movq	%rcx, 8(%rsp)
	.loc 12 573 3 is_stmt 1 view .LVU2798
.LVL974:
.LBB2234:
.LBI2234:
	.loc 27 48 7 view .LVU2799
.LBB2235:
	.loc 27 50 5 view .LVU2800
	.loc 27 50 12 is_stmt 0 view .LVU2801
	movl	104(%rsi), %edx
.LVL975:
	.loc 27 50 12 view .LVU2802
.LBE2235:
.LBE2234:
	.loc 12 573 12 view .LVU2803
	leaq	4(%rsp), %rcx
	movl	112(%rsi), %edi
	movl	$3, %esi
.LVL976:
	.loc 12 573 12 view .LVU2804
	call	epoll_ctl@PLT
.LVL977:
.L570:
	.loc 12 573 12 view .LVU2805
.LBE2233:
.LBE2232:
	.loc 23 646 5 is_stmt 1 view .LVU2806
.LBB2236:
.LBI2236:
	.loc 13 80 10 view .LVU2807
.LBB2237:
	.loc 13 82 7 view .LVU2808
	cmpb	$0, 8(%rbx)
	je	.L563
	.loc 13 84 9 view .LVU2809
	movq	(%rbx), %rdi
.LVL978:
.LBB2238:
.LBI2238:
	.loc 13 132 8 view .LVU2810
.LBB2239:
	.loc 13 134 5 view .LVU2811
	cmpb	$0, 48(%rdi)
	jne	.L575
.LVL979:
.L571:
	.loc 13 134 5 is_stmt 0 view .LVU2812
.LBE2239:
.LBE2238:
	.loc 13 85 9 is_stmt 1 view .LVU2813
	.loc 13 85 17 is_stmt 0 view .LVU2814
	movb	$0, 8(%rbx)
.LVL980:
.L563:
	.loc 13 85 17 view .LVU2815
.LBE2237:
.LBE2236:
	.loc 23 648 1 view .LVU2816
	addq	$24, %rsp
	.cfi_remember_state
	.cfi_def_cfa_offset 40
	popq	%rbx
	.cfi_def_cfa_offset 32
.LVL981:
	.loc 23 648 1 view .LVU2817
	popq	%rbp
	.cfi_def_cfa_offset 24
.LVL982:
	.loc 23 648 1 view .LVU2818
	popq	%r12
	.cfi_def_cfa_offset 16
	popq	%r13
	.cfi_def_cfa_offset 8
	ret
.LVL983:
.L574:
	.cfi_restore_state
.LBB2245:
.LBB2230:
	.loc 26 81 7 is_stmt 1 view .LVU2819
	.loc 26 81 48 is_stmt 0 view .LVU2820
	leaq	112(%rdi), %r13
.LVL984:
.LBB2214:
.LBI2214:
	.loc 28 89 8 is_stmt 1 view .LVU2821
.LBB2215:
.LBB2216:
.LBI2216:
	.loc 13 90 10 view .LVU2822
.LBB2217:
	.loc 13 92 7 view .LVU2823
	.loc 13 92 14 is_stmt 0 view .LVU2824
	movzbl	8(%rsi), %r12d
.LVL985:
	.loc 13 92 14 view .LVU2825
.LBE2217:
.LBE2216:
	.loc 28 91 41 view .LVU2826
	testb	%r12b, %r12b
	je	.L576
	.loc 28 92 12 view .LVU2827
	movq	48(%r13), %rdx
	orq	$1, %rdx
	.loc 28 92 5 view .LVU2828
	movq	%rdx, 48(%r13)
	.loc 28 93 5 view .LVU2829
	cmpq	$1, %rdx
	ja	.L577
.LBE2215:
	.loc 28 99 12 view .LVU2830
	movl	$0, %r12d
.LVL986:
.L566:
	.loc 28 99 12 view .LVU2831
.LBE2214:
.LBE2230:
.LBE2245:
	.loc 23 639 3 view .LVU2832
	testb	%r12b, %r12b
	jne	.L563
	jmp	.L564
.LVL987:
.L576:
.LBB2246:
.LBB2231:
.LBB2229:
.LBB2228:
	.loc 28 91 68 view .LVU2833
	leaq	.LC7(%rip), %rcx
	movl	$91, %edx
	leaq	.LC8(%rip), %rsi
	leaq	.LC9(%rip), %rdi
.LVL988:
	.loc 28 91 68 view .LVU2834
	call	__assert_fail@PLT
.LVL989:
.L577:
.LBB2218:
.LBI2218:
	.loc 13 80 10 is_stmt 1 view .LVU2835
.LBB2219:
	.loc 13 82 7 view .LVU2836
	cmpb	$0, 8(%rsi)
	je	.L567
	.loc 13 84 9 view .LVU2837
	movq	(%rsi), %rdi
.LVL990:
.LBB2220:
.LBI2220:
	.loc 13 132 8 view .LVU2838
.LBB2221:
	.loc 13 134 5 view .LVU2839
	cmpb	$0, 48(%rdi)
	jne	.L578
.LVL991:
.L568:
	.loc 13 134 5 is_stmt 0 view .LVU2840
.LBE2221:
.LBE2220:
	.loc 13 85 9 is_stmt 1 view .LVU2841
	.loc 13 85 17 is_stmt 0 view .LVU2842
	movb	$0, 8(%rbx)
.L567:
.LVL992:
	.loc 13 85 17 view .LVU2843
.LBE2219:
.LBE2218:
	.loc 28 96 28 view .LVU2844
	movq	%r13, %rdi
	call	pthread_cond_signal@PLT
.LVL993:
	jmp	.L566
.LVL994:
.L578:
.LBB2227:
.LBB2226:
.LBB2225:
.LBB2224:
	.loc 13 135 7 is_stmt 1 view .LVU2845
.LBB2222:
.LBI2222:
	.loc 16 56 8 view .LVU2846
.LBB2223:
	.loc 16 58 5 view .LVU2847
	.loc 16 58 33 is_stmt 0 view .LVU2848
	addq	$8, %rdi
.LVL995:
	.loc 16 58 33 view .LVU2849
	call	pthread_mutex_unlock@PLT
.LVL996:
	.loc 16 58 33 view .LVU2850
	jmp	.L568
.LVL997:
.L575:
	.loc 16 58 33 view .LVU2851
.LBE2223:
.LBE2222:
.LBE2224:
.LBE2225:
.LBE2226:
.LBE2227:
.LBE2228:
.LBE2229:
.LBE2231:
.LBE2246:
.LBB2247:
.LBB2244:
.LBB2243:
.LBB2242:
	.loc 13 135 7 is_stmt 1 view .LVU2852
.LBB2240:
.LBI2240:
	.loc 16 56 8 view .LVU2853
.LBB2241:
	.loc 16 58 5 view .LVU2854
	.loc 16 58 33 is_stmt 0 view .LVU2855
	addq	$8, %rdi
.LVL998:
	.loc 16 58 33 view .LVU2856
	call	pthread_mutex_unlock@PLT
.LVL999:
	.loc 16 58 33 view .LVU2857
	jmp	.L571
.LBE2241:
.LBE2240:
.LBE2242:
.LBE2243:
.LBE2244:
.LBE2247:
	.cfi_endproc
.LFE31:
	.size	_ZN5boost4asio6detail9scheduler26wake_one_thread_and_unlockERNS1_27conditionally_enabled_mutex11scoped_lockE, .-_ZN5boost4asio6detail9scheduler26wake_one_thread_and_unlockERNS1_27conditionally_enabled_mutex11scoped_lockE
	.align 2
	.globl	_ZN5boost4asio6detail9scheduler25post_deferred_completionsERNS1_8op_queueINS1_19scheduler_operationEEE
	.hidden	_ZN5boost4asio6detail9scheduler25post_deferred_completionsERNS1_8op_queueINS1_19scheduler_operationEEE
	.type	_ZN5boost4asio6detail9scheduler25post_deferred_completionsERNS1_8op_queueINS1_19scheduler_operationEEE, @function
_ZN5boost4asio6detail9scheduler25post_deferred_completionsERNS1_8op_queueINS1_19scheduler_operationEEE:
.LVL1000:
.LFB30:
	.loc 23 401 1 is_stmt 1 view -0
	.cfi_startproc
	.loc 23 401 1 is_stmt 0 view .LVU2859
	pushq	%r12
	.cfi_def_cfa_offset 16
	.cfi_offset 12, -16
	pushq	%rbp
	.cfi_def_cfa_offset 24
	.cfi_offset 6, -24
	pushq	%rbx
	.cfi_def_cfa_offset 32
	.cfi_offset 3, -32
	subq	$16, %rsp
	.cfi_def_cfa_offset 48
	.loc 23 402 3 is_stmt 1 view .LVU2860
.LVL1001:
.LBB2248:
.LBB2249:
.LBI2249:
	.loc 22 137 8 view .LVU2861
.LBB2250:
	.loc 22 139 12 is_stmt 0 view .LVU2862
	movq	(%rsi), %r12
.LVL1002:
	.loc 22 139 12 view .LVU2863
.LBE2250:
.LBE2249:
	.loc 23 402 3 view .LVU2864
	testq	%r12, %r12
	je	.L579
	movq	%rdi, %rbx
	movq	%rsi, %rbp
.LBB2251:
	.loc 23 405 5 is_stmt 1 view .LVU2865
.LBB2252:
	cmpb	$0, 40(%rdi)
	je	.L581
.LBE2252:
.LBE2251:
.LBE2248:
	.loc 23 407 7 view .LVU2866
.LVL1003:
.LBB2289:
.LBB2287:
.LBB2264:
.LBB2253:
.LBB2254:
.LBI2254:
	.loc 24 93 17 view .LVU2867
.LBB2255:
.LBB2256:
.LBI2256:
	.loc 25 46 3 view .LVU2868
.LBB2257:
	.loc 25 48 12 is_stmt 0 view .LVU2869
	data16	leaq	_ZN5boost4asio6detail15keyword_tss_ptrINS1_10call_stackINS1_14thread_contextENS1_16thread_info_baseEE7contextEE6value_E@tlsgd(%rip), %rdi
	.value	0x6666
	rex64
	call	__tls_get_addr@PLT
.LVL1004:
	.loc 25 48 12 view .LVU2870
	movq	(%rax), %rax
.LVL1005:
	.loc 25 48 12 view .LVU2871
	jmp	.L584
.L583:
	.loc 25 48 12 view .LVU2872
.LBE2257:
.LBE2256:
	.loc 24 100 7 view .LVU2873
	movq	16(%rax), %rax
.LVL1006:
.L584:
	.loc 24 96 5 is_stmt 1 view .LVU2874
	testq	%rax, %rax
	je	.L582
	.loc 24 98 7 is_stmt 0 view .LVU2875
	cmpq	(%rax), %rbx
	jne	.L583
	.loc 24 99 22 view .LVU2876
	movq	8(%rax), %rax
.LVL1007:
.L582:
	.loc 24 99 22 view .LVU2877
.LBE2255:
.LBE2254:
	.loc 23 407 7 view .LVU2878
	testq	%rax, %rax
	je	.L581
	.loc 23 409 9 is_stmt 1 view .LVU2879
.LVL1008:
.LBB2258:
.LBI2258:
	.loc 22 122 8 view .LVU2880
.LBB2259:
	.loc 22 126 11 is_stmt 0 view .LVU2881
	movq	48(%rax), %r9
	.loc 22 126 7 view .LVU2882
	testq	%r9, %r9
	je	.L585
.LVL1009:
.LBB2260:
.LBI2260:
	.loc 22 39 15 is_stmt 1 view .LVU2883
.LBB2261:
	.loc 22 41 5 is_stmt 0 view .LVU2884
	movq	%r12, (%r9)
.LVL1010:
.L586:
	.loc 22 41 5 view .LVU2885
.LBE2261:
.LBE2260:
	.loc 22 130 7 view .LVU2886
	movq	8(%rbp), %r10
	movq	%r10, 48(%rax)
	.loc 22 131 7 view .LVU2887
	movq	$0, 0(%rbp)
	.loc 22 132 7 view .LVU2888
	movq	$0, 8(%rbp)
.LVL1011:
	.loc 22 132 7 view .LVU2889
.LBE2259:
.LBE2258:
	.loc 23 410 9 is_stmt 1 view .LVU2890
	jmp	.L579
.LVL1012:
.L585:
.LBB2263:
.LBB2262:
	.loc 22 129 9 is_stmt 0 view .LVU2891
	movq	%r12, 40(%rax)
	jmp	.L586
.LVL1013:
.L581:
	.loc 22 129 9 view .LVU2892
.LBE2262:
.LBE2263:
.LBE2253:
.LBE2264:
	.loc 23 415 5 is_stmt 1 view .LVU2893
	.loc 23 415 29 is_stmt 0 view .LVU2894
	leaq	48(%rbx), %rdx
.LVL1014:
.LBB2265:
.LBI2265:
	.loc 13 50 14 is_stmt 1 view .LVU2895
.LBB2266:
.LBB2267:
.LBB2268:
.LBI2268:
	.loc 14 29 3 view .LVU2896
	.loc 14 29 3 is_stmt 0 view .LVU2897
.LBE2268:
	.loc 13 51 17 view .LVU2898
	movq	%rdx, (%rsp)
	.loc 13 53 7 is_stmt 1 view .LVU2899
	cmpb	$0, 96(%rbx)
	jne	.L594
	.loc 13 59 9 view .LVU2900
	.loc 13 59 17 is_stmt 0 view .LVU2901
	movb	$0, 8(%rsp)
.LVL1015:
.L588:
	.loc 13 59 17 view .LVU2902
.LBE2267:
.LBE2266:
.LBE2265:
	.loc 23 416 5 is_stmt 1 view .LVU2903
.LBB2273:
.LBI2273:
	.loc 22 122 8 view .LVU2904
.LBB2274:
	.loc 22 124 20 is_stmt 0 view .LVU2905
	movq	0(%rbp), %rcx
.LVL1016:
	.loc 22 124 5 view .LVU2906
	testq	%rcx, %rcx
	je	.L589
	.loc 22 126 11 view .LVU2907
	movq	224(%rbx), %rsi
	.loc 22 126 7 view .LVU2908
	testq	%rsi, %rsi
	je	.L590
.LVL1017:
.LBB2275:
.LBI2275:
	.loc 22 39 15 is_stmt 1 view .LVU2909
.LBB2276:
	.loc 22 41 5 is_stmt 0 view .LVU2910
	movq	%rcx, (%rsi)
.LVL1018:
.L591:
	.loc 22 41 5 view .LVU2911
.LBE2276:
.LBE2275:
	.loc 22 130 7 view .LVU2912
	movq	8(%rbp), %rdi
	movq	%rdi, 224(%rbx)
	.loc 22 131 7 view .LVU2913
	movq	$0, 0(%rbp)
	.loc 22 132 7 view .LVU2914
	movq	$0, 8(%rbp)
.L589:
.LVL1019:
	.loc 22 132 7 view .LVU2915
.LBE2274:
.LBE2273:
	.loc 23 417 5 is_stmt 1 view .LVU2916
	.loc 23 417 31 is_stmt 0 view .LVU2917
	movq	%rsp, %rsi
	movq	%rbx, %rdi
	call	_ZN5boost4asio6detail9scheduler26wake_one_thread_and_unlockERNS1_27conditionally_enabled_mutex11scoped_lockE
.LVL1020:
.LBB2278:
.LBI2278:
	.loc 13 63 5 is_stmt 1 view .LVU2918
.LBB2279:
	.loc 13 65 7 view .LVU2919
	cmpb	$0, 8(%rsp)
	jne	.L595
.LVL1021:
.L579:
	.loc 13 65 7 is_stmt 0 view .LVU2920
.LBE2279:
.LBE2278:
.LBE2287:
.LBE2289:
	.loc 23 419 1 view .LVU2921
	addq	$16, %rsp
	.cfi_remember_state
	.cfi_def_cfa_offset 32
	popq	%rbx
	.cfi_def_cfa_offset 24
	popq	%rbp
	.cfi_def_cfa_offset 16
	popq	%r12
	.cfi_def_cfa_offset 8
	ret
.LVL1022:
.L594:
	.cfi_restore_state
.LBB2290:
.LBB2288:
.LBB2284:
.LBB2272:
.LBB2271:
	.loc 13 55 9 is_stmt 1 view .LVU2922
.LBB2269:
.LBI2269:
	.loc 16 50 8 view .LVU2923
.LBB2270:
	.loc 16 52 5 view .LVU2924
	.loc 16 52 31 is_stmt 0 view .LVU2925
	leaq	56(%rbx), %rdi
	call	pthread_mutex_lock@PLT
.LVL1023:
	.loc 16 52 31 view .LVU2926
.LBE2270:
.LBE2269:
	.loc 13 56 9 is_stmt 1 view .LVU2927
	.loc 13 56 17 is_stmt 0 view .LVU2928
	movb	$1, 8(%rsp)
	jmp	.L588
.LVL1024:
.L590:
	.loc 13 56 17 view .LVU2929
.LBE2271:
.LBE2272:
.LBE2284:
.LBB2285:
.LBB2277:
	.loc 22 129 9 view .LVU2930
	movq	%rcx, 216(%rbx)
	jmp	.L591
.LVL1025:
.L595:
	.loc 22 129 9 view .LVU2931
.LBE2277:
.LBE2285:
.LBB2286:
.LBB2283:
	.loc 13 66 9 is_stmt 1 view .LVU2932
.LBB2280:
.LBI2280:
	.loc 16 56 8 view .LVU2933
.LBB2281:
	.loc 16 58 5 view .LVU2934
	.loc 16 58 33 is_stmt 0 view .LVU2935
	movq	(%rsp), %r8
	leaq	8(%r8), %rdi
.LVL1026:
	.loc 16 58 33 view .LVU2936
	call	pthread_mutex_unlock@PLT
.LVL1027:
	.loc 16 58 33 view .LVU2937
.LBE2281:
.LBE2280:
.LBB2282:
.LBI2282:
	.loc 14 30 3 is_stmt 1 view .LVU2938
	.loc 14 30 3 is_stmt 0 view .LVU2939
	jmp	.L579
.LBE2282:
.LBE2283:
.LBE2286:
.LBE2288:
.LBE2290:
	.cfi_endproc
.LFE30:
	.size	_ZN5boost4asio6detail9scheduler25post_deferred_completionsERNS1_8op_queueINS1_19scheduler_operationEEE, .-_ZN5boost4asio6detail9scheduler25post_deferred_completionsERNS1_8op_queueINS1_19scheduler_operationEEE
	.align 2
	.type	_ZN5boost4asio6detail13epoll_reactor32perform_io_cleanup_on_block_exitD2Ev, @function
_ZN5boost4asio6detail13epoll_reactor32perform_io_cleanup_on_block_exitD2Ev:
.LVL1028:
.LFB81:
	.loc 12 695 3 is_stmt 1 view -0
	.cfi_startproc
	.cfi_personality 0x9b,DW.ref.__gxx_personality_v0
	.cfi_lsda 0x1b,.LLSDA81
	.loc 12 695 3 is_stmt 0 view .LVU2941
	pushq	%rbp
	.cfi_def_cfa_offset 16
	.cfi_offset 6, -16
	pushq	%rbx
	.cfi_def_cfa_offset 24
	.cfi_offset 3, -24
	subq	$24, %rsp
	.cfi_def_cfa_offset 48
	movq	%rdi, %rbx
.LBB2328:
	.loc 12 697 5 is_stmt 1 view .LVU2942
	cmpq	$0, 24(%rdi)
	je	.L597
	.loc 12 700 7 view .LVU2943
.LVL1029:
.LBB2329:
.LBI2329:
	.loc 22 137 8 view .LVU2944
	.loc 22 137 8 is_stmt 0 view .LVU2945
.LBE2329:
	.loc 12 700 7 view .LVU2946
	cmpq	$0, 8(%rdi)
	je	.L598
	.loc 12 701 9 is_stmt 1 view .LVU2947
	movq	(%rdi), %rdi
.LVL1030:
	.loc 12 701 19 is_stmt 0 view .LVU2948
	movq	40(%rdi), %rdi
	.loc 12 701 56 view .LVU2949
	leaq	8(%rbx), %rsi
	.loc 12 701 55 view .LVU2950
	call	_ZN5boost4asio6detail9scheduler25post_deferred_completionsERNS1_8op_queueINS1_19scheduler_operationEEE
.LVL1031:
.L598:
	.loc 12 696 3 view .LVU2951
	addq	$8, %rbx
.LVL1032:
.LBB2330:
.LBI2330:
	.loc 22 76 3 is_stmt 1 view .LVU2952
.LBB2331:
.LBB2332:
.LBB2333:
.LBB2334:
	.loc 19 45 10 is_stmt 0 view .LVU2953
	movq	%rsp, %rbp
.L604:
.LBE2334:
.LBE2333:
.LBE2332:
	.loc 22 78 23 view .LVU2954
	movq	(%rbx), %rsi
.LVL1033:
	.loc 22 78 5 view .LVU2955
	testq	%rsi, %rsi
	je	.L596
.LVL1034:
.LBB2340:
.LBI2340:
	.loc 22 92 8 is_stmt 1 view .LVU2956
.LBB2341:
.LBB2342:
.LBI2342:
	.loc 22 33 21 view .LVU2957
.LBB2343:
	.loc 22 35 44 is_stmt 0 view .LVU2958
	movq	(%rsi), %r8
.LVL1035:
	.loc 22 35 44 view .LVU2959
.LBE2343:
.LBE2342:
	.loc 22 97 7 view .LVU2960
	movq	%r8, (%rbx)
	.loc 22 98 7 view .LVU2961
	testq	%r8, %r8
	jne	.L603
	.loc 22 99 9 view .LVU2962
	movq	$0, 8(%rbx)
.L603:
.LVL1036:
.LBB2344:
.LBI2344:
	.loc 22 39 15 is_stmt 1 view .LVU2963
.LBB2345:
	.loc 22 41 5 is_stmt 0 view .LVU2964
	movq	$0, (%rsi)
.LVL1037:
	.loc 22 41 5 view .LVU2965
.LBE2345:
.LBE2344:
.LBE2341:
.LBE2340:
.LBB2346:
.LBI2332:
	.loc 22 45 15 is_stmt 1 view .LVU2966
.LBB2339:
.LBI2333:
	.loc 19 43 8 view .LVU2967
.LBB2338:
	.loc 19 45 5 view .LVU2968
	movq	8(%rsi), %r9
.LVL1038:
.LBB2335:
.LBI2335:
	.loc 5 583 15 view .LVU2969
.LBB2336:
.LBB2337:
	.loc 5 584 63 is_stmt 0 view .LVU2970
	movl	$0, (%rsp)
	movb	$0, 4(%rsp)
	movq	_ZN5boost6system6detail10cat_holderIvE24system_category_instanceE@GOTPCREL(%rip), %r10
	movq	%r10, 8(%rsp)
.LVL1039:
	.loc 5 584 63 view .LVU2971
.LBE2337:
.LBE2336:
.LBE2335:
	.loc 19 45 10 view .LVU2972
	movl	$0, %ecx
	movq	%rbp, %rdx
	movl	$0, %edi
	call	*%r9
.LVL1040:
	.loc 19 45 10 view .LVU2973
	jmp	.L604
.LVL1041:
.L597:
	.loc 19 45 10 view .LVU2974
.LBE2338:
.LBE2339:
.LBE2346:
.LBE2331:
.LBE2330:
	.loc 12 712 7 is_stmt 1 view .LVU2975
	movq	(%rdi), %rax
	.loc 12 712 17 is_stmt 0 view .LVU2976
	movq	40(%rax), %rbp
.LVL1042:
.LBB2347:
.LBI2347:
	.loc 23 322 6 is_stmt 1 view .LVU2977
.LBB2348:
	.loc 23 324 3 view .LVU2978
.LBB2349:
.LBI2349:
	.loc 24 93 17 view .LVU2979
.LBB2350:
.LBB2351:
.LBI2351:
	.loc 25 46 3 view .LVU2980
.LBB2352:
	.loc 25 48 12 is_stmt 0 view .LVU2981
	data16	leaq	_ZN5boost4asio6detail15keyword_tss_ptrINS1_10call_stackINS1_14thread_contextENS1_16thread_info_baseEE7contextEE6value_E@tlsgd(%rip), %rdi
	.value	0x6666
	rex64
	call	__tls_get_addr@PLT
.LVL1043:
	movq	(%rax), %rsi
.LVL1044:
.L601:
	.loc 25 48 12 view .LVU2982
.LBE2352:
.LBE2351:
	.loc 24 96 5 is_stmt 1 view .LVU2983
	testq	%rsi, %rsi
	je	.L599
	.loc 24 98 7 is_stmt 0 view .LVU2984
	cmpq	(%rsi), %rbp
	jne	.L600
	.loc 24 99 22 view .LVU2985
	movq	8(%rsi), %rsi
.LVL1045:
.L599:
	.loc 24 99 22 view .LVU2986
.LBE2350:
.LBE2349:
	.loc 23 325 3 is_stmt 1 view .LVU2987
	movq	56(%rsi), %rcx
	leaq	1(%rcx), %rdx
	movq	%rdx, 56(%rsi)
	jmp	.L598
.LVL1046:
.L600:
.LBB2354:
.LBB2353:
	.loc 24 100 7 is_stmt 0 view .LVU2988
	movq	16(%rsi), %rsi
.LVL1047:
	.loc 24 100 7 view .LVU2989
	jmp	.L601
.LVL1048:
.L596:
	.loc 24 100 7 view .LVU2990
.LBE2353:
.LBE2354:
.LBE2348:
.LBE2347:
.LBE2328:
	.loc 12 714 3 view .LVU2991
	addq	$24, %rsp
	.cfi_def_cfa_offset 24
	popq	%rbx
	.cfi_def_cfa_offset 16
.LVL1049:
	.loc 12 714 3 view .LVU2992
	popq	%rbp
	.cfi_def_cfa_offset 8
	ret
	.cfi_endproc
.LFE81:
	.section	.gcc_except_table
.LLSDA81:
	.byte	0xff
	.byte	0xff
	.byte	0x1
	.uleb128 .LLSDACSE81-.LLSDACSB81
.LLSDACSB81:
.LLSDACSE81:
	.text
	.size	_ZN5boost4asio6detail13epoll_reactor32perform_io_cleanup_on_block_exitD2Ev, .-_ZN5boost4asio6detail13epoll_reactor32perform_io_cleanup_on_block_exitD2Ev
	.set	_ZN5boost4asio6detail13epoll_reactor32perform_io_cleanup_on_block_exitD1Ev,_ZN5boost4asio6detail13epoll_reactor32perform_io_cleanup_on_block_exitD2Ev
	.align 2
	.type	_ZN5boost4asio6detail13epoll_reactor16descriptor_state11do_completeEPvPNS1_19scheduler_operationERKNS_6system10error_codeEm, @function
_ZN5boost4asio6detail13epoll_reactor16descriptor_state11do_completeEPvPNS1_19scheduler_operationERKNS_6system10error_codeEm:
.LVL1050:
.LFB83:
	.loc 12 769 1 is_stmt 1 view -0
	.cfi_startproc
	.cfi_personality 0x9b,DW.ref.__gcc_personality_v0
	.cfi_lsda 0x1b,.LLSDA83
	.loc 12 769 1 is_stmt 0 view .LVU2994
	pushq	%r15
	.cfi_def_cfa_offset 16
	.cfi_offset 15, -16
	pushq	%r14
	.cfi_def_cfa_offset 24
	.cfi_offset 14, -24
	pushq	%r13
	.cfi_def_cfa_offset 32
	.cfi_offset 13, -32
	pushq	%r12
	.cfi_def_cfa_offset 40
	.cfi_offset 12, -40
	pushq	%rbp
	.cfi_def_cfa_offset 48
	.cfi_offset 6, -48
	pushq	%rbx
	.cfi_def_cfa_offset 56
	.cfi_offset 3, -56
	subq	$72, %rsp
	.cfi_def_cfa_offset 128
	movq	%rdx, 8(%rsp)
	.loc 12 770 3 is_stmt 1 view .LVU2995
.LBB2428:
	testq	%rdi, %rdi
	je	.L606
	movq	%rdi, %r14
	movq	%rsi, %r12
.LBB2429:
	.loc 12 772 5 view .LVU2996
.LVL1051:
	.loc 12 773 5 view .LVU2997
	.loc 12 773 14 is_stmt 0 view .LVU2998
	movl	%ecx, 16(%rsp)
.LVL1052:
	.loc 12 774 5 is_stmt 1 view .LVU2999
.LBB2430:
.LBB2431:
.LBI2431:
	.loc 12 727 12 view .LVU3000
.LBB2432:
	.loc 12 729 3 view .LVU3001
.LBB2433:
.LBI2433:
	.loc 13 125 8 view .LVU3002
.LBB2434:
	.loc 13 127 5 view .LVU3003
	cmpb	$0, 88(%rsi)
	jne	.L631
.LVL1053:
.L608:
	.loc 13 127 5 is_stmt 0 view .LVU3004
.LBE2434:
.LBE2433:
	.loc 12 730 3 is_stmt 1 view .LVU3005
	.loc 12 730 55 is_stmt 0 view .LVU3006
	movq	96(%r12), %rax
.LVL1054:
.LBB2438:
.LBI2438:
	.loc 12 690 12 is_stmt 1 view .LVU3007
.LBB2439:
.LBB2440:
	.loc 12 691 31 is_stmt 0 view .LVU3008
	movq	%rax, 32(%rsp)
.LVL1055:
.LBB2441:
.LBI2441:
	.loc 22 69 3 is_stmt 1 view .LVU3009
.LBB2442:
.LBB2443:
.LBB2444:
.LBI2444:
	.loc 14 29 3 view .LVU3010
	.loc 14 29 3 is_stmt 0 view .LVU3011
.LBE2444:
	.loc 22 71 14 view .LVU3012
	movq	$0, 40(%rsp)
	movq	$0, 48(%rsp)
.LVL1056:
	.loc 22 71 14 view .LVU3013
.LBE2443:
.LBE2442:
.LBE2441:
	.loc 12 691 31 view .LVU3014
	movq	$0, 56(%rsp)
.LVL1057:
	.loc 12 691 31 view .LVU3015
.LBE2440:
.LBE2439:
.LBE2438:
	.loc 12 731 3 is_stmt 1 view .LVU3016
	.loc 12 731 38 is_stmt 0 view .LVU3017
	leaq	40(%r12), %rdx
	movq	%rdx, 24(%rsp)
.LVL1058:
.LBB2445:
.LBI2445:
	.loc 13 43 5 is_stmt 1 view .LVU3018
.LBB2446:
.LBB2447:
.LBI2447:
	.loc 14 29 3 view .LVU3019
	.loc 14 29 3 is_stmt 0 view .LVU3020
.LBE2447:
	.loc 13 45 19 view .LVU3021
	movzbl	88(%r12), %ecx
	movb	%cl, 23(%rsp)
.LVL1059:
	.loc 13 45 19 view .LVU3022
.LBE2446:
.LBE2445:
	.loc 12 735 3 is_stmt 1 view .LVU3023
	.loc 12 736 3 view .LVU3024
	.loc 12 736 3 is_stmt 0 view .LVU3025
.LBE2432:
	.loc 12 736 12 view .LVU3026
	movl	$2, %r13d
.LBB2520:
.LBB2448:
.LBB2449:
	.loc 12 738 25 view .LVU3027
	leaq	_ZZN5boost4asio6detail13epoll_reactor16descriptor_state10perform_ioEjE4flag(%rip), %r15
	jmp	.L616
.LVL1060:
.L631:
	.loc 12 738 25 view .LVU3028
.LBE2449:
.LBE2448:
.LBB2483:
.LBB2437:
	.loc 13 128 7 is_stmt 1 view .LVU3029
.LBB2435:
.LBI2435:
	.loc 16 50 8 view .LVU3030
.LBB2436:
	.loc 16 52 5 view .LVU3031
	.loc 16 52 31 is_stmt 0 view .LVU3032
	leaq	48(%rsi), %rdi
.LVL1061:
	.loc 16 52 31 view .LVU3033
	call	pthread_mutex_lock@PLT
.LVL1062:
	.loc 16 52 31 view .LVU3034
	jmp	.L608
.LVL1063:
.L634:
	.loc 16 52 31 view .LVU3035
.LBE2436:
.LBE2435:
.LBE2437:
.LBE2483:
.LBB2484:
.LBB2481:
.LBB2450:
.LBB2451:
.LBB2452:
	.loc 12 743 9 view .LVU3036
	testl	%eax, %eax
	je	.L610
	.loc 12 745 11 is_stmt 1 view .LVU3037
.LVL1064:
.LBB2453:
.LBI2453:
	.loc 22 92 8 view .LVU3038
.LBB2454:
	.loc 22 94 9 is_stmt 0 view .LVU3039
	movq	0(%rbp), %rdi
	.loc 22 94 5 view .LVU3040
	testq	%rdi, %rdi
	je	.L611
.LVL1065:
.LBB2455:
.LBB2456:
.LBI2456:
	.loc 22 33 21 is_stmt 1 view .LVU3041
.LBB2457:
	.loc 22 35 44 is_stmt 0 view .LVU3042
	movq	(%rdi), %r8
.LVL1066:
	.loc 22 35 44 view .LVU3043
.LBE2457:
.LBE2456:
	.loc 22 97 7 view .LVU3044
	movq	%r8, 0(%rbp)
	.loc 22 98 7 view .LVU3045
	testq	%r8, %r8
	je	.L632
.L612:
.LVL1067:
.LBB2458:
.LBI2458:
	.loc 22 39 15 is_stmt 1 view .LVU3046
.LBB2459:
	.loc 22 41 5 is_stmt 0 view .LVU3047
	movq	$0, (%rdi)
.LVL1068:
.L611:
	.loc 22 41 5 view .LVU3048
.LBE2459:
.LBE2458:
.LBE2455:
.LBE2454:
.LBE2453:
	.loc 12 746 11 is_stmt 1 view .LVU3049
.LBB2462:
.LBI2462:
	.loc 22 105 8 view .LVU3050
.LBB2463:
.LBB2464:
.LBI2464:
	.loc 22 39 15 view .LVU3051
.LBB2465:
	.loc 22 41 5 is_stmt 0 view .LVU3052
	movq	$0, (%rbx)
.LVL1069:
	.loc 22 41 5 view .LVU3053
.LBE2465:
.LBE2464:
	.loc 22 108 9 view .LVU3054
	movq	48(%rsp), %r9
	.loc 22 108 5 view .LVU3055
	testq	%r9, %r9
	je	.L613
.LVL1070:
.LBB2466:
.LBI2466:
	.loc 22 39 15 is_stmt 1 view .LVU3056
.LBB2467:
	.loc 22 41 5 is_stmt 0 view .LVU3057
	movq	%rbx, (%r9)
.LVL1071:
	.loc 22 41 5 view .LVU3058
.LBE2467:
.LBE2466:
	.loc 22 111 7 view .LVU3059
	movq	%rbx, 48(%rsp)
.L614:
.LVL1072:
	.loc 22 111 7 view .LVU3060
.LBE2463:
.LBE2462:
	.loc 12 747 11 is_stmt 1 view .LVU3061
	cmpl	$2, %eax
	je	.L633
.LVL1073:
.L615:
	.loc 12 747 11 is_stmt 0 view .LVU3062
.LBE2452:
.LBE2451:
	.loc 12 741 7 is_stmt 1 view .LVU3063
.LBB2478:
.LBB2473:
.LBI2473:
	.loc 22 86 14 view .LVU3064
.LBB2474:
	.loc 22 88 12 is_stmt 0 view .LVU3065
	movq	0(%rbp), %rbx
.LVL1074:
	.loc 22 88 12 view .LVU3066
.LBE2474:
.LBE2473:
	.loc 12 741 50 view .LVU3067
	testq	%rbx, %rbx
	je	.L610
	.loc 12 743 9 is_stmt 1 view .LVU3068
.LVL1075:
.LBB2476:
.LBB2469:
.LBI2469:
	.loc 18 42 10 view .LVU3069
.LBB2470:
	.loc 18 44 5 view .LVU3070
	.loc 18 44 25 is_stmt 0 view .LVU3071
	movq	%rbx, %rdi
.LEHB22:
	call	*48(%rbx)
.LVL1076:
.LEHE22:
	jmp	.L634
.LVL1077:
.L632:
	.loc 18 44 25 view .LVU3072
.LBE2470:
.LBE2469:
.LBB2471:
.LBB2461:
.LBB2460:
	.loc 22 99 9 view .LVU3073
	movq	$0, 8(%rbp)
	jmp	.L612
.LVL1078:
.L613:
	.loc 22 99 9 view .LVU3074
.LBE2460:
.LBE2461:
.LBE2471:
.LBB2472:
.LBB2468:
	.loc 22 115 7 view .LVU3075
	movq	%rbx, 48(%rsp)
	movq	%rbx, 40(%rsp)
	jmp	.L614
.LVL1079:
.L633:
	.loc 22 115 7 view .LVU3076
.LBE2468:
.LBE2472:
	.loc 12 749 13 is_stmt 1 view .LVU3077
	.loc 12 749 33 is_stmt 0 view .LVU3078
	movslq	%r13d, %r10
	movb	$0, 160(%r12,%r10)
	.loc 12 750 13 is_stmt 1 view .LVU3079
.LVL1080:
.L610:
	.loc 12 750 13 is_stmt 0 view .LVU3080
.LBE2476:
.LBE2478:
.LBE2450:
.LBE2481:
	.loc 12 736 3 is_stmt 1 view .LVU3081
	subl	$1, %r13d
.LVL1081:
.L616:
	.loc 12 736 31 view .LVU3082
	testl	%r13d, %r13d
	js	.L609
.LBE2484:
.LBE2520:
.LBE2431:
.LBE2430:
.LBE2429:
.LBE2428:
	.loc 12 738 5 view .LVU3083
.LBB2531:
.LBB2529:
.LBB2527:
.LBB2523:
.LBB2521:
.LBB2485:
.LBB2482:
	.loc 12 738 25 is_stmt 0 view .LVU3084
	movslq	%r13d, %rbx
	movl	(%r15,%rbx,4), %esi
	.loc 12 738 38 view .LVU3085
	orl	$24, %esi
	.loc 12 738 5 view .LVU3086
	testl	%esi, 16(%rsp)
	je	.L610
.LBB2480:
	.loc 12 740 7 is_stmt 1 view .LVU3087
	.loc 12 740 27 is_stmt 0 view .LVU3088
	movslq	%r13d, %rbp
	movb	$1, 160(%r12,%rbp)
.LBB2479:
.LBB2477:
.LBB2475:
	.loc 22 88 12 view .LVU3089
	addq	$7, %rbp
	salq	$4, %rbp
	addq	%r12, %rbp
	jmp	.L615
.L609:
	.loc 22 88 12 view .LVU3090
.LBE2475:
.LBE2477:
.LBE2479:
.LBE2480:
.LBE2482:
.LBE2485:
	.loc 12 761 3 is_stmt 1 view .LVU3091
.LVL1082:
.LBB2486:
.LBI2486:
	.loc 22 86 14 view .LVU3092
.LBB2487:
	.loc 22 88 12 is_stmt 0 view .LVU3093
	movq	40(%rsp), %r11
.LVL1083:
	.loc 22 88 12 view .LVU3094
.LBE2487:
.LBE2486:
	.loc 12 761 24 view .LVU3095
	movq	%r11, 56(%rsp)
	.loc 12 762 3 is_stmt 1 view .LVU3096
.LVL1084:
.LBB2488:
.LBI2488:
	.loc 22 92 8 view .LVU3097
.LBB2489:
	.loc 22 94 5 is_stmt 0 view .LVU3098
	testq	%r11, %r11
	je	.L617
.LVL1085:
.LBB2490:
.LBB2491:
.LBI2491:
	.loc 22 33 21 is_stmt 1 view .LVU3099
.LBB2492:
	.loc 22 35 44 is_stmt 0 view .LVU3100
	movq	(%r11), %r12
.LVL1086:
	.loc 22 35 44 view .LVU3101
.LBE2492:
.LBE2491:
	.loc 22 97 7 view .LVU3102
	movq	%r12, 40(%rsp)
	.loc 22 98 7 view .LVU3103
	testq	%r12, %r12
	je	.L635
.L618:
.LVL1087:
.LBB2493:
.LBI2493:
	.loc 22 39 15 is_stmt 1 view .LVU3104
.LBB2494:
	.loc 22 41 5 is_stmt 0 view .LVU3105
	movq	$0, (%r11)
.LVL1088:
.L617:
	.loc 22 41 5 view .LVU3106
.LBE2494:
.LBE2493:
.LBE2490:
.LBE2489:
.LBE2488:
	.loc 12 763 3 is_stmt 1 view .LVU3107
	.loc 12 763 21 is_stmt 0 view .LVU3108
	movq	56(%rsp), %r13
.LVL1089:
.LBB2497:
.LBI2497:
	.loc 13 63 5 is_stmt 1 view .LVU3109
.LBB2498:
	.loc 13 65 7 view .LVU3110
	cmpb	$0, 23(%rsp)
	jne	.L636
.L619:
.LVL1090:
.LBB2499:
.LBI2499:
	.loc 14 30 3 view .LVU3111
	.loc 14 30 3 is_stmt 0 view .LVU3112
.LBE2499:
.LBE2498:
.LBE2497:
.LBB2503:
.LBI2503:
	.loc 12 695 3 is_stmt 1 view .LVU3113
.LBB2504:
	.loc 12 697 5 is_stmt 0 view .LVU3114
	cmpq	$0, 56(%rsp)
	je	.L620
	.loc 12 700 7 view .LVU3115
	cmpq	$0, 40(%rsp)
	je	.L621
	.loc 12 701 9 view .LVU3116
	movq	32(%rsp), %rbp
	.loc 12 701 19 view .LVU3117
	movq	40(%rbp), %rdi
	.loc 12 701 55 view .LVU3118
	leaq	40(%rsp), %rsi
	call	_ZN5boost4asio6detail9scheduler25post_deferred_completionsERNS1_8op_queueINS1_19scheduler_operationEEE
.LVL1091:
.L621:
	.loc 12 696 3 view .LVU3119
	leaq	40(%rsp), %rdi
	call	_ZN5boost4asio6detail8op_queueINS1_19scheduler_operationEED1Ev
.LVL1092:
	.loc 12 696 3 view .LVU3120
.LBE2504:
.LBE2503:
.LBE2521:
.LBE2523:
	.loc 12 774 5 view .LVU3121
	testq	%r13, %r13
	je	.L606
	.loc 12 776 7 is_stmt 1 view .LVU3122
.LVL1093:
.LBB2524:
.LBI2524:
	.loc 19 37 8 view .LVU3123
.LBB2525:
	.loc 19 40 5 view .LVU3124
	.loc 19 40 10 is_stmt 0 view .LVU3125
	movl	$0, %ecx
	movq	8(%rsp), %rdx
	movq	%r13, %rsi
	movq	%r14, %rdi
.LEHB23:
	call	*8(%r13)
.LVL1094:
.L606:
	.loc 19 40 10 view .LVU3126
.LBE2525:
.LBE2524:
.LBE2527:
.LBE2529:
.LBE2531:
	.loc 12 779 1 view .LVU3127
	addq	$72, %rsp
	.cfi_remember_state
	.cfi_def_cfa_offset 56
	popq	%rbx
	.cfi_def_cfa_offset 48
	popq	%rbp
	.cfi_def_cfa_offset 40
	popq	%r12
	.cfi_def_cfa_offset 32
	popq	%r13
	.cfi_def_cfa_offset 24
	popq	%r14
	.cfi_def_cfa_offset 16
	popq	%r15
	.cfi_def_cfa_offset 8
	ret
.LVL1095:
.L635:
	.cfi_restore_state
.LBB2532:
.LBB2530:
.LBB2528:
.LBB2526:
.LBB2522:
.LBB2512:
.LBB2496:
.LBB2495:
	.loc 22 99 9 view .LVU3128
	movq	$0, 48(%rsp)
	jmp	.L618
.LVL1096:
.L636:
	.loc 22 99 9 view .LVU3129
.LBE2495:
.LBE2496:
.LBE2512:
.LBB2513:
.LBB2502:
	.loc 13 66 9 is_stmt 1 view .LVU3130
.LBB2500:
.LBI2500:
	.loc 16 56 8 view .LVU3131
.LBB2501:
	.loc 16 58 5 view .LVU3132
	.loc 16 58 33 is_stmt 0 view .LVU3133
	movq	24(%rsp), %rdi
	addq	$8, %rdi
.LVL1097:
	.loc 16 58 33 view .LVU3134
	call	pthread_mutex_unlock@PLT
.LVL1098:
	.loc 16 58 33 view .LVU3135
	jmp	.L619
.LVL1099:
.L620:
	.loc 16 58 33 view .LVU3136
.LBE2501:
.LBE2500:
.LBE2502:
.LBE2513:
.LBB2514:
.LBB2511:
	.loc 12 712 7 view .LVU3137
	movq	32(%rsp), %rax
	.loc 12 712 17 view .LVU3138
	movq	40(%rax), %r15
.LVL1100:
.LBB2505:
.LBB2506:
.LBB2507:
.LBB2508:
.LBB2509:
.LBB2510:
	.loc 25 48 12 view .LVU3139
	data16	leaq	_ZN5boost4asio6detail15keyword_tss_ptrINS1_10call_stackINS1_14thread_contextENS1_16thread_info_baseEE7contextEE6value_E@tlsgd(%rip), %rdi
	.value	0x6666
	rex64
	call	__tls_get_addr@PLT
.LVL1101:
	movq	(%rax), %rcx
.LVL1102:
.L624:
	.loc 25 48 12 view .LVU3140
.LBE2510:
.LBE2509:
	.loc 24 96 5 view .LVU3141
	testq	%rcx, %rcx
	je	.L622
	.loc 24 98 7 view .LVU3142
	cmpq	(%rcx), %r15
	je	.L637
	.loc 24 100 7 view .LVU3143
	movq	16(%rcx), %rcx
.LVL1103:
	.loc 24 100 7 view .LVU3144
	jmp	.L624
.L637:
	.loc 24 99 22 view .LVU3145
	movq	8(%rcx), %rcx
.LVL1104:
.L622:
	.loc 24 99 22 view .LVU3146
.LBE2508:
.LBE2507:
	.loc 23 325 3 view .LVU3147
	movq	56(%rcx), %rdx
	leaq	1(%rdx), %rsi
	movq	%rsi, 56(%rcx)
	jmp	.L621
.LVL1105:
.L628:
	.loc 23 325 3 view .LVU3148
	movq	%rax, %r14
.LVL1106:
	.loc 23 325 3 view .LVU3149
.LBE2506:
.LBE2505:
.LBE2511:
.LBE2514:
.LBB2515:
.LBI2515:
	.loc 13 63 5 is_stmt 1 view .LVU3150
.LBB2516:
	.loc 13 65 7 view .LVU3151
	cmpb	$0, 23(%rsp)
	je	.L627
	.loc 13 66 9 view .LVU3152
.LVL1107:
.LBB2517:
.LBI2517:
	.loc 16 56 8 view .LVU3153
.LBB2518:
	.loc 16 58 5 view .LVU3154
	.loc 16 58 33 is_stmt 0 view .LVU3155
	movq	24(%rsp), %rdi
	addq	$8, %rdi
.LVL1108:
	.loc 16 58 33 view .LVU3156
	call	pthread_mutex_unlock@PLT
.LVL1109:
.L627:
	.loc 16 58 33 view .LVU3157
.LBE2518:
.LBE2517:
.LBB2519:
.LBI2519:
	.loc 14 30 3 is_stmt 1 view .LVU3158
	.loc 14 30 3 is_stmt 0 view .LVU3159
.LBE2519:
.LBE2516:
.LBE2515:
	.loc 12 730 55 view .LVU3160
	leaq	32(%rsp), %rdi
	call	_ZN5boost4asio6detail13epoll_reactor32perform_io_cleanup_on_block_exitD1Ev
.LVL1110:
	movq	%r14, %rdi
	call	_Unwind_Resume@PLT
.LVL1111:
.LEHE23:
.LBE2522:
.LBE2526:
.LBE2528:
.LBE2530:
.LBE2532:
	.cfi_endproc
.LFE83:
	.section	.gcc_except_table
.LLSDA83:
	.byte	0xff
	.byte	0xff
	.byte	0x1
	.uleb128 .LLSDACSE83-.LLSDACSB83
.LLSDACSB83:
	.uleb128 .LEHB22-.LFB83
	.uleb128 .LEHE22-.LEHB22
	.uleb128 .L628-.LFB83
	.uleb128 0
	.uleb128 .LEHB23-.LFB83
	.uleb128 .LEHE23-.LEHB23
	.uleb128 0
	.uleb128 0
.LLSDACSE83:
	.text
	.size	_ZN5boost4asio6detail13epoll_reactor16descriptor_state11do_completeEPvPNS1_19scheduler_operationERKNS_6system10error_codeEm, .-_ZN5boost4asio6detail13epoll_reactor16descriptor_state11do_completeEPvPNS1_19scheduler_operationERKNS_6system10error_codeEm
	.section	.rodata.str1.1
.LC26:
	.string	"%lu"
	.text
	.globl	_ZN5boost4asio6detail10socket_ops9inet_ntopEiPKvPcmmRNS_6system10error_codeE
	.hidden	_ZN5boost4asio6detail10socket_ops9inet_ntopEiPKvPcmmRNS_6system10error_codeE
	.type	_ZN5boost4asio6detail10socket_ops9inet_ntopEiPKvPcmmRNS_6system10error_codeE, @function
_ZN5boost4asio6detail10socket_ops9inet_ntopEiPKvPcmmRNS_6system10error_codeE:
.LVL1112:
.LFB85:
	.loc 10 2406 1 is_stmt 1 view -0
	.cfi_startproc
	.loc 10 2406 1 is_stmt 0 view .LVU3162
	pushq	%r15
	.cfi_def_cfa_offset 16
	.cfi_offset 15, -16
	pushq	%r14
	.cfi_def_cfa_offset 24
	.cfi_offset 14, -24
	pushq	%r13
	.cfi_def_cfa_offset 32
	.cfi_offset 13, -32
	pushq	%r12
	.cfi_def_cfa_offset 40
	.cfi_offset 12, -40
	pushq	%rbp
