	.file	"DBError.cpp"
	.text
.Ltext0:
	.section	.text._ZN3mpp10exceptions7DBErrorD1Ev,"axG",@progbits,_ZN3mpp10exceptions7DBErrorD1Ev,comdat
	.align 2
	.weak	_ZN3mpp10exceptions7DBErrorD1Ev
	.type	_ZN3mpp10exceptions7DBErrorD1Ev, @function
_ZN3mpp10exceptions7DBErrorD1Ev:
.LVL0:
.LFB1838:
	.file 1 "./hpp/mpp/exceptions/DBError.hpp"
	.loc 1 17 9 view -0
	.cfi_startproc
	.loc 1 17 9 is_stmt 0 view .LVU1
	subq	$8, %rsp
	.cfi_def_cfa_offset 16
	movq	%rdi, %rax
.LVL1:
.LBB262:
.LBB263:
.LBI263:
	.file 2 "./hpp/mpp/exceptions/Exception.hpp"
	.loc 2 33 13 is_stmt 1 view .LVU2
.LBB264:
	movq	$_ZTCN3mpp10exceptions7DBErrorE0_NS0_9ExceptionE+24, (%rdi)
	leaq	8(%rdi), %rdi
.LVL2:
	.loc 2 33 13 is_stmt 0 view .LVU3
	movq	$_ZTCN3mpp10exceptions7DBErrorE0_NS0_9ExceptionE+72, 8(%rax)
.LVL3:
	.loc 2 33 13 view .LVU4
.LBE264:
.LBE263:
	.loc 1 17 9 view .LVU5
	call	_ZNSt11logic_errorD2Ev
.LVL4:
	.loc 1 17 9 view .LVU6
.LBE262:
	addq	$8, %rsp
	.cfi_def_cfa_offset 8
	ret
	.cfi_endproc
.LFE1838:
	.size	_ZN3mpp10exceptions7DBErrorD1Ev, .-_ZN3mpp10exceptions7DBErrorD1Ev
	.section	.text._ZN3mpp10exceptions7DBErrorD0Ev,"axG",@progbits,_ZN3mpp10exceptions7DBErrorD0Ev,comdat
	.align 2
	.weak	_ZN3mpp10exceptions7DBErrorD0Ev
	.type	_ZN3mpp10exceptions7DBErrorD0Ev, @function
_ZN3mpp10exceptions7DBErrorD0Ev:
.LVL5:
.LFB1839:
	.loc 1 17 9 is_stmt 1 view -0
	.cfi_startproc
	.loc 1 17 9 is_stmt 0 view .LVU8
	pushq	%rbx
	.cfi_def_cfa_offset 16
	.cfi_offset 3, -16
	movq	%rdi, %rbx
.LVL6:
.LBB269:
.LBI269:
	.loc 1 17 9 is_stmt 1 view .LVU9
.LBB270:
.LBB271:
.LBI271:
	.loc 2 33 13 view .LVU10
.LBB272:
	movq	$_ZTCN3mpp10exceptions7DBErrorE0_NS0_9ExceptionE+24, (%rdi)
	leaq	8(%rdi), %rdi
.LVL7:
	.loc 2 33 13 is_stmt 0 view .LVU11
	movq	$_ZTCN3mpp10exceptions7DBErrorE0_NS0_9ExceptionE+72, 8(%rbx)
.LVL8:
	.loc 2 33 13 view .LVU12
.LBE272:
.LBE271:
	.loc 1 17 9 view .LVU13
	call	_ZNSt11logic_errorD2Ev
.LVL9:
	.loc 1 17 9 view .LVU14
.LBE270:
.LBE269:
	movl	$24, %esi
	movq	%rbx, %rdi
	call	_ZdlPvm
.LVL10:
	popq	%rbx
	.cfi_def_cfa_offset 8
.LVL11:
	.loc 1 17 9 view .LVU15
	ret
	.cfi_endproc
.LFE1839:
	.size	_ZN3mpp10exceptions7DBErrorD0Ev, .-_ZN3mpp10exceptions7DBErrorD0Ev
	.section	.text._ZN3mpp10exceptions7DBErrorD1Ev,"axG",@progbits,_ZN3mpp10exceptions7DBErrorD1Ev,comdat
	.weak	_ZTv0_n24_N3mpp10exceptions7DBErrorD1Ev
	.type	_ZTv0_n24_N3mpp10exceptions7DBErrorD1Ev, @function
_ZTv0_n24_N3mpp10exceptions7DBErrorD1Ev:
.LFB1841:
	.cfi_startproc
	subq	$8, %rsp
	.cfi_def_cfa_offset 16
	movq	(%rdi), %rax
	addq	-24(%rax), %rdi
	movq	%rdi, %rax
	movq	$_ZTCN3mpp10exceptions7DBErrorE0_NS0_9ExceptionE+24, (%rdi)
	leaq	8(%rdi), %rdi
	movq	$_ZTCN3mpp10exceptions7DBErrorE0_NS0_9ExceptionE+72, 8(%rax)
	call	_ZNSt11logic_errorD2Ev
	addq	$8, %rsp
	.cfi_def_cfa_offset 8
	ret
	.cfi_endproc
.LFE1841:
	.size	_ZTv0_n24_N3mpp10exceptions7DBErrorD1Ev, .-_ZTv0_n24_N3mpp10exceptions7DBErrorD1Ev
	.section	.text._ZN3mpp10exceptions7DBErrorD0Ev,"axG",@progbits,_ZN3mpp10exceptions7DBErrorD0Ev,comdat
	.weak	_ZTv0_n24_N3mpp10exceptions7DBErrorD0Ev
	.type	_ZTv0_n24_N3mpp10exceptions7DBErrorD0Ev, @function
_ZTv0_n24_N3mpp10exceptions7DBErrorD0Ev:
.LFB1842:
	.cfi_startproc
	pushq	%rbx
	.cfi_def_cfa_offset 16
	.cfi_offset 3, -16
	movq	(%rdi), %rax
	movq	%rdi, %rbx
	addq	-24(%rax), %rbx
	movq	$_ZTCN3mpp10exceptions7DBErrorE0_NS0_9ExceptionE+24, (%rbx)
	leaq	8(%rbx), %rdi
	movq	$_ZTCN3mpp10exceptions7DBErrorE0_NS0_9ExceptionE+72, 8(%rbx)
	call	_ZNSt11logic_errorD2Ev
	movl	$24, %esi
	movq	%rbx, %rdi
	call	_ZdlPvm
	popq	%rbx
	.cfi_def_cfa_offset 8
	ret
	.cfi_endproc
.LFE1842:
	.size	_ZTv0_n24_N3mpp10exceptions7DBErrorD0Ev, .-_ZTv0_n24_N3mpp10exceptions7DBErrorD0Ev
	.text
	.align 2
	.globl	_ZN3mpp10exceptions7DBErrorC2EPc
	.type	_ZN3mpp10exceptions7DBErrorC2EPc, @function
_ZN3mpp10exceptions7DBErrorC2EPc:
.LVL12:
.LFB1370:
	.file 3 "cpp/exceptions/DBError.cpp"
	.loc 3 13 1 is_stmt 1 view -0
	.cfi_startproc
.LBB273:
	.loc 3 13 104 is_stmt 0 view .LVU17
	movq	(%rsi), %rax
	movq	%rax, (%rdi)
	movq	8(%rsi), %rdx
.LVL13:
	.loc 3 13 104 view .LVU18
	movq	-40(%rax), %rax
	movq	%rdx, (%rdi,%rax)
	movq	16(%rsi), %rdx
	movq	(%rdi), %rax
	movq	-24(%rax), %rax
	movq	%rdx, (%rdi,%rax)
.LBE273:
	.loc 3 15 1 view .LVU19
	ret
	.cfi_endproc
.LFE1370:
	.size	_ZN3mpp10exceptions7DBErrorC2EPc, .-_ZN3mpp10exceptions7DBErrorC2EPc
	.align 2
	.globl	_ZN3mpp10exceptions7DBErrorC1EPc
	.type	_ZN3mpp10exceptions7DBErrorC1EPc, @function
_ZN3mpp10exceptions7DBErrorC1EPc:
.LVL14:
.LFB1371:
	.loc 3 13 1 is_stmt 1 view -0
	.cfi_startproc
	.cfi_personality 0x3,__gxx_personality_v0
	.cfi_lsda 0x3,.LLSDA1371
	.loc 3 13 1 is_stmt 0 view .LVU21
	pushq	%r12
	.cfi_def_cfa_offset 16
	.cfi_offset 12, -16
	pushq	%rbp
	.cfi_def_cfa_offset 24
	.cfi_offset 6, -24
	pushq	%rbx
	.cfi_def_cfa_offset 32
	.cfi_offset 3, -32
	movq	%rdi, %rbx
	movq	%rsi, %rbp
.LBB274:
	.loc 3 13 104 view .LVU22
	leaq	8(%rdi), %r12
	movq	%r12, %rdi
.LVL15:
.LEHB0:
	.loc 3 13 104 view .LVU23
	call	_ZNSt11logic_errorC2EPKc
.LVL16:
.LEHE0:
	.loc 3 13 104 view .LVU24
	movq	%rbp, %rdx
	movl	$_ZTTN3mpp10exceptions7DBErrorE+24, %esi
	movq	%rbx, %rdi
.LEHB1:
	call	_ZN3mpp10exceptions9ExceptionC2EPc
.LVL17:
.LEHE1:
	.loc 3 13 104 discriminator 2 view .LVU25
	movq	$_ZTVN3mpp10exceptions7DBErrorE+40, (%rbx)
	movq	$_ZTVN3mpp10exceptions7DBErrorE+88, 8(%rbx)
.LBE274:
	.loc 3 15 1 discriminator 2 view .LVU26
	popq	%rbx
	.cfi_remember_state
	.cfi_def_cfa_offset 24
.LVL18:
	.loc 3 15 1 discriminator 2 view .LVU27
	popq	%rbp
	.cfi_def_cfa_offset 16
.LVL19:
	.loc 3 15 1 discriminator 2 view .LVU28
	popq	%r12
	.cfi_def_cfa_offset 8
.LVL20:
	.loc 3 15 1 discriminator 2 view .LVU29
	ret
.LVL21:
.L12:
	.cfi_restore_state
	.loc 3 15 1 discriminator 2 view .LVU30
	movq	%rax, %rbx
.LVL22:
.LBB275:
	.loc 3 13 104 view .LVU31
	movq	%r12, %rdi
	call	_ZNSt11logic_errorD2Ev
.LVL23:
	movq	%rbx, %rdi
.LEHB2:
	call	_Unwind_Resume
.LVL24:
.LEHE2:
.LBE275:
	.cfi_endproc
.LFE1371:
	.globl	__gxx_personality_v0
	.section	.gcc_except_table,"a",@progbits
.LLSDA1371:
	.byte	0xff
	.byte	0xff
	.byte	0x1
	.uleb128 .LLSDACSE1371-.LLSDACSB1371
.LLSDACSB1371:
	.uleb128 .LEHB0-.LFB1371
	.uleb128 .LEHE0-.LEHB0
	.uleb128 0
	.uleb128 0
	.uleb128 .LEHB1-.LFB1371
	.uleb128 .LEHE1-.LEHB1
	.uleb128 .L12-.LFB1371
	.uleb128 0
	.uleb128 .LEHB2-.LFB1371
	.uleb128 .LEHE2-.LEHB2
	.uleb128 0
	.uleb128 0
.LLSDACSE1371:
	.text
	.size	_ZN3mpp10exceptions7DBErrorC1EPc, .-_ZN3mpp10exceptions7DBErrorC1EPc
	.align 2
	.globl	_ZN3mpp10exceptions7DBErrorC2ENSt7__cxx1112basic_stringIcSt11char_traitsIcESaIcEEE
	.type	_ZN3mpp10exceptions7DBErrorC2ENSt7__cxx1112basic_stringIcSt11char_traitsIcESaIcEEE, @function
_ZN3mpp10exceptions7DBErrorC2ENSt7__cxx1112basic_stringIcSt11char_traitsIcESaIcEEE:
.LVL25:
.LFB1373:
	.loc 3 21 1 is_stmt 1 view -0
	.cfi_startproc
.LBB276:
	.loc 3 21 110 is_stmt 0 view .LVU33
	movq	(%rsi), %rax
	movq	%rax, (%rdi)
	movq	8(%rsi), %rdx
.LVL26:
	.loc 3 21 110 view .LVU34
	movq	-40(%rax), %rax
	movq	%rdx, (%rdi,%rax)
	movq	16(%rsi), %rdx
	movq	(%rdi), %rax
	movq	-24(%rax), %rax
	movq	%rdx, (%rdi,%rax)
.LBE276:
	.loc 3 23 1 view .LVU35
	ret
	.cfi_endproc
.LFE1373:
	.size	_ZN3mpp10exceptions7DBErrorC2ENSt7__cxx1112basic_stringIcSt11char_traitsIcESaIcEEE, .-_ZN3mpp10exceptions7DBErrorC2ENSt7__cxx1112basic_stringIcSt11char_traitsIcESaIcEEE
	.section	.rodata._ZNSt7__cxx1112basic_stringIcSt11char_traitsIcESaIcEE9_M_createERmm.str1.1,"aMS",@progbits,1
.LC0:
	.string	"basic_string::_M_create"
	.section	.text._ZNSt7__cxx1112basic_stringIcSt11char_traitsIcESaIcEE9_M_createERmm,"axG",@progbits,_ZNSt7__cxx1112basic_stringIcSt11char_traitsIcESaIcEE9_M_createERmm,comdat
	.align 2
	.weak	_ZNSt7__cxx1112basic_stringIcSt11char_traitsIcESaIcEE9_M_createERmm
	.type	_ZNSt7__cxx1112basic_stringIcSt11char_traitsIcESaIcEE9_M_createERmm, @function
_ZNSt7__cxx1112basic_stringIcSt11char_traitsIcESaIcEE9_M_createERmm:
.LVL27:
.LFB1770:
	.file 4 "/usr/include/c++/8/bits/basic_string.tcc"
	.loc 4 132 5 is_stmt 1 view -0
	.cfi_startproc
	.loc 4 132 5 is_stmt 0 view .LVU37
	subq	$8, %rsp
	.cfi_def_cfa_offset 16
	.loc 4 137 22 view .LVU38
	movq	(%rsi), %rax
	.loc 4 137 7 view .LVU39
	testq	%rax, %rax
	js	.L20
	.loc 4 143 7 view .LVU40
	cmpq	%rdx, %rax
	jbe	.L18
	.loc 4 143 57 discriminator 1 view .LVU41
	addq	%rdx, %rdx
.LVL28:
	.loc 4 143 39 discriminator 1 view .LVU42
	cmpq	%rdx, %rax
	jnb	.L18
	.loc 4 145 4 view .LVU43
	movq	%rdx, (%rsi)
	.loc 4 147 4 view .LVU44
	testq	%rdx, %rdx
	js	.L21
.L18:
	.loc 4 153 37 view .LVU45
	movq	(%rsi), %rdi
.LVL29:
	.loc 4 153 37 view .LVU46
	addq	$1, %rdi
.LVL30:
.LBB277:
.LBI277:
	.file 5 "/usr/include/c++/8/bits/alloc_traits.h"
	.loc 5 435 7 is_stmt 1 view .LVU47
.LBB278:
.LBI278:
	.file 6 "/usr/include/c++/8/ext/new_allocator.h"
	.loc 6 99 7 view .LVU48
.LBB279:
	.loc 6 111 41 is_stmt 0 view .LVU49
	call	_Znwm
.LVL31:
	.loc 6 111 41 view .LVU50
.LBE279:
.LBE278:
.LBE277:
	.loc 4 154 5 view .LVU51
	addq	$8, %rsp
	.cfi_remember_state
	.cfi_def_cfa_offset 8
	ret
.LVL32:
.L20:
	.cfi_restore_state
	.loc 4 138 27 view .LVU52
	movl	$.LC0, %edi
.LVL33:
	.loc 4 138 27 view .LVU53
	call	_ZSt20__throw_length_errorPKc
.LVL34:
.L21:
	.loc 4 148 6 view .LVU54
	movabsq	$9223372036854775807, %rax
	movq	%rax, (%rsi)
	jmp	.L18
	.cfi_endproc
.LFE1770:
	.size	_ZNSt7__cxx1112basic_stringIcSt11char_traitsIcESaIcEE9_M_createERmm, .-_ZNSt7__cxx1112basic_stringIcSt11char_traitsIcESaIcEE9_M_createERmm
	.section	.rodata._ZNSt7__cxx1112basic_stringIcSt11char_traitsIcESaIcEE12_M_constructIPcEEvT_S7_St20forward_iterator_tag.str1.8,"aMS",@progbits,1
	.align 8
.LC1:
	.string	"basic_string::_M_construct null not valid"
	.section	.text._ZNSt7__cxx1112basic_stringIcSt11char_traitsIcESaIcEE12_M_constructIPcEEvT_S7_St20forward_iterator_tag,"axG",@progbits,_ZNSt7__cxx1112basic_stringIcSt11char_traitsIcESaIcEE12_M_constructIPcEEvT_S7_St20forward_iterator_tag,comdat
	.align 2
	.weak	_ZNSt7__cxx1112basic_stringIcSt11char_traitsIcESaIcEE12_M_constructIPcEEvT_S7_St20forward_iterator_tag
	.type	_ZNSt7__cxx1112basic_stringIcSt11char_traitsIcESaIcEE12_M_constructIPcEEvT_S7_St20forward_iterator_tag, @function
_ZNSt7__cxx1112basic_stringIcSt11char_traitsIcESaIcEE12_M_constructIPcEEvT_S7_St20forward_iterator_tag:
.LVL35:
.LFB1753:
	.loc 4 206 7 is_stmt 1 view -0
	.cfi_startproc
	.loc 4 206 7 is_stmt 0 view .LVU56
	pushq	%r12
	.cfi_def_cfa_offset 16
	.cfi_offset 12, -16
	pushq	%rbp
	.cfi_def_cfa_offset 24
	.cfi_offset 6, -24
	pushq	%rbx
	.cfi_def_cfa_offset 32
	.cfi_offset 3, -32
	subq	$16, %rsp
	.cfi_def_cfa_offset 48
	movq	%rdi, %rbp
	movq	%rsi, %r12
	.loc 4 211 42 view .LVU57
	testq	%rsi, %rsi
	je	.L28
.L23:
.LVL36:
.LBB280:
.LBI280:
	.file 7 "/usr/include/c++/8/bits/stl_iterator_base_funcs.h"
	.loc 7 138 5 is_stmt 1 view .LVU58
.LBB281:
.LBI281:
	.loc 7 98 5 view .LVU59
.LBB282:
	.loc 7 104 23 is_stmt 0 view .LVU60
	subq	%r12, %rdx
.LVL37:
	.loc 7 104 23 view .LVU61
	movq	%rdx, %rbx
.LVL38:
	.loc 7 104 23 view .LVU62
.LBE282:
.LBE281:
.LBE280:
	.loc 4 215 12 view .LVU63
	movq	%rdx, 8(%rsp)
	.loc 4 217 2 view .LVU64
	cmpq	$15, %rdx
	ja	.L29
.LVL39:
.L24:
.LBB283:
.LBI283:
	.file 8 "/usr/include/c++/8/bits/basic_string.h"
	.loc 8 175 7 is_stmt 1 view .LVU65
.LBB284:
	.loc 8 176 28 is_stmt 0 view .LVU66
	movq	0(%rbp), %rdi
.LVL40:
	.loc 8 176 28 view .LVU67
.LBE284:
.LBE283:
.LBB285:
.LBI285:
	.loc 8 381 7 is_stmt 1 view .LVU68
.LBB286:
.LBI286:
	.loc 8 335 7 view .LVU69
.LBB287:
	.loc 8 337 2 is_stmt 0 view .LVU70
	cmpq	$1, %rbx
	je	.L30
.LVL41:
.LBB288:
.LBI288:
	.file 9 "/usr/include/c++/8/bits/char_traits.h"
	.loc 9 346 7 is_stmt 1 view .LVU71
.LBB289:
	.loc 9 348 2 view .LVU72
	testq	%rbx, %rbx
	je	.L26
	.loc 9 350 2 view .LVU73
	.loc 9 350 49 is_stmt 0 view .LVU74
	movq	%rbx, %rdx
	movq	%r12, %rsi
	call	memcpy
.LVL42:
	.loc 9 350 49 view .LVU75
	jmp	.L26
.LVL43:
.L28:
	.loc 9 350 49 view .LVU76
.LBE289:
.LBE288:
.LBE287:
.LBE286:
.LBE285:
	.loc 4 211 42 discriminator 1 view .LVU77
	cmpq	%rdx, %rsi
	je	.L23
	.loc 4 212 28 view .LVU78
	movl	$.LC1, %edi
.LVL44:
	.loc 4 212 28 view .LVU79
	call	_ZSt19__throw_logic_errorPKc
.LVL45:
.L29:
	.loc 4 219 6 view .LVU80
	movl	$0, %edx
	leaq	8(%rsp), %rsi
.LVL46:
	.loc 4 219 6 view .LVU81
	movq	%rbp, %rdi
.LVL47:
	.loc 4 219 6 view .LVU82
	call	_ZNSt7__cxx1112basic_stringIcSt11char_traitsIcESaIcEE9_M_createERmm
.LVL48:
.LBB294:
.LBI294:
	.loc 8 167 7 is_stmt 1 view .LVU83
.LBB295:
	.loc 8 168 9 is_stmt 0 view .LVU84
	movq	%rax, 0(%rbp)
.LVL49:
	.loc 8 168 9 view .LVU85
.LBE295:
.LBE294:
	.loc 4 220 6 view .LVU86
	movq	8(%rsp), %rax
.LVL50:
.LBB296:
.LBI296:
	.loc 8 199 7 is_stmt 1 view .LVU87
.LBB297:
	.loc 8 200 9 is_stmt 0 view .LVU88
	movq	%rax, 16(%rbp)
	jmp	.L24
.LVL51:
.L30:
	.loc 8 200 9 view .LVU89
.LBE297:
.LBE296:
.LBB298:
.LBB293:
.LBB292:
.LBB290:
.LBI290:
	.loc 9 284 7 is_stmt 1 view .LVU90
.LBB291:
	.loc 9 285 9 view .LVU91
	.loc 9 285 16 is_stmt 0 view .LVU92
	movzbl	(%r12), %eax
	.loc 9 285 14 view .LVU93
	movb	%al, (%rdi)
.LVL52:
.L26:
	.loc 9 285 14 view .LVU94
.LBE291:
.LBE290:
.LBE292:
.LBE293:
.LBE298:
	.loc 4 232 2 view .LVU95
	movq	8(%rsp), %rax
.LVL53:
.LBB299:
.LBI299:
	.loc 8 203 7 is_stmt 1 view .LVU96
.LBB300:
.LBB301:
.LBI301:
	.loc 8 171 7 view .LVU97
.LBB302:
	.loc 8 172 9 is_stmt 0 view .LVU98
	movq	%rax, 8(%rbp)
.LVL54:
	.loc 8 172 9 view .LVU99
.LBE302:
.LBE301:
.LBB303:
.LBI303:
	.loc 8 175 7 is_stmt 1 view .LVU100
	.loc 8 175 7 is_stmt 0 view .LVU101
.LBE303:
	.loc 8 206 31 view .LVU102
	addq	0(%rbp), %rax
.LVL55:
.LBB304:
.LBI304:
	.loc 9 284 7 is_stmt 1 view .LVU103
.LBB305:
	.loc 9 285 9 view .LVU104
	.loc 9 285 14 is_stmt 0 view .LVU105
	movb	$0, (%rax)
.LVL56:
	.loc 9 285 14 view .LVU106
.LBE305:
.LBE304:
.LBE300:
.LBE299:
	.loc 4 233 7 view .LVU107
	addq	$16, %rsp
	.cfi_def_cfa_offset 32
	popq	%rbx
	.cfi_def_cfa_offset 24
	popq	%rbp
	.cfi_def_cfa_offset 16
.LVL57:
	.loc 4 233 7 view .LVU108
	popq	%r12
	.cfi_def_cfa_offset 8
.LVL58:
	.loc 4 233 7 view .LVU109
	ret
	.cfi_endproc
.LFE1753:
	.size	_ZNSt7__cxx1112basic_stringIcSt11char_traitsIcESaIcEE12_M_constructIPcEEvT_S7_St20forward_iterator_tag, .-_ZNSt7__cxx1112basic_stringIcSt11char_traitsIcESaIcEE12_M_constructIPcEEvT_S7_St20forward_iterator_tag
	.text
	.align 2
	.globl	_ZN3mpp10exceptions7DBErrorC1ENSt7__cxx1112basic_stringIcSt11char_traitsIcESaIcEEE
	.type	_ZN3mpp10exceptions7DBErrorC1ENSt7__cxx1112basic_stringIcSt11char_traitsIcESaIcEEE, @function
_ZN3mpp10exceptions7DBErrorC1ENSt7__cxx1112basic_stringIcSt11char_traitsIcESaIcEEE:
.LVL59:
.LFB1374:
	.loc 3 21 1 is_stmt 1 view -0
	.cfi_startproc
	.cfi_personality 0x3,__gxx_personality_v0
	.cfi_lsda 0x3,.LLSDA1374
	.loc 3 21 1 is_stmt 0 view .LVU111
	pushq	%r12
	.cfi_def_cfa_offset 16
	.cfi_offset 12, -16
	pushq	%rbp
	.cfi_def_cfa_offset 24
	.cfi_offset 6, -24
	pushq	%rbx
	.cfi_def_cfa_offset 32
	.cfi_offset 3, -32
	subq	$32, %rsp
	.cfi_def_cfa_offset 64
	movq	%rdi, %rbx
	movq	%rsi, %rbp
.LBB306:
	.loc 3 21 110 view .LVU112
	leaq	8(%rdi), %r12
	movq	%r12, %rdi
.LVL60:
.LEHB3:
	.loc 3 21 110 view .LVU113
	call	_ZNSt11logic_errorC2ERKNSt7__cxx1112basic_stringIcSt11char_traitsIcESaIcEEE
.LVL61:
.LEHE3:
.LBB307:
.LBI307:
	.loc 8 437 7 is_stmt 1 view .LVU114
.LBB308:
.LBB309:
.LBB310:
.LBI310:
	.loc 8 279 7 view .LVU115
	.loc 8 279 7 is_stmt 0 view .LVU116
.LBE310:
.LBB311:
.LBI311:
	.file 10 "/usr/include/c++/8/ext/alloc_traits.h"
	.loc 10 94 19 is_stmt 1 view .LVU117
.LBB312:
.LBI312:
	.loc 5 504 7 view .LVU118
.LBB313:
.LBI313:
	.file 11 "/usr/include/c++/8/bits/allocator.h"
	.loc 11 133 7 view .LVU119
.LBB314:
.LBI314:
	.loc 6 81 7 view .LVU120
	.loc 6 81 7 is_stmt 0 view .LVU121
.LBE314:
.LBE313:
.LBE312:
.LBE311:
.LBB315:
.LBI315:
	.loc 8 179 7 is_stmt 1 view .LVU122
	.loc 8 179 7 is_stmt 0 view .LVU123
.LBE315:
.LBB316:
.LBI316:
	.loc 8 148 2 is_stmt 1 view .LVU124
.LBB317:
.LBB318:
.LBB319:
.LBI319:
	.file 12 "/usr/include/c++/8/bits/move.h"
	.loc 12 99 5 view .LVU125
	.loc 12 99 5 is_stmt 0 view .LVU126
.LBE319:
.LBB320:
.LBI320:
	.loc 11 133 7 is_stmt 1 view .LVU127
.LBB321:
.LBI321:
	.loc 6 81 7 view .LVU128
	.loc 6 81 7 is_stmt 0 view .LVU129
.LBE321:
.LBE320:
	.loc 8 149 46 view .LVU130
	leaq	16(%rsp), %rax
.LVL62:
	.loc 8 149 46 view .LVU131
	movq	%rax, (%rsp)
.LVL63:
	.loc 8 149 46 view .LVU132
.LBE318:
.LBE317:
.LBE316:
.LBB322:
.LBI322:
	.loc 11 139 7 is_stmt 1 view .LVU133
.LBB323:
.LBI323:
	.loc 6 86 7 view .LVU134
	.loc 6 86 7 is_stmt 0 view .LVU135
.LBE323:
.LBE322:
.LBB324:
.LBI324:
	.loc 8 175 7 is_stmt 1 view .LVU136
.LBB325:
	.loc 8 176 28 is_stmt 0 view .LVU137
	movq	0(%rbp), %rsi
.LVL64:
	.loc 8 176 28 view .LVU138
.LBE325:
.LBE324:
.LBB326:
.LBI326:
	.loc 8 927 7 is_stmt 1 view .LVU139
	.loc 8 927 7 is_stmt 0 view .LVU140
.LBE326:
	.loc 8 440 9 view .LVU141
	movq	%rsi, %rdx
	addq	8(%rbp), %rdx
.LVL65:
.LBB327:
.LBI327:
	.loc 8 175 7 is_stmt 1 view .LVU142
	.loc 8 175 7 is_stmt 0 view .LVU143
.LBE327:
.LBB328:
.LBI328:
	.loc 8 252 9 is_stmt 1 view .LVU144
.LBB329:
.LBB330:
.LBI330:
	.loc 8 232 9 view .LVU145
.LBB331:
	.loc 8 236 11 is_stmt 0 view .LVU146
	movq	%rsp, %rdi
.LEHB4:
	call	_ZNSt7__cxx1112basic_stringIcSt11char_traitsIcESaIcEE12_M_constructIPcEEvT_S7_St20forward_iterator_tag
.LVL66:
.LEHE4:
	.loc 8 236 11 view .LVU147
.LBE331:
.LBE330:
.LBE329:
.LBE328:
.LBE309:
.LBE308:
.LBE307:
	.loc 3 21 110 discriminator 2 view .LVU148
	movq	%rsp, %rdx
	movl	$_ZTTN3mpp10exceptions7DBErrorE+24, %esi
	movq	%rbx, %rdi
.LEHB5:
	call	_ZN3mpp10exceptions9ExceptionC2ENSt7__cxx1112basic_stringIcSt11char_traitsIcESaIcEEE
.LVL67:
.LEHE5:
.LBB332:
.LBI332:
	.loc 8 656 7 is_stmt 1 view .LVU149
.LBB333:
.LBI333:
	.loc 8 218 7 view .LVU150
.LBB334:
.LBB335:
.LBI335:
	.loc 8 210 7 view .LVU151
.LBB336:
.LBI336:
	.loc 8 175 7 view .LVU152
.LBB337:
	.loc 8 176 28 is_stmt 0 view .LVU153
	movq	(%rsp), %rdi
.LVL68:
	.loc 8 176 28 view .LVU154
.LBE337:
.LBE336:
.LBB338:
.LBI338:
	.loc 8 189 7 is_stmt 1 view .LVU155
	.loc 8 189 7 is_stmt 0 view .LVU156
.LBE338:
.LBE335:
	.loc 8 220 2 view .LVU157
	leaq	16(%rsp), %rax
	cmpq	%rax, %rdi
	je	.L32
.LVL69:
.LBB339:
.LBI339:
	.loc 8 225 7 is_stmt 1 view .LVU158
.LBB340:
.LBI340:
	.loc 5 461 7 view .LVU159
.LBB341:
.LBI341:
	.loc 6 116 7 view .LVU160
.LBB342:
	.loc 6 125 19 is_stmt 0 view .LVU161
	call	_ZdlPv
.LVL70:
.L32:
	.loc 6 125 19 view .LVU162
.LBE342:
.LBE341:
.LBE340:
.LBE339:
.LBE334:
.LBE333:
.LBB343:
.LBI343:
	.loc 8 139 14 is_stmt 1 view .LVU163
.LBB344:
.LBI344:
	.loc 11 139 7 view .LVU164
.LBB345:
.LBI345:
	.loc 6 86 7 view .LVU165
	.loc 6 86 7 is_stmt 0 view .LVU166
.LBE345:
.LBE344:
.LBE343:
.LBE332:
	.loc 3 21 110 view .LVU167
	movq	$_ZTVN3mpp10exceptions7DBErrorE+40, (%rbx)
	movq	$_ZTVN3mpp10exceptions7DBErrorE+88, 8(%rbx)
.LBE306:
	.loc 3 23 1 view .LVU168
	addq	$32, %rsp
	.cfi_remember_state
	.cfi_def_cfa_offset 32
	popq	%rbx
	.cfi_def_cfa_offset 24
.LVL71:
	.loc 3 23 1 view .LVU169
	popq	%rbp
	.cfi_def_cfa_offset 16
.LVL72:
	.loc 3 23 1 view .LVU170
	popq	%r12
	.cfi_def_cfa_offset 8
.LVL73:
	.loc 3 23 1 view .LVU171
	ret
.LVL74:
.L37:
	.cfi_restore_state
	.loc 3 23 1 view .LVU172
	movq	%rax, %rbx
.LVL75:
.LBB360:
.LBB346:
.LBI346:
	.loc 8 656 7 is_stmt 1 view .LVU173
.LBB347:
.LBI347:
	.loc 8 218 7 view .LVU174
.LBB348:
.LBB349:
.LBI349:
	.loc 8 210 7 view .LVU175
.LBB350:
.LBI350:
	.loc 8 175 7 view .LVU176
.LBB351:
	.loc 8 176 28 is_stmt 0 view .LVU177
	movq	(%rsp), %rdi
.LVL76:
	.loc 8 176 28 view .LVU178
.LBE351:
.LBE350:
.LBB352:
.LBI352:
	.loc 8 189 7 is_stmt 1 view .LVU179
	.loc 8 189 7 is_stmt 0 view .LVU180
.LBE352:
.LBE349:
	.loc 8 220 2 view .LVU181
	leaq	16(%rsp), %rax
	cmpq	%rax, %rdi
	je	.L35
.LVL77:
.LBB353:
.LBI353:
	.loc 8 225 7 is_stmt 1 view .LVU182
.LBB354:
.LBI354:
	.loc 5 461 7 view .LVU183
.LBB355:
.LBI355:
	.loc 6 116 7 view .LVU184
.LBB356:
	.loc 6 125 19 is_stmt 0 view .LVU185
	call	_ZdlPv
.LVL78:
	.loc 6 125 19 view .LVU186
.LBE356:
.LBE355:
.LBE354:
.LBE353:
.LBE348:
.LBE347:
.LBB357:
.LBI357:
	.loc 8 139 14 is_stmt 1 view .LVU187
.LBB358:
.LBI358:
	.loc 11 139 7 view .LVU188
.LBB359:
.LBI359:
	.loc 6 86 7 view .LVU189
.L35:
	.loc 6 86 7 is_stmt 0 view .LVU190
.LBE359:
.LBE358:
.LBE357:
.LBE346:
	.loc 3 21 110 discriminator 1 view .LVU191
	movq	%r12, %rdi
	call	_ZNSt11logic_errorD2Ev
.LVL79:
	movq	%rbx, %rdi
.LEHB6:
	call	_Unwind_Resume
.LVL80:
.LEHE6:
.L36:
	.loc 3 21 110 discriminator 1 view .LVU192
	movq	%rax, %rbx
.LVL81:
	.loc 3 21 110 discriminator 1 view .LVU193
	jmp	.L35
.LBE360:
	.cfi_endproc
.LFE1374:
	.section	.gcc_except_table
.LLSDA1374:
	.byte	0xff
	.byte	0xff
	.byte	0x1
	.uleb128 .LLSDACSE1374-.LLSDACSB1374
.LLSDACSB1374:
	.uleb128 .LEHB3-.LFB1374
	.uleb128 .LEHE3-.LEHB3
	.uleb128 0
	.uleb128 0
	.uleb128 .LEHB4-.LFB1374
	.uleb128 .LEHE4-.LEHB4
	.uleb128 .L36-.LFB1374
	.uleb128 0
	.uleb128 .LEHB5-.LFB1374
	.uleb128 .LEHE5-.LEHB5
	.uleb128 .L37-.LFB1374
	.uleb128 0
	.uleb128 .LEHB6-.LFB1374
	.uleb128 .LEHE6-.LEHB6
	.uleb128 0
	.uleb128 0
.LLSDACSE1374:
	.text
	.size	_ZN3mpp10exceptions7DBErrorC1ENSt7__cxx1112basic_stringIcSt11char_traitsIcESaIcEEE, .-_ZN3mpp10exceptions7DBErrorC1ENSt7__cxx1112basic_stringIcSt11char_traitsIcESaIcEEE
	.section	.text._ZN3mpp10exceptions7DBErrorD1Ev,"axG",@progbits,_ZN3mpp10exceptions7DBErrorD1Ev,comdat
	.weak	_ZTv0_n32_N3mpp10exceptions7DBErrorD1Ev
	.type	_ZTv0_n32_N3mpp10exceptions7DBErrorD1Ev, @function
_ZTv0_n32_N3mpp10exceptions7DBErrorD1Ev:
.LFB1840:
	.cfi_startproc
	subq	$8, %rsp
	.cfi_def_cfa_offset 16
	movq	(%rdi), %rax
	addq	-32(%rax), %rdi
	movq	%rdi, %rax
	movq	$_ZTCN3mpp10exceptions7DBErrorE0_NS0_9ExceptionE+24, (%rdi)
	leaq	8(%rdi), %rdi
	movq	$_ZTCN3mpp10exceptions7DBErrorE0_NS0_9ExceptionE+72, 8(%rax)
	call	_ZNSt11logic_errorD2Ev
	addq	$8, %rsp
	.cfi_def_cfa_offset 8
	ret
	.cfi_endproc
.LFE1840:
	.size	_ZTv0_n32_N3mpp10exceptions7DBErrorD1Ev, .-_ZTv0_n32_N3mpp10exceptions7DBErrorD1Ev
	.section	.text._ZN3mpp10exceptions7DBErrorD0Ev,"axG",@progbits,_ZN3mpp10exceptions7DBErrorD0Ev,comdat
	.weak	_ZTv0_n32_N3mpp10exceptions7DBErrorD0Ev
	.type	_ZTv0_n32_N3mpp10exceptions7DBErrorD0Ev, @function
_ZTv0_n32_N3mpp10exceptions7DBErrorD0Ev:
.LFB1843:
	.cfi_startproc
	pushq	%rbx
	.cfi_def_cfa_offset 16
	.cfi_offset 3, -16
	movq	(%rdi), %rax
	movq	%rdi, %rbx
	addq	-32(%rax), %rbx
	movq	$_ZTCN3mpp10exceptions7DBErrorE0_NS0_9ExceptionE+24, (%rbx)
	leaq	8(%rbx), %rdi
	movq	$_ZTCN3mpp10exceptions7DBErrorE0_NS0_9ExceptionE+72, 8(%rbx)
	call	_ZNSt11logic_errorD2Ev
	movl	$24, %esi
	movq	%rbx, %rdi
	call	_ZdlPvm
	popq	%rbx
	.cfi_def_cfa_offset 8
	ret
	.cfi_endproc
.LFE1843:
	.size	_ZTv0_n32_N3mpp10exceptions7DBErrorD0Ev, .-_ZTv0_n32_N3mpp10exceptions7DBErrorD0Ev
	.weak	_ZTSN3mpp10exceptions9ExceptionE
	.section	.rodata._ZTSN3mpp10exceptions9ExceptionE,"aG",@progbits,_ZTSN3mpp10exceptions9ExceptionE,comdat
	.align 16
	.type	_ZTSN3mpp10exceptions9ExceptionE, @object
	.size	_ZTSN3mpp10exceptions9ExceptionE, 29
_ZTSN3mpp10exceptions9ExceptionE:
	.string	"N3mpp10exceptions9ExceptionE"
	.weak	_ZTIN3mpp10exceptions9ExceptionE
	.section	.rodata._ZTIN3mpp10exceptions9ExceptionE,"aG",@progbits,_ZTIN3mpp10exceptions9ExceptionE,comdat
	.align 8
	.type	_ZTIN3mpp10exceptions9ExceptionE, @object
	.size	_ZTIN3mpp10exceptions9ExceptionE, 40
_ZTIN3mpp10exceptions9ExceptionE:
	.quad	_ZTVN10__cxxabiv121__vmi_class_type_infoE+16
	.quad	_ZTSN3mpp10exceptions9ExceptionE
	.long	0
	.long	1
	.quad	_ZTISt11logic_error
	.quad	-6141
	.weak	_ZTSN3mpp10exceptions7DBErrorE
	.section	.rodata._ZTSN3mpp10exceptions7DBErrorE,"aG",@progbits,_ZTSN3mpp10exceptions7DBErrorE,comdat
	.align 16
	.type	_ZTSN3mpp10exceptions7DBErrorE, @object
	.size	_ZTSN3mpp10exceptions7DBErrorE, 27
_ZTSN3mpp10exceptions7DBErrorE:
	.string	"N3mpp10exceptions7DBErrorE"
	.weak	_ZTIN3mpp10exceptions7DBErrorE
	.section	.rodata._ZTIN3mpp10exceptions7DBErrorE,"aG",@progbits,_ZTIN3mpp10exceptions7DBErrorE,comdat
	.align 8
	.type	_ZTIN3mpp10exceptions7DBErrorE, @object
	.size	_ZTIN3mpp10exceptions7DBErrorE, 40
_ZTIN3mpp10exceptions7DBErrorE:
	.quad	_ZTVN10__cxxabiv121__vmi_class_type_infoE+16
	.quad	_ZTSN3mpp10exceptions7DBErrorE
	.long	0
	.long	1
	.quad	_ZTIN3mpp10exceptions9ExceptionE
	.quad	-10237
	.hidden	_ZTCN3mpp10exceptions7DBErrorE0_NS0_9ExceptionE
	.weak	_ZTCN3mpp10exceptions7DBErrorE0_NS0_9ExceptionE
	.section	.rodata._ZTCN3mpp10exceptions7DBErrorE0_NS0_9ExceptionE,"aG",@progbits,_ZTVN3mpp10exceptions7DBErrorE,comdat
	.align 8
	.type	_ZTCN3mpp10exceptions7DBErrorE0_NS0_9ExceptionE, @object
	.size	_ZTCN3mpp10exceptions7DBErrorE0_NS0_9ExceptionE, 96
_ZTCN3mpp10exceptions7DBErrorE0_NS0_9ExceptionE:
	.quad	8
	.quad	0
	.quad	_ZTIN3mpp10exceptions9ExceptionE
	.quad	0
	.quad	0
	.quad	0
	.quad	-8
	.quad	-8
	.quad	_ZTIN3mpp10exceptions9ExceptionE
	.quad	0
	.quad	0
	.quad	_ZNKSt11logic_error4whatEv
	.weak	_ZTTN3mpp10exceptions7DBErrorE
	.section	.rodata._ZTTN3mpp10exceptions7DBErrorE,"aG",@progbits,_ZTVN3mpp10exceptions7DBErrorE,comdat
	.align 8
	.type	_ZTTN3mpp10exceptions7DBErrorE, @object
	.size	_ZTTN3mpp10exceptions7DBErrorE, 40
_ZTTN3mpp10exceptions7DBErrorE:
	.quad	_ZTVN3mpp10exceptions7DBErrorE+40
	.quad	_ZTVN3mpp10exceptions7DBErrorE+40
	.quad	_ZTVN3mpp10exceptions7DBErrorE+88
	.quad	_ZTCN3mpp10exceptions7DBErrorE0_NS0_9ExceptionE+24
	.quad	_ZTCN3mpp10exceptions7DBErrorE0_NS0_9ExceptionE+72
	.weak	_ZTVN3mpp10exceptions7DBErrorE
	.section	.rodata._ZTVN3mpp10exceptions7DBErrorE,"aG",@progbits,_ZTVN3mpp10exceptions7DBErrorE,comdat
	.align 8
	.type	_ZTVN3mpp10exceptions7DBErrorE, @object
	.size	_ZTVN3mpp10exceptions7DBErrorE, 112
_ZTVN3mpp10exceptions7DBErrorE:
	.quad	0
	.quad	0
	.quad	8
	.quad	0
	.quad	_ZTIN3mpp10exceptions7DBErrorE
	.quad	_ZN3mpp10exceptions7DBErrorD1Ev
	.quad	_ZN3mpp10exceptions7DBErrorD0Ev
	.quad	0
	.quad	-8
	.quad	-8
	.quad	_ZTIN3mpp10exceptions7DBErrorE
	.quad	_ZTv0_n24_N3mpp10exceptions7DBErrorD1Ev
	.quad	_ZTv0_n24_N3mpp10exceptions7DBErrorD0Ev
	.quad	_ZNKSt11logic_error4whatEv
	.text
.Letext0:
	.file 13 "/usr/include/c++/8/bits/stringfwd.h"
	.file 14 "/usr/include/c++/8/type_traits"
	.file 15 "/usr/include/c++/8/bits/stl_pair.h"
	.file 16 "/usr/include/c++/8/bits/cpp_type_traits.h"
	.file 17 "/usr/include/c++/8/bits/stl_iterator_base_types.h"
	.file 18 "/usr/include/c++/8/debug/debug.h"
	.file 19 "/usr/include/c++/8/cwchar"
	.file 20 "/usr/include/c++/8/x86_64-suse-linux/bits/c++config.h"
	.file 21 "/usr/include/c++/8/cstdint"
	.file 22 "/usr/include/c++/8/bits/exception_ptr.h"
	.file 23 "/usr/include/c++/8/new"
	.file 24 "/usr/include/c++/8/clocale"
	.file 25 "/usr/include/c++/8/limits"
	.file 26 "/usr/include/c++/8/string_view"
	.file 27 "/usr/include/c++/8/cstdlib"
	.file 28 "/usr/include/c++/8/cstdio"
	.file 29 "/usr/include/c++/8/initializer_list"
	.file 30 "/usr/include/c++/8/bits/ptr_traits.h"
	.file 31 "/usr/include/c++/8/bits/functexcept.h"
	.file 32 "/usr/include/c++/8/bits/predefined_ops.h"
	.file 33 "/usr/include/c++/8/ext/numeric_traits.h"
	.file 34 "/usr/include/c++/8/bits/stl_iterator.h"
	.file 35 "/usr/include/c++/8/ext/type_traits.h"
	.file 36 "/usr/lib64/gcc/x86_64-suse-linux/8/include/stddef.h"
	.file 37 "<built-in>"
	.file 38 "/usr/include/bits/types/wint_t.h"
	.file 39 "/usr/include/bits/types/__mbstate_t.h"
	.file 40 "/usr/include/bits/types/mbstate_t.h"
	.file 41 "/usr/include/bits/types/__FILE.h"
	.file 42 "/usr/include/libio.h"
	.file 43 "/usr/include/bits/types/FILE.h"
	.file 44 "/usr/include/wchar.h"
	.file 45 "/usr/include/bits/types/struct_tm.h"
	.file 46 "/usr/include/bits/types.h"
	.file 47 "/usr/include/bits/stdint-intn.h"
	.file 48 "/usr/include/bits/stdint-uintn.h"
	.file 49 "/usr/include/stdint.h"
	.file 50 "/usr/include/locale.h"
	.file 51 "/usr/include/time.h"
	.file 52 "/usr/include/stdlib.h"
	.file 53 "/usr/include/bits/stdlib-float.h"
	.file 54 "/usr/include/bits/stdlib-bsearch.h"
	.file 55 "/usr/include/_G_config.h"
	.file 56 "/usr/include/stdio.h"
	.file 57 "/usr/include/bits/sys_errlist.h"
	.file 58 "/usr/include/bits/stdio.h"
	.file 59 "/usr/include/errno.h"
	.section	.note.GNU-stack,"",@progbits
