	.file	"Header.cpp"
	.text
.Ltext0:
	.align 2
	.globl	_ZNK3mpp6Header8getValueEv
	.type	_ZNK3mpp6Header8getValueEv, @function
_ZNK3mpp6Header8getValueEv:
.LVL0:
.LFB1314:
	.file 1 "cpp/Header.cpp"
	.loc 1 31 1 view -0
	.cfi_startproc
	.loc 1 31 1 is_stmt 0 view .LVU1
	pushq	%rbx
	.cfi_def_cfa_offset 16
	.cfi_offset 3, -16
	subq	$16, %rsp
	.cfi_def_cfa_offset 32
	movq	%rdi, %rbx
	movq	%rsi, %rax
	.loc 1 32 2 is_stmt 1 view .LVU2
.LVL1:
.LBB441:
.LBI441:
	.file 2 "/usr/include/c++/10/any"
	.loc 2 153 5 view .LVU3
.LBB442:
.LBI442:
	.loc 2 82 17 view .LVU4
.LBB443:
	.loc 2 82 44 is_stmt 0 view .LVU5
	movq	$0, 8(%rdi)
.LVL2:
	.loc 2 82 44 view .LVU6
.LBE443:
.LBE442:
.LBE441:
	.loc 2 155 7 is_stmt 1 view .LVU7
.LBB449:
.LBB444:
.LBB445:
.LBI445:
	.loc 2 329 10 view .LVU8
.LBB446:
	.loc 2 329 39 view .LVU9
	.loc 2 329 39 is_stmt 0 view .LVU10
.LBE446:
.LBE445:
	.loc 2 155 7 view .LVU11
	cmpq	$0, 32(%rsi)
	je	.L5
	leaq	32(%rsi), %rsi
.LVL3:
.LBB447:
	.loc 2 159 4 is_stmt 1 view .LVU12
	.loc 2 160 4 view .LVU13
	.loc 2 160 17 is_stmt 0 view .LVU14
	movq	%rdi, 8(%rsp)
	.loc 2 161 4 is_stmt 1 view .LVU15
	.loc 2 161 22 is_stmt 0 view .LVU16
	leaq	8(%rsp), %rdx
	movl	$2, %edi
.LVL4:
	.loc 2 161 22 view .LVU17
	call	*32(%rax)
.LVL5:
.L1:
	.loc 2 161 22 view .LVU18
.LBE447:
.LBE444:
.LBE449:
	.loc 1 33 1 view .LVU19
	movq	%rbx, %rax
	addq	$16, %rsp
	.cfi_remember_state
	.cfi_def_cfa_offset 16
	popq	%rbx
	.cfi_def_cfa_offset 8
.LVL6:
	.loc 1 33 1 view .LVU20
	ret
.LVL7:
.L5:
	.cfi_restore_state
.LBB450:
.LBB448:
	.loc 2 156 2 is_stmt 1 view .LVU21
	.loc 2 156 13 is_stmt 0 view .LVU22
	movq	$0, (%rdi)
	jmp	.L1
.LBE448:
.LBE450:
	.cfi_endproc
.LFE1314:
	.size	_ZNK3mpp6Header8getValueEv, .-_ZNK3mpp6Header8getValueEv
	.align 2
	.globl	_ZN3mpp6HeaderC2EOS0_
	.type	_ZN3mpp6HeaderC2EOS0_, @function
_ZN3mpp6HeaderC2EOS0_:
.LVL8:
.LFB1321:
	.loc 1 47 1 is_stmt 1 view -0
	.cfi_startproc
	.cfi_personality 0x3,__gxx_personality_v0
	.cfi_lsda 0x3,.LLSDA1321
	.loc 1 47 1 is_stmt 0 view .LVU24
	movq	%rsi, %rax
.LVL9:
.LBB499:
.LBB500:
.LBI500:
	.file 3 "/usr/include/c++/10/bits/move.h"
	.loc 3 101 5 is_stmt 1 view .LVU25
	.loc 3 101 5 is_stmt 0 view .LVU26
.LBE500:
.LBB501:
.LBI501:
	.file 4 "/usr/include/c++/10/bits/basic_string.h"
	.loc 4 552 7 is_stmt 1 view .LVU27
.LBB502:
.LBB503:
.LBI503:
	.loc 4 286 7 view .LVU28
	.loc 4 286 7 is_stmt 0 view .LVU29
.LBE503:
.LBB504:
.LBI504:
	.loc 3 101 5 is_stmt 1 view .LVU30
	.loc 3 101 5 is_stmt 0 view .LVU31
.LBE504:
.LBB505:
.LBI505:
	.loc 4 190 7 is_stmt 1 view .LVU32
.LBB506:
	.loc 4 193 51 is_stmt 0 view .LVU33
	leaq	16(%rdi), %rdx
.LVL10:
	.loc 4 193 51 view .LVU34
.LBE506:
.LBE505:
.LBB507:
.LBI507:
	.loc 4 159 2 is_stmt 1 view .LVU35
.LBB508:
.LBB509:
.LBI509:
	.loc 3 101 5 view .LVU36
	.loc 3 101 5 is_stmt 0 view .LVU37
.LBE509:
.LBB510:
.LBI510:
	.file 5 "/usr/include/c++/10/bits/allocator.h"
	.loc 5 147 7 is_stmt 1 view .LVU38
.LBB511:
.LBI511:
	.file 6 "/usr/include/c++/10/ext/new_allocator.h"
	.loc 6 82 7 view .LVU39
	.loc 6 82 7 is_stmt 0 view .LVU40
.LBE511:
.LBE510:
	.loc 4 160 46 view .LVU41
	movq	%rdx, (%rdi)
.LVL11:
	.loc 4 160 46 view .LVU42
.LBE508:
.LBE507:
.LBB512:
.LBI512:
	.loc 4 221 7 is_stmt 1 view .LVU43
.LBB513:
.LBI513:
	.loc 4 186 7 view .LVU44
.LBB514:
	.loc 4 187 28 is_stmt 0 view .LVU45
	movq	(%rsi), %rcx
.LVL12:
	.loc 4 187 28 view .LVU46
.LBE514:
.LBE513:
.LBB515:
.LBI515:
	.loc 4 200 7 is_stmt 1 view .LVU47
.LBB516:
	.loc 4 203 57 is_stmt 0 view .LVU48
	leaq	16(%rsi), %rdx
.LVL13:
	.loc 4 203 57 view .LVU49
.LBE516:
.LBE515:
.LBE512:
	.loc 4 555 2 view .LVU50
	cmpq	%rdx, %rcx
	je	.L14
.LVL14:
.LBB517:
.LBI517:
	.loc 4 186 7 is_stmt 1 view .LVU51
	.loc 4 186 7 is_stmt 0 view .LVU52
.LBE517:
.LBB518:
.LBI518:
	.loc 4 178 7 is_stmt 1 view .LVU53
.LBB519:
	.loc 4 179 26 is_stmt 0 view .LVU54
	movq	%rcx, (%rdi)
.LVL15:
	.loc 4 179 26 view .LVU55
.LBE519:
.LBE518:
	.loc 4 563 17 view .LVU56
	movq	16(%rsi), %rcx
.LVL16:
.LBB520:
.LBI520:
	.loc 4 210 7 is_stmt 1 view .LVU57
.LBB521:
	.loc 4 211 31 is_stmt 0 view .LVU58
	movq	%rcx, 16(%rdi)
.LVL17:
.L8:
	.loc 4 211 31 view .LVU59
.LBE521:
.LBE520:
.LBB522:
.LBI522:
	.loc 4 907 7 is_stmt 1 view .LVU60
.LBB523:
	.loc 4 908 16 is_stmt 0 view .LVU61
	movq	8(%rax), %rcx
.LVL18:
	.loc 4 908 16 view .LVU62
.LBE523:
.LBE522:
.LBB524:
.LBI524:
	.loc 4 182 7 is_stmt 1 view .LVU63
.LBB525:
	.loc 4 183 26 is_stmt 0 view .LVU64
	movq	%rcx, 8(%rdi)
.LVL19:
	.loc 4 183 26 view .LVU65
.LBE525:
.LBE524:
.LBB526:
.LBI526:
	.loc 4 190 7 is_stmt 1 view .LVU66
	.loc 4 190 7 is_stmt 0 view .LVU67
.LBE526:
.LBB527:
.LBI527:
	.loc 4 178 7 is_stmt 1 view .LVU68
.LBB528:
	.loc 4 179 26 is_stmt 0 view .LVU69
	movq	%rdx, (%rax)
.LVL20:
	.loc 4 179 26 view .LVU70
.LBE528:
.LBE527:
.LBB529:
.LBI529:
	.loc 4 214 7 is_stmt 1 view .LVU71
.LBB530:
.LBI530:
	.loc 4 182 7 view .LVU72
.LBB531:
	.loc 4 183 26 is_stmt 0 view .LVU73
	movq	$0, 8(%rax)
.LVL21:
	.loc 4 183 26 view .LVU74
.LBE531:
.LBE530:
.LBB532:
.LBI532:
	.file 7 "/usr/include/c++/10/bits/char_traits.h"
	.loc 7 321 7 is_stmt 1 view .LVU75
.LBB533:
	.loc 7 322 9 view .LVU76
	.loc 7 322 14 is_stmt 0 view .LVU77
	movb	$0, 16(%rax)
.LVL22:
	.loc 7 322 14 view .LVU78
.LBE533:
.LBE532:
.LBE529:
.LBE502:
.LBE501:
	.loc 1 47 105 view .LVU79
	leaq	32(%rdi), %rdx
	.loc 1 47 98 view .LVU80
	leaq	32(%rax), %rsi
.LVL23:
.LBB536:
.LBI536:
	.loc 3 101 5 is_stmt 1 view .LVU81
	.loc 3 101 5 is_stmt 0 view .LVU82
.LBE536:
.LBB537:
.LBI537:
	.loc 2 170 5 is_stmt 1 view .LVU83
.LBB538:
.LBI538:
	.loc 2 82 17 view .LVU84
.LBB539:
	.loc 2 82 44 is_stmt 0 view .LVU85
	movq	$0, 8(%rdx)
.LVL24:
	.loc 2 82 44 view .LVU86
.LBE539:
.LBE538:
.LBE537:
.LBE499:
	.loc 2 172 7 is_stmt 1 view .LVU87
.LBB550:
.LBB546:
.LBB540:
.LBB541:
.LBI541:
	.loc 2 329 10 view .LVU88
.LBB542:
	.loc 2 329 39 view .LVU89
	.loc 2 329 39 is_stmt 0 view .LVU90
.LBE542:
.LBE541:
	.loc 2 172 7 view .LVU91
	cmpq	$0, 32(%rax)
	je	.L15
.LBE540:
.LBE546:
.LBE550:
	.loc 1 47 1 view .LVU92
	subq	$24, %rsp
	.cfi_def_cfa_offset 32
.LBB551:
.LBB547:
.LBB544:
.LBB543:
	.loc 2 176 4 is_stmt 1 view .LVU93
	.loc 2 177 4 view .LVU94
	.loc 2 177 17 is_stmt 0 view .LVU95
	movq	%rdx, 8(%rsp)
	.loc 2 178 4 is_stmt 1 view .LVU96
	.loc 2 178 22 is_stmt 0 view .LVU97
	leaq	8(%rsp), %rdx
	movl	$4, %edi
.LVL25:
	.loc 2 178 22 view .LVU98
	call	*32(%rax)
.LVL26:
	.loc 2 178 22 view .LVU99
.LBE543:
.LBE544:
.LBE547:
.LBE551:
	.loc 1 49 1 view .LVU100
	addq	$24, %rsp
	.cfi_def_cfa_offset 8
	ret
.LVL27:
.L14:
.LBB552:
.LBB548:
.LBB535:
.LBB534:
.LBI534:
	.loc 7 387 7 is_stmt 1 view .LVU101
.LBE534:
.LBE535:
.LBE548:
.LBE552:
	.loc 7 389 2 view .LVU102
	.loc 7 395 2 view .LVU103
	movdqu	16(%rsi), %xmm0
	movups	%xmm0, 16(%rdi)
	jmp	.L8
.LVL28:
.L15:
.LBB553:
.LBB549:
.LBB545:
	.loc 2 173 2 view .LVU104
	.loc 2 173 13 is_stmt 0 view .LVU105
	movq	$0, 32(%rdi)
	ret
.LBE545:
.LBE549:
.LBE553:
	.cfi_endproc
.LFE1321:
	.globl	__gxx_personality_v0
	.section	.gcc_except_table,"a",@progbits
.LLSDA1321:
	.byte	0xff
	.byte	0xff
	.byte	0x1
	.uleb128 .LLSDACSE1321-.LLSDACSB1321
.LLSDACSB1321:
.LLSDACSE1321:
	.text
	.size	_ZN3mpp6HeaderC2EOS0_, .-_ZN3mpp6HeaderC2EOS0_
	.globl	_ZN3mpp6HeaderC1EOS0_
	.set	_ZN3mpp6HeaderC1EOS0_,_ZN3mpp6HeaderC2EOS0_
	.align 2
	.globl	_ZN3mpp6HeaderaSERKS0_
	.type	_ZN3mpp6HeaderaSERKS0_, @function
_ZN3mpp6HeaderaSERKS0_:
.LVL29:
.LFB1323:
	.loc 1 56 1 is_stmt 1 view -0
	.cfi_startproc
	.cfi_personality 0x3,__gxx_personality_v0
	.cfi_lsda 0x3,.LLSDA1323
	.loc 1 56 1 is_stmt 0 view .LVU107
	pushq	%r12
	.cfi_def_cfa_offset 16
	.cfi_offset 12, -16
	pushq	%rbp
	.cfi_def_cfa_offset 24
	.cfi_offset 6, -24
	pushq	%rbx
	.cfi_def_cfa_offset 32
	.cfi_offset 3, -32
	subq	$32, %rsp
	.cfi_def_cfa_offset 64
	movq	%rdi, %rbx
	.loc 1 57 2 is_stmt 1 view .LVU108
	cmpq	%rdi, %rsi
	je	.L17
	movq	%rsi, %rbp
	.loc 1 61 2 view .LVU109
.LVL30:
.LBB589:
.LBI589:
	.loc 4 665 7 view .LVU110
.LBB590:
.LBI590:
	.loc 4 1335 7 view .LVU111
.LEHB0:
.LBB591:
	.loc 4 1366 17 is_stmt 0 view .LVU112
	call	_ZNSt7__cxx1112basic_stringIcSt11char_traitsIcESaIcEE9_M_assignERKS4_
.LVL31:
	.loc 4 1366 17 view .LVU113
.LBE591:
.LBE590:
.LBE589:
	.loc 1 62 2 is_stmt 1 view .LVU114
	.loc 1 62 17 is_stmt 0 view .LVU115
	leaq	32(%rbp), %rsi
	leaq	32(%rbx), %r12
.LVL32:
.LBB592:
.LBI592:
	.loc 2 224 5 is_stmt 1 view .LVU116
.LBB593:
	.loc 2 226 7 view .LVU117
.LBB594:
.LBI594:
	.loc 2 153 5 view .LVU118
.LBB595:
.LBB596:
.LBI596:
	.loc 2 82 17 view .LVU119
.LBB597:
.LBB598:
	.loc 2 82 44 is_stmt 0 view .LVU120
	movq	$0, 24(%rsp)
.LVL33:
	.loc 2 82 44 view .LVU121
.LBE598:
.LBE597:
.LBE596:
.LBE595:
.LBE594:
.LBE593:
.LBE592:
	.loc 2 155 7 is_stmt 1 view .LVU122
.LBB638:
.LBB633:
.LBB606:
.LBB604:
.LBB599:
.LBB600:
.LBI600:
	.loc 2 329 10 view .LVU123
.LBB601:
	.loc 2 329 39 view .LVU124
	.loc 2 329 39 is_stmt 0 view .LVU125
.LBE601:
.LBE600:
	.loc 2 155 7 view .LVU126
	cmpq	$0, 32(%rbp)
	je	.L26
.LBB602:
	.loc 2 159 4 is_stmt 1 view .LVU127
	.loc 2 160 4 view .LVU128
	.loc 2 160 17 is_stmt 0 view .LVU129
	leaq	16(%rsp), %rax
	movq	%rax, 8(%rsp)
	.loc 2 161 4 is_stmt 1 view .LVU130
	.loc 2 161 22 is_stmt 0 view .LVU131
	leaq	8(%rsp), %rdx
	movl	$2, %edi
	call	*32(%rbp)
.LVL34:
.LEHE0:
.L19:
	.loc 2 161 22 view .LVU132
.LBE602:
.LBE599:
.LBE604:
.LBE606:
.LBB607:
.LBI607:
	.loc 2 236 5 is_stmt 1 view .LVU133
.LBE607:
.LBE633:
.LBE638:
	.loc 2 238 7 view .LVU134
.LBB639:
.LBB634:
.LBB623:
.LBB608:
.LBB609:
.LBI609:
	.loc 2 329 10 view .LVU135
.LBB610:
	.loc 2 329 39 view .LVU136
	.loc 2 329 39 is_stmt 0 view .LVU137
.LBE610:
.LBE609:
	.loc 2 238 7 view .LVU138
	cmpq	$0, 16(%rsp)
	je	.L27
.LBE608:
.LBE623:
.LBE634:
.LBE639:
	.loc 2 240 12 is_stmt 1 view .LVU139
.LBB640:
.LBB635:
.LBB624:
.LBB621:
.LBB611:
	leaq	16(%rsp), %rax
	cmpq	%rax, %r12
	je	.L22
.LBB612:
	.loc 2 242 4 view .LVU140
.LVL35:
.LBB613:
.LBI613:
	.loc 2 287 10 view .LVU141
.LBB614:
	.loc 2 289 7 view .LVU142
.LBB615:
.LBI615:
	.loc 2 329 10 view .LVU143
.LBB616:
	.loc 2 329 39 view .LVU144
	.loc 2 329 46 is_stmt 0 view .LVU145
	movq	32(%rbx), %rax
.LVL36:
	.loc 2 329 46 view .LVU146
.LBE616:
.LBE615:
	.loc 2 289 7 view .LVU147
	testq	%rax, %rax
	je	.L23
	.loc 2 291 2 is_stmt 1 view .LVU148
	.loc 2 291 12 is_stmt 0 view .LVU149
	movl	$0, %edx
	movq	%r12, %rsi
	movl	$3, %edi
	call	*%rax
.LVL37:
	.loc 2 292 2 is_stmt 1 view .LVU150
	.loc 2 292 13 is_stmt 0 view .LVU151
	movq	$0, 32(%rbx)
.L23:
.LVL38:
	.loc 2 292 13 view .LVU152
.LBE614:
.LBE613:
	.loc 2 243 4 is_stmt 1 view .LVU153
	.loc 2 244 4 view .LVU154
	.loc 2 244 17 is_stmt 0 view .LVU155
	movq	%r12, 8(%rsp)
	.loc 2 245 4 is_stmt 1 view .LVU156
	.loc 2 245 20 is_stmt 0 view .LVU157
	leaq	8(%rsp), %rdx
	leaq	16(%rsp), %rsi
	movl	$4, %edi
	call	*16(%rsp)
.LVL39:
.L22:
	.loc 2 245 20 view .LVU158
.LBE612:
.LBE611:
.LBE621:
.LBE624:
.LBE635:
.LBE640:
	.loc 2 247 7 is_stmt 1 view .LVU159
.LBB641:
.LBB636:
.LBB625:
.LBI625:
	.loc 2 218 5 view .LVU160
.LBB626:
	.loc 2 218 14 view .LVU161
.LBB627:
.LBI627:
	.loc 2 287 10 view .LVU162
.LBB628:
	.loc 2 289 7 view .LVU163
.LBB629:
.LBI629:
	.loc 2 329 10 view .LVU164
.LBB630:
	.loc 2 329 39 view .LVU165
	.loc 2 329 46 is_stmt 0 view .LVU166
	movq	16(%rsp), %rax
.LVL40:
	.loc 2 329 46 view .LVU167
.LBE630:
.LBE629:
	.loc 2 289 7 view .LVU168
	testq	%rax, %rax
	je	.L17
	.loc 2 291 2 is_stmt 1 view .LVU169
	.loc 2 291 12 is_stmt 0 view .LVU170
	movl	$0, %edx
	leaq	16(%rsp), %rsi
	movl	$3, %edi
	call	*%rax
.LVL41:
	.loc 2 292 2 is_stmt 1 view .LVU171
	.loc 2 292 13 is_stmt 0 view .LVU172
	movq	$0, 16(%rsp)
.LVL42:
	.loc 2 292 13 view .LVU173
.LBE628:
.LBE627:
.LBE626:
.LBE625:
	.loc 2 227 7 is_stmt 1 view .LVU174
.L17:
	.loc 2 227 7 is_stmt 0 view .LVU175
.LBE636:
.LBE641:
	.loc 1 65 1 view .LVU176
	movq	%rbx, %rax
	addq	$32, %rsp
	.cfi_remember_state
	.cfi_def_cfa_offset 32
	popq	%rbx
	.cfi_def_cfa_offset 24
.LVL43:
	.loc 1 65 1 view .LVU177
	popq	%rbp
	.cfi_def_cfa_offset 16
	popq	%r12
	.cfi_def_cfa_offset 8
	ret
.LVL44:
.L26:
	.cfi_restore_state
.LBB642:
.LBB637:
.LBB631:
.LBB605:
.LBB603:
	.loc 2 156 2 is_stmt 1 view .LVU178
	.loc 2 156 13 is_stmt 0 view .LVU179
	movq	$0, 16(%rsp)
	jmp	.L19
.LVL45:
.L27:
	.loc 2 156 13 view .LVU180
.LBE603:
.LBE605:
.LBE631:
.LBB632:
.LBB622:
	.loc 2 239 2 is_stmt 1 view .LVU181
.LBB617:
.LBI617:
	.loc 2 287 10 view .LVU182
.LBB618:
	.loc 2 289 7 view .LVU183
.LBB619:
.LBI619:
	.loc 2 329 10 view .LVU184
.LBB620:
	.loc 2 329 39 view .LVU185
	.loc 2 329 46 is_stmt 0 view .LVU186
	movq	32(%rbx), %rax
.LVL46:
	.loc 2 329 46 view .LVU187
.LBE620:
.LBE619:
	.loc 2 289 7 view .LVU188
	testq	%rax, %rax
	je	.L22
	.loc 2 291 2 is_stmt 1 view .LVU189
	.loc 2 291 12 is_stmt 0 view .LVU190
	movl	$0, %edx
	movq	%r12, %rsi
	movl	$3, %edi
	call	*%rax
.LVL47:
	.loc 2 292 2 is_stmt 1 view .LVU191
	.loc 2 292 13 is_stmt 0 view .LVU192
	movq	$0, 32(%rbx)
	.loc 2 294 5 view .LVU193
	jmp	.L22
.LBE618:
.LBE617:
.LBE622:
.LBE632:
.LBE637:
.LBE642:
	.cfi_endproc
.LFE1323:
	.section	.gcc_except_table
.LLSDA1323:
	.byte	0xff
	.byte	0xff
	.byte	0x1
	.uleb128 .LLSDACSE1323-.LLSDACSB1323
.LLSDACSB1323:
	.uleb128 .LEHB0-.LFB1323
	.uleb128 .LEHE0-.LEHB0
	.uleb128 0
	.uleb128 0
.LLSDACSE1323:
	.text
	.size	_ZN3mpp6HeaderaSERKS0_, .-_ZN3mpp6HeaderaSERKS0_
	.align 2
	.globl	_ZN3mpp6HeaderaSEOS0_
	.type	_ZN3mpp6HeaderaSEOS0_, @function
_ZN3mpp6HeaderaSEOS0_:
.LVL48:
.LFB1324:
	.loc 1 72 1 is_stmt 1 view -0
	.cfi_startproc
	.cfi_personality 0x3,__gxx_personality_v0
	.cfi_lsda 0x3,.LLSDA1324
	.loc 1 72 1 is_stmt 0 view .LVU195
	pushq	%r13
	.cfi_def_cfa_offset 16
	.cfi_offset 13, -16
	pushq	%r12
	.cfi_def_cfa_offset 24
	.cfi_offset 12, -24
	pushq	%rbp
	.cfi_def_cfa_offset 32
	.cfi_offset 6, -32
	pushq	%rbx
	.cfi_def_cfa_offset 40
	.cfi_offset 3, -40
	subq	$24, %rsp
	.cfi_def_cfa_offset 64
	movq	%rdi, %rbp
	.loc 1 73 2 is_stmt 1 view .LVU196
	cmpq	%rdi, %rsi
	je	.L29
	movq	%rsi, %rbx
	.loc 1 77 2 view .LVU197
.LVL49:
.LBB712:
.LBI712:
	.loc 4 703 7 view .LVU198
.LBB713:
.LBI713:
	.loc 4 221 7 view .LVU199
.LBB714:
.LBI714:
	.loc 4 186 7 view .LVU200
.LBB715:
	.loc 4 187 28 is_stmt 0 view .LVU201
	movq	(%rdi), %rdi
.LVL50:
	.loc 4 187 28 view .LVU202
.LBE715:
.LBE714:
.LBB716:
.LBI716:
	.loc 4 200 7 is_stmt 1 view .LVU203
.LBB717:
	.loc 4 203 57 is_stmt 0 view .LVU204
	leaq	16(%rbp), %rdx
.LVL51:
	.loc 4 203 57 view .LVU205
.LBE717:
.LBE716:
.LBE713:
.LBB718:
.LBB719:
.LBI719:
	.loc 4 221 7 is_stmt 1 view .LVU206
.LBB720:
.LBI720:
	.loc 4 186 7 view .LVU207
.LBB721:
	.loc 4 187 28 is_stmt 0 view .LVU208
	movq	(%rsi), %rsi
.LVL52:
	.loc 4 187 28 view .LVU209
.LBE721:
.LBE720:
.LBB722:
.LBI722:
	.loc 4 200 7 is_stmt 1 view .LVU210
.LBB723:
	.loc 4 203 57 is_stmt 0 view .LVU211
	leaq	16(%rbx), %rax
.LVL53:
	.loc 4 203 57 view .LVU212
.LBE723:
.LBE722:
.LBE719:
	.loc 4 718 2 view .LVU213
	cmpq	%rax, %rsi
	je	.L43
.LVL54:
.LBB724:
	.loc 4 732 6 view .LVU214
	cmpq	%rdx, %rdi
	je	.L41
.LVL55:
	.loc 4 738 18 view .LVU215
	movq	16(%rbp), %rcx
.LVL56:
.L35:
.LBB725:
.LBI725:
	.loc 4 178 7 is_stmt 1 view .LVU216
.LBB726:
	.loc 4 179 26 is_stmt 0 view .LVU217
	movq	%rsi, 0(%rbp)
.LVL57:
	.loc 4 179 26 view .LVU218
.LBE726:
.LBE725:
.LBB727:
.LBI727:
	.loc 4 907 7 is_stmt 1 view .LVU219
.LBB728:
	.loc 4 908 16 is_stmt 0 view .LVU220
	movq	8(%rbx), %rdx
.LVL58:
	.loc 4 908 16 view .LVU221
.LBE728:
.LBE727:
.LBB729:
.LBI729:
	.loc 4 182 7 is_stmt 1 view .LVU222
.LBB730:
	.loc 4 183 26 is_stmt 0 view .LVU223
	movq	%rdx, 8(%rbp)
.LVL59:
	.loc 4 183 26 view .LVU224
.LBE730:
.LBE729:
	.loc 4 746 17 view .LVU225
	movq	16(%rbx), %rdx
.LVL60:
.LBB731:
.LBI731:
	.loc 4 210 7 is_stmt 1 view .LVU226
.LBB732:
	.loc 4 211 31 is_stmt 0 view .LVU227
	movq	%rdx, 16(%rbp)
.LVL61:
	.loc 4 211 31 view .LVU228
.LBE732:
.LBE731:
	.loc 4 747 6 view .LVU229
	testq	%rdi, %rdi
	je	.L36
.LVL62:
.LBB733:
.LBI733:
	.loc 4 178 7 is_stmt 1 view .LVU230
.LBB734:
	.loc 4 179 26 is_stmt 0 view .LVU231
	movq	%rdi, (%rbx)
.LVL63:
	.loc 4 179 26 view .LVU232
.LBE734:
.LBE733:
.LBB735:
.LBI735:
	.loc 4 210 7 is_stmt 1 view .LVU233
.LBB736:
	.loc 4 211 31 is_stmt 0 view .LVU234
	movq	%rcx, 16(%rbx)
.LVL64:
.L34:
	.loc 4 211 31 view .LVU235
.LBE736:
.LBE735:
.LBE724:
.LBE718:
.LBB757:
.LBI757:
	.loc 4 994 7 is_stmt 1 view .LVU236
.LBB758:
.LBI758:
	.loc 4 214 7 view .LVU237
.LBB759:
.LBI759:
	.loc 4 182 7 view .LVU238
.LBB760:
	.loc 4 183 26 is_stmt 0 view .LVU239
	movq	$0, 8(%rbx)
.LVL65:
	.loc 4 183 26 view .LVU240
.LBE760:
.LBE759:
.LBB761:
.LBI761:
	.loc 4 186 7 is_stmt 1 view .LVU241
.LBB762:
	.loc 4 187 28 is_stmt 0 view .LVU242
	movq	(%rbx), %rax
.LVL66:
	.loc 4 187 28 view .LVU243
.LBE762:
.LBE761:
.LBB763:
.LBI763:
	.loc 7 321 7 is_stmt 1 view .LVU244
.LBB764:
	.loc 7 322 9 view .LVU245
	.loc 7 322 14 is_stmt 0 view .LVU246
	movb	$0, (%rax)
.LVL67:
	.loc 7 322 14 view .LVU247
.LBE764:
.LBE763:
.LBE758:
.LBE757:
.LBE712:
	.loc 1 78 2 is_stmt 1 view .LVU248
	.loc 1 78 27 is_stmt 0 view .LVU249
	leaq	32(%rbx), %r13
	.loc 1 78 33 view .LVU250
	leaq	32(%rbp), %r12
.LVL68:
.LBB766:
.LBI766:
	.loc 2 236 5 is_stmt 1 view .LVU251
.LBB767:
	.loc 2 238 7 view .LVU252
.LBB768:
.LBB769:
.LBI769:
	.loc 2 329 10 view .LVU253
.LBB770:
	.loc 2 329 39 view .LVU254
	.loc 2 329 39 is_stmt 0 view .LVU255
.LBE770:
.LBE769:
	.loc 2 238 7 view .LVU256
	cmpq	$0, 32(%rbx)
	je	.L44
.LBE768:
.LBE767:
.LBE766:
	.loc 2 240 12 is_stmt 1 view .LVU257
.LBB785:
.LBB783:
.LBB781:
.LBB771:
	cmpq	%r12, %r13
	je	.L29
.LBB772:
	.loc 2 242 4 view .LVU258
.LVL69:
.LBB773:
.LBI773:
	.loc 2 287 10 view .LVU259
.LBB774:
	.loc 2 289 7 view .LVU260
.LBB775:
.LBI775:
	.loc 2 329 10 view .LVU261
.LBB776:
	.loc 2 329 39 view .LVU262
	.loc 2 329 46 is_stmt 0 view .LVU263
	movq	32(%rbp), %rax
.LVL70:
	.loc 2 329 46 view .LVU264
.LBE776:
.LBE775:
	.loc 2 289 7 view .LVU265
	testq	%rax, %rax
	je	.L40
	.loc 2 291 2 is_stmt 1 view .LVU266
	.loc 2 291 12 is_stmt 0 view .LVU267
	movl	$0, %edx
	movq	%r12, %rsi
	movl	$3, %edi
	call	*%rax
.LVL71:
	.loc 2 292 2 is_stmt 1 view .LVU268
	.loc 2 292 13 is_stmt 0 view .LVU269
	movq	$0, 32(%rbp)
.L40:
.LVL72:
	.loc 2 292 13 view .LVU270
.LBE774:
.LBE773:
	.loc 2 243 4 is_stmt 1 view .LVU271
	.loc 2 244 4 view .LVU272
	.loc 2 244 17 is_stmt 0 view .LVU273
	movq	%r12, 8(%rsp)
	.loc 2 245 4 is_stmt 1 view .LVU274
	.loc 2 245 20 is_stmt 0 view .LVU275
	leaq	8(%rsp), %rdx
	movq	%r13, %rsi
	movl	$4, %edi
	call	*32(%rbx)
.LVL73:
.LBE772:
.LBE771:
.LBE781:
	.loc 2 247 7 is_stmt 1 view .LVU276
.L29:
	.loc 2 247 7 is_stmt 0 view .LVU277
.LBE783:
.LBE785:
	.loc 1 81 1 view .LVU278
	movq	%rbp, %rax
	addq	$24, %rsp
	.cfi_remember_state
	.cfi_def_cfa_offset 40
	popq	%rbx
	.cfi_def_cfa_offset 32
	popq	%rbp
	.cfi_def_cfa_offset 24
.LVL74:
	.loc 1 81 1 view .LVU279
	popq	%r12
	.cfi_def_cfa_offset 16
	popq	%r13
	.cfi_def_cfa_offset 8
	ret
.LVL75:
.L43:
	.cfi_restore_state
.LBB786:
.LBB765:
.LBB739:
.LBI739:
	.loc 4 901 7 is_stmt 1 view .LVU280
.LBB740:
	.loc 4 902 16 is_stmt 0 view .LVU281
	movq	8(%rbx), %rdx
.LVL76:
	.loc 4 902 16 view .LVU282
.LBE740:
.LBE739:
	.loc 4 721 6 view .LVU283
	testq	%rdx, %rdx
	jne	.L45
.L31:
.LVL77:
.LBB741:
.LBI741:
	.loc 4 901 7 is_stmt 1 view .LVU284
.LBB742:
	.loc 4 902 16 is_stmt 0 view .LVU285
	movq	8(%rbx), %rax
.LVL78:
	.loc 4 902 16 view .LVU286
.LBE742:
.LBE741:
.LBB743:
.LBI743:
	.loc 4 214 7 is_stmt 1 view .LVU287
.LBB744:
.LBB745:
.LBI745:
	.loc 4 182 7 view .LVU288
.LBB746:
	.loc 4 183 26 is_stmt 0 view .LVU289
	movq	%rax, 8(%rbp)
.LVL79:
	.loc 4 183 26 view .LVU290
.LBE746:
.LBE745:
.LBB747:
.LBI747:
	.loc 4 186 7 is_stmt 1 view .LVU291
	.loc 4 186 7 is_stmt 0 view .LVU292
.LBE747:
	.loc 4 217 31 view .LVU293
	addq	0(%rbp), %rax
.LVL80:
.LBB748:
.LBI748:
	.loc 7 321 7 is_stmt 1 view .LVU294
.LBB749:
	.loc 7 322 9 view .LVU295
	.loc 7 322 14 is_stmt 0 view .LVU296
	movb	$0, (%rax)
.LVL81:
	.loc 7 322 14 view .LVU297
.LBE749:
.LBE748:
	.loc 4 218 7 view .LVU298
	jmp	.L34
.LVL82:
.L45:
	.loc 4 218 7 view .LVU299
.LBE744:
.LBE743:
.LBB750:
.LBI750:
	.loc 4 346 7 is_stmt 1 view .LVU300
.LBB751:
	.loc 4 348 2 is_stmt 0 view .LVU301
	cmpq	$1, %rdx
	je	.L46
.LVL83:
.LBB752:
.LBI752:
	.loc 7 387 7 is_stmt 1 view .LVU302
.LBB753:
	.loc 7 389 2 view .LVU303
	testq	%rdx, %rdx
	je	.L31
	.loc 7 395 2 view .LVU304
	.loc 7 395 49 is_stmt 0 view .LVU305
	call	memcpy
.LVL84:
	.loc 7 395 49 view .LVU306
.LBE753:
.LBE752:
	.loc 4 352 7 view .LVU307
	jmp	.L31
.LVL85:
.L46:
.LBB754:
.LBI754:
	.loc 7 321 7 is_stmt 1 view .LVU308
.LBB755:
	.loc 7 322 9 view .LVU309
	.loc 7 322 16 is_stmt 0 view .LVU310
	movzbl	(%rsi), %eax
	.loc 7 322 14 view .LVU311
	movb	%al, (%rdi)
	.loc 7 322 22 view .LVU312
	jmp	.L31
.LVL86:
.L41:
	.loc 7 322 22 view .LVU313
.LBE755:
.LBE754:
.LBE751:
.LBE750:
.LBB756:
	.loc 4 730 14 view .LVU314
	movl	$0, %edi
	jmp	.L35
.LVL87:
.L36:
.LBB737:
.LBI737:
	.loc 4 178 7 is_stmt 1 view .LVU315
.LBB738:
	.loc 4 179 26 is_stmt 0 view .LVU316
	movq	%rax, (%rbx)
	.loc 4 179 33 view .LVU317
	jmp	.L34
.LVL88:
.L44:
	.loc 4 179 33 view .LVU318
.LBE738:
.LBE737:
.LBE756:
.LBE765:
.LBE786:
.LBB787:
.LBB784:
.LBB782:
	.loc 2 239 2 is_stmt 1 view .LVU319
.LBB777:
.LBI777:
	.loc 2 287 10 view .LVU320
.LBB778:
	.loc 2 289 7 view .LVU321
.LBB779:
.LBI779:
	.loc 2 329 10 view .LVU322
.LBB780:
	.loc 2 329 39 view .LVU323
	.loc 2 329 46 is_stmt 0 view .LVU324
	movq	32(%rbp), %rax
.LVL89:
	.loc 2 329 46 view .LVU325
.LBE780:
.LBE779:
	.loc 2 289 7 view .LVU326
	testq	%rax, %rax
	je	.L29
	.loc 2 291 2 is_stmt 1 view .LVU327
	.loc 2 291 12 is_stmt 0 view .LVU328
	movl	$0, %edx
	movq	%r12, %rsi
	movl	$3, %edi
	call	*%rax
.LVL90:
	.loc 2 292 2 is_stmt 1 view .LVU329
	.loc 2 292 13 is_stmt 0 view .LVU330
	movq	$0, 32(%rbp)
	.loc 2 294 5 view .LVU331
	jmp	.L29
.LBE778:
.LBE777:
.LBE782:
.LBE784:
.LBE787:
	.cfi_endproc
.LFE1324:
	.section	.gcc_except_table
.LLSDA1324:
	.byte	0xff
	.byte	0xff
	.byte	0x1
	.uleb128 .LLSDACSE1324-.LLSDACSB1324
.LLSDACSB1324:
.LLSDACSE1324:
	.text
	.size	_ZN3mpp6HeaderaSEOS0_, .-_ZN3mpp6HeaderaSEOS0_
	.align 2
	.globl	_ZN3mpp6HeaderC2Ev
	.type	_ZN3mpp6HeaderC2Ev, @function
_ZN3mpp6HeaderC2Ev:
.LVL91:
.LFB1330:
	.loc 1 86 1 is_stmt 1 view -0
	.cfi_startproc
.LBB788:
.LBI788:
	.loc 4 431 7 view .LVU333
.LBB789:
.LBI789:
	.loc 5 144 7 view .LVU334
.LBB790:
.LBI790:
	.loc 6 79 7 view .LVU335
	.loc 6 79 7 is_stmt 0 view .LVU336
.LBE790:
.LBE789:
.LBB791:
.LBI791:
	.loc 4 190 7 is_stmt 1 view .LVU337
.LBB792:
	.loc 4 193 51 is_stmt 0 view .LVU338
	leaq	16(%rdi), %rax
.LVL92:
	.loc 4 193 51 view .LVU339
.LBE792:
.LBE791:
.LBB793:
.LBI793:
	.loc 4 159 2 is_stmt 1 view .LVU340
.LBB794:
.LBB795:
.LBI795:
	.loc 3 101 5 view .LVU341
	.loc 3 101 5 is_stmt 0 view .LVU342
.LBE795:
.LBB796:
.LBI796:
	.loc 5 147 7 is_stmt 1 view .LVU343
.LBB797:
.LBI797:
	.loc 6 82 7 view .LVU344
	.loc 6 82 7 is_stmt 0 view .LVU345
.LBE797:
.LBE796:
	.loc 4 160 46 view .LVU346
	movq	%rax, (%rdi)
.LVL93:
	.loc 4 160 46 view .LVU347
.LBE794:
.LBE793:
.LBB798:
.LBI798:
	.loc 5 162 7 is_stmt 1 view .LVU348
.LBB799:
.LBI799:
	.loc 6 89 7 view .LVU349
	.loc 6 89 7 is_stmt 0 view .LVU350
.LBE799:
.LBE798:
.LBB800:
.LBI800:
	.loc 4 214 7 is_stmt 1 view .LVU351
.LBB801:
.LBI801:
	.loc 4 182 7 view .LVU352
.LBB802:
	.loc 4 183 26 is_stmt 0 view .LVU353
	movq	$0, 8(%rdi)
.LVL94:
	.loc 4 183 26 view .LVU354
.LBE802:
.LBE801:
.LBB803:
.LBI803:
	.loc 7 321 7 is_stmt 1 view .LVU355
.LBB804:
	.loc 7 322 9 view .LVU356
	.loc 7 322 14 is_stmt 0 view .LVU357
	movb	$0, 16(%rdi)
.LVL95:
	.loc 7 322 14 view .LVU358
.LBE804:
.LBE803:
.LBE800:
.LBE788:
.LBB805:
.LBI805:
	.loc 2 150 15 is_stmt 1 view .LVU359
.LBB806:
	.loc 2 150 50 is_stmt 0 view .LVU360
	movq	$0, 32(%rdi)
.LVL96:
.LBB807:
.LBI807:
	.loc 2 82 17 is_stmt 1 view .LVU361
.LBB808:
	.loc 2 82 44 is_stmt 0 view .LVU362
	movq	$0, 40(%rdi)
.LVL97:
	.loc 2 82 44 view .LVU363
.LBE808:
.LBE807:
.LBE806:
.LBE805:
	.loc 1 88 1 view .LVU364
	ret
	.cfi_endproc
.LFE1330:
	.size	_ZN3mpp6HeaderC2Ev, .-_ZN3mpp6HeaderC2Ev
	.globl	_ZN3mpp6HeaderC1Ev
	.set	_ZN3mpp6HeaderC1Ev,_ZN3mpp6HeaderC2Ev
	.section	.rodata._ZNSt7__cxx1112basic_stringIcSt11char_traitsIcESaIcEE12_M_constructIPcEEvT_S7_St20forward_iterator_tag.str1.8,"aMS",@progbits,1
	.align 8
.LC0:
	.string	"basic_string::_M_construct null not valid"
	.section	.text._ZNSt7__cxx1112basic_stringIcSt11char_traitsIcESaIcEE12_M_constructIPcEEvT_S7_St20forward_iterator_tag,"axG",@progbits,_ZNSt7__cxx1112basic_stringIcSt11char_traitsIcESaIcEE12_M_constructIPcEEvT_S7_St20forward_iterator_tag,comdat
	.align 2
	.weak	_ZNSt7__cxx1112basic_stringIcSt11char_traitsIcESaIcEE12_M_constructIPcEEvT_S7_St20forward_iterator_tag
	.type	_ZNSt7__cxx1112basic_stringIcSt11char_traitsIcESaIcEE12_M_constructIPcEEvT_S7_St20forward_iterator_tag, @function
_ZNSt7__cxx1112basic_stringIcSt11char_traitsIcESaIcEE12_M_constructIPcEEvT_S7_St20forward_iterator_tag:
.LVL98:
.LFB1742:
	.file 8 "/usr/include/c++/10/bits/basic_string.tcc"
	.loc 8 206 7 is_stmt 1 view -0
	.cfi_startproc
	.loc 8 206 7 is_stmt 0 view .LVU366
	pushq	%r12
	.cfi_def_cfa_offset 16
	.cfi_offset 12, -16
	pushq	%rbp
	.cfi_def_cfa_offset 24
	.cfi_offset 6, -24
	pushq	%rbx
	.cfi_def_cfa_offset 32
	.cfi_offset 3, -32
	subq	$16, %rsp
	.cfi_def_cfa_offset 48
	movq	%rdi, %rbp
	movq	%rsi, %r12
	movq	%rdx, %rbx
	.loc 8 211 42 view .LVU367
	testq	%rsi, %rsi
	je	.L54
.L49:
.LVL99:
.LBB835:
.LBI835:
	.file 9 "/usr/include/c++/10/bits/stl_iterator_base_funcs.h"
	.loc 9 138 5 is_stmt 1 view .LVU368
.LBB836:
.LBB837:
.LBI837:
	.loc 9 98 5 view .LVU369
.LBB838:
	.loc 9 104 23 is_stmt 0 view .LVU370
	subq	%r12, %rbx
.LVL100:
	.loc 9 104 23 view .LVU371
.LBE838:
.LBE837:
.LBE836:
.LBE835:
	.loc 8 215 12 view .LVU372
	movq	%rbx, 8(%rsp)
	.loc 8 217 2 view .LVU373
	cmpq	$15, %rbx
	ja	.L55
.LVL101:
.L50:
.LBB839:
.LBI839:
	.loc 4 186 7 is_stmt 1 view .LVU374
.LBB840:
	.loc 4 187 28 is_stmt 0 view .LVU375
	movq	0(%rbp), %rdi
.LVL102:
	.loc 4 187 28 view .LVU376
.LBE840:
.LBE839:
.LBB841:
.LBI841:
	.loc 4 392 7 is_stmt 1 view .LVU377
.LBB842:
.LBI842:
	.loc 4 346 7 view .LVU378
.LBB843:
	.loc 4 348 2 is_stmt 0 view .LVU379
	cmpq	$1, %rbx
	je	.L56
.LVL103:
.LBB844:
.LBI844:
	.loc 7 387 7 is_stmt 1 view .LVU380
.LBB845:
	.loc 7 389 2 view .LVU381
	testq	%rbx, %rbx
	je	.L52
	.loc 7 395 2 view .LVU382
	.loc 7 395 49 is_stmt 0 view .LVU383
	movq	%rbx, %rdx
	movq	%r12, %rsi
	call	memcpy
.LVL104:
	.loc 7 395 66 view .LVU384
	jmp	.L52
.LVL105:
.L54:
	.loc 7 395 66 view .LVU385
.LBE845:
.LBE844:
.LBE843:
.LBE842:
.LBE841:
	.loc 8 211 42 discriminator 1 view .LVU386
	cmpq	%rdx, %rsi
	je	.L49
	.loc 8 212 28 view .LVU387
	movl	$.LC0, %edi
.LVL106:
	.loc 8 212 28 view .LVU388
	call	_ZSt19__throw_logic_errorPKc
.LVL107:
.L55:
	.loc 8 219 13 view .LVU389
	movl	$0, %edx
.LVL108:
	.loc 8 219 13 view .LVU390
	leaq	8(%rsp), %rsi
	movq	%rbp, %rdi
.LVL109:
	.loc 8 219 13 view .LVU391
	call	_ZNSt7__cxx1112basic_stringIcSt11char_traitsIcESaIcEE9_M_createERmm
.LVL110:
.LBB850:
.LBI850:
	.loc 4 178 7 is_stmt 1 view .LVU392
.LBB851:
	.loc 4 179 26 is_stmt 0 view .LVU393
	movq	%rax, 0(%rbp)
.LVL111:
	.loc 4 179 26 view .LVU394
.LBE851:
.LBE850:
	.loc 8 220 17 view .LVU395
	movq	8(%rsp), %rax
.LVL112:
.LBB852:
.LBI852:
	.loc 4 210 7 is_stmt 1 view .LVU396
.LBB853:
	.loc 4 211 31 is_stmt 0 view .LVU397
	movq	%rax, 16(%rbp)
	.loc 4 211 45 view .LVU398
	jmp	.L50
.LVL113:
.L56:
	.loc 4 211 45 view .LVU399
.LBE853:
.LBE852:
.LBB854:
.LBB849:
.LBB848:
.LBB846:
.LBI846:
	.loc 7 321 7 is_stmt 1 view .LVU400
.LBB847:
	.loc 7 322 9 view .LVU401
	.loc 7 322 16 is_stmt 0 view .LVU402
	movzbl	(%r12), %eax
	.loc 7 322 14 view .LVU403
	movb	%al, (%rdi)
.LVL114:
.L52:
	.loc 7 322 14 view .LVU404
.LBE847:
.LBE846:
.LBE848:
.LBE849:
.LBE854:
	.loc 8 232 15 view .LVU405
	movq	8(%rsp), %rax
.LVL115:
.LBB855:
.LBI855:
	.loc 4 214 7 is_stmt 1 view .LVU406
.LBB856:
.LBB857:
.LBI857:
	.loc 4 182 7 view .LVU407
.LBB858:
	.loc 4 183 26 is_stmt 0 view .LVU408
	movq	%rax, 8(%rbp)
.LVL116:
	.loc 4 183 26 view .LVU409
.LBE858:
.LBE857:
.LBB859:
.LBI859:
	.loc 4 186 7 is_stmt 1 view .LVU410
	.loc 4 186 7 is_stmt 0 view .LVU411
.LBE859:
	.loc 4 217 31 view .LVU412
	addq	0(%rbp), %rax
.LVL117:
.LBB860:
.LBI860:
	.loc 7 321 7 is_stmt 1 view .LVU413
.LBB861:
	.loc 7 322 9 view .LVU414
	.loc 7 322 14 is_stmt 0 view .LVU415
	movb	$0, (%rax)
.LVL118:
	.loc 7 322 14 view .LVU416
.LBE861:
.LBE860:
.LBE856:
.LBE855:
	.loc 8 233 7 view .LVU417
	addq	$16, %rsp
	.cfi_def_cfa_offset 32
	popq	%rbx
	.cfi_def_cfa_offset 24
	popq	%rbp
	.cfi_def_cfa_offset 16
.LVL119:
	.loc 8 233 7 view .LVU418
	popq	%r12
	.cfi_def_cfa_offset 8
.LVL120:
	.loc 8 233 7 view .LVU419
	ret
	.cfi_endproc
.LFE1742:
	.size	_ZNSt7__cxx1112basic_stringIcSt11char_traitsIcESaIcEE12_M_constructIPcEEvT_S7_St20forward_iterator_tag, .-_ZNSt7__cxx1112basic_stringIcSt11char_traitsIcESaIcEE12_M_constructIPcEEvT_S7_St20forward_iterator_tag
	.text
	.align 2
	.globl	_ZN3mpp6HeaderC2ERKS0_
	.type	_ZN3mpp6HeaderC2ERKS0_, @function
_ZN3mpp6HeaderC2ERKS0_:
.LVL121:
.LFB1316:
	.loc 1 39 1 is_stmt 1 view -0
	.cfi_startproc
	.cfi_personality 0x3,__gxx_personality_v0
	.cfi_lsda 0x3,.LLSDA1316
	.loc 1 39 1 is_stmt 0 view .LVU421
	pushq	%rbp
	.cfi_def_cfa_offset 16
	.cfi_offset 6, -16
	pushq	%rbx
	.cfi_def_cfa_offset 24
	.cfi_offset 3, -24
	subq	$24, %rsp
	.cfi_def_cfa_offset 48
	movq	%rdi, %rbp
	movq	%rsi, %rbx
.LVL122:
.LBB908:
.LBB909:
.LBI909:
	.loc 4 448 7 is_stmt 1 view .LVU422
.LBB910:
.LBB911:
.LBI911:
	.loc 4 290 7 view .LVU423
	.loc 4 290 7 is_stmt 0 view .LVU424
.LBE911:
.LBB912:
.LBI912:
	.file 10 "/usr/include/c++/10/ext/alloc_traits.h"
	.loc 10 97 29 is_stmt 1 view .LVU425
.LBB913:
.LBI913:
	.file 11 "/usr/include/c++/10/bits/alloc_traits.h"
	.loc 11 558 7 view .LVU426
.LBB914:
.LBI914:
	.loc 5 147 7 view .LVU427
.LBB915:
.LBI915:
	.loc 6 82 7 view .LVU428
	.loc 6 82 7 is_stmt 0 view .LVU429
.LBE915:
.LBE914:
.LBE913:
.LBE912:
.LBB916:
.LBI916:
	.loc 4 190 7 is_stmt 1 view .LVU430
.LBB917:
	.loc 4 193 51 is_stmt 0 view .LVU431
	leaq	16(%rdi), %rax
.LVL123:
	.loc 4 193 51 view .LVU432
.LBE917:
.LBE916:
.LBB918:
.LBI918:
	.loc 4 159 2 is_stmt 1 view .LVU433
.LBB919:
.LBB920:
.LBI920:
	.loc 3 101 5 view .LVU434
	.loc 3 101 5 is_stmt 0 view .LVU435
.LBE920:
.LBB921:
.LBI921:
	.loc 5 147 7 is_stmt 1 view .LVU436
.LBB922:
.LBI922:
	.loc 6 82 7 view .LVU437
	.loc 6 82 7 is_stmt 0 view .LVU438
.LBE922:
.LBE921:
	.loc 4 160 46 view .LVU439
	movq	%rax, (%rdi)
.LVL124:
	.loc 4 160 46 view .LVU440
.LBE919:
.LBE918:
.LBB923:
.LBI923:
	.loc 5 162 7 is_stmt 1 view .LVU441
.LBB924:
.LBI924:
	.loc 6 89 7 view .LVU442
	.loc 6 89 7 is_stmt 0 view .LVU443
.LBE924:
.LBE923:
.LBB925:
.LBI925:
	.loc 4 186 7 is_stmt 1 view .LVU444
.LBB926:
	.loc 4 187 28 is_stmt 0 view .LVU445
	movq	(%rsi), %rsi
.LVL125:
	.loc 4 187 28 view .LVU446
.LBE926:
.LBE925:
.LBB927:
.LBI927:
	.loc 4 907 7 is_stmt 1 view .LVU447
	.loc 4 907 7 is_stmt 0 view .LVU448
.LBE927:
	.loc 4 451 21 view .LVU449
	movq	%rsi, %rdx
	addq	8(%rbx), %rdx
.LVL126:
.LBB928:
.LBI928:
	.loc 4 186 7 is_stmt 1 view .LVU450
	.loc 4 186 7 is_stmt 0 view .LVU451
.LBE928:
.LBB929:
.LBI929:
	.loc 4 263 9 is_stmt 1 view .LVU452
.LBB930:
.LBB931:
.LBI931:
	.loc 4 243 9 view .LVU453
.LEHB1:
.LBB932:
	.loc 4 247 23 is_stmt 0 view .LVU454
	call	_ZNSt7__cxx1112basic_stringIcSt11char_traitsIcESaIcEE12_M_constructIPcEEvT_S7_St20forward_iterator_tag
.LVL127:
.LEHE1:
	.loc 4 247 23 view .LVU455
.LBE932:
.LBE931:
.LBE930:
.LBE929:
.LBE910:
.LBE909:
	.loc 1 39 88 view .LVU456
	leaq	32(%rbp), %rax
.LVL128:
.LBB933:
.LBI933:
	.loc 2 153 5 is_stmt 1 view .LVU457
.LBB934:
.LBI934:
	.loc 2 82 17 view .LVU458
.LBB935:
	.loc 2 82 44 is_stmt 0 view .LVU459
	movq	$0, 8(%rax)
.LVL129:
	.loc 2 82 44 view .LVU460
.LBE935:
.LBE934:
.LBE933:
.LBE908:
	.loc 2 155 7 is_stmt 1 view .LVU461
.LBB947:
.LBB940:
.LBB936:
.LBB937:
.LBI937:
	.loc 2 329 10 view .LVU462
.LBB938:
	.loc 2 329 39 view .LVU463
	.loc 2 329 39 is_stmt 0 view .LVU464
.LBE938:
.LBE937:
	.loc 2 155 7 view .LVU465
	cmpq	$0, 32(%rbx)
	je	.L63
	leaq	32(%rbx), %rsi
.LVL130:
.LBB939:
	.loc 2 159 4 is_stmt 1 view .LVU466
	.loc 2 160 4 view .LVU467
	.loc 2 160 17 is_stmt 0 view .LVU468
	movq	%rax, 8(%rsp)
	.loc 2 161 4 is_stmt 1 view .LVU469
	.loc 2 161 22 is_stmt 0 view .LVU470
	leaq	8(%rsp), %rdx
	movl	$2, %edi
.LEHB2:
	call	*32(%rbx)
.LVL131:
.LEHE2:
	.loc 2 161 22 view .LVU471
	jmp	.L57
.LVL132:
.L63:
	.loc 2 161 22 view .LVU472
.LBE939:
	.loc 2 156 2 is_stmt 1 view .LVU473
	.loc 2 156 13 is_stmt 0 view .LVU474
	movq	$0, 32(%rbp)
.LVL133:
.L57:
	.loc 2 156 13 view .LVU475
.LBE936:
.LBE940:
.LBE947:
	.loc 1 41 1 view .LVU476
	addq	$24, %rsp
	.cfi_remember_state
	.cfi_def_cfa_offset 24
	popq	%rbx
	.cfi_def_cfa_offset 16
.LVL134:
	.loc 1 41 1 view .LVU477
	popq	%rbp
	.cfi_def_cfa_offset 8
.LVL135:
	.loc 1 41 1 view .LVU478
	ret
.LVL136:
.L61:
	.cfi_restore_state
.LBB948:
.LBB941:
.LBB942:
	.loc 4 658 19 view .LVU479
	movq	%rax, %rbx
.LVL137:
	.loc 4 658 19 view .LVU480
.LBE942:
.LBI941:
	.loc 4 657 7 is_stmt 1 view .LVU481
.LBB946:
	.loc 4 658 19 is_stmt 0 view .LVU482
	movq	%rbp, %rdi
	call	_ZNSt7__cxx1112basic_stringIcSt11char_traitsIcESaIcEE10_M_disposeEv
.LVL138:
.LBB943:
.LBI943:
	.loc 4 150 14 is_stmt 1 view .LVU483
.LBB944:
.LBI944:
	.loc 5 162 7 view .LVU484
.LBB945:
.LBI945:
	.loc 6 89 7 view .LVU485
	.loc 6 89 7 is_stmt 0 view .LVU486
	movq	%rbx, %rdi
.LEHB3:
	call	_Unwind_Resume
.LVL139:
.LEHE3:
.LBE945:
.LBE944:
.LBE943:
.LBE946:
.LBE941:
.LBE948:
	.cfi_endproc
.LFE1316:
	.section	.gcc_except_table
.LLSDA1316:
	.byte	0xff
	.byte	0xff
	.byte	0x1
	.uleb128 .LLSDACSE1316-.LLSDACSB1316
.LLSDACSB1316:
	.uleb128 .LEHB1-.LFB1316
	.uleb128 .LEHE1-.LEHB1
	.uleb128 0
	.uleb128 0
	.uleb128 .LEHB2-.LFB1316
	.uleb128 .LEHE2-.LEHB2
	.uleb128 .L61-.LFB1316
	.uleb128 0
	.uleb128 .LEHB3-.LFB1316
	.uleb128 .LEHE3-.LEHB3
	.uleb128 0
	.uleb128 0
.LLSDACSE1316:
	.text
	.size	_ZN3mpp6HeaderC2ERKS0_, .-_ZN3mpp6HeaderC2ERKS0_
	.globl	_ZN3mpp6HeaderC1ERKS0_
	.set	_ZN3mpp6HeaderC1ERKS0_,_ZN3mpp6HeaderC2ERKS0_
	.align 2
	.globl	_ZNK3mpp6Header7getNameB5cxx11Ev
	.type	_ZNK3mpp6Header7getNameB5cxx11Ev, @function
_ZNK3mpp6Header7getNameB5cxx11Ev:
.LVL140:
.LFB1313:
	.loc 1 22 1 is_stmt 1 view -0
	.cfi_startproc
	.loc 1 22 1 is_stmt 0 view .LVU488
	pushq	%rbx
	.cfi_def_cfa_offset 16
	.cfi_offset 3, -16
	movq	%rdi, %rbx
	.loc 1 23 2 is_stmt 1 view .LVU489
.LVL141:
.LBB979:
.LBI979:
	.loc 4 448 7 view .LVU490
.LBB980:
.LBB981:
.LBI981:
	.loc 4 290 7 view .LVU491
	.loc 4 290 7 is_stmt 0 view .LVU492
.LBE981:
.LBB982:
.LBI982:
	.loc 10 97 29 is_stmt 1 view .LVU493
.LBB983:
.LBI983:
	.loc 11 558 7 view .LVU494
.LBB984:
.LBI984:
	.loc 5 147 7 view .LVU495
.LBB985:
.LBI985:
	.loc 6 82 7 view .LVU496
	.loc 6 82 7 is_stmt 0 view .LVU497
.LBE985:
.LBE984:
.LBE983:
.LBE982:
.LBB986:
.LBI986:
	.loc 4 190 7 is_stmt 1 view .LVU498
.LBB987:
	.loc 4 193 51 is_stmt 0 view .LVU499
	leaq	16(%rdi), %rax
.LVL142:
	.loc 4 193 51 view .LVU500
.LBE987:
.LBE986:
.LBB988:
.LBI988:
	.loc 4 159 2 is_stmt 1 view .LVU501
.LBB989:
.LBB990:
.LBI990:
	.loc 3 101 5 view .LVU502
	.loc 3 101 5 is_stmt 0 view .LVU503
.LBE990:
.LBB991:
.LBI991:
	.loc 5 147 7 is_stmt 1 view .LVU504
.LBB992:
.LBI992:
	.loc 6 82 7 view .LVU505
	.loc 6 82 7 is_stmt 0 view .LVU506
.LBE992:
.LBE991:
	.loc 4 160 46 view .LVU507
	movq	%rax, (%rdi)
.LVL143:
	.loc 4 160 46 view .LVU508
.LBE989:
.LBE988:
.LBB993:
.LBI993:
	.loc 5 162 7 is_stmt 1 view .LVU509
.LBB994:
.LBI994:
	.loc 6 89 7 view .LVU510
	.loc 6 89 7 is_stmt 0 view .LVU511
.LBE994:
.LBE993:
.LBB995:
.LBI995:
	.loc 4 186 7 is_stmt 1 view .LVU512
.LBB996:
	.loc 4 187 28 is_stmt 0 view .LVU513
	movq	(%rsi), %rax
.LVL144:
	.loc 4 187 28 view .LVU514
.LBE996:
.LBE995:
.LBB997:
.LBI997:
	.loc 4 907 7 is_stmt 1 view .LVU515
	.loc 4 907 7 is_stmt 0 view .LVU516
.LBE997:
	.loc 4 451 21 view .LVU517
	movq	%rax, %rdx
	addq	8(%rsi), %rdx
.LVL145:
.LBB998:
.LBI998:
	.loc 4 186 7 is_stmt 1 view .LVU518
	.loc 4 186 7 is_stmt 0 view .LVU519
.LBE998:
.LBB999:
.LBI999:
	.loc 4 263 9 is_stmt 1 view .LVU520
.LBB1000:
.LBB1001:
.LBI1001:
	.loc 4 243 9 view .LVU521
.LBB1002:
	.loc 4 247 23 is_stmt 0 view .LVU522
	movq	%rax, %rsi
.LVL146:
	.loc 4 247 23 view .LVU523
	call	_ZNSt7__cxx1112basic_stringIcSt11char_traitsIcESaIcEE12_M_constructIPcEEvT_S7_St20forward_iterator_tag
.LVL147:
	.loc 4 247 23 view .LVU524
.LBE1002:
.LBE1001:
.LBE1000:
.LBE999:
.LBE980:
.LBE979:
	.loc 1 24 1 view .LVU525
	movq	%rbx, %rax
	popq	%rbx
	.cfi_def_cfa_offset 8
.LVL148:
	.loc 1 24 1 view .LVU526
	ret
	.cfi_endproc
.LFE1313:
	.size	_ZNK3mpp6Header7getNameB5cxx11Ev, .-_ZNK3mpp6Header7getNameB5cxx11Ev
	.align 2
	.globl	_ZN3mpp6HeaderC2ENSt7__cxx1112basic_stringIcSt11char_traitsIcESaIcEEESt3any
	.type	_ZN3mpp6HeaderC2ENSt7__cxx1112basic_stringIcSt11char_traitsIcESaIcEEESt3any, @function
_ZN3mpp6HeaderC2ENSt7__cxx1112basic_stringIcSt11char_traitsIcESaIcEEESt3any:
.LVL149:
.LFB1311:
	.loc 1 13 1 is_stmt 1 view -0
	.cfi_startproc
	.cfi_personality 0x3,__gxx_personality_v0
	.cfi_lsda 0x3,.LLSDA1311
	.loc 1 13 1 is_stmt 0 view .LVU528
	pushq	%rbp
	.cfi_def_cfa_offset 16
	.cfi_offset 6, -16
	pushq	%rbx
	.cfi_def_cfa_offset 24
	.cfi_offset 3, -24
	subq	$24, %rsp
	.cfi_def_cfa_offset 48
	movq	%rdi, %rbx
	movq	%rdx, %rbp
.LVL150:
.LBB1049:
.LBB1050:
.LBI1050:
	.loc 4 448 7 is_stmt 1 view .LVU529
.LBB1051:
.LBB1052:
.LBI1052:
	.loc 4 290 7 view .LVU530
	.loc 4 290 7 is_stmt 0 view .LVU531
.LBE1052:
.LBB1053:
.LBI1053:
	.loc 10 97 29 is_stmt 1 view .LVU532
.LBB1054:
.LBI1054:
	.loc 11 558 7 view .LVU533
.LBB1055:
.LBI1055:
	.loc 5 147 7 view .LVU534
.LBB1056:
.LBI1056:
	.loc 6 82 7 view .LVU535
	.loc 6 82 7 is_stmt 0 view .LVU536
.LBE1056:
.LBE1055:
.LBE1054:
.LBE1053:
.LBB1057:
.LBI1057:
	.loc 4 190 7 is_stmt 1 view .LVU537
.LBB1058:
	.loc 4 193 51 is_stmt 0 view .LVU538
	leaq	16(%rdi), %rax
.LVL151:
	.loc 4 193 51 view .LVU539
.LBE1058:
.LBE1057:
.LBB1059:
.LBI1059:
	.loc 4 159 2 is_stmt 1 view .LVU540
.LBB1060:
.LBB1061:
.LBI1061:
	.loc 3 101 5 view .LVU541
	.loc 3 101 5 is_stmt 0 view .LVU542
.LBE1061:
.LBB1062:
.LBI1062:
	.loc 5 147 7 is_stmt 1 view .LVU543
.LBB1063:
.LBI1063:
	.loc 6 82 7 view .LVU544
	.loc 6 82 7 is_stmt 0 view .LVU545
.LBE1063:
.LBE1062:
	.loc 4 160 46 view .LVU546
	movq	%rax, (%rdi)
.LVL152:
	.loc 4 160 46 view .LVU547
.LBE1060:
.LBE1059:
.LBB1064:
.LBI1064:
	.loc 5 162 7 is_stmt 1 view .LVU548
.LBB1065:
.LBI1065:
	.loc 6 89 7 view .LVU549
	.loc 6 89 7 is_stmt 0 view .LVU550
.LBE1065:
.LBE1064:
.LBB1066:
.LBI1066:
	.loc 4 186 7 is_stmt 1 view .LVU551
.LBB1067:
	.loc 4 187 28 is_stmt 0 view .LVU552
	movq	(%rsi), %rax
.LVL153:
	.loc 4 187 28 view .LVU553
.LBE1067:
.LBE1066:
.LBB1068:
.LBI1068:
	.loc 4 907 7 is_stmt 1 view .LVU554
	.loc 4 907 7 is_stmt 0 view .LVU555
.LBE1068:
	.loc 4 451 21 view .LVU556
	movq	%rax, %rdx
.LVL154:
	.loc 4 451 21 view .LVU557
	addq	8(%rsi), %rdx
.LVL155:
.LBB1069:
.LBI1069:
	.loc 4 186 7 is_stmt 1 view .LVU558
	.loc 4 186 7 is_stmt 0 view .LVU559
.LBE1069:
.LBB1070:
.LBI1070:
	.loc 4 263 9 is_stmt 1 view .LVU560
.LBB1071:
.LBB1072:
.LBI1072:
	.loc 4 243 9 view .LVU561
.LBB1073:
	.loc 4 247 23 is_stmt 0 view .LVU562
	movq	%rax, %rsi
.LVL156:
.LEHB4:
	.loc 4 247 23 view .LVU563
	call	_ZNSt7__cxx1112basic_stringIcSt11char_traitsIcESaIcEE12_M_constructIPcEEvT_S7_St20forward_iterator_tag
.LVL157:
.LEHE4:
	.loc 4 247 23 view .LVU564
.LBE1073:
.LBE1072:
.LBE1071:
.LBE1070:
.LBE1051:
.LBE1050:
	.loc 1 13 82 view .LVU565
	leaq	32(%rbx), %rax
.LVL158:
.LBB1074:
.LBI1074:
	.loc 2 153 5 is_stmt 1 view .LVU566
.LBB1075:
.LBI1075:
	.loc 2 82 17 view .LVU567
.LBB1076:
	.loc 2 82 44 is_stmt 0 view .LVU568
	movq	$0, 8(%rax)
.LVL159:
	.loc 2 82 44 view .LVU569
.LBE1076:
.LBE1075:
.LBE1074:
.LBE1049:
	.loc 2 155 7 is_stmt 1 view .LVU570
.LBB1088:
.LBB1081:
.LBB1077:
.LBB1078:
.LBI1078:
	.loc 2 329 10 view .LVU571
.LBB1079:
	.loc 2 329 39 view .LVU572
	.loc 2 329 39 is_stmt 0 view .LVU573
.LBE1079:
.LBE1078:
	.loc 2 155 7 view .LVU574
	cmpq	$0, 0(%rbp)
	je	.L72
.LBB1080:
	.loc 2 159 4 is_stmt 1 view .LVU575
	.loc 2 160 4 view .LVU576
	.loc 2 160 17 is_stmt 0 view .LVU577
	movq	%rax, 8(%rsp)
	.loc 2 161 4 is_stmt 1 view .LVU578
	.loc 2 161 22 is_stmt 0 view .LVU579
	leaq	8(%rsp), %rdx
	movq	%rbp, %rsi
	movl	$2, %edi
.LEHB5:
	call	*0(%rbp)
.LVL160:
.LEHE5:
	.loc 2 161 22 view .LVU580
	jmp	.L66
.LVL161:
.L72:
	.loc 2 161 22 view .LVU581
.LBE1080:
	.loc 2 156 2 is_stmt 1 view .LVU582
	.loc 2 156 13 is_stmt 0 view .LVU583
	movq	$0, 32(%rbx)
.LVL162:
.L66:
	.loc 2 156 13 view .LVU584
.LBE1077:
.LBE1081:
.LBE1088:
	.loc 1 15 1 view .LVU585
	addq	$24, %rsp
	.cfi_remember_state
	.cfi_def_cfa_offset 24
	popq	%rbx
	.cfi_def_cfa_offset 16
.LVL163:
	.loc 1 15 1 view .LVU586
	popq	%rbp
	.cfi_def_cfa_offset 8
.LVL164:
	.loc 1 15 1 view .LVU587
	ret
.LVL165:
.L70:
	.cfi_restore_state
.LBB1089:
.LBB1082:
.LBB1083:
	.loc 4 658 19 view .LVU588
	movq	%rax, %rbp
.LVL166:
	.loc 4 658 19 view .LVU589
.LBE1083:
.LBI1082:
	.loc 4 657 7 is_stmt 1 view .LVU590
.LBB1087:
	.loc 4 658 19 is_stmt 0 view .LVU591
	movq	%rbx, %rdi
	call	_ZNSt7__cxx1112basic_stringIcSt11char_traitsIcESaIcEE10_M_disposeEv
.LVL167:
.LBB1084:
.LBI1084:
	.loc 4 150 14 is_stmt 1 view .LVU592
.LBB1085:
.LBI1085:
	.loc 5 162 7 view .LVU593
.LBB1086:
.LBI1086:
	.loc 6 89 7 view .LVU594
	.loc 6 89 7 is_stmt 0 view .LVU595
	movq	%rbp, %rdi
.LEHB6:
	call	_Unwind_Resume
.LVL168:
.LEHE6:
.LBE1086:
.LBE1085:
.LBE1084:
.LBE1087:
.LBE1082:
.LBE1089:
	.cfi_endproc
.LFE1311:
	.section	.gcc_except_table
.LLSDA1311:
	.byte	0xff
	.byte	0xff
	.byte	0x1
	.uleb128 .LLSDACSE1311-.LLSDACSB1311
.LLSDACSB1311:
	.uleb128 .LEHB4-.LFB1311
	.uleb128 .LEHE4-.LEHB4
	.uleb128 0
	.uleb128 0
	.uleb128 .LEHB5-.LFB1311
	.uleb128 .LEHE5-.LEHB5
	.uleb128 .L70-.LFB1311
	.uleb128 0
	.uleb128 .LEHB6-.LFB1311
	.uleb128 .LEHE6-.LEHB6
	.uleb128 0
	.uleb128 0
.LLSDACSE1311:
	.text
	.size	_ZN3mpp6HeaderC2ENSt7__cxx1112basic_stringIcSt11char_traitsIcESaIcEEESt3any, .-_ZN3mpp6HeaderC2ENSt7__cxx1112basic_stringIcSt11char_traitsIcESaIcEEESt3any
	.globl	_ZN3mpp6HeaderC1ENSt7__cxx1112basic_stringIcSt11char_traitsIcESaIcEEESt3any
	.set	_ZN3mpp6HeaderC1ENSt7__cxx1112basic_stringIcSt11char_traitsIcESaIcEEESt3any,_ZN3mpp6HeaderC2ENSt7__cxx1112basic_stringIcSt11char_traitsIcESaIcEEESt3any
.Letext0:
	.file 12 "/usr/include/c++/10/type_traits"
	.file 13 "/usr/include/c++/10/x86_64-suse-linux/bits/c++config.h"
	.file 14 "/usr/include/c++/10/bits/stl_pair.h"
	.file 15 "/usr/include/c++/10/utility"
	.file 16 "/usr/include/c++/10/bits/cpp_type_traits.h"
	.file 17 "/usr/include/c++/10/bits/stl_iterator_base_types.h"
	.file 18 "/usr/include/c++/10/debug/debug.h"
	.file 19 "/usr/include/c++/10/cwchar"
	.file 20 "/usr/include/c++/10/cstdint"
	.file 21 "/usr/include/c++/10/bits/exception_ptr.h"
	.file 22 "/usr/include/c++/10/clocale"
	.file 23 "/usr/include/c++/10/bits/int_limits.h"
	.file 24 "/usr/include/c++/10/string_view"
	.file 25 "/usr/include/c++/10/cstdlib"
	.file 26 "/usr/include/c++/10/cstdio"
	.file 27 "/usr/include/c++/10/initializer_list"
	.file 28 "/usr/include/c++/10/bits/stringfwd.h"
	.file 29 "/usr/include/c++/10/bits/ptr_traits.h"
	.file 30 "/usr/include/c++/10/bits/predefined_ops.h"
	.file 31 "/usr/include/c++/10/ext/numeric_traits.h"
	.file 32 "/usr/include/c++/10/bits/stl_iterator.h"
	.file 33 "/usr/include/c++/10/ext/type_traits.h"
	.file 34 "/usr/lib64/gcc/x86_64-suse-linux/10/include/stddef.h"
	.file 35 "<built-in>"
	.file 36 "/usr/include/bits/types/wint_t.h"
	.file 37 "/usr/include/bits/types/__mbstate_t.h"
	.file 38 "/usr/include/bits/types/mbstate_t.h"
	.file 39 "/usr/include/bits/types/__FILE.h"
	.file 40 "/usr/include/libio.h"
	.file 41 "/usr/include/bits/types/FILE.h"
	.file 42 "/usr/include/wchar.h"
	.file 43 "/usr/include/bits/types/struct_tm.h"
	.file 44 "/usr/include/bits/types.h"
	.file 45 "/usr/include/bits/stdint-intn.h"
	.file 46 "/usr/include/bits/stdint-uintn.h"
	.file 47 "/usr/include/stdint.h"
	.file 48 "/usr/include/locale.h"
	.file 49 "/usr/include/stdlib.h"
	.file 50 "/usr/include/bits/stdlib-float.h"
	.file 51 "/usr/include/bits/stdlib-bsearch.h"
	.file 52 "/usr/include/_G_config.h"
	.file 53 "/usr/include/stdio.h"
	.file 54 "/usr/include/bits/stdio.h"
	.file 55 "./hpp/mpp/Header.hpp"
	.file 56 "/usr/include/c++/10/new"
	.file 57 "/usr/include/c++/10/bits/functexcept.h"
	.section	.note.GNU-stack,"",@progbits
