	.file	"PtrResetter.cpp"
	.text
.Ltext0:
	.align 2
	.globl	_ZN3mpp8functors11PtrResetterclERSt10unique_ptrINSt7__cxx1118basic_stringstreamIcSt11char_traitsIcESaIcEEESt14default_deleteIS8_EE
	.type	_ZN3mpp8functors11PtrResetterclERSt10unique_ptrINSt7__cxx1118basic_stringstreamIcSt11char_traitsIcESaIcEEESt14default_deleteIS8_EE, @function
_ZN3mpp8functors11PtrResetterclERSt10unique_ptrINSt7__cxx1118basic_stringstreamIcSt11char_traitsIcESaIcEEESt14default_deleteIS8_EE:
.LVL0:
.LFB2839:
	.file 1 "cpp/functors/PtrResetter.cpp"
	.loc 1 13 1 view -0
	.cfi_startproc
	.cfi_personality 0x3,__gxx_personality_v0
	.cfi_lsda 0x3,.LLSDA2839
	.loc 1 13 1 is_stmt 0 view .LVU1
	pushq	%r13
	.cfi_def_cfa_offset 16
	.cfi_offset 13, -16
	pushq	%r12
	.cfi_def_cfa_offset 24
	.cfi_offset 12, -24
	pushq	%rbp
	.cfi_def_cfa_offset 32
	.cfi_offset 6, -32
	pushq	%rbx
	.cfi_def_cfa_offset 40
	.cfi_offset 3, -40
	subq	$8, %rsp
	.cfi_def_cfa_offset 48
	movq	%rsi, %rbp
	.loc 1 14 2 is_stmt 1 view .LVU2
	.loc 1 14 21 is_stmt 0 view .LVU3
	movl	$392, %edi
.LVL1:
.LEHB0:
	.loc 1 14 21 view .LVU4
	call	_Znwm
.LVL2:
.LEHE0:
	.loc 1 14 21 view .LVU5
	movq	%rax, %rbx
.LVL3:
.LBB339:
.LBI339:
	.file 2 "/usr/include/c++/9/sstream"
	.loc 2 741 7 is_stmt 1 view .LVU6
.LBB340:
.LBB341:
.LBI341:
	.file 3 "/usr/include/c++/9/bits/basic_ios.h"
	.loc 3 460 7 view .LVU7
.LBB342:
	.loc 3 462 59 is_stmt 0 view .LVU8
	leaq	128(%rax), %r12
.LVL4:
	.loc 3 462 59 view .LVU9
	movq	%r12, %rdi
	call	_ZNSt8ios_baseC2Ev
.LVL5:
	.loc 3 462 59 view .LVU10
	movq	$_ZTVSt9basic_iosIcSt11char_traitsIcEE+16, 128(%rbx)
	movq	$0, 344(%rbx)
	movb	$0, 352(%rbx)
	movb	$0, 353(%rbx)
	movq	$0, 360(%rbx)
	movq	$0, 368(%rbx)
	movq	$0, 376(%rbx)
	movq	$0, 384(%rbx)
.LVL6:
	.loc 3 462 59 view .LVU11
.LBE342:
.LBE341:
.LBB343:
.LBI343:
	.file 4 "/usr/include/c++/9/istream"
	.loc 4 859 7 is_stmt 1 view .LVU12
.LBB344:
.LBB345:
.LBI345:
	.loc 4 606 7 view .LVU13
.LBB346:
.LBB347:
	.loc 4 607 32 is_stmt 0 view .LVU14
	movq	_ZTTNSt7__cxx1118basic_stringstreamIcSt11char_traitsIcESaIcEEE+16(%rip), %rax
	movq	%rax, (%rbx)
	movq	-24(%rax), %rax
	movq	_ZTTNSt7__cxx1118basic_stringstreamIcSt11char_traitsIcESaIcEEE+24(%rip), %rdx
	movq	%rdx, (%rbx,%rax)
	movq	$0, 8(%rbx)
	.loc 4 608 9 view .LVU15
	movq	(%rbx), %rax
	movq	%rbx, %rdi
	addq	-24(%rax), %rdi
	movl	$0, %esi
.LEHB1:
	call	_ZNSt9basic_iosIcSt11char_traitsIcEE4initEPSt15basic_streambufIcS1_E
.LVL7:
.LEHE1:
	.loc 4 608 9 view .LVU16
.LBE347:
.LBE346:
.LBE345:
.LBB348:
.LBI348:
	.file 5 "/usr/include/c++/9/ostream"
	.loc 5 390 7 is_stmt 1 view .LVU17
.LBB349:
.LBB350:
	.loc 5 391 7 is_stmt 0 view .LVU18
	movq	_ZTTNSt7__cxx1118basic_stringstreamIcSt11char_traitsIcESaIcEEE+32(%rip), %rax
	movq	%rax, 16(%rbx)
	movq	-24(%rax), %rax
	movq	_ZTTNSt7__cxx1118basic_stringstreamIcSt11char_traitsIcESaIcEEE+40(%rip), %rdx
	movq	%rdx, 16(%rbx,%rax)
	.loc 5 391 9 view .LVU19
	movq	16(%rbx), %rax
	movq	-24(%rax), %rax
	leaq	16(%rbx,%rax), %rdi
	movl	$0, %esi
.LEHB2:
	call	_ZNSt9basic_iosIcSt11char_traitsIcEE4initEPSt15basic_streambufIcS1_E
.LVL8:
.LEHE2:
	.loc 5 391 9 view .LVU20
.LBE350:
.LBE349:
.LBE348:
	.loc 4 860 42 view .LVU21
	movq	_ZTTNSt7__cxx1118basic_stringstreamIcSt11char_traitsIcESaIcEEE+8(%rip), %rax
	movq	%rax, (%rbx)
	movq	-24(%rax), %rax
	movq	_ZTTNSt7__cxx1118basic_stringstreamIcSt11char_traitsIcESaIcEEE+48(%rip), %rdx
	movq	%rdx, (%rbx,%rax)
.LVL9:
	.loc 4 860 42 view .LVU22
.LBE344:
.LBE343:
	.loc 2 742 69 view .LVU23
	movq	$_ZTVNSt7__cxx1118basic_stringstreamIcSt11char_traitsIcESaIcEEE+24, (%rbx)
	movq	$_ZTVNSt7__cxx1118basic_stringstreamIcSt11char_traitsIcESaIcEEE+104, 128(%rbx)
	movq	$_ZTVNSt7__cxx1118basic_stringstreamIcSt11char_traitsIcESaIcEEE+64, 16(%rbx)
	leaq	24(%rbx), %r13
.LVL10:
.LBB354:
.LBI354:
	.loc 2 111 7 is_stmt 1 view .LVU24
.LBB355:
.LBB356:
.LBI356:
	.file 6 "/usr/include/c++/9/streambuf"
	.loc 6 470 7 view .LVU25
.LBB357:
	.loc 6 473 29 is_stmt 0 view .LVU26
	movq	$_ZTVSt15basic_streambufIcSt11char_traitsIcEE+16, 24(%rbx)
	movq	$0, 32(%rbx)
	movq	$0, 40(%rbx)
	movq	$0, 48(%rbx)
	movq	$0, 56(%rbx)
	movq	$0, 64(%rbx)
	movq	$0, 72(%rbx)
	leaq	80(%rbx), %rdi
	call	_ZNSt6localeC1Ev
.LVL11:
	.loc 6 473 29 view .LVU27
.LBE357:
.LBE356:
	.loc 2 112 56 view .LVU28
	movq	$_ZTVNSt7__cxx1115basic_stringbufIcSt11char_traitsIcESaIcEEE+16, 24(%rbx)
	movl	$24, 88(%rbx)
.LVL12:
.LBB358:
.LBI358:
	.file 7 "/usr/include/c++/9/bits/basic_string.h"
	.loc 7 431 7 is_stmt 1 view .LVU29
.LBB359:
.LBI359:
	.file 8 "/usr/include/c++/9/bits/allocator.h"
	.loc 8 138 7 view .LVU30
.LBB360:
.LBI360:
	.file 9 "/usr/include/c++/9/ext/new_allocator.h"
	.loc 9 80 7 view .LVU31
	.loc 9 80 7 is_stmt 0 view .LVU32
.LBE360:
.LBE359:
.LBB361:
.LBI361:
	.loc 7 190 7 is_stmt 1 view .LVU33
.LBB362:
	.loc 7 193 51 is_stmt 0 view .LVU34
	leaq	112(%rbx), %rax
.LVL13:
	.loc 7 193 51 view .LVU35
.LBE362:
.LBE361:
.LBB363:
.LBI363:
	.loc 7 159 2 is_stmt 1 view .LVU36
.LBB364:
.LBB365:
.LBI365:
	.file 10 "/usr/include/c++/9/bits/move.h"
	.loc 10 99 5 view .LVU37
	.loc 10 99 5 is_stmt 0 view .LVU38
.LBE365:
.LBB366:
.LBI366:
	.loc 8 141 7 is_stmt 1 view .LVU39
.LBB367:
.LBI367:
	.loc 9 83 7 view .LVU40
	.loc 9 83 7 is_stmt 0 view .LVU41
.LBE367:
.LBE366:
	.loc 7 160 46 view .LVU42
	movq	%rax, 96(%rbx)
.LVL14:
	.loc 7 160 46 view .LVU43
.LBE364:
.LBE363:
.LBB368:
.LBI368:
	.loc 8 153 7 is_stmt 1 view .LVU44
.LBB369:
.LBI369:
	.loc 9 89 7 view .LVU45
	.loc 9 89 7 is_stmt 0 view .LVU46
.LBE369:
.LBE368:
.LBB370:
.LBI370:
	.loc 7 214 7 is_stmt 1 view .LVU47
.LBB371:
.LBI371:
	.loc 7 182 7 view .LVU48
.LBB372:
	.loc 7 183 9 is_stmt 0 view .LVU49
	movq	$0, 104(%rbx)
.LVL15:
	.loc 7 183 9 view .LVU50
.LBE372:
.LBE371:
.LBB373:
.LBI373:
	.file 11 "/usr/include/c++/9/bits/char_traits.h"
	.loc 11 299 7 is_stmt 1 view .LVU51
.LBB374:
	.loc 11 300 9 view .LVU52
	.loc 11 300 14 is_stmt 0 view .LVU53
	movb	$0, 112(%rbx)
.LVL16:
	.loc 11 300 14 view .LVU54
.LBE374:
.LBE373:
.LBE370:
.LBE358:
.LBE355:
.LBE354:
	.loc 2 743 9 view .LVU55
	movq	%r12, %rdi
	movq	%r13, %rsi
.LEHB3:
	call	_ZNSt9basic_iosIcSt11char_traitsIcEE4initEPSt15basic_streambufIcS1_E
.LVL17:
.LEHE3:
	jmp	.L13
.LVL18:
.L10:
.LBB375:
.LBB353:
.LBB351:
.LBI351:
	.loc 4 103 7 is_stmt 1 view .LVU56
.LBB352:
	.loc 4 104 36 is_stmt 0 view .LVU57
	movq	_ZTTNSt7__cxx1118basic_stringstreamIcSt11char_traitsIcESaIcEEE+16(%rip), %rdx
	movq	%rdx, (%rbx)
	movq	-24(%rdx), %rdx
	movq	_ZTTNSt7__cxx1118basic_stringstreamIcSt11char_traitsIcESaIcEEE+24(%rip), %rcx
	movq	%rcx, (%rbx,%rdx)
	.loc 4 104 9 view .LVU58
	movq	$0, 8(%rbx)
.LVL19:
	.loc 4 104 9 view .LVU59
	movq	%rax, %rbp
.LVL20:
.L4:
	.loc 4 104 9 view .LVU60
.LBE352:
.LBE351:
.LBE353:
.LBE375:
.LBB376:
.LBI376:
	.loc 3 282 7 is_stmt 1 view .LVU61
.LBB377:
	.loc 3 282 22 is_stmt 0 view .LVU62
	movq	$_ZTVSt9basic_iosIcSt11char_traitsIcEE+16, 128(%rbx)
	movq	%r12, %rdi
	call	_ZNSt8ios_baseD2Ev
.LVL21:
	.loc 3 282 22 view .LVU63
.LBE377:
.LBE376:
.LBE340:
.LBE339:
	.loc 1 14 21 view .LVU64
	movl	$392, %esi
	movq	%rbx, %rdi
	call	_ZdlPvm
.LVL22:
	movq	%rbp, %rdi
.LEHB4:
	call	_Unwind_Resume
.LVL23:
.LEHE4:
.L9:
	.loc 1 14 21 view .LVU65
	movq	%rax, %rbp
.LVL24:
.LBB405:
.LBB404:
.LBB378:
.LBI378:
	.loc 2 65 11 is_stmt 1 view .LVU66
.LBB379:
	movq	$_ZTVNSt7__cxx1115basic_stringbufIcSt11char_traitsIcESaIcEEE+16, 24(%rbx)
.LVL25:
.LBB380:
.LBI380:
	.loc 7 657 7 view .LVU67
.LBB381:
.LBI381:
	.loc 7 229 7 view .LVU68
.LBB382:
.LBB383:
.LBI383:
	.loc 7 221 7 view .LVU69
.LBB384:
.LBI384:
	.loc 7 186 7 view .LVU70
.LBB385:
	.loc 7 187 28 is_stmt 0 view .LVU71
	movq	72(%r13), %rdi
.LVL26:
	.loc 7 187 28 view .LVU72
.LBE385:
.LBE384:
.LBB386:
.LBI386:
	.loc 7 200 7 is_stmt 1 view .LVU73
.LBB387:
	.loc 7 203 57 is_stmt 0 view .LVU74
	leaq	88(%r13), %rax
.LVL27:
	.loc 7 203 57 view .LVU75
.LBE387:
.LBE386:
.LBE383:
	.loc 7 231 2 view .LVU76
	cmpq	%rax, %rdi
	je	.L6
.LVL28:
.LBB388:
.LBI388:
	.loc 7 236 7 is_stmt 1 view .LVU77
.LBB389:
.LBB390:
.LBI390:
	.file 12 "/usr/include/c++/9/bits/alloc_traits.h"
	.loc 12 469 7 view .LVU78
.LBB391:
.LBI391:
	.loc 9 119 7 view .LVU79
.LBB392:
	.loc 9 128 19 is_stmt 0 view .LVU80
	call	_ZdlPv
.LVL29:
.L6:
	.loc 9 128 19 view .LVU81
.LBE392:
.LBE391:
.LBE390:
.LBE389:
.LBE388:
.LBE382:
.LBE381:
.LBB393:
.LBI393:
	.loc 7 150 14 is_stmt 1 view .LVU82
.LBB394:
.LBI394:
	.loc 8 153 7 view .LVU83
.LBB395:
.LBI395:
	.loc 9 89 7 view .LVU84
	.loc 9 89 7 is_stmt 0 view .LVU85
.LBE395:
.LBE394:
.LBE393:
.LBE380:
.LBB396:
.LBI396:
	.loc 6 204 7 is_stmt 1 view .LVU86
.LBB397:
	.loc 6 205 9 is_stmt 0 view .LVU87
	movq	$_ZTVSt15basic_streambufIcSt11char_traitsIcEE+16, 24(%rbx)
	leaq	56(%r13), %rdi
	call	_ZNSt6localeD1Ev
.LVL30:
	.loc 6 205 9 view .LVU88
.LBE397:
.LBE396:
.LBE379:
.LBE378:
.LBB398:
.LBI398:
	.loc 4 856 7 is_stmt 1 view .LVU89
.LBB399:
	.loc 4 856 27 is_stmt 0 view .LVU90
	movq	_ZTTNSt7__cxx1118basic_stringstreamIcSt11char_traitsIcESaIcEEE+8(%rip), %rax
	movq	%rax, (%rbx)
	movq	-24(%rax), %rax
	movq	_ZTTNSt7__cxx1118basic_stringstreamIcSt11char_traitsIcESaIcEEE+48(%rip), %rdx
	movq	%rdx, (%rbx,%rax)
.LVL31:
.LBB400:
.LBI400:
	.loc 5 93 7 is_stmt 1 view .LVU91
.LBB401:
	.loc 5 93 26 is_stmt 0 view .LVU92
	movq	_ZTTNSt7__cxx1118basic_stringstreamIcSt11char_traitsIcESaIcEEE+32(%rip), %rax
	movq	%rax, 16(%rbx)
	movq	-24(%rax), %rax
	movq	_ZTTNSt7__cxx1118basic_stringstreamIcSt11char_traitsIcESaIcEEE+40(%rip), %rdx
	movq	%rdx, 16(%rbx,%rax)
.LVL32:
	.loc 5 93 26 view .LVU93
.LBE401:
.LBE400:
.LBB402:
.LBI402:
	.loc 4 103 7 is_stmt 1 view .LVU94
.LBB403:
	.loc 4 104 36 is_stmt 0 view .LVU95
	movq	_ZTTNSt7__cxx1118basic_stringstreamIcSt11char_traitsIcESaIcEEE+16(%rip), %rax
	movq	%rax, (%rbx)
	movq	-24(%rax), %rax
	movq	_ZTTNSt7__cxx1118basic_stringstreamIcSt11char_traitsIcESaIcEEE+24(%rip), %rdx
	movq	%rdx, (%rbx,%rax)
	.loc 4 104 9 view .LVU96
	movq	$0, 8(%rbx)
.LVL33:
	.loc 4 104 9 view .LVU97
	jmp	.L4
.LVL34:
.L8:
	.loc 4 104 9 view .LVU98
	movq	%rax, %rbp
.LVL35:
	.loc 4 104 9 view .LVU99
	jmp	.L4
.LVL36:
.L13:
	.loc 4 104 9 view .LVU100
.LBE403:
.LBE402:
.LBE399:
.LBE398:
.LBE404:
.LBE405:
.LBB406:
.LBI406:
	.file 13 "/usr/include/c++/9/bits/unique_ptr.h"
	.loc 13 395 7 is_stmt 1 view .LVU101
.LBB407:
.LBB408:
.LBI408:
	.loc 10 182 5 view .LVU102
.LBB409:
	.loc 10 193 11 is_stmt 0 view .LVU103
	movq	0(%rbp), %rdi
.LVL37:
	.loc 10 194 7 view .LVU104
	movq	%rbx, 0(%rbp)
.LVL38:
	.loc 10 194 7 view .LVU105
.LBE409:
.LBE408:
	.loc 13 401 2 view .LVU106
	testq	%rdi, %rdi
	je	.L1
.LVL39:
.LBB410:
.LBI410:
	.loc 13 75 7 is_stmt 1 view .LVU107
.LBB411:
	.loc 13 81 2 is_stmt 0 view .LVU108
	movq	(%rdi), %rax
	call	*8(%rax)
.LVL40:
.L1:
	.loc 13 81 2 view .LVU109
.LBE411:
.LBE410:
.LBE407:
.LBE406:
	.loc 1 15 1 view .LVU110
	addq	$8, %rsp
	.cfi_def_cfa_offset 40
	popq	%rbx
	.cfi_def_cfa_offset 32
	popq	%rbp
	.cfi_def_cfa_offset 24
.LVL41:
	.loc 1 15 1 view .LVU111
	popq	%r12
	.cfi_def_cfa_offset 16
	popq	%r13
	.cfi_def_cfa_offset 8
	ret
	.cfi_endproc
.LFE2839:
	.globl	__gxx_personality_v0
	.section	.gcc_except_table,"a",@progbits
.LLSDA2839:
	.byte	0xff
	.byte	0xff
	.byte	0x1
	.uleb128 .LLSDACSE2839-.LLSDACSB2839
.LLSDACSB2839:
	.uleb128 .LEHB0-.LFB2839
	.uleb128 .LEHE0-.LEHB0
	.uleb128 0
	.uleb128 0
	.uleb128 .LEHB1-.LFB2839
	.uleb128 .LEHE1-.LEHB1
	.uleb128 .L8-.LFB2839
	.uleb128 0
	.uleb128 .LEHB2-.LFB2839
	.uleb128 .LEHE2-.LEHB2
	.uleb128 .L10-.LFB2839
	.uleb128 0
	.uleb128 .LEHB3-.LFB2839
	.uleb128 .LEHE3-.LEHB3
	.uleb128 .L9-.LFB2839
	.uleb128 0
	.uleb128 .LEHB4-.LFB2839
	.uleb128 .LEHE4-.LEHB4
	.uleb128 0
	.uleb128 0
.LLSDACSE2839:
	.text
	.size	_ZN3mpp8functors11PtrResetterclERSt10unique_ptrINSt7__cxx1118basic_stringstreamIcSt11char_traitsIcESaIcEEESt14default_deleteIS8_EE, .-_ZN3mpp8functors11PtrResetterclERSt10unique_ptrINSt7__cxx1118basic_stringstreamIcSt11char_traitsIcESaIcEEESt14default_deleteIS8_EE
.Letext0:
	.file 14 "/usr/include/c++/9/type_traits"
	.file 15 "/usr/include/c++/9/x86_64-suse-linux/bits/c++config.h"
	.file 16 "/usr/include/c++/9/bits/stl_pair.h"
	.file 17 "/usr/include/c++/9/debug/debug.h"
	.file 18 "/usr/include/c++/9/bits/exception_ptr.h"
	.file 19 "/usr/include/c++/9/new"
	.file 20 "/usr/include/c++/9/utility"
	.file 21 "/usr/include/c++/9/cwchar"
	.file 22 "/usr/include/c++/9/bits/uses_allocator.h"
	.file 23 "/usr/include/c++/9/cstdint"
	.file 24 "/usr/include/c++/9/clocale"
	.file 25 "/usr/include/c++/9/limits"
	.file 26 "/usr/include/c++/9/string_view"
	.file 27 "/usr/include/c++/9/cstdlib"
	.file 28 "/usr/include/c++/9/cstdio"
	.file 29 "/usr/include/c++/9/initializer_list"
	.file 30 "/usr/include/c++/9/tuple"
	.file 31 "/usr/include/c++/9/bits/shared_ptr_base.h"
	.file 32 "/usr/include/c++/9/system_error"
	.file 33 "/usr/include/c++/9/bits/ios_base.h"
	.file 34 "/usr/include/c++/9/cwctype"
	.file 35 "/usr/include/c++/9/bits/stl_iterator_base_types.h"
	.file 36 "/usr/include/c++/9/bits/ptr_traits.h"
	.file 37 "/usr/include/c++/9/bits/predefined_ops.h"
	.file 38 "/usr/include/c++/9/ext/numeric_traits.h"
	.file 39 "/usr/include/c++/9/ext/concurrence.h"
	.file 40 "/usr/include/c++/9/ext/alloc_traits.h"
	.file 41 "/usr/include/c++/9/bits/stl_iterator.h"
	.file 42 "/usr/lib64/gcc/x86_64-suse-linux/9/include/stddef.h"
	.file 43 "<built-in>"
	.file 44 "/usr/include/bits/types/wint_t.h"
	.file 45 "/usr/include/bits/types/__mbstate_t.h"
	.file 46 "/usr/include/bits/types/mbstate_t.h"
	.file 47 "/usr/include/bits/types/__FILE.h"
	.file 48 "/usr/include/libio.h"
	.file 49 "/usr/include/bits/types/FILE.h"
	.file 50 "/usr/include/wchar.h"
	.file 51 "/usr/include/bits/types/struct_tm.h"
	.file 52 "/usr/include/bits/types.h"
	.file 53 "/usr/include/time.h"
	.file 54 "/usr/include/bits/stdint-intn.h"
	.file 55 "/usr/include/bits/stdint-uintn.h"
	.file 56 "/usr/include/stdint.h"
	.file 57 "/usr/include/locale.h"
	.file 58 "/usr/include/stdlib.h"
	.file 59 "/usr/include/bits/stdlib-float.h"
	.file 60 "/usr/include/bits/stdlib-bsearch.h"
	.file 61 "/usr/include/_G_config.h"
	.file 62 "/usr/include/stdio.h"
	.file 63 "/usr/include/bits/sys_errlist.h"
	.file 64 "/usr/include/bits/stdio.h"
	.file 65 "/usr/include/errno.h"
	.file 66 "/usr/include/c++/9/pstl/execution_defs.h"
	.file 67 "/usr/include/bits/wctype-wchar.h"
	.file 68 "/usr/include/wctype.h"
	.file 69 "./hpp/mpp/functors/PtrResetter.hpp"
	.file 70 "/usr/include/c++/9/bits/basic_ios.tcc"
	.section	.note.GNU-stack,"",@progbits
