	.file	"RepParser.cpp"
	.text
.Ltext0:
	.type	_Z41__static_initialization_and_destruction_0ii, @function
_Z41__static_initialization_and_destruction_0ii:
.LVL0:
.LFB5741:
	.file 1 "cpp/RepParser.cpp"
	.loc 1 544 1 view -0
	.cfi_startproc
	.loc 1 544 1 is_stmt 0 view .LVU1
	cmpl	$1, %edi
	je	.L7
.L4:
	ret
.L7:
	.loc 1 544 1 discriminator 1 view .LVU2
	cmpl	$65535, %esi
	jne	.L4
	.loc 1 544 1 view .LVU3
	subq	$8, %rsp
	.cfi_def_cfa_offset 16
	.file 2 "/usr/include/c++/9/iostream"
	.loc 2 74 25 view .LVU4
	movl	$_ZStL8__ioinit, %edi
.LVL1:
	.loc 2 74 25 view .LVU5
	call	_ZNSt8ios_base4InitC1Ev
.LVL2:
	.loc 2 74 25 view .LVU6
	movl	$__dso_handle, %edx
	movl	$_ZStL8__ioinit, %esi
	movl	$_ZNSt8ios_base4InitD1Ev, %edi
	call	__cxa_atexit
.LVL3:
	.file 3 "/usr/local/include/boost/logic/tribool_io.hpp"
	.loc 3 150 42 view .LVU7
	cmpb	$0, _ZGVN5boost5logic18indeterminate_nameIcE2idE(%rip)
	jne	.L1
	.loc 3 150 42 discriminator 1 view .LVU8
	movb	$1, _ZGVN5boost5logic18indeterminate_nameIcE2idE(%rip)
.LVL4:
.LBB5548:
.LBI5548:
	.file 4 "/usr/include/c++/9/bits/locale_classes.h"
	.loc 4 514 5 is_stmt 1 discriminator 1 view .LVU9
.L1:
	.loc 4 514 5 is_stmt 0 discriminator 1 view .LVU10
.LBE5548:
	.loc 1 544 1 view .LVU11
	addq	$8, %rsp
	.cfi_def_cfa_offset 8
	ret
	.cfi_endproc
.LFE5741:
	.size	_Z41__static_initialization_and_destruction_0ii, .-_Z41__static_initialization_and_destruction_0ii
	.section	.text._ZNKSt5ctypeIcE5widenEc,"axG",@progbits,_ZNKSt5ctypeIcE5widenEc,comdat
	.align 2
	.weak	_ZNKSt5ctypeIcE5widenEc
	.type	_ZNKSt5ctypeIcE5widenEc, @function
_ZNKSt5ctypeIcE5widenEc:
.LVL5:
.LFB1635:
	.file 5 "/usr/include/c++/9/bits/locale_facets.h"
	.loc 5 872 7 is_stmt 1 view -0
	.cfi_startproc
	.loc 5 872 7 is_stmt 0 view .LVU13
	pushq	%rbp
	.cfi_def_cfa_offset 16
	.cfi_offset 6, -16
	pushq	%rbx
	.cfi_def_cfa_offset 24
	.cfi_offset 3, -24
	subq	$8, %rsp
	.cfi_def_cfa_offset 32
	movq	%rdi, %rbp
	movl	%esi, %ebx
	.loc 5 874 2 is_stmt 1 view .LVU14
	cmpb	$0, 56(%rdi)
	je	.L9
	.loc 5 875 4 view .LVU15
	.loc 5 875 51 is_stmt 0 view .LVU16
	movzbl	%sil, %esi
	.loc 5 875 51 view .LVU17
	movzbl	57(%rdi,%rsi), %eax
.LVL6:
.L8:
	.loc 5 878 7 view .LVU18
	addq	$8, %rsp
	.cfi_remember_state
	.cfi_def_cfa_offset 24
	popq	%rbx
	.cfi_def_cfa_offset 16
	popq	%rbp
	.cfi_def_cfa_offset 8
.LVL7:
	.loc 5 878 7 view .LVU19
	ret
.LVL8:
.L9:
	.cfi_restore_state
	.loc 5 876 2 is_stmt 1 view .LVU20
	.loc 5 876 21 is_stmt 0 view .LVU21
	call	_ZNKSt5ctypeIcE13_M_widen_initEv
.LVL9:
	.loc 5 877 2 is_stmt 1 view .LVU22
	.loc 5 877 27 is_stmt 0 view .LVU23
	movq	0(%rbp), %rax
	.loc 5 877 23 view .LVU24
	movsbl	%bl, %esi
	movq	%rbp, %rdi
	call	*48(%rax)
.LVL10:
	.loc 5 877 27 view .LVU25
	jmp	.L8
	.cfi_endproc
.LFE1635:
	.size	_ZNKSt5ctypeIcE5widenEc, .-_ZNKSt5ctypeIcE5widenEc
	.text
	.align 2
	.globl	_ZN3mpp9RepParser5resetEv
	.type	_ZN3mpp9RepParser5resetEv, @function
_ZN3mpp9RepParser5resetEv:
.LVL11:
.LFB4640:
	.loc 1 62 1 is_stmt 1 view -0
	.cfi_startproc
	.loc 1 63 2 view .LVU27
	.loc 1 63 10 is_stmt 0 view .LVU28
	movl	$0, (%rdi)
	.loc 1 64 1 view .LVU29
	ret
	.cfi_endproc
.LFE4640:
	.size	_ZN3mpp9RepParser5resetEv, .-_ZN3mpp9RepParser5resetEv
	.align 2
	.globl	_ZN3mpp9RepParser8setStateENS0_5StateE
	.type	_ZN3mpp9RepParser8setStateENS0_5StateE, @function
_ZN3mpp9RepParser8setStateENS0_5StateE:
.LVL12:
.LFB4646:
	.loc 1 527 1 is_stmt 1 view -0
	.cfi_startproc
	.loc 1 528 2 view .LVU31
	.loc 1 528 10 is_stmt 0 view .LVU32
	movl	%esi, (%rdi)
	.loc 1 529 1 view .LVU33
	ret
	.cfi_endproc
.LFE4646:
	.size	_ZN3mpp9RepParser8setStateENS0_5StateE, .-_ZN3mpp9RepParser8setStateENS0_5StateE
	.align 2
	.globl	_ZNK3mpp9RepParser8getStateEv
	.type	_ZNK3mpp9RepParser8getStateEv, @function
_ZNK3mpp9RepParser8getStateEv:
.LVL13:
.LFB4647:
	.loc 1 536 1 is_stmt 1 view -0
	.cfi_startproc
	.loc 1 537 2 view .LVU35
	.loc 1 537 9 is_stmt 0 view .LVU36
	movl	(%rdi), %eax
	.loc 1 538 1 view .LVU37
	ret
	.cfi_endproc
.LFE4647:
	.size	_ZNK3mpp9RepParser8getStateEv, .-_ZNK3mpp9RepParser8getStateEv
	.section	.text._ZNSt8_Rb_treeIN3mpp9RepParser5StateESt4pairIKS2_NSt7__cxx1112basic_stringIcSt11char_traitsIcESaIcEEEESt10_Select1stISB_ESt4lessIS2_ESaISB_EE8_M_eraseEPSt13_Rb_tree_nodeISB_E,"axG",@progbits,_ZNSt8_Rb_treeIN3mpp9RepParser5StateESt4pairIKS2_NSt7__cxx1112basic_stringIcSt11char_traitsIcESaIcEEEESt10_Select1stISB_ESt4lessIS2_ESaISB_EE8_M_eraseEPSt13_Rb_tree_nodeISB_E,comdat
	.align 2
	.weak	_ZNSt8_Rb_treeIN3mpp9RepParser5StateESt4pairIKS2_NSt7__cxx1112basic_stringIcSt11char_traitsIcESaIcEEEESt10_Select1stISB_ESt4lessIS2_ESaISB_EE8_M_eraseEPSt13_Rb_tree_nodeISB_E
	.type	_ZNSt8_Rb_treeIN3mpp9RepParser5StateESt4pairIKS2_NSt7__cxx1112basic_stringIcSt11char_traitsIcESaIcEEEESt10_Select1stISB_ESt4lessIS2_ESaISB_EE8_M_eraseEPSt13_Rb_tree_nodeISB_E, @function
_ZNSt8_Rb_treeIN3mpp9RepParser5StateESt4pairIKS2_NSt7__cxx1112basic_stringIcSt11char_traitsIcESaIcEEEESt10_Select1stISB_ESt4lessIS2_ESaISB_EE8_M_eraseEPSt13_Rb_tree_nodeISB_E:
.LVL14:
.LFB5111:
	.file 6 "/usr/include/c++/9/bits/stl_tree.h"
	.loc 6 1907 5 is_stmt 1 view -0
	.cfi_startproc
	.loc 6 1907 5 is_stmt 0 view .LVU39
	pushq	%r12
	.cfi_def_cfa_offset 16
	.cfi_offset 12, -16
	pushq	%rbp
	.cfi_def_cfa_offset 24
	.cfi_offset 6, -24
	pushq	%rbx
	.cfi_def_cfa_offset 32
	.cfi_offset 3, -32
	movq	%rdi, %r12
	movq	%rsi, %rbx
	jmp	.L18
.LVL15:
.L20:
.LBB5549:
.LBB5550:
.LBB5551:
.LBB5552:
.LBB5553:
.LBB5554:
.LBB5555:
.LBB5556:
.LBB5557:
.LBB5558:
.LBI5558:
	.file 7 "/usr/include/c++/9/bits/basic_string.h"
	.loc 7 236 7 is_stmt 1 view .LVU40
.LBB5559:
.LBB5560:
.LBI5560:
	.file 8 "/usr/include/c++/9/bits/alloc_traits.h"
	.loc 8 469 7 view .LVU41
.LBB5561:
.LBI5561:
	.file 9 "/usr/include/c++/9/ext/new_allocator.h"
	.loc 9 119 7 view .LVU42
.LBB5562:
	.loc 9 128 19 is_stmt 0 view .LVU43
	call	_ZdlPv
.LVL16:
.L17:
	.loc 9 128 19 view .LVU44
.LBE5562:
.LBE5561:
.LBE5560:
.LBE5559:
.LBE5558:
.LBE5557:
.LBE5556:
.LBB5569:
.LBI5569:
	.loc 7 150 14 is_stmt 1 view .LVU45
.LBB5570:
.LBI5570:
	.file 10 "/usr/include/c++/9/bits/allocator.h"
	.loc 10 153 7 view .LVU46
.LBB5571:
.LBI5571:
	.loc 9 89 7 view .LVU47
	.loc 9 89 7 is_stmt 0 view .LVU48
.LBE5571:
.LBE5570:
.LBE5569:
.LBE5555:
.LBE5554:
.LBE5553:
.LBE5552:
.LBE5551:
.LBB5577:
.LBI5577:
	.loc 6 583 7 is_stmt 1 view .LVU49
.LBB5578:
.LBI5578:
	.loc 8 469 7 view .LVU50
.LBB5579:
.LBI5579:
	.loc 9 119 7 view .LVU51
.LBB5580:
	.loc 9 128 19 is_stmt 0 view .LVU52
	movq	%rbx, %rdi
	call	_ZdlPv
.LVL17:
	.loc 9 128 19 view .LVU53
.LBE5580:
.LBE5579:
.LBE5578:
.LBE5577:
.LBE5550:
	.loc 6 1916 4 view .LVU54
	movq	%rbp, %rbx
.LVL18:
.L18:
	.loc 6 1916 4 view .LVU55
.LBE5549:
	.loc 6 1911 18 is_stmt 1 view .LVU56
	testq	%rbx, %rbx
	je	.L15
.LVL19:
.LBB5587:
.LBB5582:
.LBI5582:
	.loc 6 797 7 view .LVU57
.LBB5583:
	.loc 6 798 53 is_stmt 0 view .LVU58
	movq	24(%rbx), %rsi
.LVL20:
	.loc 6 798 53 view .LVU59
.LBE5583:
.LBE5582:
	.loc 6 1913 4 view .LVU60
	movq	%r12, %rdi
	call	_ZNSt8_Rb_treeIN3mpp9RepParser5StateESt4pairIKS2_NSt7__cxx1112basic_stringIcSt11char_traitsIcESaIcEEEESt10_Select1stISB_ESt4lessIS2_ESaISB_EE8_M_eraseEPSt13_Rb_tree_nodeISB_E
.LVL21:
.LBB5584:
.LBI5584:
	.loc 6 789 7 is_stmt 1 view .LVU61
.LBB5585:
	.loc 6 790 52 is_stmt 0 view .LVU62
	movq	16(%rbx), %rbp
.LVL22:
	.loc 6 790 52 view .LVU63
.LBE5585:
.LBE5584:
.LBB5586:
.LBI5550:
	.loc 6 648 7 is_stmt 1 view .LVU64
.LBB5581:
.LBI5551:
	.loc 6 637 7 view .LVU65
.LBB5576:
.LBI5552:
	.loc 8 495 2 view .LVU66
.LBB5575:
.LBI5553:
	.loc 9 151 2 view .LVU67
.LBB5574:
.LBI5554:
	.file 11 "/usr/include/c++/9/bits/stl_pair.h"
	.loc 11 208 12 view .LVU68
.LBB5573:
.LBI5555:
	.loc 7 657 7 view .LVU69
.LBB5572:
.LBI5556:
	.loc 7 229 7 view .LVU70
.LBB5568:
.LBB5563:
.LBI5563:
	.loc 7 221 7 view .LVU71
.LBB5564:
.LBI5564:
	.loc 7 186 7 view .LVU72
.LBB5565:
	.loc 7 187 28 is_stmt 0 view .LVU73
	movq	40(%rbx), %rdi
.LVL23:
	.loc 7 187 28 view .LVU74
.LBE5565:
.LBE5564:
.LBB5566:
.LBI5566:
	.loc 7 200 7 is_stmt 1 view .LVU75
.LBB5567:
	.loc 7 203 57 is_stmt 0 view .LVU76
	leaq	56(%rbx), %rax
.LVL24:
	.loc 7 203 57 view .LVU77
.LBE5567:
.LBE5566:
.LBE5563:
	.loc 7 231 2 view .LVU78
	cmpq	%rdi, %rax
	jne	.L20
	jmp	.L17
.LVL25:
.L15:
	.loc 7 231 2 view .LVU79
.LBE5568:
.LBE5572:
.LBE5573:
.LBE5574:
.LBE5575:
.LBE5576:
.LBE5581:
.LBE5586:
.LBE5587:
	.loc 6 1918 5 view .LVU80
	popq	%rbx
	.cfi_def_cfa_offset 24
.LVL26:
	.loc 6 1918 5 view .LVU81
	popq	%rbp
	.cfi_def_cfa_offset 16
	popq	%r12
	.cfi_def_cfa_offset 8
.LVL27:
	.loc 6 1918 5 view .LVU82
	ret
	.cfi_endproc
.LFE5111:
	.size	_ZNSt8_Rb_treeIN3mpp9RepParser5StateESt4pairIKS2_NSt7__cxx1112basic_stringIcSt11char_traitsIcESaIcEEEESt10_Select1stISB_ESt4lessIS2_ESaISB_EE8_M_eraseEPSt13_Rb_tree_nodeISB_E, .-_ZNSt8_Rb_treeIN3mpp9RepParser5StateESt4pairIKS2_NSt7__cxx1112basic_stringIcSt11char_traitsIcESaIcEEEESt10_Select1stISB_ESt4lessIS2_ESaISB_EE8_M_eraseEPSt13_Rb_tree_nodeISB_E
	.section	.text._ZNSt8_Rb_treeIcSt4pairIKcNSt7__cxx1112basic_stringIcSt11char_traitsIcESaIcEEEESt10_Select1stIS8_ESt4lessIcESaIS8_EE8_M_eraseEPSt13_Rb_tree_nodeIS8_E,"axG",@progbits,_ZNSt8_Rb_treeIcSt4pairIKcNSt7__cxx1112basic_stringIcSt11char_traitsIcESaIcEEEESt10_Select1stIS8_ESt4lessIcESaIS8_EE8_M_eraseEPSt13_Rb_tree_nodeIS8_E,comdat
	.align 2
	.weak	_ZNSt8_Rb_treeIcSt4pairIKcNSt7__cxx1112basic_stringIcSt11char_traitsIcESaIcEEEESt10_Select1stIS8_ESt4lessIcESaIS8_EE8_M_eraseEPSt13_Rb_tree_nodeIS8_E
	.type	_ZNSt8_Rb_treeIcSt4pairIKcNSt7__cxx1112basic_stringIcSt11char_traitsIcESaIcEEEESt10_Select1stIS8_ESt4lessIcESaIS8_EE8_M_eraseEPSt13_Rb_tree_nodeIS8_E, @function
_ZNSt8_Rb_treeIcSt4pairIKcNSt7__cxx1112basic_stringIcSt11char_traitsIcESaIcEEEESt10_Select1stIS8_ESt4lessIcESaIS8_EE8_M_eraseEPSt13_Rb_tree_nodeIS8_E:
.LVL28:
.LFB5129:
	.loc 6 1907 5 is_stmt 1 view -0
	.cfi_startproc
	.loc 6 1907 5 is_stmt 0 view .LVU84
	pushq	%r12
	.cfi_def_cfa_offset 16
	.cfi_offset 12, -16
	pushq	%rbp
	.cfi_def_cfa_offset 24
	.cfi_offset 6, -24
	pushq	%rbx
	.cfi_def_cfa_offset 32
	.cfi_offset 3, -32
	movq	%rdi, %r12
	movq	%rsi, %rbx
	jmp	.L24
.LVL29:
.L26:
.LBB5588:
.LBB5589:
.LBB5590:
.LBB5591:
.LBB5592:
.LBB5593:
.LBB5594:
.LBB5595:
.LBB5596:
.LBB5597:
.LBI5597:
	.loc 7 236 7 is_stmt 1 view .LVU85
.LBB5598:
.LBB5599:
.LBI5599:
	.loc 8 469 7 view .LVU86
.LBB5600:
.LBI5600:
	.loc 9 119 7 view .LVU87
.LBB5601:
	.loc 9 128 19 is_stmt 0 view .LVU88
	call	_ZdlPv
.LVL30:
.L23:
	.loc 9 128 19 view .LVU89
.LBE5601:
.LBE5600:
.LBE5599:
.LBE5598:
.LBE5597:
.LBE5596:
.LBE5595:
.LBB5608:
.LBI5608:
	.loc 7 150 14 is_stmt 1 view .LVU90
.LBB5609:
.LBI5609:
	.loc 10 153 7 view .LVU91
.LBB5610:
.LBI5610:
	.loc 9 89 7 view .LVU92
	.loc 9 89 7 is_stmt 0 view .LVU93
.LBE5610:
.LBE5609:
.LBE5608:
.LBE5594:
.LBE5593:
.LBE5592:
.LBE5591:
.LBE5590:
.LBB5616:
.LBI5616:
	.loc 6 583 7 is_stmt 1 view .LVU94
.LBB5617:
.LBI5617:
	.loc 8 469 7 view .LVU95
.LBB5618:
.LBI5618:
	.loc 9 119 7 view .LVU96
.LBB5619:
	.loc 9 128 19 is_stmt 0 view .LVU97
	movq	%rbx, %rdi
	call	_ZdlPv
.LVL31:
	.loc 9 128 19 view .LVU98
.LBE5619:
.LBE5618:
.LBE5617:
.LBE5616:
.LBE5589:
	.loc 6 1916 4 view .LVU99
	movq	%rbp, %rbx
.LVL32:
.L24:
	.loc 6 1916 4 view .LVU100
.LBE5588:
	.loc 6 1911 18 is_stmt 1 view .LVU101
	testq	%rbx, %rbx
	je	.L21
.LVL33:
.LBB5626:
.LBB5621:
.LBI5621:
	.loc 6 797 7 view .LVU102
.LBB5622:
	.loc 6 798 53 is_stmt 0 view .LVU103
	movq	24(%rbx), %rsi
.LVL34:
	.loc 6 798 53 view .LVU104
.LBE5622:
.LBE5621:
	.loc 6 1913 4 view .LVU105
	movq	%r12, %rdi
	call	_ZNSt8_Rb_treeIcSt4pairIKcNSt7__cxx1112basic_stringIcSt11char_traitsIcESaIcEEEESt10_Select1stIS8_ESt4lessIcESaIS8_EE8_M_eraseEPSt13_Rb_tree_nodeIS8_E
.LVL35:
.LBB5623:
.LBI5623:
	.loc 6 789 7 is_stmt 1 view .LVU106
.LBB5624:
	.loc 6 790 52 is_stmt 0 view .LVU107
	movq	16(%rbx), %rbp
.LVL36:
	.loc 6 790 52 view .LVU108
.LBE5624:
.LBE5623:
.LBB5625:
.LBI5589:
	.loc 6 648 7 is_stmt 1 view .LVU109
.LBB5620:
.LBI5590:
	.loc 6 637 7 view .LVU110
.LBB5615:
.LBI5591:
	.loc 8 495 2 view .LVU111
.LBB5614:
.LBI5592:
	.loc 9 151 2 view .LVU112
.LBB5613:
.LBI5593:
	.loc 11 208 12 view .LVU113
.LBB5612:
.LBI5594:
	.loc 7 657 7 view .LVU114
.LBB5611:
.LBI5595:
	.loc 7 229 7 view .LVU115
.LBB5607:
.LBB5602:
.LBI5602:
	.loc 7 221 7 view .LVU116
.LBB5603:
.LBI5603:
	.loc 7 186 7 view .LVU117
.LBB5604:
	.loc 7 187 28 is_stmt 0 view .LVU118
	movq	40(%rbx), %rdi
.LVL37:
	.loc 7 187 28 view .LVU119
.LBE5604:
.LBE5603:
.LBB5605:
.LBI5605:
	.loc 7 200 7 is_stmt 1 view .LVU120
.LBB5606:
	.loc 7 203 57 is_stmt 0 view .LVU121
	leaq	56(%rbx), %rax
.LVL38:
	.loc 7 203 57 view .LVU122
.LBE5606:
.LBE5605:
.LBE5602:
	.loc 7 231 2 view .LVU123
	cmpq	%rdi, %rax
	jne	.L26
	jmp	.L23
.LVL39:
.L21:
	.loc 7 231 2 view .LVU124
.LBE5607:
.LBE5611:
.LBE5612:
.LBE5613:
.LBE5614:
.LBE5615:
.LBE5620:
.LBE5625:
.LBE5626:
	.loc 6 1918 5 view .LVU125
	popq	%rbx
	.cfi_def_cfa_offset 24
.LVL40:
	.loc 6 1918 5 view .LVU126
	popq	%rbp
	.cfi_def_cfa_offset 16
	popq	%r12
	.cfi_def_cfa_offset 8
.LVL41:
	.loc 6 1918 5 view .LVU127
	ret
	.cfi_endproc
.LFE5129:
	.size	_ZNSt8_Rb_treeIcSt4pairIKcNSt7__cxx1112basic_stringIcSt11char_traitsIcESaIcEEEESt10_Select1stIS8_ESt4lessIcESaIS8_EE8_M_eraseEPSt13_Rb_tree_nodeIS8_E, .-_ZNSt8_Rb_treeIcSt4pairIKcNSt7__cxx1112basic_stringIcSt11char_traitsIcESaIcEEEESt10_Select1stIS8_ESt4lessIcESaIS8_EE8_M_eraseEPSt13_Rb_tree_nodeIS8_E
	.section	.text._ZNKSt6bitsetILm8EE17_M_copy_to_stringIcSt11char_traitsIcESaIcEEEvRNSt7__cxx1112basic_stringIT_T0_T1_EES7_S7_,"axG",@progbits,_ZNKSt6bitsetILm8EE17_M_copy_to_stringIcSt11char_traitsIcESaIcEEEvRNSt7__cxx1112basic_stringIT_T0_T1_EES7_S7_,comdat
	.align 2
	.weak	_ZNKSt6bitsetILm8EE17_M_copy_to_stringIcSt11char_traitsIcESaIcEEEvRNSt7__cxx1112basic_stringIT_T0_T1_EES7_S7_
	.type	_ZNKSt6bitsetILm8EE17_M_copy_to_stringIcSt11char_traitsIcESaIcEEEvRNSt7__cxx1112basic_stringIT_T0_T1_EES7_S7_, @function
_ZNKSt6bitsetILm8EE17_M_copy_to_stringIcSt11char_traitsIcESaIcEEEvRNSt7__cxx1112basic_stringIT_T0_T1_EES7_S7_:
.LVL42:
.LFB5159:
	.file 12 "/usr/include/c++/9/bitset"
	.loc 12 1411 7 is_stmt 1 view -0
	.cfi_startproc
	.loc 12 1411 7 is_stmt 0 view .LVU129
	pushq	%r12
	.cfi_def_cfa_offset 16
	.cfi_offset 12, -16
	pushq	%rbp
	.cfi_def_cfa_offset 24
	.cfi_offset 6, -24
	pushq	%rbx
	.cfi_def_cfa_offset 32
	.cfi_offset 3, -32
	movq	%rdi, %rbx
	movq	%rsi, %rbp
	movl	%ecx, %r12d
.LVL43:
.LBB5627:
.LBI5627:
	.loc 7 1452 7 is_stmt 1 view .LVU130
.LBB5628:
.LBB5629:
.LBI5629:
	.loc 7 930 7 view .LVU131
	.loc 7 930 7 is_stmt 0 view .LVU132
.LBE5629:
	.loc 7 1453 67 view .LVU133
	movsbl	%dl, %r8d
	movl	$8, %ecx
.LVL44:
	.loc 7 1453 67 view .LVU134
	movq	8(%rsi), %rdx
.LVL45:
	.loc 7 1453 67 view .LVU135
	movl	$0, %esi
.LVL46:
	.loc 7 1453 67 view .LVU136
	movq	%rbp, %rdi
.LVL47:
	.loc 7 1453 67 view .LVU137
	call	_ZNSt7__cxx1112basic_stringIcSt11char_traitsIcESaIcEE14_M_replace_auxEmmmc
.LVL48:
	.loc 7 1453 67 view .LVU138
.LBE5628:
.LBE5627:
.LBB5630:
	.loc 12 1416 14 view .LVU139
	movl	$8, %edx
	jmp	.L28
.LVL49:
.L30:
	.loc 12 1416 14 view .LVU140
.LBE5630:
	.loc 12 1411 7 discriminator 1 view .LVU141
	movq	%rsi, %rdx
.LVL50:
.L28:
.LBB5644:
	.loc 12 1416 29 is_stmt 1 discriminator 1 view .LVU142
	testq	%rdx, %rdx
	je	.L27
	.loc 12 1417 4 is_stmt 0 view .LVU143
	leaq	-1(%rdx), %rsi
.LVL51:
.LBB5631:
.LBI5631:
	.loc 12 1065 7 is_stmt 1 view .LVU144
.LBB5632:
.LBB5633:
.LBI5633:
	.loc 12 414 7 view .LVU145
.LBB5634:
	.loc 12 415 9 view .LVU146
	.loc 12 415 9 is_stmt 0 view .LVU147
.LBE5634:
.LBE5633:
.LBB5635:
.LBI5635:
	.loc 12 406 7 is_stmt 1 view .LVU148
.LBB5636:
	.loc 12 407 9 view .LVU149
.LBB5637:
.LBI5637:
	.loc 12 402 7 view .LVU150
.LBB5638:
	.loc 12 403 9 view .LVU151
	.loc 12 403 30 is_stmt 0 view .LVU152
	movq	%rsi, %rcx
	andl	$63, %ecx
.LVL52:
	.loc 12 403 30 view .LVU153
.LBE5638:
.LBE5637:
	.loc 12 407 61 view .LVU154
	movl	$1, %eax
	salq	%cl, %rax
.LVL53:
	.loc 12 407 61 view .LVU155
.LBE5636:
.LBE5635:
.LBE5632:
.LBE5631:
	.loc 12 1417 4 view .LVU156
	testq	%rax, (%rbx)
	je	.L30
	.loc 12 1418 25 view .LVU157
	movl	$8, %eax
	subq	%rdx, %rax
.LVL54:
.LBB5639:
.LBI5639:
	.loc 7 1063 7 is_stmt 1 view .LVU158
.LBB5640:
.LBB5641:
.LBI5641:
	.loc 7 186 7 view .LVU159
	.loc 7 186 7 is_stmt 0 view .LVU160
.LBE5641:
	.loc 7 1070 24 view .LVU161
	addq	0(%rbp), %rax
.LVL55:
	.loc 7 1070 24 view .LVU162
.LBE5640:
.LBE5639:
.LBB5642:
.LBI5642:
	.file 13 "/usr/include/c++/9/bits/char_traits.h"
	.loc 13 299 7 is_stmt 1 view .LVU163
.LBB5643:
	.loc 13 300 9 view .LVU164
	.loc 13 300 14 is_stmt 0 view .LVU165
	movb	%r12b, (%rax)
	.loc 13 300 22 view .LVU166
	jmp	.L30
.LVL56:
.L27:
	.loc 13 300 22 view .LVU167
.LBE5643:
.LBE5642:
.LBE5644:
	.loc 12 1419 7 view .LVU168
	popq	%rbx
	.cfi_def_cfa_offset 24
.LVL57:
	.loc 12 1419 7 view .LVU169
	popq	%rbp
	.cfi_def_cfa_offset 16
.LVL58:
	.loc 12 1419 7 view .LVU170
	popq	%r12
	.cfi_def_cfa_offset 8
.LVL59:
	.loc 12 1419 7 view .LVU171
	ret
	.cfi_endproc
.LFE5159:
	.size	_ZNKSt6bitsetILm8EE17_M_copy_to_stringIcSt11char_traitsIcESaIcEEEvRNSt7__cxx1112basic_stringIT_T0_T1_EES7_S7_, .-_ZNKSt6bitsetILm8EE17_M_copy_to_stringIcSt11char_traitsIcESaIcEEEvRNSt7__cxx1112basic_stringIT_T0_T1_EES7_S7_
	.section	.text._ZStlsIcSt11char_traitsIcELm8EERSt13basic_ostreamIT_T0_ES6_RKSt6bitsetIXT1_EE,"axG",@progbits,_ZStlsIcSt11char_traitsIcELm8EERSt13basic_ostreamIT_T0_ES6_RKSt6bitsetIXT1_EE,comdat
	.weak	_ZStlsIcSt11char_traitsIcELm8EERSt13basic_ostreamIT_T0_ES6_RKSt6bitsetIXT1_EE
	.type	_ZStlsIcSt11char_traitsIcELm8EERSt13basic_ostreamIT_T0_ES6_RKSt6bitsetIXT1_EE, @function
_ZStlsIcSt11char_traitsIcELm8EERSt13basic_ostreamIT_T0_ES6_RKSt6bitsetIXT1_EE:
.LVL60:
.LFB4994:
	.loc 12 1538 5 is_stmt 1 view -0
	.cfi_startproc
	.cfi_personality 0x3,__gxx_personality_v0
	.cfi_lsda 0x3,.LLSDA4994
	.loc 12 1538 5 is_stmt 0 view .LVU173
	pushq	%r13
	.cfi_def_cfa_offset 16
	.cfi_offset 13, -16
	pushq	%r12
	.cfi_def_cfa_offset 24
	.cfi_offset 12, -24
	pushq	%rbp
	.cfi_def_cfa_offset 32
	.cfi_offset 6, -32
	pushq	%rbx
	.cfi_def_cfa_offset 40
	.cfi_offset 3, -40
	subq	$56, %rsp
	.cfi_def_cfa_offset 96
	movq	%rdi, %rbp
	movq	%rsi, %r13
.LVL61:
.LBB5706:
.LBI5706:
	.loc 7 431 7 is_stmt 1 view .LVU174
.LBB5707:
.LBB5708:
.LBI5708:
	.loc 10 138 7 view .LVU175
.LBB5709:
.LBI5709:
	.loc 9 80 7 view .LVU176
	.loc 9 80 7 is_stmt 0 view .LVU177
.LBE5709:
.LBE5708:
.LBB5710:
.LBI5710:
	.loc 7 190 7 is_stmt 1 view .LVU178
	.loc 7 190 7 is_stmt 0 view .LVU179
.LBE5710:
.LBB5711:
.LBI5711:
	.loc 7 159 2 is_stmt 1 view .LVU180
.LBB5712:
.LBB5713:
.LBB5714:
.LBI5714:
	.file 14 "/usr/include/c++/9/bits/move.h"
	.loc 14 99 5 view .LVU181
	.loc 14 99 5 is_stmt 0 view .LVU182
.LBE5714:
.LBB5715:
.LBI5715:
	.loc 10 141 7 is_stmt 1 view .LVU183
.LBB5716:
.LBI5716:
	.loc 9 83 7 view .LVU184
	.loc 9 83 7 is_stmt 0 view .LVU185
.LBE5716:
.LBE5715:
	.loc 7 160 46 view .LVU186
	leaq	16(%rsp), %rax
.LVL62:
	.loc 7 160 46 view .LVU187
	movq	%rax, (%rsp)
.LVL63:
	.loc 7 160 46 view .LVU188
.LBE5713:
.LBE5712:
.LBE5711:
.LBB5717:
.LBI5717:
	.loc 10 153 7 is_stmt 1 view .LVU189
.LBB5718:
.LBI5718:
	.loc 9 89 7 view .LVU190
	.loc 9 89 7 is_stmt 0 view .LVU191
.LBE5718:
.LBE5717:
.LBB5719:
.LBI5719:
	.loc 7 214 7 is_stmt 1 view .LVU192
.LBB5720:
.LBI5720:
	.loc 7 182 7 view .LVU193
.LBB5721:
	.loc 7 183 9 is_stmt 0 view .LVU194
	movq	$0, 8(%rsp)
.LVL64:
	.loc 7 183 9 view .LVU195
.LBE5721:
.LBE5720:
.LBB5722:
.LBI5722:
	.loc 13 299 7 is_stmt 1 view .LVU196
.LBB5723:
	.loc 13 300 9 view .LVU197
	.loc 13 300 14 is_stmt 0 view .LVU198
	movb	$0, 16(%rsp)
.LVL65:
	.loc 13 300 14 view .LVU199
.LBE5723:
.LBE5722:
.LBE5719:
.LBE5707:
.LBE5706:
	.loc 12 1545 60 view .LVU200
	movq	(%rdi), %rax
	movq	%rdi, %rsi
.LVL66:
	.loc 12 1545 60 view .LVU201
	addq	-24(%rax), %rsi
.LVL67:
.LBB5724:
.LBI5724:
	.file 15 "/usr/include/c++/9/bits/ios_base.h"
	.loc 15 770 5 is_stmt 1 view .LVU202
.LBB5725:
	.loc 15 771 7 view .LVU203
	.loc 15 771 14 is_stmt 0 view .LVU204
	addq	$208, %rsi
.LVL68:
	.loc 15 771 14 view .LVU205
	leaq	40(%rsp), %rdi
.LVL69:
	.loc 15 771 14 view .LVU206
	call	_ZNSt6localeC1ERKS_
.LVL70:
	.loc 15 771 14 view .LVU207
.LBE5725:
.LBE5724:
	.loc 12 1545 60 view .LVU208
	leaq	40(%rsp), %rdi
.LEHB0:
	call	_ZSt9use_facetISt5ctypeIcEERKT_RKSt6locale
.LVL71:
.LEHE0:
	movq	%rax, %rbx
.LVL72:
	.loc 12 1545 60 view .LVU209
	leaq	40(%rsp), %rdi
	call	_ZNSt6localeD1Ev
.LVL73:
.LBB5726:
.LBI5726:
	.loc 5 872 7 is_stmt 1 view .LVU210
.LBB5727:
	.loc 5 874 2 view .LVU211
	cmpb	$0, 56(%rbx)
	je	.L33
	.loc 5 875 4 view .LVU212
	.loc 5 875 51 is_stmt 0 view .LVU213
	movzbl	106(%rbx), %r12d
.L34:
.LVL74:
	.loc 5 875 51 view .LVU214
.LBE5727:
.LBE5726:
	.loc 12 1546 7 view .LVU215
	movsbl	%r12b, %r12d
.LVL75:
.LBB5729:
.LBI5729:
	.loc 5 872 7 is_stmt 1 view .LVU216
.LBB5730:
	.loc 5 874 2 view .LVU217
	cmpb	$0, 56(%rbx)
	je	.L35
	.loc 5 875 4 view .LVU218
	.loc 5 875 51 is_stmt 0 view .LVU219
	movzbl	105(%rbx), %edx
.L36:
.LVL76:
	.loc 5 875 51 view .LVU220
.LBE5730:
.LBE5729:
	.loc 12 1546 7 view .LVU221
	movsbl	%dl, %edx
	movl	%r12d, %ecx
	movq	%rsp, %rsi
	movq	%r13, %rdi
.LEHB1:
	call	_ZNKSt6bitsetILm8EE17_M_copy_to_stringIcSt11char_traitsIcESaIcEEEvRNSt7__cxx1112basic_stringIT_T0_T1_EES7_S7_
.LVL77:
	jmp	.L44
.LVL78:
.L33:
.LBB5732:
.LBB5728:
	.loc 5 876 2 is_stmt 1 view .LVU222
	.loc 5 876 21 is_stmt 0 view .LVU223
	movq	%rbx, %rdi
	call	_ZNKSt5ctypeIcE13_M_widen_initEv
.LVL79:
	.loc 5 877 2 is_stmt 1 view .LVU224
	.loc 5 877 27 is_stmt 0 view .LVU225
	movq	(%rbx), %rax
	.loc 5 877 23 view .LVU226
	movl	$49, %esi
	movq	%rbx, %rdi
	call	*48(%rax)
.LVL80:
	movl	%eax, %r12d
	.loc 5 877 27 view .LVU227
	jmp	.L34
.LVL81:
.L35:
	.loc 5 877 27 view .LVU228
.LBE5728:
.LBE5732:
.LBB5733:
.LBB5731:
	.loc 5 876 2 is_stmt 1 view .LVU229
	.loc 5 876 21 is_stmt 0 view .LVU230
	movq	%rbx, %rdi
	call	_ZNKSt5ctypeIcE13_M_widen_initEv
.LVL82:
	.loc 5 877 2 is_stmt 1 view .LVU231
	.loc 5 877 27 is_stmt 0 view .LVU232
	movq	(%rbx), %rax
	.loc 5 877 23 view .LVU233
	movl	$48, %esi
	movq	%rbx, %rdi
	call	*48(%rax)
.LVL83:
	movl	%eax, %edx
	.loc 5 877 27 view .LVU234
	jmp	.L36
.LVL84:
.L44:
	.loc 5 877 27 view .LVU235
.LBE5731:
.LBE5733:
.LBB5734:
.LBI5734:
	.loc 7 6416 5 is_stmt 1 view .LVU236
.LBB5735:
.LBB5736:
.LBI5736:
	.loc 7 930 7 view .LVU237
	.loc 7 930 7 is_stmt 0 view .LVU238
.LBE5736:
.LBB5737:
.LBI5737:
	.loc 7 2312 7 is_stmt 1 view .LVU239
.LBB5738:
.LBI5738:
	.loc 7 186 7 view .LVU240
	.loc 7 186 7 is_stmt 0 view .LVU241
.LBE5738:
.LBE5737:
	.loc 7 6421 30 view .LVU242
	movq	8(%rsp), %rdx
	movq	(%rsp), %rsi
	movq	%rbp, %rdi
	call	_ZSt16__ostream_insertIcSt11char_traitsIcEERSt13basic_ostreamIT_T0_ES6_PKS3_l
.LVL85:
.LEHE1:
	movq	%rax, %rbx
.LVL86:
	.loc 7 6421 30 view .LVU243
.LBE5735:
.LBE5734:
.LBB5739:
.LBI5739:
	.loc 7 657 7 is_stmt 1 view .LVU244
.LBB5740:
.LBI5740:
	.loc 7 229 7 view .LVU245
.LBB5741:
.LBB5742:
.LBI5742:
	.loc 7 221 7 view .LVU246
.LBB5743:
.LBI5743:
	.loc 7 186 7 view .LVU247
.LBB5744:
	.loc 7 187 28 is_stmt 0 view .LVU248
	movq	(%rsp), %rdi
.LVL87:
	.loc 7 187 28 view .LVU249
.LBE5744:
.LBE5743:
.LBB5745:
.LBI5745:
	.loc 7 200 7 is_stmt 1 view .LVU250
	.loc 7 200 7 is_stmt 0 view .LVU251
.LBE5745:
.LBE5742:
	.loc 7 231 2 view .LVU252
	leaq	16(%rsp), %rax
	cmpq	%rax, %rdi
	je	.L32
.LVL88:
.LBB5746:
.LBI5746:
	.loc 7 236 7 is_stmt 1 view .LVU253
.LBB5747:
.LBB5748:
.LBI5748:
	.loc 8 469 7 view .LVU254
.LBB5749:
.LBI5749:
	.loc 9 119 7 view .LVU255
.LBB5750:
	.loc 9 128 19 is_stmt 0 view .LVU256
	call	_ZdlPv
.LVL89:
	.loc 9 128 19 view .LVU257
.LBE5750:
.LBE5749:
.LBE5748:
.LBE5747:
.LBE5746:
.LBE5741:
.LBE5740:
.LBB5751:
.LBI5751:
	.loc 7 150 14 is_stmt 1 view .LVU258
.LBB5752:
.LBI5752:
	.loc 10 153 7 view .LVU259
.LBB5753:
.LBI5753:
	.loc 9 89 7 view .LVU260
.L32:
	.loc 9 89 7 is_stmt 0 view .LVU261
.LBE5753:
.LBE5752:
.LBE5751:
.LBE5739:
	.loc 12 1548 5 view .LVU262
	movq	%rbx, %rax
	addq	$56, %rsp
	.cfi_remember_state
	.cfi_def_cfa_offset 40
	popq	%rbx
	.cfi_def_cfa_offset 32
	popq	%rbp
	.cfi_def_cfa_offset 24
.LVL90:
	.loc 12 1548 5 view .LVU263
	popq	%r12
	.cfi_def_cfa_offset 16
	popq	%r13
	.cfi_def_cfa_offset 8
.LVL91:
	.loc 12 1548 5 view .LVU264
	ret
.LVL92:
.L41:
	.cfi_restore_state
	.loc 12 1548 5 view .LVU265
	movq	%rax, %rbx
	.loc 12 1545 60 view .LVU266
	leaq	40(%rsp), %rdi
	call	_ZNSt6localeD1Ev
.LVL93:
.L39:
.LBB5754:
.LBI5754:
	.loc 7 657 7 is_stmt 1 view .LVU267
.LBB5755:
.LBI5755:
	.loc 7 229 7 view .LVU268
.LBB5756:
.LBB5757:
.LBI5757:
	.loc 7 221 7 view .LVU269
.LBB5758:
.LBI5758:
	.loc 7 186 7 view .LVU270
.LBB5759:
	.loc 7 187 28 is_stmt 0 view .LVU271
	movq	(%rsp), %rdi
.LVL94:
	.loc 7 187 28 view .LVU272
.LBE5759:
.LBE5758:
.LBB5760:
.LBI5760:
	.loc 7 200 7 is_stmt 1 view .LVU273
	.loc 7 200 7 is_stmt 0 view .LVU274
.LBE5760:
.LBE5757:
	.loc 7 231 2 view .LVU275
	leaq	16(%rsp), %rax
	cmpq	%rax, %rdi
	je	.L40
.LVL95:
.LBB5761:
.LBI5761:
	.loc 7 236 7 is_stmt 1 view .LVU276
.LBB5762:
.LBB5763:
.LBI5763:
	.loc 8 469 7 view .LVU277
.LBB5764:
.LBI5764:
	.loc 9 119 7 view .LVU278
.LBB5765:
	.loc 9 128 19 is_stmt 0 view .LVU279
	call	_ZdlPv
.LVL96:
.L40:
	.loc 9 128 19 view .LVU280
.LBE5765:
.LBE5764:
.LBE5763:
.LBE5762:
.LBE5761:
.LBE5756:
.LBE5755:
.LBB5766:
.LBI5766:
	.loc 7 150 14 is_stmt 1 view .LVU281
.LBB5767:
.LBI5767:
	.loc 10 153 7 view .LVU282
.LBB5768:
.LBI5768:
	.loc 9 89 7 view .LVU283
	.loc 9 89 7 is_stmt 0 view .LVU284
	movq	%rbx, %rdi
.LEHB2:
	call	_Unwind_Resume
.LVL97:
.LEHE2:
.L42:
	.loc 9 89 7 view .LVU285
	movq	%rax, %rbx
.LVL98:
	.loc 9 89 7 view .LVU286
	jmp	.L39
.LBE5768:
.LBE5767:
.LBE5766:
.LBE5754:
	.cfi_endproc
.LFE4994:
	.globl	__gxx_personality_v0
	.section	.gcc_except_table._ZStlsIcSt11char_traitsIcELm8EERSt13basic_ostreamIT_T0_ES6_RKSt6bitsetIXT1_EE,"aG",@progbits,_ZStlsIcSt11char_traitsIcELm8EERSt13basic_ostreamIT_T0_ES6_RKSt6bitsetIXT1_EE,comdat
.LLSDA4994:
	.byte	0xff
	.byte	0xff
	.byte	0x1
	.uleb128 .LLSDACSE4994-.LLSDACSB4994
.LLSDACSB4994:
	.uleb128 .LEHB0-.LFB4994
	.uleb128 .LEHE0-.LEHB0
	.uleb128 .L41-.LFB4994
	.uleb128 0
	.uleb128 .LEHB1-.LFB4994
	.uleb128 .LEHE1-.LEHB1
	.uleb128 .L42-.LFB4994
	.uleb128 0
	.uleb128 .LEHB2-.LFB4994
	.uleb128 .LEHE2-.LEHB2
	.uleb128 0
	.uleb128 0
.LLSDACSE4994:
	.section	.text._ZStlsIcSt11char_traitsIcELm8EERSt13basic_ostreamIT_T0_ES6_RKSt6bitsetIXT1_EE,"axG",@progbits,_ZStlsIcSt11char_traitsIcELm8EERSt13basic_ostreamIT_T0_ES6_RKSt6bitsetIXT1_EE,comdat
	.size	_ZStlsIcSt11char_traitsIcELm8EERSt13basic_ostreamIT_T0_ES6_RKSt6bitsetIXT1_EE, .-_ZStlsIcSt11char_traitsIcELm8EERSt13basic_ostreamIT_T0_ES6_RKSt6bitsetIXT1_EE
	.section	.text._ZSt9has_facetIN5boost5logic18indeterminate_nameIcEEEbRKSt6locale,"axG",@progbits,_ZSt9has_facetIN5boost5logic18indeterminate_nameIcEEEbRKSt6locale,comdat
	.weak	_ZSt9has_facetIN5boost5logic18indeterminate_nameIcEEEbRKSt6locale
	.type	_ZSt9has_facetIN5boost5logic18indeterminate_nameIcEEEbRKSt6locale, @function
_ZSt9has_facetIN5boost5logic18indeterminate_nameIcEEEbRKSt6locale:
.LVL99:
.LFB5209:
	.file 16 "/usr/include/c++/9/bits/locale_classes.tcc"
	.loc 16 104 5 is_stmt 1 view -0
	.cfi_startproc
	.loc 16 104 5 is_stmt 0 view .LVU288
	pushq	%rbx
	.cfi_def_cfa_offset 16
	.cfi_offset 3, -16
	movq	%rdi, %rbx
	.loc 16 106 20 view .LVU289
	movl	$_ZN5boost5logic18indeterminate_nameIcE2idE, %edi
.LVL100:
	.loc 16 106 20 view .LVU290
	call	_ZNKSt6locale2id5_M_idEv
.LVL101:
	.loc 16 107 46 view .LVU291
	movq	(%rbx), %rdx
	.loc 16 107 29 view .LVU292
	movq	8(%rdx), %rcx
.LVL102:
	.loc 16 110 8 view .LVU293
	cmpq	%rax, 16(%rdx)
	jbe	.L47
	.loc 16 110 11 discriminator 1 view .LVU294
	movq	(%rcx,%rax,8), %rdi
	.loc 16 110 8 discriminator 1 view .LVU295
	testq	%rdi, %rdi
	je	.L48
	.loc 16 110 11 discriminator 3 view .LVU296
	movl	$0, %ecx
.LVL103:
	.loc 16 110 11 discriminator 3 view .LVU297
	movl	$_ZTIN5boost5logic18indeterminate_nameIcEE, %edx
.LVL104:
	.loc 16 110 11 discriminator 3 view .LVU298
	movl	$_ZTINSt6locale5facetE, %esi
	call	__dynamic_cast
.LVL105:
	.loc 16 110 8 discriminator 3 view .LVU299
	testq	%rax, %rax
	je	.L45
	.loc 16 110 8 view .LVU300
	movl	$1, %eax
	.loc 16 110 53 view .LVU301
	jmp	.L45
.LVL106:
.L47:
	.loc 16 110 8 view .LVU302
	movl	$0, %eax
.LVL107:
.L45:
	.loc 16 114 5 view .LVU303
	popq	%rbx
	.cfi_remember_state
	.cfi_def_cfa_offset 8
.LVL108:
	.loc 16 114 5 view .LVU304
	ret
.LVL109:
.L48:
	.cfi_restore_state
	.loc 16 110 8 view .LVU305
	movl	$0, %eax
.LVL110:
	.loc 16 110 8 view .LVU306
	jmp	.L45
	.cfi_endproc
.LFE5209:
	.size	_ZSt9has_facetIN5boost5logic18indeterminate_nameIcEEEbRKSt6locale, .-_ZSt9has_facetIN5boost5logic18indeterminate_nameIcEEEbRKSt6locale
	.section	.text._ZSt9use_facetIN5boost5logic18indeterminate_nameIcEEERKT_RKSt6locale,"axG",@progbits,_ZSt9use_facetIN5boost5logic18indeterminate_nameIcEEERKT_RKSt6locale,comdat
	.weak	_ZSt9use_facetIN5boost5logic18indeterminate_nameIcEEERKT_RKSt6locale
	.type	_ZSt9use_facetIN5boost5logic18indeterminate_nameIcEEERKT_RKSt6locale, @function
_ZSt9use_facetIN5boost5logic18indeterminate_nameIcEEERKT_RKSt6locale:
.LVL111:
.LFB5210:
	.loc 16 132 5 is_stmt 1 view -0
	.cfi_startproc
	.loc 16 132 5 is_stmt 0 view .LVU308
	pushq	%rbx
	.cfi_def_cfa_offset 16
	.cfi_offset 3, -16
	movq	%rdi, %rbx
	.loc 16 134 20 view .LVU309
	movl	$_ZN5boost5logic18indeterminate_nameIcE2idE, %edi
.LVL112:
	.loc 16 134 20 view .LVU310
	call	_ZNKSt6locale2id5_M_idEv
.LVL113:
	.loc 16 135 46 view .LVU311
	movq	(%rbx), %rdx
	.loc 16 135 29 view .LVU312
	movq	8(%rdx), %rcx
.LVL114:
	.loc 16 136 7 view .LVU313
	cmpq	%rax, 16(%rdx)
	jbe	.L52
	.loc 16 136 51 discriminator 1 view .LVU314
	movq	(%rcx,%rax,8), %rdi
	.loc 16 136 48 discriminator 1 view .LVU315
	testq	%rdi, %rdi
	je	.L52
	.loc 16 139 14 view .LVU316
	movl	$0, %ecx
.LVL115:
	.loc 16 139 14 view .LVU317
	movl	$_ZTIN5boost5logic18indeterminate_nameIcEE, %edx
.LVL116:
	.loc 16 139 14 view .LVU318
	movl	$_ZTINSt6locale5facetE, %esi
	call	__dynamic_cast
.LVL117:
	.loc 16 139 56 view .LVU319
	testq	%rax, %rax
	je	.L57
	.loc 16 143 5 view .LVU320
	popq	%rbx
	.cfi_remember_state
	.cfi_def_cfa_offset 8
.LVL118:
	.loc 16 143 5 view .LVU321
	ret
.LVL119:
.L52:
	.cfi_restore_state
	.loc 16 137 25 view .LVU322
	call	_ZSt16__throw_bad_castv
.LVL120:
.L57:
	.loc 16 139 14 discriminator 2 view .LVU323
	call	__cxa_bad_cast
.LVL121:
	.cfi_endproc
.LFE5210:
	.size	_ZSt9use_facetIN5boost5logic18indeterminate_nameIcEEERKT_RKSt6locale, .-_ZSt9use_facetIN5boost5logic18indeterminate_nameIcEEERKT_RKSt6locale
	.section	.text._ZNSt8_Rb_treeIN3mpp9RepParser5StateESt4pairIKS2_NSt7__cxx1112basic_stringIcSt11char_traitsIcESaIcEEEESt10_Select1stISB_ESt4lessIS2_ESaISB_EE14_M_insert_nodeEPSt18_Rb_tree_node_baseSJ_PSt13_Rb_tree_nodeISB_E,"axG",@progbits,_ZNSt8_Rb_treeIN3mpp9RepParser5StateESt4pairIKS2_NSt7__cxx1112basic_stringIcSt11char_traitsIcESaIcEEEESt10_Select1stISB_ESt4lessIS2_ESaISB_EE14_M_insert_nodeEPSt18_Rb_tree_node_baseSJ_PSt13_Rb_tree_nodeISB_E,comdat
	.align 2
	.weak	_ZNSt8_Rb_treeIN3mpp9RepParser5StateESt4pairIKS2_NSt7__cxx1112basic_stringIcSt11char_traitsIcESaIcEEEESt10_Select1stISB_ESt4lessIS2_ESaISB_EE14_M_insert_nodeEPSt18_Rb_tree_node_baseSJ_PSt13_Rb_tree_nodeISB_E
	.type	_ZNSt8_Rb_treeIN3mpp9RepParser5StateESt4pairIKS2_NSt7__cxx1112basic_stringIcSt11char_traitsIcESaIcEEEESt10_Select1stISB_ESt4lessIS2_ESaISB_EE14_M_insert_nodeEPSt18_Rb_tree_node_baseSJ_PSt13_Rb_tree_nodeISB_E, @function
_ZNSt8_Rb_treeIN3mpp9RepParser5StateESt4pairIKS2_NSt7__cxx1112basic_stringIcSt11char_traitsIcESaIcEEEESt10_Select1stISB_ESt4lessIS2_ESaISB_EE14_M_insert_nodeEPSt18_Rb_tree_node_baseSJ_PSt13_Rb_tree_nodeISB_E:
.LVL122:
.LFB5341:
	.loc 6 2354 5 is_stmt 1 view -0
	.cfi_startproc
	.loc 6 2354 5 is_stmt 0 view .LVU325
	pushq	%rbp
	.cfi_def_cfa_offset 16
	.cfi_offset 6, -16
	pushq	%rbx
	.cfi_def_cfa_offset 24
	.cfi_offset 3, -24
	subq	$8, %rsp
	.cfi_def_cfa_offset 32
	movq	%rdi, %rbx
	movq	%rcx, %rbp
	.loc 6 2358 8 view .LVU326
	testq	%rsi, %rsi
	je	.L64
	movl	$1, %edi
.LVL123:
.L59:
	.loc 6 2362 23 view .LVU327
	leaq	8(%rbx), %rcx
.LVL124:
	.loc 6 2361 36 view .LVU328
	movzbl	%dil, %edi
	.loc 6 2361 36 view .LVU329
	movq	%rbp, %rsi
.LVL125:
	.loc 6 2361 36 view .LVU330
	call	_ZSt29_Rb_tree_insert_and_rebalancebPSt18_Rb_tree_node_baseS0_RS_
.LVL126:
	.loc 6 2363 7 view .LVU331
	movq	40(%rbx), %rax
	addq	$1, %rax
	movq	%rax, 40(%rbx)
.LVL127:
.LBB5769:
.LBI5769:
	.loc 6 273 7 is_stmt 1 view .LVU332
	.loc 6 273 7 is_stmt 0 view .LVU333
.LBE5769:
	.loc 6 2365 5 view .LVU334
	movq	%rbp, %rax
	addq	$8, %rsp
	.cfi_remember_state
	.cfi_def_cfa_offset 24
	popq	%rbx
	.cfi_def_cfa_offset 16
.LVL128:
	.loc 6 2365 5 view .LVU335
	popq	%rbp
	.cfi_def_cfa_offset 8
.LVL129:
	.loc 6 2365 5 view .LVU336
	ret
.LVL130:
.L64:
	.cfi_restore_state
.LBB5770:
.LBI5770:
	.loc 6 755 7 is_stmt 1 view .LVU337
.LBB5771:
	.loc 6 756 31 is_stmt 0 view .LVU338
	leaq	8(%rdi), %rax
.LVL131:
	.loc 6 756 31 view .LVU339
.LBE5771:
.LBE5770:
	.loc 6 2357 38 view .LVU340
	cmpq	%rax, %rdx
	je	.L61
.LVL132:
.LBB5772:
.LBI5772:
	.file 17 "/usr/include/c++/9/bits/stl_function.h"
	.loc 17 385 7 is_stmt 1 discriminator 2 view .LVU341
	.loc 17 385 7 is_stmt 0 discriminator 2 view .LVU342
.LBE5772:
	.loc 6 2358 8 discriminator 2 view .LVU343
	movl	32(%rdx), %eax
	cmpl	%eax, 32(%rcx)
	jl	.L62
	.loc 6 2358 8 view .LVU344
	movl	$0, %edi
	jmp	.L59
.L61:
	.loc 6 2358 8 view .LVU345
	movl	$1, %edi
	jmp	.L59
.L62:
	.loc 6 2358 8 view .LVU346
	movl	$1, %edi
	jmp	.L59
	.cfi_endproc
.LFE5341:
	.size	_ZNSt8_Rb_treeIN3mpp9RepParser5StateESt4pairIKS2_NSt7__cxx1112basic_stringIcSt11char_traitsIcESaIcEEEESt10_Select1stISB_ESt4lessIS2_ESaISB_EE14_M_insert_nodeEPSt18_Rb_tree_node_baseSJ_PSt13_Rb_tree_nodeISB_E, .-_ZNSt8_Rb_treeIN3mpp9RepParser5StateESt4pairIKS2_NSt7__cxx1112basic_stringIcSt11char_traitsIcESaIcEEEESt10_Select1stISB_ESt4lessIS2_ESaISB_EE14_M_insert_nodeEPSt18_Rb_tree_node_baseSJ_PSt13_Rb_tree_nodeISB_E
	.section	.text._ZNSt8_Rb_treeIcSt4pairIKcNSt7__cxx1112basic_stringIcSt11char_traitsIcESaIcEEEESt10_Select1stIS8_ESt4lessIcESaIS8_EE14_M_insert_nodeEPSt18_Rb_tree_node_baseSG_PSt13_Rb_tree_nodeIS8_E,"axG",@progbits,_ZNSt8_Rb_treeIcSt4pairIKcNSt7__cxx1112basic_stringIcSt11char_traitsIcESaIcEEEESt10_Select1stIS8_ESt4lessIcESaIS8_EE14_M_insert_nodeEPSt18_Rb_tree_node_baseSG_PSt13_Rb_tree_nodeIS8_E,comdat
	.align 2
	.weak	_ZNSt8_Rb_treeIcSt4pairIKcNSt7__cxx1112basic_stringIcSt11char_traitsIcESaIcEEEESt10_Select1stIS8_ESt4lessIcESaIS8_EE14_M_insert_nodeEPSt18_Rb_tree_node_baseSG_PSt13_Rb_tree_nodeIS8_E
	.type	_ZNSt8_Rb_treeIcSt4pairIKcNSt7__cxx1112basic_stringIcSt11char_traitsIcESaIcEEEESt10_Select1stIS8_ESt4lessIcESaIS8_EE14_M_insert_nodeEPSt18_Rb_tree_node_baseSG_PSt13_Rb_tree_nodeIS8_E, @function
_ZNSt8_Rb_treeIcSt4pairIKcNSt7__cxx1112basic_stringIcSt11char_traitsIcESaIcEEEESt10_Select1stIS8_ESt4lessIcESaIS8_EE14_M_insert_nodeEPSt18_Rb_tree_node_baseSG_PSt13_Rb_tree_nodeIS8_E:
.LVL133:
.LFB5384:
	.loc 6 2354 5 is_stmt 1 view -0
	.cfi_startproc
	.loc 6 2354 5 is_stmt 0 view .LVU348
	pushq	%rbp
	.cfi_def_cfa_offset 16
	.cfi_offset 6, -16
	pushq	%rbx
	.cfi_def_cfa_offset 24
	.cfi_offset 3, -24
	subq	$8, %rsp
	.cfi_def_cfa_offset 32
	movq	%rdi, %rbx
	movq	%rcx, %rbp
	.loc 6 2358 8 view .LVU349
	testq	%rsi, %rsi
	je	.L71
	movl	$1, %edi
.LVL134:
.L66:
	.loc 6 2362 23 view .LVU350
	leaq	8(%rbx), %rcx
.LVL135:
	.loc 6 2361 36 view .LVU351
	movzbl	%dil, %edi
	.loc 6 2361 36 view .LVU352
	movq	%rbp, %rsi
.LVL136:
	.loc 6 2361 36 view .LVU353
	call	_ZSt29_Rb_tree_insert_and_rebalancebPSt18_Rb_tree_node_baseS0_RS_
.LVL137:
	.loc 6 2363 7 view .LVU354
	movq	40(%rbx), %rax
	addq	$1, %rax
	movq	%rax, 40(%rbx)
.LVL138:
.LBB5773:
.LBI5773:
	.loc 6 273 7 is_stmt 1 view .LVU355
	.loc 6 273 7 is_stmt 0 view .LVU356
.LBE5773:
	.loc 6 2365 5 view .LVU357
	movq	%rbp, %rax
	addq	$8, %rsp
	.cfi_remember_state
	.cfi_def_cfa_offset 24
	popq	%rbx
	.cfi_def_cfa_offset 16
.LVL139:
	.loc 6 2365 5 view .LVU358
	popq	%rbp
	.cfi_def_cfa_offset 8
.LVL140:
	.loc 6 2365 5 view .LVU359
	ret
.LVL141:
.L71:
	.cfi_restore_state
.LBB5774:
.LBI5774:
	.loc 6 755 7 is_stmt 1 view .LVU360
.LBB5775:
	.loc 6 756 31 is_stmt 0 view .LVU361
	leaq	8(%rdi), %rax
.LVL142:
	.loc 6 756 31 view .LVU362
.LBE5775:
.LBE5774:
	.loc 6 2357 38 view .LVU363
	cmpq	%rax, %rdx
	je	.L68
.LVL143:
.LBB5776:
.LBI5776:
	.loc 17 385 7 is_stmt 1 discriminator 2 view .LVU364
	.loc 17 385 7 is_stmt 0 discriminator 2 view .LVU365
.LBE5776:
	.loc 6 2358 8 discriminator 2 view .LVU366
	movzbl	32(%rcx), %eax
	cmpb	%al, 32(%rdx)
	jg	.L69
	.loc 6 2358 8 view .LVU367
	movl	$0, %edi
	jmp	.L66
.L68:
	.loc 6 2358 8 view .LVU368
	movl	$1, %edi
	jmp	.L66
.L69:
	.loc 6 2358 8 view .LVU369
	movl	$1, %edi
	jmp	.L66
	.cfi_endproc
.LFE5384:
	.size	_ZNSt8_Rb_treeIcSt4pairIKcNSt7__cxx1112basic_stringIcSt11char_traitsIcESaIcEEEESt10_Select1stIS8_ESt4lessIcESaIS8_EE14_M_insert_nodeEPSt18_Rb_tree_node_baseSG_PSt13_Rb_tree_nodeIS8_E, .-_ZNSt8_Rb_treeIcSt4pairIKcNSt7__cxx1112basic_stringIcSt11char_traitsIcESaIcEEEESt10_Select1stIS8_ESt4lessIcESaIS8_EE14_M_insert_nodeEPSt18_Rb_tree_node_baseSG_PSt13_Rb_tree_nodeIS8_E
	.section	.rodata._ZNSt7__cxx1112basic_stringIcSt11char_traitsIcESaIcEE12_M_constructIPKcEEvT_S8_St20forward_iterator_tag.str1.8,"aMS",@progbits,1
	.align 8
.LC0:
	.string	"basic_string::_M_construct null not valid"
	.section	.text._ZNSt7__cxx1112basic_stringIcSt11char_traitsIcESaIcEE12_M_constructIPKcEEvT_S8_St20forward_iterator_tag,"axG",@progbits,_ZNSt7__cxx1112basic_stringIcSt11char_traitsIcESaIcEE12_M_constructIPKcEEvT_S8_St20forward_iterator_tag,comdat
	.align 2
	.weak	_ZNSt7__cxx1112basic_stringIcSt11char_traitsIcESaIcEE12_M_constructIPKcEEvT_S8_St20forward_iterator_tag
	.type	_ZNSt7__cxx1112basic_stringIcSt11char_traitsIcESaIcEE12_M_constructIPKcEEvT_S8_St20forward_iterator_tag, @function
_ZNSt7__cxx1112basic_stringIcSt11char_traitsIcESaIcEE12_M_constructIPKcEEvT_S8_St20forward_iterator_tag:
.LVL144:
.LFB5401:
	.file 18 "/usr/include/c++/9/bits/basic_string.tcc"
	.loc 18 206 7 is_stmt 1 view -0
	.cfi_startproc
	.loc 18 206 7 is_stmt 0 view .LVU371
	pushq	%r12
	.cfi_def_cfa_offset 16
	.cfi_offset 12, -16
	pushq	%rbp
	.cfi_def_cfa_offset 24
	.cfi_offset 6, -24
	pushq	%rbx
	.cfi_def_cfa_offset 32
	.cfi_offset 3, -32
	subq	$16, %rsp
	.cfi_def_cfa_offset 48
	movq	%rdi, %rbp
	movq	%rsi, %r12
	movq	%rdx, %rbx
	.loc 18 211 42 view .LVU372
	testq	%rsi, %rsi
	je	.L78
.L73:
.LVL145:
.LBB5777:
.LBI5777:
	.file 19 "/usr/include/c++/9/bits/stl_iterator_base_funcs.h"
	.loc 19 138 5 is_stmt 1 view .LVU373
.LBB5778:
.LBI5778:
	.loc 19 98 5 view .LVU374
.LBB5779:
	.loc 19 104 23 is_stmt 0 view .LVU375
	subq	%r12, %rbx
.LVL146:
	.loc 19 104 23 view .LVU376
.LBE5779:
.LBE5778:
.LBE5777:
	.loc 18 215 12 view .LVU377
	movq	%rbx, 8(%rsp)
	.loc 18 217 2 view .LVU378
	cmpq	$15, %rbx
	ja	.L79
.LVL147:
.L74:
.LBB5780:
.LBI5780:
	.loc 7 186 7 is_stmt 1 view .LVU379
.LBB5781:
	.loc 7 187 28 is_stmt 0 view .LVU380
	movq	0(%rbp), %rdi
.LVL148:
	.loc 7 187 28 view .LVU381
.LBE5781:
.LBE5780:
.LBB5782:
.LBI5782:
	.loc 7 396 7 is_stmt 1 view .LVU382
.LBB5783:
.LBI5783:
	.loc 7 346 7 view .LVU383
.LBB5784:
	.loc 7 348 2 is_stmt 0 view .LVU384
	cmpq	$1, %rbx
	je	.L80
.LVL149:
.LBB5785:
.LBI5785:
	.loc 13 361 7 is_stmt 1 view .LVU385
.LBB5786:
	.loc 13 363 2 view .LVU386
	testq	%rbx, %rbx
	je	.L76
	.loc 13 365 2 view .LVU387
	.loc 13 365 49 is_stmt 0 view .LVU388
	movq	%rbx, %rdx
	movq	%r12, %rsi
	call	memcpy
.LVL150:
	.loc 13 365 66 view .LVU389
	jmp	.L76
.LVL151:
.L78:
	.loc 13 365 66 view .LVU390
.LBE5786:
.LBE5785:
.LBE5784:
.LBE5783:
.LBE5782:
	.loc 18 211 42 discriminator 1 view .LVU391
	cmpq	%rdx, %rsi
	je	.L73
	.loc 18 212 28 view .LVU392
	movl	$.LC0, %edi
.LVL152:
	.loc 18 212 28 view .LVU393
	call	_ZSt19__throw_logic_errorPKc
.LVL153:
.L79:
	.loc 18 219 6 view .LVU394
	movl	$0, %edx
.LVL154:
	.loc 18 219 6 view .LVU395
	leaq	8(%rsp), %rsi
.LVL155:
	.loc 18 219 6 view .LVU396
	movq	%rbp, %rdi
.LVL156:
	.loc 18 219 6 view .LVU397
	call	_ZNSt7__cxx1112basic_stringIcSt11char_traitsIcESaIcEE9_M_createERmm
.LVL157:
.LBB5791:
.LBI5791:
	.loc 7 178 7 is_stmt 1 view .LVU398
.LBB5792:
	.loc 7 179 9 is_stmt 0 view .LVU399
	movq	%rax, 0(%rbp)
.LVL158:
	.loc 7 179 9 view .LVU400
.LBE5792:
.LBE5791:
	.loc 18 220 6 view .LVU401
	movq	8(%rsp), %rax
.LVL159:
.LBB5793:
.LBI5793:
	.loc 7 210 7 is_stmt 1 view .LVU402
.LBB5794:
	.loc 7 211 9 is_stmt 0 view .LVU403
	movq	%rax, 16(%rbp)
	.loc 7 211 45 view .LVU404
	jmp	.L74
.LVL160:
.L80:
	.loc 7 211 45 view .LVU405
.LBE5794:
.LBE5793:
.LBB5795:
.LBB5790:
.LBB5789:
.LBB5787:
.LBI5787:
	.loc 13 299 7 is_stmt 1 view .LVU406
.LBB5788:
	.loc 13 300 9 view .LVU407
	.loc 13 300 16 is_stmt 0 view .LVU408
	movzbl	(%r12), %eax
	.loc 13 300 14 view .LVU409
	movb	%al, (%rdi)
.LVL161:
.L76:
	.loc 13 300 14 view .LVU410
.LBE5788:
.LBE5787:
.LBE5789:
.LBE5790:
.LBE5795:
	.loc 18 232 2 view .LVU411
	movq	8(%rsp), %rax
.LVL162:
.LBB5796:
.LBI5796:
	.loc 7 214 7 is_stmt 1 view .LVU412
.LBB5797:
.LBB5798:
.LBI5798:
	.loc 7 182 7 view .LVU413
.LBB5799:
	.loc 7 183 9 is_stmt 0 view .LVU414
	movq	%rax, 8(%rbp)
.LVL163:
	.loc 7 183 9 view .LVU415
.LBE5799:
.LBE5798:
.LBB5800:
.LBI5800:
	.loc 7 186 7 is_stmt 1 view .LVU416
	.loc 7 186 7 is_stmt 0 view .LVU417
.LBE5800:
	.loc 7 217 31 view .LVU418
	addq	0(%rbp), %rax
.LVL164:
.LBB5801:
.LBI5801:
	.loc 13 299 7 is_stmt 1 view .LVU419
.LBB5802:
	.loc 13 300 9 view .LVU420
	.loc 13 300 14 is_stmt 0 view .LVU421
	movb	$0, (%rax)
.LVL165:
	.loc 13 300 14 view .LVU422
.LBE5802:
.LBE5801:
.LBE5797:
.LBE5796:
	.loc 18 233 7 view .LVU423
	addq	$16, %rsp
	.cfi_def_cfa_offset 32
	popq	%rbx
	.cfi_def_cfa_offset 24
	popq	%rbp
	.cfi_def_cfa_offset 16
.LVL166:
	.loc 18 233 7 view .LVU424
	popq	%r12
	.cfi_def_cfa_offset 8
.LVL167:
	.loc 18 233 7 view .LVU425
	ret
	.cfi_endproc
.LFE5401:
	.size	_ZNSt7__cxx1112basic_stringIcSt11char_traitsIcESaIcEE12_M_constructIPKcEEvT_S8_St20forward_iterator_tag, .-_ZNSt7__cxx1112basic_stringIcSt11char_traitsIcESaIcEE12_M_constructIPKcEEvT_S8_St20forward_iterator_tag
	.section	.text._ZNSt8_Rb_treeIN3mpp9RepParser5StateESt4pairIKS2_NSt7__cxx1112basic_stringIcSt11char_traitsIcESaIcEEEESt10_Select1stISB_ESt4lessIS2_ESaISB_EE14_M_lower_boundEPSt13_Rb_tree_nodeISB_EPSt18_Rb_tree_node_baseRS4_,"axG",@progbits,_ZNSt8_Rb_treeIN3mpp9RepParser5StateESt4pairIKS2_NSt7__cxx1112basic_stringIcSt11char_traitsIcESaIcEEEESt10_Select1stISB_ESt4lessIS2_ESaISB_EE14_M_lower_boundEPSt13_Rb_tree_nodeISB_EPSt18_Rb_tree_node_baseRS4_,comdat
	.align 2
	.weak	_ZNSt8_Rb_treeIN3mpp9RepParser5StateESt4pairIKS2_NSt7__cxx1112basic_stringIcSt11char_traitsIcESaIcEEEESt10_Select1stISB_ESt4lessIS2_ESaISB_EE14_M_lower_boundEPSt13_Rb_tree_nodeISB_EPSt18_Rb_tree_node_baseRS4_
	.type	_ZNSt8_Rb_treeIN3mpp9RepParser5StateESt4pairIKS2_NSt7__cxx1112basic_stringIcSt11char_traitsIcESaIcEEEESt10_Select1stISB_ESt4lessIS2_ESaISB_EE14_M_lower_boundEPSt13_Rb_tree_nodeISB_EPSt18_Rb_tree_node_baseRS4_, @function
_ZNSt8_Rb_treeIN3mpp9RepParser5StateESt4pairIKS2_NSt7__cxx1112basic_stringIcSt11char_traitsIcESaIcEEEESt10_Select1stISB_ESt4lessIS2_ESaISB_EE14_M_lower_boundEPSt13_Rb_tree_nodeISB_EPSt18_Rb_tree_node_baseRS4_:
.LVL168:
.LFB5466:
	.loc 6 1924 5 is_stmt 1 view -0
	.cfi_startproc
	.loc 6 1924 5 is_stmt 0 view .LVU427
	movq	%rdx, %rax
	jmp	.L82
.LVL169:
.L84:
.LBB5803:
.LBI5803:
	.loc 6 797 7 is_stmt 1 view .LVU428
.LBB5804:
	.loc 6 798 53 is_stmt 0 view .LVU429
	movq	24(%rsi), %rsi
.LVL170:
.L82:
	.loc 6 798 53 view .LVU430
.LBE5804:
.LBE5803:
	.loc 6 1928 18 is_stmt 1 view .LVU431
	testq	%rsi, %rsi
	je	.L83
.LVL171:
.LBB5805:
.LBI5805:
	.loc 17 385 7 view .LVU432
	.loc 17 385 7 is_stmt 0 view .LVU433
.LBE5805:
	.loc 6 1929 2 view .LVU434
	movl	32(%rsi), %edi
	cmpl	%edi, (%rcx)
	jg	.L84
.LVL172:
.LBB5806:
.LBI5806:
	.loc 6 789 7 is_stmt 1 view .LVU435
	.loc 6 789 7 is_stmt 0 view .LVU436
.LBE5806:
	.loc 6 1930 4 view .LVU437
	movq	%rsi, %rax
	.loc 6 1930 28 view .LVU438
	movq	16(%rsi), %rsi
.LVL173:
	.loc 6 1930 28 view .LVU439
	jmp	.L82
.L83:
.LVL174:
.LBB5807:
.LBI5807:
	.loc 6 273 7 is_stmt 1 view .LVU440
	.loc 6 273 7 is_stmt 0 view .LVU441
.LBE5807:
	.loc 6 1934 5 view .LVU442
	ret
	.cfi_endproc
.LFE5466:
	.size	_ZNSt8_Rb_treeIN3mpp9RepParser5StateESt4pairIKS2_NSt7__cxx1112basic_stringIcSt11char_traitsIcESaIcEEEESt10_Select1stISB_ESt4lessIS2_ESaISB_EE14_M_lower_boundEPSt13_Rb_tree_nodeISB_EPSt18_Rb_tree_node_baseRS4_, .-_ZNSt8_Rb_treeIN3mpp9RepParser5StateESt4pairIKS2_NSt7__cxx1112basic_stringIcSt11char_traitsIcESaIcEEEESt10_Select1stISB_ESt4lessIS2_ESaISB_EE14_M_lower_boundEPSt13_Rb_tree_nodeISB_EPSt18_Rb_tree_node_baseRS4_
	.section	.text._ZNSt8_Rb_treeIN3mpp9RepParser5StateESt4pairIKS2_NSt7__cxx1112basic_stringIcSt11char_traitsIcESaIcEEEESt10_Select1stISB_ESt4lessIS2_ESaISB_EE24_M_get_insert_unique_posERS4_,"axG",@progbits,_ZNSt8_Rb_treeIN3mpp9RepParser5StateESt4pairIKS2_NSt7__cxx1112basic_stringIcSt11char_traitsIcESaIcEEEESt10_Select1stISB_ESt4lessIS2_ESaISB_EE24_M_get_insert_unique_posERS4_,comdat
	.align 2
	.weak	_ZNSt8_Rb_treeIN3mpp9RepParser5StateESt4pairIKS2_NSt7__cxx1112basic_stringIcSt11char_traitsIcESaIcEEEESt10_Select1stISB_ESt4lessIS2_ESaISB_EE24_M_get_insert_unique_posERS4_
	.type	_ZNSt8_Rb_treeIN3mpp9RepParser5StateESt4pairIKS2_NSt7__cxx1112basic_stringIcSt11char_traitsIcESaIcEEEESt10_Select1stISB_ESt4lessIS2_ESaISB_EE24_M_get_insert_unique_posERS4_, @function
_ZNSt8_Rb_treeIN3mpp9RepParser5StateESt4pairIKS2_NSt7__cxx1112basic_stringIcSt11char_traitsIcESaIcEEEESt10_Select1stISB_ESt4lessIS2_ESaISB_EE24_M_get_insert_unique_posERS4_:
.LVL175:
.LFB5487:
	.loc 6 2085 5 is_stmt 1 view -0
	.cfi_startproc
	.loc 6 2085 5 is_stmt 0 view .LVU444
	pushq	%r12
	.cfi_def_cfa_offset 16
	.cfi_offset 12, -16
	pushq	%rbp
	.cfi_def_cfa_offset 24
	.cfi_offset 6, -24
	pushq	%rbx
	.cfi_def_cfa_offset 32
	.cfi_offset 3, -32
	movq	%rsi, %r12
.LVL176:
.LBB5808:
.LBI5808:
	.loc 6 744 7 is_stmt 1 view .LVU445
.LBB5809:
	.loc 6 745 73 is_stmt 0 view .LVU446
	movq	16(%rdi), %rbx
.LVL177:
	.loc 6 745 73 view .LVU447
.LBE5809:
.LBE5808:
.LBB5810:
.LBI5810:
	.loc 6 755 7 is_stmt 1 view .LVU448
.LBB5811:
	.loc 6 756 31 is_stmt 0 view .LVU449
	leaq	8(%rdi), %rbp
.LVL178:
	.loc 6 756 31 view .LVU450
.LBE5811:
.LBE5810:
	.loc 6 2091 12 view .LVU451
	movl	$1, %ecx
	jmp	.L87
.LVL179:
.L89:
.LBB5812:
.LBI5812:
	.loc 6 797 7 is_stmt 1 discriminator 2 view .LVU452
.LBB5813:
	.loc 6 798 53 is_stmt 0 discriminator 2 view .LVU453
	movq	24(%rbx), %rax
.LVL180:
.L90:
	.loc 6 798 53 discriminator 2 view .LVU454
.LBE5813:
.LBE5812:
	.loc 6 2085 5 view .LVU455
	movq	%rbx, %rbp
	movq	%rax, %rbx
.LVL181:
.L87:
	.loc 6 2092 18 is_stmt 1 view .LVU456
	testq	%rbx, %rbx
	je	.L88
.LVL182:
.LBB5814:
.LBI5814:
	.loc 17 385 7 view .LVU457
.LBB5815:
	.loc 17 386 20 is_stmt 0 view .LVU458
	movl	(%r12), %eax
	movl	32(%rbx), %edx
	.loc 17 386 22 view .LVU459
	cmpl	%eax, %edx
	setg	%cl
.LVL183:
	.loc 17 386 22 view .LVU460
.LBE5815:
.LBE5814:
	.loc 6 2096 17 view .LVU461
	jle	.L89
.LVL184:
.LBB5816:
.LBI5816:
	.loc 6 789 7 is_stmt 1 discriminator 1 view .LVU462
.LBB5817:
	.loc 6 790 52 is_stmt 0 discriminator 1 view .LVU463
	movq	16(%rbx), %rax
.LVL185:
	.loc 6 790 52 discriminator 1 view .LVU464
.LBE5817:
.LBE5816:
	jmp	.L90
.LVL186:
.L88:
.LBB5818:
.LBI5818:
	.loc 6 273 7 is_stmt 1 view .LVU465
.LBB5819:
.LBB5820:
	.loc 6 274 20 is_stmt 0 view .LVU466
	movq	%rbp, %rax
.LVL187:
	.loc 6 274 20 view .LVU467
.LBE5820:
.LBE5819:
.LBE5818:
	.loc 6 2099 7 view .LVU468
	testb	%cl, %cl
	je	.L91
.LVL188:
.LBB5821:
.LBI5821:
	.loc 6 1006 7 is_stmt 1 view .LVU469
.LBB5822:
.LBB5823:
.LBI5823:
	.loc 6 273 7 view .LVU470
	.loc 6 273 7 is_stmt 0 view .LVU471
.LBE5823:
.LBE5822:
.LBE5821:
	.loc 6 2101 4 view .LVU472
	cmpq	%rbp, 24(%rdi)
	je	.L96
.LVL189:
.LBB5824:
.LBI5824:
	.loc 6 300 7 is_stmt 1 view .LVU473
.LBB5825:
	.loc 6 302 30 is_stmt 0 view .LVU474
	movq	%rbp, %rdi
.LVL190:
	.loc 6 302 30 view .LVU475
	call	_ZSt18_Rb_tree_decrementPSt18_Rb_tree_node_base
.LVL191:
.L91:
	.loc 6 302 30 view .LVU476
.LBE5825:
.LBE5824:
.LBB5826:
.LBI5826:
	.loc 17 385 7 is_stmt 1 view .LVU477
	.loc 17 385 7 is_stmt 0 view .LVU478
.LBE5826:
	.loc 6 2106 7 view .LVU479
	movl	(%r12), %esi
	cmpl	%esi, 32(%rax)
	jge	.L94
.LVL192:
.LBB5827:
.LBI5827:
	.loc 11 341 12 is_stmt 1 view .LVU480
.LBB5828:
.LBB5829:
.LBB5830:
.LBI5830:
	.loc 14 74 5 view .LVU481
	.loc 14 74 5 is_stmt 0 view .LVU482
.LBE5830:
.LBB5831:
.LBI5831:
	.loc 14 74 5 is_stmt 1 view .LVU483
	.loc 14 74 5 is_stmt 0 view .LVU484
.LBE5831:
.LBE5829:
.LBE5828:
.LBE5827:
	.loc 6 2107 22 view .LVU485
	movq	%rbx, %rax
.LVL193:
	.loc 6 2107 22 view .LVU486
	movq	%rbp, %rdx
.LVL194:
.L93:
.LVL195:
	.loc 6 2109 5 view .LVU487
	popq	%rbx
	.cfi_remember_state
	.cfi_def_cfa_offset 24
	popq	%rbp
	.cfi_def_cfa_offset 16
	popq	%r12
	.cfi_def_cfa_offset 8
.LVL196:
	.loc 6 2109 5 view .LVU488
	ret
.LVL197:
.L96:
	.cfi_restore_state
.LBB5832:
.LBI5832:
	.loc 11 341 12 is_stmt 1 view .LVU489
.LBB5833:
.LBB5834:
.LBB5835:
.LBI5835:
	.loc 14 74 5 view .LVU490
	.loc 14 74 5 is_stmt 0 view .LVU491
.LBE5835:
.LBB5836:
.LBI5836:
	.loc 14 74 5 is_stmt 1 view .LVU492
	.loc 14 74 5 is_stmt 0 view .LVU493
.LBE5836:
.LBE5834:
.LBE5833:
.LBE5832:
	.loc 6 2102 26 view .LVU494
	movq	%rbx, %rax
.LVL198:
	.loc 6 2102 26 view .LVU495
	movq	%rbp, %rdx
	jmp	.L93
.LVL199:
.L94:
.LBB5837:
.LBI5837:
	.loc 11 311 18 is_stmt 1 view .LVU496
.LBB5838:
.LBB5839:
.LBB5840:
.LBI5840:
	.loc 14 74 5 view .LVU497
	.loc 14 74 5 is_stmt 0 view .LVU498
.LBE5840:
.LBE5839:
.LBE5838:
.LBE5837:
	.loc 6 2108 33 view .LVU499
	movl	$0, %edx
	jmp	.L93
	.cfi_endproc
.LFE5487:
	.size	_ZNSt8_Rb_treeIN3mpp9RepParser5StateESt4pairIKS2_NSt7__cxx1112basic_stringIcSt11char_traitsIcESaIcEEEESt10_Select1stISB_ESt4lessIS2_ESaISB_EE24_M_get_insert_unique_posERS4_, .-_ZNSt8_Rb_treeIN3mpp9RepParser5StateESt4pairIKS2_NSt7__cxx1112basic_stringIcSt11char_traitsIcESaIcEEEESt10_Select1stISB_ESt4lessIS2_ESaISB_EE24_M_get_insert_unique_posERS4_
	.section	.text._ZNSt8_Rb_treeIN3mpp9RepParser5StateESt4pairIKS2_NSt7__cxx1112basic_stringIcSt11char_traitsIcESaIcEEEESt10_Select1stISB_ESt4lessIS2_ESaISB_EE29_M_get_insert_hint_unique_posESt23_Rb_tree_const_iteratorISB_ERS4_,"axG",@progbits,_ZNSt8_Rb_treeIN3mpp9RepParser5StateESt4pairIKS2_NSt7__cxx1112basic_stringIcSt11char_traitsIcESaIcEEEESt10_Select1stISB_ESt4lessIS2_ESaISB_EE29_M_get_insert_hint_unique_posESt23_Rb_tree_const_iteratorISB_ERS4_,comdat
	.align 2
	.weak	_ZNSt8_Rb_treeIN3mpp9RepParser5StateESt4pairIKS2_NSt7__cxx1112basic_stringIcSt11char_traitsIcESaIcEEEESt10_Select1stISB_ESt4lessIS2_ESaISB_EE29_M_get_insert_hint_unique_posESt23_Rb_tree_const_iteratorISB_ERS4_
	.type	_ZNSt8_Rb_treeIN3mpp9RepParser5StateESt4pairIKS2_NSt7__cxx1112basic_stringIcSt11char_traitsIcESaIcEEEESt10_Select1stISB_ESt4lessIS2_ESaISB_EE29_M_get_insert_hint_unique_posESt23_Rb_tree_const_iteratorISB_ERS4_, @function
_ZNSt8_Rb_treeIN3mpp9RepParser5StateESt4pairIKS2_NSt7__cxx1112basic_stringIcSt11char_traitsIcESaIcEEEESt10_Select1stISB_ESt4lessIS2_ESaISB_EE29_M_get_insert_hint_unique_posESt23_Rb_tree_const_iteratorISB_ERS4_:
.LVL200:
.LFB5322:
	.loc 6 2187 5 is_stmt 1 view -0
	.cfi_startproc
	.loc 6 2187 5 is_stmt 0 view .LVU501
	pushq	%r13
	.cfi_def_cfa_offset 16
	.cfi_offset 13, -16
	pushq	%r12
	.cfi_def_cfa_offset 24
	.cfi_offset 12, -24
	pushq	%rbp
	.cfi_def_cfa_offset 32
	.cfi_offset 6, -32
	pushq	%rbx
	.cfi_def_cfa_offset 40
	.cfi_offset 3, -40
	subq	$8, %rsp
	.cfi_def_cfa_offset 48
	movq	%rdi, %rbp
	movq	%rdx, %r12
.LVL201:
.LBB5841:
.LBI5841:
	.loc 6 352 7 is_stmt 1 view .LVU502
.LBB5842:
.LBB5843:
.LBI5843:
	.loc 6 273 7 view .LVU503
	.loc 6 273 7 is_stmt 0 view .LVU504
.LBE5843:
.LBE5842:
.LBE5841:
.LBB5844:
.LBB5845:
.LBI5845:
	.loc 6 755 7 is_stmt 1 view .LVU505
.LBB5846:
	.loc 6 756 31 is_stmt 0 view .LVU506
	leaq	8(%rdi), %rax
.LVL202:
	.loc 6 756 31 view .LVU507
.LBE5846:
.LBE5845:
	.loc 6 2195 7 view .LVU508
	cmpq	%rax, %rsi
	je	.L112
	movq	%rsi, %rbx
.LVL203:
.LBB5847:
.LBB5848:
.LBI5848:
	.loc 17 385 7 is_stmt 1 view .LVU509
.LBB5849:
	.loc 17 386 20 is_stmt 0 view .LVU510
	movl	(%rdx), %r13d
	movl	32(%rsi), %eax
.LVL204:
	.loc 17 386 20 view .LVU511
.LBE5849:
.LBE5848:
	.loc 6 2203 12 view .LVU512
	cmpl	%eax, %r13d
	jge	.L101
.LBB5850:
	.loc 6 2207 22 view .LVU513
	movq	24(%rdi), %rdx
.LVL205:
	.loc 6 2207 4 view .LVU514
	cmpq	%rsi, %rdx
	je	.L113
.LVL206:
.LBB5851:
.LBI5851:
	.loc 6 300 7 is_stmt 1 view .LVU515
.LBB5852:
	.loc 6 302 30 is_stmt 0 view .LVU516
	movq	%rsi, %rdi
.LVL207:
	.loc 6 302 30 view .LVU517
	call	_ZSt18_Rb_tree_decrementPSt18_Rb_tree_node_base
.LVL208:
	movq	%rax, %rdx
.LVL209:
	.loc 6 302 30 view .LVU518
.LBE5852:
.LBE5851:
.LBB5853:
.LBI5853:
	.loc 17 385 7 is_stmt 1 view .LVU519
	.loc 17 385 7 is_stmt 0 view .LVU520
.LBE5853:
	.loc 6 2209 9 view .LVU521
	cmpl	32(%rax), %r13d
	jle	.L104
.LVL210:
.LBB5854:
.LBI5854:
	.loc 6 797 7 is_stmt 1 view .LVU522
	.loc 6 797 7 is_stmt 0 view .LVU523
.LBE5854:
	.loc 6 2211 8 view .LVU524
	cmpq	$0, 24(%rax)
	je	.L114
.LVL211:
.LBB5855:
.LBI5855:
	.loc 11 341 12 is_stmt 1 view .LVU525
.LBB5856:
.LBB5857:
.LBB5858:
.LBI5858:
	.loc 14 74 5 view .LVU526
	.loc 14 74 5 is_stmt 0 view .LVU527
.LBE5858:
.LBB5859:
.LBI5859:
	.loc 14 74 5 is_stmt 1 view .LVU528
	.loc 14 74 5 is_stmt 0 view .LVU529
.LBE5859:
.LBE5857:
.LBE5856:
.LBE5855:
	.loc 6 2214 43 view .LVU530
	movq	%rbx, %rax
	movq	%rbx, %rdx
	jmp	.L100
.LVL212:
.L112:
	.loc 6 2214 43 view .LVU531
.LBE5850:
.LBE5847:
.LBB5888:
.LBI5888:
	.loc 6 1042 7 is_stmt 1 view .LVU532
	.loc 6 1042 7 is_stmt 0 view .LVU533
.LBE5888:
	.loc 6 2198 8 view .LVU534
	cmpq	$0, 40(%rdi)
	je	.L99
	.loc 6 2198 8 discriminator 1 view .LVU535
	movq	32(%rdi), %rbx
.LVL213:
.LBB5889:
.LBI5889:
	.loc 17 385 7 is_stmt 1 discriminator 1 view .LVU536
	.loc 17 385 7 is_stmt 0 discriminator 1 view .LVU537
.LBE5889:
	.loc 6 2198 8 discriminator 1 view .LVU538
	movl	32(%rbx), %eax
	cmpl	%eax, (%rdx)
	jle	.L99
.LVL214:
.LBB5890:
.LBI5890:
	.loc 11 325 18 is_stmt 1 view .LVU539
.LBB5891:
.LBB5892:
.LBB5893:
.LBI5893:
	.loc 14 74 5 view .LVU540
	.loc 14 74 5 is_stmt 0 view .LVU541
.LBE5893:
.LBE5892:
.LBE5891:
.LBE5890:
	.loc 6 2199 35 view .LVU542
	movl	$0, %eax
	movq	%rbx, %rdx
.LVL215:
	.loc 6 2199 35 view .LVU543
	jmp	.L100
.LVL216:
.L99:
	.loc 6 2201 41 discriminator 5 view .LVU544
	movq	%r12, %rsi
.LVL217:
	.loc 6 2201 41 discriminator 5 view .LVU545
	movq	%rbp, %rdi
.LVL218:
	.loc 6 2201 41 discriminator 5 view .LVU546
	call	_ZNSt8_Rb_treeIN3mpp9RepParser5StateESt4pairIKS2_NSt7__cxx1112basic_stringIcSt11char_traitsIcESaIcEEEESt10_Select1stISB_ESt4lessIS2_ESaISB_EE24_M_get_insert_unique_posERS4_
.LVL219:
.L100:
	.loc 6 2201 41 discriminator 5 view .LVU547
.LBE5844:
	.loc 6 2238 5 discriminator 1 view .LVU548
	addq	$8, %rsp
	.cfi_remember_state
	.cfi_def_cfa_offset 40
	popq	%rbx
	.cfi_def_cfa_offset 32
	popq	%rbp
	.cfi_def_cfa_offset 24
.LVL220:
	.loc 6 2238 5 discriminator 1 view .LVU549
	popq	%r12
	.cfi_def_cfa_offset 16
.LVL221:
	.loc 6 2238 5 discriminator 1 view .LVU550
	popq	%r13
	.cfi_def_cfa_offset 8
	ret
.LVL222:
.L113:
	.cfi_restore_state
.LBB5895:
.LBB5894:
.LBB5869:
.LBB5860:
.LBI5860:
	.loc 11 341 12 is_stmt 1 view .LVU551
.LBB5861:
.LBB5862:
.LBB5863:
.LBI5863:
	.loc 14 74 5 view .LVU552
	.loc 14 74 5 is_stmt 0 view .LVU553
.LBE5863:
.LBB5864:
.LBI5864:
	.loc 14 74 5 is_stmt 1 view .LVU554
	.loc 14 74 5 is_stmt 0 view .LVU555
.LBE5864:
.LBE5862:
.LBE5861:
.LBE5860:
	.loc 6 2208 46 view .LVU556
	movq	%rdx, %rax
	jmp	.L100
.LVL223:
.L114:
.LBB5865:
.LBI5865:
	.loc 11 325 18 is_stmt 1 view .LVU557
.LBB5866:
.LBB5867:
.LBB5868:
.LBI5868:
	.loc 14 74 5 view .LVU558
	.loc 14 74 5 is_stmt 0 view .LVU559
.LBE5868:
.LBE5867:
.LBE5866:
.LBE5865:
	.loc 6 2212 34 view .LVU560
	movl	$0, %eax
	jmp	.L100
.L104:
	.loc 6 2217 41 view .LVU561
	movq	%r12, %rsi
	movq	%rbp, %rdi
	call	_ZNSt8_Rb_treeIN3mpp9RepParser5StateESt4pairIKS2_NSt7__cxx1112basic_stringIcSt11char_traitsIcESaIcEEEESt10_Select1stISB_ESt4lessIS2_ESaISB_EE24_M_get_insert_unique_posERS4_
.LVL224:
	jmp	.L100
.LVL225:
.L101:
	.loc 6 2217 41 view .LVU562
.LBE5869:
.LBB5870:
	.loc 6 2219 12 view .LVU563
	jle	.L106
.LBB5871:
	.loc 6 2223 22 view .LVU564
	movq	32(%rdi), %rdx
.LVL226:
	.loc 6 2223 4 view .LVU565
	cmpq	%rsi, %rdx
	je	.L115
.LVL227:
.LBB5872:
.LBI5872:
	.loc 6 285 7 is_stmt 1 view .LVU566
.LBB5873:
	.loc 6 287 30 is_stmt 0 view .LVU567
	movq	%rsi, %rdi
.LVL228:
	.loc 6 287 30 view .LVU568
	call	_ZSt18_Rb_tree_incrementPSt18_Rb_tree_node_base
.LVL229:
	.loc 6 287 30 view .LVU569
	movq	%rax, %rdx
.LVL230:
	.loc 6 287 30 view .LVU570
.LBE5873:
.LBE5872:
.LBB5874:
.LBI5874:
	.loc 17 385 7 is_stmt 1 view .LVU571
	.loc 17 385 7 is_stmt 0 view .LVU572
.LBE5874:
	.loc 6 2225 9 view .LVU573
	cmpl	32(%rax), %r13d
	jge	.L109
.LVL231:
.LBB5875:
.LBI5875:
	.loc 6 797 7 is_stmt 1 view .LVU574
	.loc 6 797 7 is_stmt 0 view .LVU575
.LBE5875:
	.loc 6 2227 8 view .LVU576
	cmpq	$0, 24(%rbx)
	jne	.L100
.LVL232:
.LBB5876:
.LBI5876:
	.loc 11 325 18 is_stmt 1 view .LVU577
.LBB5877:
.LBB5878:
.LBB5879:
.LBI5879:
	.loc 14 74 5 view .LVU578
	.loc 14 74 5 is_stmt 0 view .LVU579
.LBE5879:
.LBE5878:
.LBE5877:
.LBE5876:
	.loc 6 2228 31 view .LVU580
	movl	$0, %eax
	movq	%rbx, %rdx
	jmp	.L100
.LVL233:
.L115:
.LBB5880:
.LBI5880:
	.loc 11 325 18 is_stmt 1 view .LVU581
.LBB5881:
.LBB5882:
.LBB5883:
.LBI5883:
	.loc 14 74 5 view .LVU582
	.loc 14 74 5 is_stmt 0 view .LVU583
.LBE5883:
.LBE5882:
.LBE5881:
.LBE5880:
	.loc 6 2224 35 view .LVU584
	movl	$0, %eax
	jmp	.L100
.LVL234:
.L109:
	.loc 6 2233 41 view .LVU585
	movq	%r12, %rsi
	movq	%rbp, %rdi
	call	_ZNSt8_Rb_treeIN3mpp9RepParser5StateESt4pairIKS2_NSt7__cxx1112basic_stringIcSt11char_traitsIcESaIcEEEESt10_Select1stISB_ESt4lessIS2_ESaISB_EE24_M_get_insert_unique_posERS4_
.LVL235:
	jmp	.L100
.LVL236:
.L106:
	.loc 6 2233 41 view .LVU586
.LBE5871:
.LBB5884:
.LBI5884:
	.loc 11 311 18 is_stmt 1 view .LVU587
.LBB5885:
.LBB5886:
.LBB5887:
.LBI5887:
	.loc 14 74 5 view .LVU588
	.loc 14 74 5 is_stmt 0 view .LVU589
.LBE5887:
.LBE5886:
.LBE5885:
.LBE5884:
	.loc 6 2237 30 view .LVU590
	movq	%rsi, %rax
	movl	$0, %edx
.LVL237:
	.loc 6 2237 30 view .LVU591
	jmp	.L100
.LBE5870:
.LBE5894:
.LBE5895:
	.cfi_endproc
.LFE5322:
	.size	_ZNSt8_Rb_treeIN3mpp9RepParser5StateESt4pairIKS2_NSt7__cxx1112basic_stringIcSt11char_traitsIcESaIcEEEESt10_Select1stISB_ESt4lessIS2_ESaISB_EE29_M_get_insert_hint_unique_posESt23_Rb_tree_const_iteratorISB_ERS4_, .-_ZNSt8_Rb_treeIN3mpp9RepParser5StateESt4pairIKS2_NSt7__cxx1112basic_stringIcSt11char_traitsIcESaIcEEEESt10_Select1stISB_ESt4lessIS2_ESaISB_EE29_M_get_insert_hint_unique_posESt23_Rb_tree_const_iteratorISB_ERS4_
	.section	.text._ZNSt8_Rb_treeIN3mpp9RepParser5StateESt4pairIKS2_NSt7__cxx1112basic_stringIcSt11char_traitsIcESaIcEEEESt10_Select1stISB_ESt4lessIS2_ESaISB_EE22_M_emplace_hint_uniqueIJRKSt21piecewise_construct_tSt5tupleIJRS4_EESM_IJEEEEESt17_Rb_tree_iteratorISB_ESt23_Rb_tree_const_iteratorISB_EDpOT_,"axG",@progbits,_ZNSt8_Rb_treeIN3mpp9RepParser5StateESt4pairIKS2_NSt7__cxx1112basic_stringIcSt11char_traitsIcESaIcEEEESt10_Select1stISB_ESt4lessIS2_ESaISB_EE22_M_emplace_hint_uniqueIJRKSt21piecewise_construct_tSt5tupleIJRS4_EESM_IJEEEEESt17_Rb_tree_iteratorISB_ESt23_Rb_tree_const_iteratorISB_EDpOT_,comdat
	.align 2
	.weak	_ZNSt8_Rb_treeIN3mpp9RepParser5StateESt4pairIKS2_NSt7__cxx1112basic_stringIcSt11char_traitsIcESaIcEEEESt10_Select1stISB_ESt4lessIS2_ESaISB_EE22_M_emplace_hint_uniqueIJRKSt21piecewise_construct_tSt5tupleIJRS4_EESM_IJEEEEESt17_Rb_tree_iteratorISB_ESt23_Rb_tree_const_iteratorISB_EDpOT_
	.type	_ZNSt8_Rb_treeIN3mpp9RepParser5StateESt4pairIKS2_NSt7__cxx1112basic_stringIcSt11char_traitsIcESaIcEEEESt10_Select1stISB_ESt4lessIS2_ESaISB_EE22_M_emplace_hint_uniqueIJRKSt21piecewise_construct_tSt5tupleIJRS4_EESM_IJEEEEESt17_Rb_tree_iteratorISB_ESt23_Rb_tree_const_iteratorISB_EDpOT_, @function
_ZNSt8_Rb_treeIN3mpp9RepParser5StateESt4pairIKS2_NSt7__cxx1112basic_stringIcSt11char_traitsIcESaIcEEEESt10_Select1stISB_ESt4lessIS2_ESaISB_EE22_M_emplace_hint_uniqueIJRKSt21piecewise_construct_tSt5tupleIJRS4_EESM_IJEEEEESt17_Rb_tree_iteratorISB_ESt23_Rb_tree_const_iteratorISB_EDpOT_:
.LVL238:
.LFB5150:
	.loc 6 2452 7 is_stmt 1 view -0
	.cfi_startproc
	.loc 6 2452 7 is_stmt 0 view .LVU593
	pushq	%r13
	.cfi_def_cfa_offset 16
	.cfi_offset 13, -16
	pushq	%r12
	.cfi_def_cfa_offset 24
	.cfi_offset 12, -24
	pushq	%rbp
	.cfi_def_cfa_offset 32
	.cfi_offset 6, -32
	pushq	%rbx
	.cfi_def_cfa_offset 40
	.cfi_offset 3, -40
	subq	$8, %rsp
	.cfi_def_cfa_offset 48
	movq	%rdi, %rbp
	movq	%rsi, %r13
.LVL239:
	.loc 6 2452 7 view .LVU594
	movq	%rcx, %r12
.LVL240:
.LBB5896:
.LBI5896:
	.loc 6 628 2 is_stmt 1 view .LVU595
.LBB5897:
.LBB5898:
.LBI5898:
	.loc 6 579 7 view .LVU596
.LBB5899:
.LBI5899:
	.loc 8 443 7 view .LVU597
.LBB5900:
.LBI5900:
	.loc 9 102 7 view .LVU598
.LBB5901:
	.loc 9 114 41 is_stmt 0 view .LVU599
	movl	$72, %edi
.LVL241:
	.loc 9 114 41 view .LVU600
	call	_Znwm
.LVL242:
	.loc 9 114 41 view .LVU601
	movq	%rax, %rbx
.LVL243:
	.loc 9 114 41 view .LVU602
.LBE5901:
.LBE5900:
.LBE5899:
.LBE5898:
.LBB5902:
.LBI5902:
	.loc 6 609 2 is_stmt 1 view .LVU603
	.loc 6 609 2 is_stmt 0 view .LVU604
.LBE5902:
.LBE5897:
.LBE5896:
	.file 20 "/usr/include/c++/9/new"
	.loc 20 174 3 is_stmt 1 view .LVU605
.LBB5940:
.LBB5938:
.LBB5936:
.LBB5903:
.LBI5903:
	.loc 8 482 2 view .LVU606
.LBB5904:
.LBI5904:
	.loc 9 144 2 view .LVU607
.LBB5905:
.LBI5905:
	.file 21 "/usr/include/c++/9/tuple"
	.loc 21 642 17 view .LVU608
.LBB5906:
.LBI5906:
	.loc 21 358 7 view .LVU609
.LBB5907:
.LBI5907:
	.loc 21 334 7 view .LVU610
.LBB5908:
.LBI5908:
	.loc 21 160 7 view .LVU611
.LBB5909:
	.loc 21 160 54 is_stmt 0 view .LVU612
	movq	(%r12), %rax
.LVL244:
	.loc 21 160 54 view .LVU613
.LBE5909:
.LBE5908:
.LBE5907:
.LBB5910:
.LBI5910:
	.loc 14 74 5 is_stmt 1 view .LVU614
	.loc 14 74 5 is_stmt 0 view .LVU615
.LBE5910:
.LBB5911:
.LBI5911:
	.loc 21 125 17 is_stmt 1 view .LVU616
	.loc 21 125 17 is_stmt 0 view .LVU617
.LBE5911:
.LBE5906:
.LBE5905:
.LBE5904:
.LBE5903:
.LBE5936:
.LBE5938:
.LBE5940:
	.loc 20 174 3 is_stmt 1 view .LVU618
.LBB5941:
.LBB5939:
.LBB5937:
.LBB5935:
.LBB5934:
.LBB5912:
.LBI5912:
	.loc 21 1658 7 view .LVU619
.LBB5913:
.LBI5913:
	.loc 21 1670 7 view .LVU620
.LBB5914:
.LBB5915:
.LBI5915:
	.loc 21 1320 5 view .LVU621
	.loc 21 1320 5 is_stmt 0 view .LVU622
.LBE5915:
.LBB5916:
.LBI5916:
	.loc 14 74 5 is_stmt 1 view .LVU623
	.loc 14 74 5 is_stmt 0 view .LVU624
.LBE5916:
	.loc 21 1674 70 view .LVU625
	movl	(%rax), %eax
	movl	%eax, 32(%rbx)
.LVL245:
.LBB5917:
.LBI5917:
	.loc 7 431 7 is_stmt 1 view .LVU626
.LBB5918:
.LBI5918:
	.loc 10 138 7 view .LVU627
.LBB5919:
.LBI5919:
	.loc 9 80 7 view .LVU628
	.loc 9 80 7 is_stmt 0 view .LVU629
.LBE5919:
.LBE5918:
.LBB5920:
.LBI5920:
	.loc 7 190 7 is_stmt 1 view .LVU630
.LBB5921:
	.loc 7 193 51 is_stmt 0 view .LVU631
	leaq	56(%rbx), %r12
.LVL246:
	.loc 7 193 51 view .LVU632
.LBE5921:
.LBE5920:
.LBB5922:
.LBI5922:
	.loc 7 159 2 is_stmt 1 view .LVU633
.LBB5923:
.LBB5924:
.LBI5924:
	.loc 14 99 5 view .LVU634
	.loc 14 99 5 is_stmt 0 view .LVU635
.LBE5924:
.LBB5925:
.LBI5925:
	.loc 10 141 7 is_stmt 1 view .LVU636
.LBB5926:
.LBI5926:
	.loc 9 83 7 view .LVU637
	.loc 9 83 7 is_stmt 0 view .LVU638
.LBE5926:
.LBE5925:
	.loc 7 160 46 view .LVU639
	movq	%r12, 40(%rbx)
.LVL247:
	.loc 7 160 46 view .LVU640
.LBE5923:
.LBE5922:
.LBB5927:
.LBI5927:
	.loc 10 153 7 is_stmt 1 view .LVU641
.LBB5928:
.LBI5928:
	.loc 9 89 7 view .LVU642
	.loc 9 89 7 is_stmt 0 view .LVU643
.LBE5928:
.LBE5927:
.LBB5929:
.LBI5929:
	.loc 7 214 7 is_stmt 1 view .LVU644
.LBB5930:
.LBI5930:
	.loc 7 182 7 view .LVU645
.LBB5931:
	.loc 7 183 9 is_stmt 0 view .LVU646
	movq	$0, 48(%rbx)
.LVL248:
	.loc 7 183 9 view .LVU647
.LBE5931:
.LBE5930:
.LBB5932:
.LBI5932:
	.loc 13 299 7 is_stmt 1 view .LVU648
.LBB5933:
	.loc 13 300 9 view .LVU649
	.loc 13 300 14 is_stmt 0 view .LVU650
	movb	$0, 56(%rbx)
.LVL249:
	.loc 13 300 14 view .LVU651
.LBE5933:
.LBE5932:
.LBE5929:
.LBE5917:
.LBE5914:
.LBE5913:
.LBE5912:
.LBE5934:
.LBE5935:
.LBE5937:
.LBE5939:
.LBE5941:
.LBB5942:
.LBB5943:
.LBI5943:
	.loc 6 767 7 is_stmt 1 view .LVU652
.LBB5944:
.LBI5944:
	.loc 17 1155 7 view .LVU653
.LBB5945:
	.loc 17 1156 20 is_stmt 0 view .LVU654
	leaq	32(%rbx), %rdx
.LVL250:
	.loc 17 1156 20 view .LVU655
.LBE5945:
.LBE5944:
.LBE5943:
	.loc 6 2459 11 view .LVU656
	movq	%r13, %rsi
	movq	%rbp, %rdi
	call	_ZNSt8_Rb_treeIN3mpp9RepParser5StateESt4pairIKS2_NSt7__cxx1112basic_stringIcSt11char_traitsIcESaIcEEEESt10_Select1stISB_ESt4lessIS2_ESaISB_EE29_M_get_insert_hint_unique_posESt23_Rb_tree_const_iteratorISB_ERS4_
.LVL251:
	movq	%rax, %r13
.LVL252:
	.loc 6 2461 6 view .LVU657
	testq	%rdx, %rdx
	je	.L117
	.loc 6 2462 60 view .LVU658
	movq	%rbx, %rcx
	.loc 6 2462 60 view .LVU659
	movq	%rax, %rsi
	movq	%rbp, %rdi
	call	_ZNSt8_Rb_treeIN3mpp9RepParser5StateESt4pairIKS2_NSt7__cxx1112basic_stringIcSt11char_traitsIcESaIcEEEESt10_Select1stISB_ESt4lessIS2_ESaISB_EE14_M_insert_nodeEPSt18_Rb_tree_node_baseSJ_PSt13_Rb_tree_nodeISB_E
.LVL253:
.L118:
	.loc 6 2462 60 view .LVU660
.LBE5942:
	.loc 6 2472 7 view .LVU661
	addq	$8, %rsp
	.cfi_remember_state
	.cfi_def_cfa_offset 40
	popq	%rbx
	.cfi_def_cfa_offset 32
.LVL254:
	.loc 6 2472 7 view .LVU662
	popq	%rbp
	.cfi_def_cfa_offset 24
.LVL255:
	.loc 6 2472 7 view .LVU663
	popq	%r12
	.cfi_def_cfa_offset 16
.LVL256:
	.loc 6 2472 7 view .LVU664
	popq	%r13
	.cfi_def_cfa_offset 8
	.loc 6 2472 7 view .LVU665
	ret
.LVL257:
.L117:
	.cfi_restore_state
.LBB5970:
.LBB5946:
.LBI5946:
	.loc 6 648 7 is_stmt 1 view .LVU666
.LBB5947:
.LBI5947:
	.loc 6 637 7 view .LVU667
.LBB5948:
.LBI5948:
	.loc 8 495 2 view .LVU668
.LBB5949:
.LBI5949:
	.loc 9 151 2 view .LVU669
.LBB5950:
.LBI5950:
	.loc 11 208 12 view .LVU670
.LBB5951:
.LBI5951:
	.loc 7 657 7 view .LVU671
.LBB5952:
.LBI5952:
	.loc 7 229 7 view .LVU672
.LBB5953:
.LBB5954:
.LBI5954:
	.loc 7 221 7 view .LVU673
.LBB5955:
.LBI5955:
	.loc 7 186 7 view .LVU674
.LBB5956:
	.loc 7 187 28 is_stmt 0 view .LVU675
	movq	40(%rbx), %rdi
.LVL258:
	.loc 7 187 28 view .LVU676
.LBE5956:
.LBE5955:
.LBE5954:
	.loc 7 231 2 view .LVU677
	cmpq	%rdi, %r12
	je	.L119
.LVL259:
.LBB5957:
.LBI5957:
	.loc 7 236 7 is_stmt 1 view .LVU678
.LBB5958:
.LBB5959:
.LBI5959:
	.loc 8 469 7 view .LVU679
.LBB5960:
.LBI5960:
	.loc 9 119 7 view .LVU680
.LBB5961:
	.loc 9 128 19 is_stmt 0 view .LVU681
	call	_ZdlPv
.LVL260:
.L119:
	.loc 9 128 19 view .LVU682
.LBE5961:
.LBE5960:
.LBE5959:
.LBE5958:
.LBE5957:
.LBE5953:
.LBE5952:
.LBB5962:
.LBI5962:
	.loc 7 150 14 is_stmt 1 view .LVU683
.LBB5963:
.LBI5963:
	.loc 10 153 7 view .LVU684
.LBB5964:
.LBI5964:
	.loc 9 89 7 view .LVU685
	.loc 9 89 7 is_stmt 0 view .LVU686
.LBE5964:
.LBE5963:
.LBE5962:
.LBE5951:
.LBE5950:
.LBE5949:
.LBE5948:
.LBE5947:
.LBB5965:
.LBI5965:
	.loc 6 583 7 is_stmt 1 view .LVU687
.LBB5966:
.LBI5966:
	.loc 8 469 7 view .LVU688
.LBB5967:
.LBI5967:
	.loc 9 119 7 view .LVU689
.LBB5968:
	.loc 9 128 19 is_stmt 0 view .LVU690
	movq	%rbx, %rdi
	call	_ZdlPv
.LVL261:
	.loc 9 128 19 view .LVU691
.LBE5968:
.LBE5967:
.LBE5966:
.LBE5965:
.LBE5946:
.LBB5969:
.LBI5969:
	.loc 6 273 7 is_stmt 1 view .LVU692
	.loc 6 273 7 is_stmt 0 view .LVU693
.LBE5969:
	.loc 6 2465 33 view .LVU694
	movq	%r13, %rax
	jmp	.L118
.LBE5970:
	.cfi_endproc
.LFE5150:
	.size	_ZNSt8_Rb_treeIN3mpp9RepParser5StateESt4pairIKS2_NSt7__cxx1112basic_stringIcSt11char_traitsIcESaIcEEEESt10_Select1stISB_ESt4lessIS2_ESaISB_EE22_M_emplace_hint_uniqueIJRKSt21piecewise_construct_tSt5tupleIJRS4_EESM_IJEEEEESt17_Rb_tree_iteratorISB_ESt23_Rb_tree_const_iteratorISB_EDpOT_, .-_ZNSt8_Rb_treeIN3mpp9RepParser5StateESt4pairIKS2_NSt7__cxx1112basic_stringIcSt11char_traitsIcESaIcEEEESt10_Select1stISB_ESt4lessIS2_ESaISB_EE22_M_emplace_hint_uniqueIJRKSt21piecewise_construct_tSt5tupleIJRS4_EESM_IJEEEEESt17_Rb_tree_iteratorISB_ESt23_Rb_tree_const_iteratorISB_EDpOT_
	.section	.text._ZNSt3mapIN3mpp9RepParser5StateENSt7__cxx1112basic_stringIcSt11char_traitsIcESaIcEEESt4lessIS2_ESaISt4pairIKS2_S8_EEEixERSC_,"axG",@progbits,_ZNSt3mapIN3mpp9RepParser5StateENSt7__cxx1112basic_stringIcSt11char_traitsIcESaIcEEESt4lessIS2_ESaISt4pairIKS2_S8_EEEixERSC_,comdat
	.align 2
	.weak	_ZNSt3mapIN3mpp9RepParser5StateENSt7__cxx1112basic_stringIcSt11char_traitsIcESaIcEEESt4lessIS2_ESaISt4pairIKS2_S8_EEEixERSC_
	.type	_ZNSt3mapIN3mpp9RepParser5StateENSt7__cxx1112basic_stringIcSt11char_traitsIcESaIcEEESt4lessIS2_ESaISt4pairIKS2_S8_EEEixERSC_, @function
_ZNSt3mapIN3mpp9RepParser5StateENSt7__cxx1112basic_stringIcSt11char_traitsIcESaIcEEESt4lessIS2_ESaISt4pairIKS2_S8_EEEixERSC_:
.LVL262:
.LFB4981:
	.file 22 "/usr/include/c++/9/bits/stl_map.h"
	.loc 22 490 7 is_stmt 1 view -0
	.cfi_startproc
	.loc 22 490 7 is_stmt 0 view .LVU696
	pushq	%r12
	.cfi_def_cfa_offset 16
	.cfi_offset 12, -16
	pushq	%rbp
	.cfi_def_cfa_offset 24
	.cfi_offset 6, -24
	pushq	%rbx
	.cfi_def_cfa_offset 32
	.cfi_offset 3, -32
	subq	$16, %rsp
	.cfi_def_cfa_offset 48
	movq	%rdi, %rbx
	movq	%rsi, %rbp
.LVL263:
.LBB5996:
.LBI5996:
	.loc 22 1257 7 is_stmt 1 view .LVU697
.LBB5997:
.LBB5998:
.LBI5998:
	.loc 6 1281 7 view .LVU698
.LBB5999:
.LBB6000:
.LBI6000:
	.loc 6 755 7 view .LVU699
.LBB6001:
	.loc 6 756 31 is_stmt 0 view .LVU700
	leaq	8(%rdi), %r12
.LVL264:
	.loc 6 756 31 view .LVU701
.LBE6001:
.LBE6000:
.LBB6002:
.LBI6002:
	.loc 6 744 7 is_stmt 1 view .LVU702
.LBB6003:
	.loc 6 745 73 is_stmt 0 view .LVU703
	movq	16(%rdi), %rsi
.LVL265:
	.loc 6 745 73 view .LVU704
.LBE6003:
.LBE6002:
	.loc 6 1282 56 view .LVU705
	movq	%rbp, %rcx
	movq	%r12, %rdx
	call	_ZNSt8_Rb_treeIN3mpp9RepParser5StateESt4pairIKS2_NSt7__cxx1112basic_stringIcSt11char_traitsIcESaIcEEEESt10_Select1stISB_ESt4lessIS2_ESaISB_EE14_M_lower_boundEPSt13_Rb_tree_nodeISB_EPSt18_Rb_tree_node_baseRS4_
.LVL266:
	.loc 6 1282 56 view .LVU706
.LBE5999:
.LBE5998:
.LBE5997:
.LBE5996:
.LBB6004:
.LBI6004:
	.loc 22 372 7 is_stmt 1 view .LVU707
.LBB6005:
.LBI6005:
	.loc 6 1014 7 view .LVU708
.LBB6006:
.LBI6006:
	.loc 6 273 7 view .LVU709
	.loc 6 273 7 is_stmt 0 view .LVU710
.LBE6006:
.LBE6005:
.LBE6004:
.LBB6007:
.LBI6007:
	.loc 6 315 7 is_stmt 1 view .LVU711
.LBB6008:
	.loc 6 316 20 is_stmt 0 view .LVU712
	movq	%rax, %rsi
.LVL267:
	.loc 6 316 20 view .LVU713
.LBE6008:
.LBE6007:
	.loc 22 497 19 view .LVU714
	cmpq	%r12, %rax
	je	.L122
	movq	%rax, %rdx
.LVL268:
.LBB6009:
.LBI6009:
	.loc 17 385 7 is_stmt 1 view .LVU715
	.loc 17 385 7 is_stmt 0 view .LVU716
.LBE6009:
	.loc 22 497 19 view .LVU717
	movl	32(%rax), %eax
	cmpl	%eax, 0(%rbp)
	jge	.L123
.LVL269:
.L122:
.LBB6010:
.LBI6010:
	.loc 21 588 19 is_stmt 1 discriminator 5 view .LVU718
.LBB6011:
.LBI6011:
	.loc 21 343 17 discriminator 5 view .LVU719
.LBB6012:
.LBI6012:
	.loc 21 125 17 discriminator 5 view .LVU720
.LBB6013:
.LBB6014:
	.loc 21 126 25 is_stmt 0 discriminator 5 view .LVU721
	movq	%rbp, 8(%rsp)
.LVL270:
	.loc 21 126 25 discriminator 5 view .LVU722
.LBE6014:
.LBE6013:
.LBE6012:
.LBE6011:
.LBE6010:
.LBB6015:
.LBI6015:
	.loc 6 348 7 is_stmt 1 discriminator 5 view .LVU723
	.loc 6 348 7 is_stmt 0 discriminator 5 view .LVU724
.LBE6015:
	.loc 22 499 8 discriminator 5 view .LVU725
	leaq	7(%rsp), %r8
	leaq	8(%rsp), %rcx
	movl	$_ZSt19piecewise_construct, %edx
	movq	%rbx, %rdi
	call	_ZNSt8_Rb_treeIN3mpp9RepParser5StateESt4pairIKS2_NSt7__cxx1112basic_stringIcSt11char_traitsIcESaIcEEEESt10_Select1stISB_ESt4lessIS2_ESaISB_EE22_M_emplace_hint_uniqueIJRKSt21piecewise_construct_tSt5tupleIJRS4_EESM_IJEEEEESt17_Rb_tree_iteratorISB_ESt23_Rb_tree_const_iteratorISB_EDpOT_
.LVL271:
	movq	%rax, %rdx
.L123:
.LVL272:
.LBB6016:
.LBI6016:
	.loc 6 277 7 is_stmt 1 view .LVU726
	.loc 6 277 7 is_stmt 0 view .LVU727
.LBE6016:
	.loc 22 505 16 view .LVU728
	leaq	40(%rdx), %rax
	.loc 22 506 7 view .LVU729
	addq	$16, %rsp
	.cfi_def_cfa_offset 32
	popq	%rbx
	.cfi_def_cfa_offset 24
.LVL273:
	.loc 22 506 7 view .LVU730
	popq	%rbp
	.cfi_def_cfa_offset 16
.LVL274:
	.loc 22 506 7 view .LVU731
	popq	%r12
	.cfi_def_cfa_offset 8
.LVL275:
	.loc 22 506 7 view .LVU732
	ret
	.cfi_endproc
.LFE4981:
	.size	_ZNSt3mapIN3mpp9RepParser5StateENSt7__cxx1112basic_stringIcSt11char_traitsIcESaIcEEESt4lessIS2_ESaISt4pairIKS2_S8_EEEixERSC_, .-_ZNSt3mapIN3mpp9RepParser5StateENSt7__cxx1112basic_stringIcSt11char_traitsIcESaIcEEESt4lessIS2_ESaISt4pairIKS2_S8_EEEixERSC_
	.section	.text._ZNSt8_Rb_treeIcSt4pairIKcNSt7__cxx1112basic_stringIcSt11char_traitsIcESaIcEEEESt10_Select1stIS8_ESt4lessIcESaIS8_EE14_M_lower_boundEPSt13_Rb_tree_nodeIS8_EPSt18_Rb_tree_node_baseRS1_,"axG",@progbits,_ZNSt8_Rb_treeIcSt4pairIKcNSt7__cxx1112basic_stringIcSt11char_traitsIcESaIcEEEESt10_Select1stIS8_ESt4lessIcESaIS8_EE14_M_lower_boundEPSt13_Rb_tree_nodeIS8_EPSt18_Rb_tree_node_baseRS1_,comdat
	.align 2
	.weak	_ZNSt8_Rb_treeIcSt4pairIKcNSt7__cxx1112basic_stringIcSt11char_traitsIcESaIcEEEESt10_Select1stIS8_ESt4lessIcESaIS8_EE14_M_lower_boundEPSt13_Rb_tree_nodeIS8_EPSt18_Rb_tree_node_baseRS1_
	.type	_ZNSt8_Rb_treeIcSt4pairIKcNSt7__cxx1112basic_stringIcSt11char_traitsIcESaIcEEEESt10_Select1stIS8_ESt4lessIcESaIS8_EE14_M_lower_boundEPSt13_Rb_tree_nodeIS8_EPSt18_Rb_tree_node_baseRS1_, @function
_ZNSt8_Rb_treeIcSt4pairIKcNSt7__cxx1112basic_stringIcSt11char_traitsIcESaIcEEEESt10_Select1stIS8_ESt4lessIcESaIS8_EE14_M_lower_boundEPSt13_Rb_tree_nodeIS8_EPSt18_Rb_tree_node_baseRS1_:
.LVL276:
.LFB5517:
	.loc 6 1924 5 is_stmt 1 view -0
	.cfi_startproc
	.loc 6 1924 5 is_stmt 0 view .LVU734
	movq	%rdx, %rax
	jmp	.L126
.LVL277:
.L128:
.LBB6017:
.LBI6017:
	.loc 6 797 7 is_stmt 1 view .LVU735
.LBB6018:
	.loc 6 798 53 is_stmt 0 view .LVU736
	movq	24(%rsi), %rsi
.LVL278:
.L126:
	.loc 6 798 53 view .LVU737
.LBE6018:
.LBE6017:
	.loc 6 1928 18 is_stmt 1 view .LVU738
	testq	%rsi, %rsi
	je	.L127
.LVL279:
.LBB6019:
.LBI6019:
	.loc 17 385 7 view .LVU739
	.loc 17 385 7 is_stmt 0 view .LVU740
.LBE6019:
	.loc 6 1929 2 view .LVU741
	movzbl	(%rcx), %edi
	cmpb	%dil, 32(%rsi)
	jl	.L128
.LVL280:
.LBB6020:
.LBI6020:
	.loc 6 789 7 is_stmt 1 view .LVU742
	.loc 6 789 7 is_stmt 0 view .LVU743
.LBE6020:
	.loc 6 1930 4 view .LVU744
	movq	%rsi, %rax
	.loc 6 1930 28 view .LVU745
	movq	16(%rsi), %rsi
.LVL281:
	.loc 6 1930 28 view .LVU746
	jmp	.L126
.L127:
.LVL282:
.LBB6021:
.LBI6021:
	.loc 6 273 7 is_stmt 1 view .LVU747
	.loc 6 273 7 is_stmt 0 view .LVU748
.LBE6021:
	.loc 6 1934 5 view .LVU749
	ret
	.cfi_endproc
.LFE5517:
	.size	_ZNSt8_Rb_treeIcSt4pairIKcNSt7__cxx1112basic_stringIcSt11char_traitsIcESaIcEEEESt10_Select1stIS8_ESt4lessIcESaIS8_EE14_M_lower_boundEPSt13_Rb_tree_nodeIS8_EPSt18_Rb_tree_node_baseRS1_, .-_ZNSt8_Rb_treeIcSt4pairIKcNSt7__cxx1112basic_stringIcSt11char_traitsIcESaIcEEEESt10_Select1stIS8_ESt4lessIcESaIS8_EE14_M_lower_boundEPSt13_Rb_tree_nodeIS8_EPSt18_Rb_tree_node_baseRS1_
	.section	.text._ZNSt8_Rb_treeIcSt4pairIKcNSt7__cxx1112basic_stringIcSt11char_traitsIcESaIcEEEESt10_Select1stIS8_ESt4lessIcESaIS8_EE24_M_get_insert_unique_posERS1_,"axG",@progbits,_ZNSt8_Rb_treeIcSt4pairIKcNSt7__cxx1112basic_stringIcSt11char_traitsIcESaIcEEEESt10_Select1stIS8_ESt4lessIcESaIS8_EE24_M_get_insert_unique_posERS1_,comdat
	.align 2
	.weak	_ZNSt8_Rb_treeIcSt4pairIKcNSt7__cxx1112basic_stringIcSt11char_traitsIcESaIcEEEESt10_Select1stIS8_ESt4lessIcESaIS8_EE24_M_get_insert_unique_posERS1_
	.type	_ZNSt8_Rb_treeIcSt4pairIKcNSt7__cxx1112basic_stringIcSt11char_traitsIcESaIcEEEESt10_Select1stIS8_ESt4lessIcESaIS8_EE24_M_get_insert_unique_posERS1_, @function
_ZNSt8_Rb_treeIcSt4pairIKcNSt7__cxx1112basic_stringIcSt11char_traitsIcESaIcEEEESt10_Select1stIS8_ESt4lessIcESaIS8_EE24_M_get_insert_unique_posERS1_:
.LVL283:
.LFB5534:
	.loc 6 2085 5 is_stmt 1 view -0
	.cfi_startproc
	.loc 6 2085 5 is_stmt 0 view .LVU751
	pushq	%r12
	.cfi_def_cfa_offset 16
	.cfi_offset 12, -16
	pushq	%rbp
	.cfi_def_cfa_offset 24
	.cfi_offset 6, -24
	pushq	%rbx
	.cfi_def_cfa_offset 32
	.cfi_offset 3, -32
	movq	%rsi, %r12
.LVL284:
.LBB6022:
.LBI6022:
	.loc 6 744 7 is_stmt 1 view .LVU752
.LBB6023:
	.loc 6 745 73 is_stmt 0 view .LVU753
	movq	16(%rdi), %rbx
.LVL285:
	.loc 6 745 73 view .LVU754
.LBE6023:
.LBE6022:
.LBB6024:
.LBI6024:
	.loc 6 755 7 is_stmt 1 view .LVU755
.LBB6025:
	.loc 6 756 31 is_stmt 0 view .LVU756
	leaq	8(%rdi), %rbp
.LVL286:
	.loc 6 756 31 view .LVU757
.LBE6025:
.LBE6024:
	.loc 6 2091 12 view .LVU758
	movl	$1, %ecx
	jmp	.L131
.LVL287:
.L133:
.LBB6026:
.LBI6026:
	.loc 6 797 7 is_stmt 1 discriminator 2 view .LVU759
.LBB6027:
	.loc 6 798 53 is_stmt 0 discriminator 2 view .LVU760
	movq	24(%rbx), %rax
.LVL288:
.L134:
	.loc 6 798 53 discriminator 2 view .LVU761
.LBE6027:
.LBE6026:
	.loc 6 2085 5 view .LVU762
	movq	%rbx, %rbp
	movq	%rax, %rbx
.LVL289:
.L131:
	.loc 6 2092 18 is_stmt 1 view .LVU763
	testq	%rbx, %rbx
	je	.L132
.LVL290:
.LBB6028:
.LBI6028:
	.loc 17 385 7 view .LVU764
.LBB6029:
	.loc 17 386 20 is_stmt 0 view .LVU765
	movzbl	(%r12), %eax
	movzbl	32(%rbx), %edx
	.loc 17 386 22 view .LVU766
	cmpb	%al, %dl
	setg	%cl
.LVL291:
	.loc 17 386 22 view .LVU767
.LBE6029:
.LBE6028:
	.loc 6 2096 17 view .LVU768
	jle	.L133
.LVL292:
.LBB6030:
.LBI6030:
	.loc 6 789 7 is_stmt 1 discriminator 1 view .LVU769
.LBB6031:
	.loc 6 790 52 is_stmt 0 discriminator 1 view .LVU770
	movq	16(%rbx), %rax
.LVL293:
	.loc 6 790 52 discriminator 1 view .LVU771
.LBE6031:
.LBE6030:
	jmp	.L134
.LVL294:
.L132:
.LBB6032:
.LBI6032:
	.loc 6 273 7 is_stmt 1 view .LVU772
.LBB6033:
.LBB6034:
	.loc 6 274 20 is_stmt 0 view .LVU773
	movq	%rbp, %rax
.LVL295:
	.loc 6 274 20 view .LVU774
.LBE6034:
.LBE6033:
.LBE6032:
	.loc 6 2099 7 view .LVU775
	testb	%cl, %cl
	je	.L135
.LVL296:
.LBB6035:
.LBI6035:
	.loc 6 1006 7 is_stmt 1 view .LVU776
.LBB6036:
.LBB6037:
.LBI6037:
	.loc 6 273 7 view .LVU777
	.loc 6 273 7 is_stmt 0 view .LVU778
.LBE6037:
.LBE6036:
.LBE6035:
	.loc 6 2101 4 view .LVU779
	cmpq	%rbp, 24(%rdi)
	je	.L140
.LVL297:
.LBB6038:
.LBI6038:
	.loc 6 300 7 is_stmt 1 view .LVU780
.LBB6039:
	.loc 6 302 30 is_stmt 0 view .LVU781
	movq	%rbp, %rdi
.LVL298:
	.loc 6 302 30 view .LVU782
	call	_ZSt18_Rb_tree_decrementPSt18_Rb_tree_node_base
.LVL299:
.L135:
	.loc 6 302 30 view .LVU783
.LBE6039:
.LBE6038:
.LBB6040:
.LBI6040:
	.loc 17 385 7 is_stmt 1 view .LVU784
	.loc 17 385 7 is_stmt 0 view .LVU785
.LBE6040:
	.loc 6 2106 7 view .LVU786
	movzbl	(%r12), %esi
	cmpb	%sil, 32(%rax)
	jge	.L138
.LVL300:
.LBB6041:
.LBI6041:
	.loc 11 341 12 is_stmt 1 view .LVU787
.LBB6042:
.LBB6043:
.LBB6044:
.LBI6044:
	.loc 14 74 5 view .LVU788
	.loc 14 74 5 is_stmt 0 view .LVU789
.LBE6044:
.LBB6045:
.LBI6045:
	.loc 14 74 5 is_stmt 1 view .LVU790
	.loc 14 74 5 is_stmt 0 view .LVU791
.LBE6045:
.LBE6043:
.LBE6042:
.LBE6041:
	.loc 6 2107 22 view .LVU792
	movq	%rbx, %rax
.LVL301:
	.loc 6 2107 22 view .LVU793
	movq	%rbp, %rdx
.LVL302:
.L137:
.LVL303:
	.loc 6 2109 5 view .LVU794
	popq	%rbx
	.cfi_remember_state
	.cfi_def_cfa_offset 24
	popq	%rbp
	.cfi_def_cfa_offset 16
	popq	%r12
	.cfi_def_cfa_offset 8
.LVL304:
	.loc 6 2109 5 view .LVU795
	ret
.LVL305:
.L140:
	.cfi_restore_state
.LBB6046:
.LBI6046:
	.loc 11 341 12 is_stmt 1 view .LVU796
.LBB6047:
.LBB6048:
.LBB6049:
.LBI6049:
	.loc 14 74 5 view .LVU797
	.loc 14 74 5 is_stmt 0 view .LVU798
.LBE6049:
.LBB6050:
.LBI6050:
	.loc 14 74 5 is_stmt 1 view .LVU799
	.loc 14 74 5 is_stmt 0 view .LVU800
.LBE6050:
.LBE6048:
.LBE6047:
.LBE6046:
	.loc 6 2102 26 view .LVU801
	movq	%rbx, %rax
.LVL306:
	.loc 6 2102 26 view .LVU802
	movq	%rbp, %rdx
	jmp	.L137
.LVL307:
.L138:
.LBB6051:
.LBI6051:
	.loc 11 311 18 is_stmt 1 view .LVU803
.LBB6052:
.LBB6053:
.LBB6054:
.LBI6054:
	.loc 14 74 5 view .LVU804
	.loc 14 74 5 is_stmt 0 view .LVU805
.LBE6054:
.LBE6053:
.LBE6052:
.LBE6051:
	.loc 6 2108 33 view .LVU806
	movl	$0, %edx
	jmp	.L137
	.cfi_endproc
.LFE5534:
	.size	_ZNSt8_Rb_treeIcSt4pairIKcNSt7__cxx1112basic_stringIcSt11char_traitsIcESaIcEEEESt10_Select1stIS8_ESt4lessIcESaIS8_EE24_M_get_insert_unique_posERS1_, .-_ZNSt8_Rb_treeIcSt4pairIKcNSt7__cxx1112basic_stringIcSt11char_traitsIcESaIcEEEESt10_Select1stIS8_ESt4lessIcESaIS8_EE24_M_get_insert_unique_posERS1_
	.section	.text._ZNSt8_Rb_treeIcSt4pairIKcNSt7__cxx1112basic_stringIcSt11char_traitsIcESaIcEEEESt10_Select1stIS8_ESt4lessIcESaIS8_EE29_M_get_insert_hint_unique_posESt23_Rb_tree_const_iteratorIS8_ERS1_,"axG",@progbits,_ZNSt8_Rb_treeIcSt4pairIKcNSt7__cxx1112basic_stringIcSt11char_traitsIcESaIcEEEESt10_Select1stIS8_ESt4lessIcESaIS8_EE29_M_get_insert_hint_unique_posESt23_Rb_tree_const_iteratorIS8_ERS1_,comdat
	.align 2
	.weak	_ZNSt8_Rb_treeIcSt4pairIKcNSt7__cxx1112basic_stringIcSt11char_traitsIcESaIcEEEESt10_Select1stIS8_ESt4lessIcESaIS8_EE29_M_get_insert_hint_unique_posESt23_Rb_tree_const_iteratorIS8_ERS1_
	.type	_ZNSt8_Rb_treeIcSt4pairIKcNSt7__cxx1112basic_stringIcSt11char_traitsIcESaIcEEEESt10_Select1stIS8_ESt4lessIcESaIS8_EE29_M_get_insert_hint_unique_posESt23_Rb_tree_const_iteratorIS8_ERS1_, @function
_ZNSt8_Rb_treeIcSt4pairIKcNSt7__cxx1112basic_stringIcSt11char_traitsIcESaIcEEEESt10_Select1stIS8_ESt4lessIcESaIS8_EE29_M_get_insert_hint_unique_posESt23_Rb_tree_const_iteratorIS8_ERS1_:
.LVL308:
.LFB5382:
	.loc 6 2187 5 is_stmt 1 view -0
	.cfi_startproc
	.loc 6 2187 5 is_stmt 0 view .LVU808
	pushq	%r13
	.cfi_def_cfa_offset 16
	.cfi_offset 13, -16
	pushq	%r12
	.cfi_def_cfa_offset 24
	.cfi_offset 12, -24
	pushq	%rbp
	.cfi_def_cfa_offset 32
	.cfi_offset 6, -32
	pushq	%rbx
	.cfi_def_cfa_offset 40
	.cfi_offset 3, -40
	subq	$8, %rsp
	.cfi_def_cfa_offset 48
	movq	%rdi, %rbp
	movq	%rdx, %r12
.LVL309:
.LBB6055:
.LBI6055:
	.loc 6 352 7 is_stmt 1 view .LVU809
.LBB6056:
.LBB6057:
.LBI6057:
	.loc 6 273 7 view .LVU810
	.loc 6 273 7 is_stmt 0 view .LVU811
.LBE6057:
.LBE6056:
.LBE6055:
.LBB6058:
.LBB6059:
.LBI6059:
	.loc 6 755 7 is_stmt 1 view .LVU812
.LBB6060:
	.loc 6 756 31 is_stmt 0 view .LVU813
	leaq	8(%rdi), %rax
.LVL310:
	.loc 6 756 31 view .LVU814
.LBE6060:
.LBE6059:
	.loc 6 2195 7 view .LVU815
	cmpq	%rax, %rsi
	je	.L156
	movq	%rsi, %rbx
.LVL311:
.LBB6061:
.LBB6062:
.LBI6062:
	.loc 17 385 7 is_stmt 1 view .LVU816
.LBB6063:
	.loc 17 386 20 is_stmt 0 view .LVU817
	movzbl	(%rdx), %r13d
	movzbl	32(%rsi), %eax
.LVL312:
	.loc 17 386 20 view .LVU818
.LBE6063:
.LBE6062:
	.loc 6 2203 12 view .LVU819
	cmpb	%r13b, %al
	jle	.L145
.LBB6064:
	.loc 6 2207 22 view .LVU820
	movq	24(%rdi), %rdx
.LVL313:
	.loc 6 2207 4 view .LVU821
	cmpq	%rsi, %rdx
	je	.L157
.LVL314:
.LBB6065:
.LBI6065:
	.loc 6 300 7 is_stmt 1 view .LVU822
.LBB6066:
	.loc 6 302 30 is_stmt 0 view .LVU823
	movq	%rsi, %rdi
.LVL315:
	.loc 6 302 30 view .LVU824
	call	_ZSt18_Rb_tree_decrementPSt18_Rb_tree_node_base
.LVL316:
	movq	%rax, %rdx
.LVL317:
	.loc 6 302 30 view .LVU825
.LBE6066:
.LBE6065:
.LBB6067:
.LBI6067:
	.loc 17 385 7 is_stmt 1 view .LVU826
	.loc 17 385 7 is_stmt 0 view .LVU827
.LBE6067:
	.loc 6 2209 9 view .LVU828
	cmpb	%r13b, 32(%rax)
	jge	.L148
.LVL318:
.LBB6068:
.LBI6068:
	.loc 6 797 7 is_stmt 1 view .LVU829
	.loc 6 797 7 is_stmt 0 view .LVU830
.LBE6068:
	.loc 6 2211 8 view .LVU831
	cmpq	$0, 24(%rax)
	je	.L158
.LVL319:
.LBB6069:
.LBI6069:
	.loc 11 341 12 is_stmt 1 view .LVU832
.LBB6070:
.LBB6071:
.LBB6072:
.LBI6072:
	.loc 14 74 5 view .LVU833
	.loc 14 74 5 is_stmt 0 view .LVU834
.LBE6072:
.LBB6073:
.LBI6073:
	.loc 14 74 5 is_stmt 1 view .LVU835
	.loc 14 74 5 is_stmt 0 view .LVU836
.LBE6073:
.LBE6071:
.LBE6070:
.LBE6069:
	.loc 6 2214 43 view .LVU837
	movq	%rbx, %rax
	movq	%rbx, %rdx
	jmp	.L144
.LVL320:
.L156:
	.loc 6 2214 43 view .LVU838
.LBE6064:
.LBE6061:
.LBB6102:
.LBI6102:
	.loc 6 1042 7 is_stmt 1 view .LVU839
	.loc 6 1042 7 is_stmt 0 view .LVU840
.LBE6102:
	.loc 6 2198 8 view .LVU841
	cmpq	$0, 40(%rdi)
	je	.L143
	.loc 6 2198 8 discriminator 1 view .LVU842
	movq	32(%rdi), %rbx
.LVL321:
.LBB6103:
.LBI6103:
	.loc 17 385 7 is_stmt 1 discriminator 1 view .LVU843
	.loc 17 385 7 is_stmt 0 discriminator 1 view .LVU844
.LBE6103:
	.loc 6 2198 8 discriminator 1 view .LVU845
	movzbl	32(%rbx), %eax
	cmpb	%al, (%rdx)
	jle	.L143
.LVL322:
.LBB6104:
.LBI6104:
	.loc 11 325 18 is_stmt 1 view .LVU846
.LBB6105:
.LBB6106:
.LBB6107:
.LBI6107:
	.loc 14 74 5 view .LVU847
	.loc 14 74 5 is_stmt 0 view .LVU848
.LBE6107:
.LBE6106:
.LBE6105:
.LBE6104:
	.loc 6 2199 35 view .LVU849
	movl	$0, %eax
	movq	%rbx, %rdx
.LVL323:
	.loc 6 2199 35 view .LVU850
	jmp	.L144
.LVL324:
.L143:
	.loc 6 2201 41 discriminator 5 view .LVU851
	movq	%r12, %rsi
.LVL325:
	.loc 6 2201 41 discriminator 5 view .LVU852
	movq	%rbp, %rdi
.LVL326:
	.loc 6 2201 41 discriminator 5 view .LVU853
	call	_ZNSt8_Rb_treeIcSt4pairIKcNSt7__cxx1112basic_stringIcSt11char_traitsIcESaIcEEEESt10_Select1stIS8_ESt4lessIcESaIS8_EE24_M_get_insert_unique_posERS1_
.LVL327:
.L144:
	.loc 6 2201 41 discriminator 5 view .LVU854
.LBE6058:
	.loc 6 2238 5 discriminator 1 view .LVU855
	addq	$8, %rsp
	.cfi_remember_state
	.cfi_def_cfa_offset 40
	popq	%rbx
	.cfi_def_cfa_offset 32
	popq	%rbp
	.cfi_def_cfa_offset 24
.LVL328:
	.loc 6 2238 5 discriminator 1 view .LVU856
	popq	%r12
	.cfi_def_cfa_offset 16
.LVL329:
	.loc 6 2238 5 discriminator 1 view .LVU857
	popq	%r13
	.cfi_def_cfa_offset 8
	ret
.LVL330:
.L157:
	.cfi_restore_state
.LBB6109:
.LBB6108:
.LBB6083:
.LBB6074:
.LBI6074:
	.loc 11 341 12 is_stmt 1 view .LVU858
.LBB6075:
.LBB6076:
.LBB6077:
.LBI6077:
	.loc 14 74 5 view .LVU859
	.loc 14 74 5 is_stmt 0 view .LVU860
.LBE6077:
.LBB6078:
.LBI6078:
	.loc 14 74 5 is_stmt 1 view .LVU861
	.loc 14 74 5 is_stmt 0 view .LVU862
.LBE6078:
.LBE6076:
.LBE6075:
.LBE6074:
	.loc 6 2208 46 view .LVU863
	movq	%rdx, %rax
	jmp	.L144
.LVL331:
.L158:
.LBB6079:
.LBI6079:
	.loc 11 325 18 is_stmt 1 view .LVU864
.LBB6080:
.LBB6081:
.LBB6082:
.LBI6082:
	.loc 14 74 5 view .LVU865
	.loc 14 74 5 is_stmt 0 view .LVU866
.LBE6082:
.LBE6081:
.LBE6080:
.LBE6079:
	.loc 6 2212 34 view .LVU867
	movl	$0, %eax
	jmp	.L144
.L148:
	.loc 6 2217 41 view .LVU868
	movq	%r12, %rsi
	movq	%rbp, %rdi
	call	_ZNSt8_Rb_treeIcSt4pairIKcNSt7__cxx1112basic_stringIcSt11char_traitsIcESaIcEEEESt10_Select1stIS8_ESt4lessIcESaIS8_EE24_M_get_insert_unique_posERS1_
.LVL332:
	jmp	.L144
.LVL333:
.L145:
	.loc 6 2217 41 view .LVU869
.LBE6083:
.LBB6084:
	.loc 6 2219 12 view .LVU870
	jge	.L150
.LBB6085:
	.loc 6 2223 22 view .LVU871
	movq	32(%rdi), %rdx
.LVL334:
	.loc 6 2223 4 view .LVU872
	cmpq	%rsi, %rdx
	je	.L159
.LVL335:
.LBB6086:
.LBI6086:
	.loc 6 285 7 is_stmt 1 view .LVU873
.LBB6087:
	.loc 6 287 30 is_stmt 0 view .LVU874
	movq	%rsi, %rdi
.LVL336:
	.loc 6 287 30 view .LVU875
	call	_ZSt18_Rb_tree_incrementPSt18_Rb_tree_node_base
.LVL337:
	.loc 6 287 30 view .LVU876
	movq	%rax, %rdx
.LVL338:
	.loc 6 287 30 view .LVU877
.LBE6087:
.LBE6086:
.LBB6088:
.LBI6088:
	.loc 17 385 7 is_stmt 1 view .LVU878
	.loc 17 385 7 is_stmt 0 view .LVU879
.LBE6088:
	.loc 6 2225 9 view .LVU880
	cmpb	32(%rax), %r13b
	jge	.L153
.LVL339:
.LBB6089:
.LBI6089:
	.loc 6 797 7 is_stmt 1 view .LVU881
	.loc 6 797 7 is_stmt 0 view .LVU882
.LBE6089:
	.loc 6 2227 8 view .LVU883
	cmpq	$0, 24(%rbx)
	jne	.L144
.LVL340:
.LBB6090:
.LBI6090:
	.loc 11 325 18 is_stmt 1 view .LVU884
.LBB6091:
.LBB6092:
.LBB6093:
.LBI6093:
	.loc 14 74 5 view .LVU885
	.loc 14 74 5 is_stmt 0 view .LVU886
.LBE6093:
.LBE6092:
.LBE6091:
.LBE6090:
	.loc 6 2228 31 view .LVU887
	movl	$0, %eax
	movq	%rbx, %rdx
	jmp	.L144
.LVL341:
.L159:
.LBB6094:
.LBI6094:
	.loc 11 325 18 is_stmt 1 view .LVU888
.LBB6095:
.LBB6096:
.LBB6097:
.LBI6097:
	.loc 14 74 5 view .LVU889
	.loc 14 74 5 is_stmt 0 view .LVU890
.LBE6097:
.LBE6096:
.LBE6095:
.LBE6094:
	.loc 6 2224 35 view .LVU891
	movl	$0, %eax
	jmp	.L144
.LVL342:
.L153:
	.loc 6 2233 41 view .LVU892
	movq	%r12, %rsi
	movq	%rbp, %rdi
	call	_ZNSt8_Rb_treeIcSt4pairIKcNSt7__cxx1112basic_stringIcSt11char_traitsIcESaIcEEEESt10_Select1stIS8_ESt4lessIcESaIS8_EE24_M_get_insert_unique_posERS1_
.LVL343:
	jmp	.L144
.LVL344:
.L150:
	.loc 6 2233 41 view .LVU893
.LBE6085:
.LBB6098:
.LBI6098:
	.loc 11 311 18 is_stmt 1 view .LVU894
.LBB6099:
.LBB6100:
.LBB6101:
.LBI6101:
	.loc 14 74 5 view .LVU895
	.loc 14 74 5 is_stmt 0 view .LVU896
.LBE6101:
.LBE6100:
.LBE6099:
.LBE6098:
	.loc 6 2237 30 view .LVU897
	movq	%rsi, %rax
	movl	$0, %edx
.LVL345:
	.loc 6 2237 30 view .LVU898
	jmp	.L144
.LBE6084:
.LBE6108:
.LBE6109:
	.cfi_endproc
.LFE5382:
	.size	_ZNSt8_Rb_treeIcSt4pairIKcNSt7__cxx1112basic_stringIcSt11char_traitsIcESaIcEEEESt10_Select1stIS8_ESt4lessIcESaIS8_EE29_M_get_insert_hint_unique_posESt23_Rb_tree_const_iteratorIS8_ERS1_, .-_ZNSt8_Rb_treeIcSt4pairIKcNSt7__cxx1112basic_stringIcSt11char_traitsIcESaIcEEEESt10_Select1stIS8_ESt4lessIcESaIS8_EE29_M_get_insert_hint_unique_posESt23_Rb_tree_const_iteratorIS8_ERS1_
	.section	.text._ZNSt8_Rb_treeIcSt4pairIKcNSt7__cxx1112basic_stringIcSt11char_traitsIcESaIcEEEESt10_Select1stIS8_ESt4lessIcESaIS8_EE22_M_emplace_hint_uniqueIJRKSt21piecewise_construct_tSt5tupleIJRS1_EESJ_IJEEEEESt17_Rb_tree_iteratorIS8_ESt23_Rb_tree_const_iteratorIS8_EDpOT_,"axG",@progbits,_ZNSt8_Rb_treeIcSt4pairIKcNSt7__cxx1112basic_stringIcSt11char_traitsIcESaIcEEEESt10_Select1stIS8_ESt4lessIcESaIS8_EE22_M_emplace_hint_uniqueIJRKSt21piecewise_construct_tSt5tupleIJRS1_EESJ_IJEEEEESt17_Rb_tree_iteratorIS8_ESt23_Rb_tree_const_iteratorIS8_EDpOT_,comdat
	.align 2
	.weak	_ZNSt8_Rb_treeIcSt4pairIKcNSt7__cxx1112basic_stringIcSt11char_traitsIcESaIcEEEESt10_Select1stIS8_ESt4lessIcESaIS8_EE22_M_emplace_hint_uniqueIJRKSt21piecewise_construct_tSt5tupleIJRS1_EESJ_IJEEEEESt17_Rb_tree_iteratorIS8_ESt23_Rb_tree_const_iteratorIS8_EDpOT_
	.type	_ZNSt8_Rb_treeIcSt4pairIKcNSt7__cxx1112basic_stringIcSt11char_traitsIcESaIcEEEESt10_Select1stIS8_ESt4lessIcESaIS8_EE22_M_emplace_hint_uniqueIJRKSt21piecewise_construct_tSt5tupleIJRS1_EESJ_IJEEEEESt17_Rb_tree_iteratorIS8_ESt23_Rb_tree_const_iteratorIS8_EDpOT_, @function
_ZNSt8_Rb_treeIcSt4pairIKcNSt7__cxx1112basic_stringIcSt11char_traitsIcESaIcEEEESt10_Select1stIS8_ESt4lessIcESaIS8_EE22_M_emplace_hint_uniqueIJRKSt21piecewise_construct_tSt5tupleIJRS1_EESJ_IJEEEEESt17_Rb_tree_iteratorIS8_ESt23_Rb_tree_const_iteratorIS8_EDpOT_:
.LVL346:
.LFB5202:
	.loc 6 2452 7 is_stmt 1 view -0
	.cfi_startproc
	.loc 6 2452 7 is_stmt 0 view .LVU900
	pushq	%r13
	.cfi_def_cfa_offset 16
	.cfi_offset 13, -16
	pushq	%r12
	.cfi_def_cfa_offset 24
	.cfi_offset 12, -24
	pushq	%rbp
	.cfi_def_cfa_offset 32
	.cfi_offset 6, -32
	pushq	%rbx
	.cfi_def_cfa_offset 40
	.cfi_offset 3, -40
	subq	$8, %rsp
	.cfi_def_cfa_offset 48
	movq	%rdi, %rbp
	movq	%rsi, %r13
.LVL347:
	.loc 6 2452 7 view .LVU901
	movq	%rcx, %r12
.LVL348:
.LBB6110:
.LBI6110:
	.loc 6 628 2 is_stmt 1 view .LVU902
.LBB6111:
.LBB6112:
.LBI6112:
	.loc 6 579 7 view .LVU903
.LBB6113:
.LBI6113:
	.loc 8 443 7 view .LVU904
.LBB6114:
.LBI6114:
	.loc 9 102 7 view .LVU905
.LBB6115:
	.loc 9 114 41 is_stmt 0 view .LVU906
	movl	$72, %edi
.LVL349:
	.loc 9 114 41 view .LVU907
	call	_Znwm
.LVL350:
	.loc 9 114 41 view .LVU908
	movq	%rax, %rbx
.LVL351:
	.loc 9 114 41 view .LVU909
.LBE6115:
.LBE6114:
.LBE6113:
.LBE6112:
.LBB6116:
.LBI6116:
	.loc 6 609 2 is_stmt 1 view .LVU910
	.loc 6 609 2 is_stmt 0 view .LVU911
.LBE6116:
.LBE6111:
.LBE6110:
	.loc 20 174 3 is_stmt 1 view .LVU912
.LBB6154:
.LBB6152:
.LBB6150:
.LBB6117:
.LBI6117:
	.loc 8 482 2 view .LVU913
.LBB6118:
.LBI6118:
	.loc 9 144 2 view .LVU914
.LBB6119:
.LBI6119:
	.loc 21 642 17 view .LVU915
.LBB6120:
.LBI6120:
	.loc 21 358 7 view .LVU916
.LBB6121:
.LBI6121:
	.loc 21 334 7 view .LVU917
.LBB6122:
.LBI6122:
	.loc 21 160 7 view .LVU918
.LBB6123:
	.loc 21 160 54 is_stmt 0 view .LVU919
	movq	(%r12), %rax
.LVL352:
	.loc 21 160 54 view .LVU920
.LBE6123:
.LBE6122:
.LBE6121:
.LBB6124:
.LBI6124:
	.loc 14 74 5 is_stmt 1 view .LVU921
	.loc 14 74 5 is_stmt 0 view .LVU922
.LBE6124:
.LBB6125:
.LBI6125:
	.loc 21 125 17 is_stmt 1 view .LVU923
	.loc 21 125 17 is_stmt 0 view .LVU924
.LBE6125:
.LBE6120:
.LBE6119:
.LBE6118:
.LBE6117:
.LBE6150:
.LBE6152:
.LBE6154:
	.loc 20 174 3 is_stmt 1 view .LVU925
.LBB6155:
.LBB6153:
.LBB6151:
.LBB6149:
.LBB6148:
.LBB6126:
.LBI6126:
	.loc 21 1658 7 view .LVU926
.LBB6127:
.LBI6127:
	.loc 21 1670 7 view .LVU927
.LBB6128:
.LBB6129:
.LBI6129:
	.loc 21 1320 5 view .LVU928
	.loc 21 1320 5 is_stmt 0 view .LVU929
.LBE6129:
.LBB6130:
.LBI6130:
	.loc 14 74 5 is_stmt 1 view .LVU930
	.loc 14 74 5 is_stmt 0 view .LVU931
.LBE6130:
	.loc 21 1674 70 view .LVU932
	movzbl	(%rax), %eax
	movb	%al, 32(%rbx)
.LVL353:
.LBB6131:
.LBI6131:
	.loc 7 431 7 is_stmt 1 view .LVU933
.LBB6132:
.LBI6132:
	.loc 10 138 7 view .LVU934
.LBB6133:
.LBI6133:
	.loc 9 80 7 view .LVU935
	.loc 9 80 7 is_stmt 0 view .LVU936
.LBE6133:
.LBE6132:
.LBB6134:
.LBI6134:
	.loc 7 190 7 is_stmt 1 view .LVU937
.LBB6135:
	.loc 7 193 51 is_stmt 0 view .LVU938
	leaq	56(%rbx), %r12
.LVL354:
	.loc 7 193 51 view .LVU939
.LBE6135:
.LBE6134:
.LBB6136:
.LBI6136:
	.loc 7 159 2 is_stmt 1 view .LVU940
.LBB6137:
.LBB6138:
.LBI6138:
	.loc 14 99 5 view .LVU941
	.loc 14 99 5 is_stmt 0 view .LVU942
.LBE6138:
.LBB6139:
.LBI6139:
	.loc 10 141 7 is_stmt 1 view .LVU943
.LBB6140:
.LBI6140:
	.loc 9 83 7 view .LVU944
	.loc 9 83 7 is_stmt 0 view .LVU945
.LBE6140:
.LBE6139:
	.loc 7 160 46 view .LVU946
	movq	%r12, 40(%rbx)
.LVL355:
	.loc 7 160 46 view .LVU947
.LBE6137:
.LBE6136:
.LBB6141:
.LBI6141:
	.loc 10 153 7 is_stmt 1 view .LVU948
.LBB6142:
.LBI6142:
	.loc 9 89 7 view .LVU949
	.loc 9 89 7 is_stmt 0 view .LVU950
.LBE6142:
.LBE6141:
.LBB6143:
.LBI6143:
	.loc 7 214 7 is_stmt 1 view .LVU951
.LBB6144:
.LBI6144:
	.loc 7 182 7 view .LVU952
.LBB6145:
	.loc 7 183 9 is_stmt 0 view .LVU953
	movq	$0, 48(%rbx)
.LVL356:
	.loc 7 183 9 view .LVU954
.LBE6145:
.LBE6144:
.LBB6146:
.LBI6146:
	.loc 13 299 7 is_stmt 1 view .LVU955
.LBB6147:
	.loc 13 300 9 view .LVU956
	.loc 13 300 14 is_stmt 0 view .LVU957
	movb	$0, 56(%rbx)
.LVL357:
	.loc 13 300 14 view .LVU958
.LBE6147:
.LBE6146:
.LBE6143:
.LBE6131:
.LBE6128:
.LBE6127:
.LBE6126:
.LBE6148:
.LBE6149:
.LBE6151:
.LBE6153:
.LBE6155:
.LBB6156:
.LBB6157:
.LBI6157:
	.loc 6 767 7 is_stmt 1 view .LVU959
.LBB6158:
.LBI6158:
	.loc 17 1155 7 view .LVU960
.LBB6159:
	.loc 17 1156 20 is_stmt 0 view .LVU961
	leaq	32(%rbx), %rdx
.LVL358:
	.loc 17 1156 20 view .LVU962
.LBE6159:
.LBE6158:
.LBE6157:
	.loc 6 2459 11 view .LVU963
	movq	%r13, %rsi
	movq	%rbp, %rdi
	call	_ZNSt8_Rb_treeIcSt4pairIKcNSt7__cxx1112basic_stringIcSt11char_traitsIcESaIcEEEESt10_Select1stIS8_ESt4lessIcESaIS8_EE29_M_get_insert_hint_unique_posESt23_Rb_tree_const_iteratorIS8_ERS1_
.LVL359:
	movq	%rax, %r13
.LVL360:
	.loc 6 2461 6 view .LVU964
	testq	%rdx, %rdx
	je	.L161
	.loc 6 2462 60 view .LVU965
	movq	%rbx, %rcx
	.loc 6 2462 60 view .LVU966
	movq	%rax, %rsi
	movq	%rbp, %rdi
	call	_ZNSt8_Rb_treeIcSt4pairIKcNSt7__cxx1112basic_stringIcSt11char_traitsIcESaIcEEEESt10_Select1stIS8_ESt4lessIcESaIS8_EE14_M_insert_nodeEPSt18_Rb_tree_node_baseSG_PSt13_Rb_tree_nodeIS8_E
.LVL361:
.L162:
	.loc 6 2462 60 view .LVU967
.LBE6156:
	.loc 6 2472 7 view .LVU968
	addq	$8, %rsp
	.cfi_remember_state
	.cfi_def_cfa_offset 40
	popq	%rbx
	.cfi_def_cfa_offset 32
.LVL362:
	.loc 6 2472 7 view .LVU969
	popq	%rbp
	.cfi_def_cfa_offset 24
.LVL363:
	.loc 6 2472 7 view .LVU970
	popq	%r12
	.cfi_def_cfa_offset 16
.LVL364:
	.loc 6 2472 7 view .LVU971
	popq	%r13
	.cfi_def_cfa_offset 8
	.loc 6 2472 7 view .LVU972
	ret
.LVL365:
.L161:
	.cfi_restore_state
.LBB6184:
.LBB6160:
.LBI6160:
	.loc 6 648 7 is_stmt 1 view .LVU973
.LBB6161:
.LBI6161:
	.loc 6 637 7 view .LVU974
.LBB6162:
.LBI6162:
	.loc 8 495 2 view .LVU975
.LBB6163:
.LBI6163:
	.loc 9 151 2 view .LVU976
.LBB6164:
.LBI6164:
	.loc 11 208 12 view .LVU977
.LBB6165:
.LBI6165:
	.loc 7 657 7 view .LVU978
.LBB6166:
.LBI6166:
	.loc 7 229 7 view .LVU979
.LBB6167:
.LBB6168:
.LBI6168:
	.loc 7 221 7 view .LVU980
.LBB6169:
.LBI6169:
	.loc 7 186 7 view .LVU981
.LBB6170:
	.loc 7 187 28 is_stmt 0 view .LVU982
	movq	40(%rbx), %rdi
.LVL366:
	.loc 7 187 28 view .LVU983
.LBE6170:
.LBE6169:
.LBE6168:
	.loc 7 231 2 view .LVU984
	cmpq	%rdi, %r12
	je	.L163
.LVL367:
.LBB6171:
.LBI6171:
	.loc 7 236 7 is_stmt 1 view .LVU985
.LBB6172:
.LBB6173:
.LBI6173:
	.loc 8 469 7 view .LVU986
.LBB6174:
.LBI6174:
	.loc 9 119 7 view .LVU987
.LBB6175:
	.loc 9 128 19 is_stmt 0 view .LVU988
	call	_ZdlPv
.LVL368:
.L163:
	.loc 9 128 19 view .LVU989
.LBE6175:
.LBE6174:
.LBE6173:
.LBE6172:
.LBE6171:
.LBE6167:
.LBE6166:
.LBB6176:
.LBI6176:
	.loc 7 150 14 is_stmt 1 view .LVU990
.LBB6177:
.LBI6177:
	.loc 10 153 7 view .LVU991
.LBB6178:
.LBI6178:
	.loc 9 89 7 view .LVU992
	.loc 9 89 7 is_stmt 0 view .LVU993
.LBE6178:
.LBE6177:
.LBE6176:
.LBE6165:
.LBE6164:
.LBE6163:
.LBE6162:
.LBE6161:
.LBB6179:
.LBI6179:
	.loc 6 583 7 is_stmt 1 view .LVU994
.LBB6180:
.LBI6180:
	.loc 8 469 7 view .LVU995
.LBB6181:
.LBI6181:
	.loc 9 119 7 view .LVU996
.LBB6182:
	.loc 9 128 19 is_stmt 0 view .LVU997
	movq	%rbx, %rdi
	call	_ZdlPv
.LVL369:
	.loc 9 128 19 view .LVU998
.LBE6182:
.LBE6181:
.LBE6180:
.LBE6179:
.LBE6160:
.LBB6183:
.LBI6183:
	.loc 6 273 7 is_stmt 1 view .LVU999
	.loc 6 273 7 is_stmt 0 view .LVU1000
.LBE6183:
	.loc 6 2465 33 view .LVU1001
	movq	%r13, %rax
	jmp	.L162
.LBE6184:
	.cfi_endproc
.LFE5202:
	.size	_ZNSt8_Rb_treeIcSt4pairIKcNSt7__cxx1112basic_stringIcSt11char_traitsIcESaIcEEEESt10_Select1stIS8_ESt4lessIcESaIS8_EE22_M_emplace_hint_uniqueIJRKSt21piecewise_construct_tSt5tupleIJRS1_EESJ_IJEEEEESt17_Rb_tree_iteratorIS8_ESt23_Rb_tree_const_iteratorIS8_EDpOT_, .-_ZNSt8_Rb_treeIcSt4pairIKcNSt7__cxx1112basic_stringIcSt11char_traitsIcESaIcEEEESt10_Select1stIS8_ESt4lessIcESaIS8_EE22_M_emplace_hint_uniqueIJRKSt21piecewise_construct_tSt5tupleIJRS1_EESJ_IJEEEEESt17_Rb_tree_iteratorIS8_ESt23_Rb_tree_const_iteratorIS8_EDpOT_
	.section	.text._ZNSt7__cxx1112basic_stringIcSt11char_traitsIcESaIcEE12_M_constructIPcEEvT_S7_St20forward_iterator_tag,"axG",@progbits,_ZNSt7__cxx1112basic_stringIcSt11char_traitsIcESaIcEE12_M_constructIPcEEvT_S7_St20forward_iterator_tag,comdat
	.align 2
	.weak	_ZNSt7__cxx1112basic_stringIcSt11char_traitsIcESaIcEE12_M_constructIPcEEvT_S7_St20forward_iterator_tag
	.type	_ZNSt7__cxx1112basic_stringIcSt11char_traitsIcESaIcEE12_M_constructIPcEEvT_S7_St20forward_iterator_tag, @function
_ZNSt7__cxx1112basic_stringIcSt11char_traitsIcESaIcEE12_M_constructIPcEEvT_S7_St20forward_iterator_tag:
.LVL370:
.LFB5544:
	.loc 18 206 7 is_stmt 1 view -0
	.cfi_startproc
	.loc 18 206 7 is_stmt 0 view .LVU1003
	pushq	%r12
	.cfi_def_cfa_offset 16
	.cfi_offset 12, -16
	pushq	%rbp
	.cfi_def_cfa_offset 24
	.cfi_offset 6, -24
	pushq	%rbx
	.cfi_def_cfa_offset 32
	.cfi_offset 3, -32
	subq	$16, %rsp
	.cfi_def_cfa_offset 48
	movq	%rdi, %rbp
	movq	%rsi, %r12
	movq	%rdx, %rbx
	.loc 18 211 42 view .LVU1004
	testq	%rsi, %rsi
	je	.L171
.L166:
.LVL371:
.LBB6185:
.LBI6185:
	.loc 19 138 5 is_stmt 1 view .LVU1005
.LBB6186:
.LBI6186:
	.loc 19 98 5 view .LVU1006
.LBB6187:
	.loc 19 104 23 is_stmt 0 view .LVU1007
	subq	%r12, %rbx
.LVL372:
	.loc 19 104 23 view .LVU1008
.LBE6187:
.LBE6186:
.LBE6185:
	.loc 18 215 12 view .LVU1009
	movq	%rbx, 8(%rsp)
	.loc 18 217 2 view .LVU1010
	cmpq	$15, %rbx
	ja	.L172
.LVL373:
.L167:
.LBB6188:
.LBI6188:
	.loc 7 186 7 is_stmt 1 view .LVU1011
.LBB6189:
	.loc 7 187 28 is_stmt 0 view .LVU1012
	movq	0(%rbp), %rdi
.LVL374:
	.loc 7 187 28 view .LVU1013
.LBE6189:
.LBE6188:
.LBB6190:
.LBI6190:
	.loc 7 392 7 is_stmt 1 view .LVU1014
.LBB6191:
.LBI6191:
	.loc 7 346 7 view .LVU1015
.LBB6192:
	.loc 7 348 2 is_stmt 0 view .LVU1016
	cmpq	$1, %rbx
	je	.L173
.LVL375:
.LBB6193:
.LBI6193:
	.loc 13 361 7 is_stmt 1 view .LVU1017
.LBB6194:
	.loc 13 363 2 view .LVU1018
	testq	%rbx, %rbx
	je	.L169
	.loc 13 365 2 view .LVU1019
	.loc 13 365 49 is_stmt 0 view .LVU1020
	movq	%rbx, %rdx
	movq	%r12, %rsi
	call	memcpy
.LVL376:
	.loc 13 365 66 view .LVU1021
	jmp	.L169
.LVL377:
.L171:
	.loc 13 365 66 view .LVU1022
.LBE6194:
.LBE6193:
.LBE6192:
.LBE6191:
.LBE6190:
	.loc 18 211 42 discriminator 1 view .LVU1023
	cmpq	%rdx, %rsi
	je	.L166
	.loc 18 212 28 view .LVU1024
	movl	$.LC0, %edi
.LVL378:
	.loc 18 212 28 view .LVU1025
	call	_ZSt19__throw_logic_errorPKc
.LVL379:
.L172:
	.loc 18 219 6 view .LVU1026
	movl	$0, %edx
.LVL380:
	.loc 18 219 6 view .LVU1027
	leaq	8(%rsp), %rsi
.LVL381:
	.loc 18 219 6 view .LVU1028
	movq	%rbp, %rdi
.LVL382:
	.loc 18 219 6 view .LVU1029
	call	_ZNSt7__cxx1112basic_stringIcSt11char_traitsIcESaIcEE9_M_createERmm
.LVL383:
.LBB6199:
.LBI6199:
	.loc 7 178 7 is_stmt 1 view .LVU1030
.LBB6200:
	.loc 7 179 9 is_stmt 0 view .LVU1031
	movq	%rax, 0(%rbp)
.LVL384:
	.loc 7 179 9 view .LVU1032
.LBE6200:
.LBE6199:
	.loc 18 220 6 view .LVU1033
	movq	8(%rsp), %rax
.LVL385:
.LBB6201:
.LBI6201:
	.loc 7 210 7 is_stmt 1 view .LVU1034
.LBB6202:
	.loc 7 211 9 is_stmt 0 view .LVU1035
	movq	%rax, 16(%rbp)
	.loc 7 211 45 view .LVU1036
	jmp	.L167
.LVL386:
.L173:
	.loc 7 211 45 view .LVU1037
.LBE6202:
.LBE6201:
.LBB6203:
.LBB6198:
.LBB6197:
.LBB6195:
.LBI6195:
	.loc 13 299 7 is_stmt 1 view .LVU1038
.LBB6196:
	.loc 13 300 9 view .LVU1039
	.loc 13 300 16 is_stmt 0 view .LVU1040
	movzbl	(%r12), %eax
	.loc 13 300 14 view .LVU1041
	movb	%al, (%rdi)
.LVL387:
.L169:
	.loc 13 300 14 view .LVU1042
.LBE6196:
.LBE6195:
.LBE6197:
.LBE6198:
.LBE6203:
	.loc 18 232 2 view .LVU1043
	movq	8(%rsp), %rax
.LVL388:
.LBB6204:
.LBI6204:
	.loc 7 214 7 is_stmt 1 view .LVU1044
.LBB6205:
.LBB6206:
.LBI6206:
	.loc 7 182 7 view .LVU1045
.LBB6207:
	.loc 7 183 9 is_stmt 0 view .LVU1046
	movq	%rax, 8(%rbp)
.LVL389:
	.loc 7 183 9 view .LVU1047
.LBE6207:
.LBE6206:
.LBB6208:
.LBI6208:
	.loc 7 186 7 is_stmt 1 view .LVU1048
	.loc 7 186 7 is_stmt 0 view .LVU1049
.LBE6208:
	.loc 7 217 31 view .LVU1050
	addq	0(%rbp), %rax
.LVL390:
.LBB6209:
.LBI6209:
	.loc 13 299 7 is_stmt 1 view .LVU1051
.LBB6210:
	.loc 13 300 9 view .LVU1052
	.loc 13 300 14 is_stmt 0 view .LVU1053
	movb	$0, (%rax)
.LVL391:
	.loc 13 300 14 view .LVU1054
.LBE6210:
.LBE6209:
.LBE6205:
.LBE6204:
	.loc 18 233 7 view .LVU1055
	addq	$16, %rsp
	.cfi_def_cfa_offset 32
	popq	%rbx
	.cfi_def_cfa_offset 24
	popq	%rbp
	.cfi_def_cfa_offset 16
.LVL392:
	.loc 18 233 7 view .LVU1056
	popq	%r12
	.cfi_def_cfa_offset 8
.LVL393:
	.loc 18 233 7 view .LVU1057
	ret
	.cfi_endproc
.LFE5544:
	.size	_ZNSt7__cxx1112basic_stringIcSt11char_traitsIcESaIcEE12_M_constructIPcEEvT_S7_St20forward_iterator_tag, .-_ZNSt7__cxx1112basic_stringIcSt11char_traitsIcESaIcEE12_M_constructIPcEEvT_S7_St20forward_iterator_tag
	.section	.rodata.str1.8,"aMS",@progbits,1
	.align 8
.LC1:
	.string	"mpp::RepParser::consume: current char is '"
	.section	.rodata.str1.1,"aMS",@progbits,1
.LC2:
	.string	"'"
	.section	.rodata.str1.8
	.align 8
.LC3:
	.string	"mpp::RepParser::consume: char bits are "
	.section	.rodata.str1.1
.LC4:
	.string	"\tStart state = "
	.section	.rodata.str1.8
	.align 8
.LC5:
	.string	"mpp::ReqParser::consume: initial_m: read '"
	.section	.rodata.str1.1
.LC6:
	.string	"', as expected"
.LC7:
	.string	"\tGoing to state "
	.section	.rodata.str1.8
	.align 8
.LC8:
	.string	"mpp::ReqParser::consume: bad char '"
	.section	.rodata.str1.1
.LC9:
	.string	"' for current state "
	.section	.rodata.str1.8
	.align 8
.LC10:
	.string	"mpp::RepParser::consume: first_p: read '"
	.section	.rodata.str1.1
.LC11:
	.string	"', as expected."
	.section	.rodata.str1.8
	.align 8
.LC12:
	.string	"mpp::RepParser::consume: second_p: read '"
	.align 8
.LC13:
	.string	"mpp::RepParser::consume: slash: read '"
	.align 8
.LC14:
	.string	"mpp::RepParser:: major: isdigit if: contents of major # ss after insert are \""
	.section	.rodata.str1.1
.LC15:
	.string	"\""
	.section	.rodata.str1.8
	.align 8
.LC16:
	.string	"mpp::RepParser::major: terminator if: read major version #"
	.section	.rodata.str1.1
.LC17:
	.string	"\tCompiled major version # = "
	.section	.rodata.str1.8
	.align 8
.LC18:
	.string	"mpp::RepParser::consume: major: expected major version #"
	.section	.rodata.str1.1
.LC19:
	.string	", but read "
	.section	.rodata.str1.8
	.align 8
.LC20:
	.string	"mpp::RepParser::consume: major: read correct version #"
	.section	.rodata.str1.1
.LC21:
	.string	", going to state "
	.section	.rodata.str1.8
	.align 8
.LC22:
	.string	"mpp::RepParser::consume: minor: minor stringstream contains \""
	.section	.rodata.str1.1
.LC23:
	.string	"\" after insertion"
	.section	.rodata.str1.8
	.align 8
.LC24:
	.string	"mpp::RepParser::consume: minor: expected minor version #"
	.align 8
.LC25:
	.string	"mpp::RepParser::parse: read correct minor version # "
	.align 8
.LC26:
	.string	"mpp::RepParser::consume: patch: read digit "
	.align 8
.LC27:
	.string	"mpp::RepParser::consume: patch: patch ss contains \""
	.section	.rodata.str1.1
.LC28:
	.string	"\" after insertion."
	.section	.rodata.str1.8
	.align 8
.LC29:
	.string	"mpp::RepParser::consume: patch: read space char '"
	.align 8
.LC30:
	.string	"mpp::RepParser::consume: read patch # "
	.align 8
.LC31:
	.string	"mpp::RepParser::parse: patch: expected patch #"
	.align 8
.LC32:
	.string	"mpp::RepParser::consume: patch: read correct version #"
	.align 8
.LC33:
	.string	"mpp::RepParser::consume: read '"
	.align 8
.LC34:
	.string	"' instead of a digit while attempting to read the code's first digit."
	.align 8
.LC35:
	.string	"' instead of a digit while attempting to read the code's second digit."
	.align 8
.LC36:
	.string	"mpp::RepParser::consume: in state third_code_digit"
	.align 8
.LC37:
	.string	"mpp::RepParser::consume: read code value "
	.align 8
.LC38:
	.string	"mpp::RepParser::consume: reply's code is now "
	.align 8
.LC39:
	.string	"mpp::RepParser::consume: found invalid response code "
	.section	.rodata.str1.1
.LC40:
	.string	" in response."
	.section	.rodata.str1.8
	.align 8
.LC41:
	.string	"mpp::RepParser::consume: read space char "
	.align 8
.LC42:
	.string	" after third code digit, going to state "
	.align 8
.LC43:
	.string	"' instead of a digit while attempting to read the code's third digit."
	.section	.rodata.str1.1
.LC44:
	.string	"' while reading a header name"
	.section	.rodata.str1.8
	.align 8
.LC45:
	.string	"mpp::RepParser::consume: going to state "
	.align 8
.LC46:
	.string	"mpp::RepParser::consume: header_name: read '"
	.align 8
.LC47:
	.string	"' instead of an alphabetic character or a dash"
	.align 8
.LC48:
	.string	"mpp::RepParser::consume: space_after_colon: read "
	.section	.rodata.str1.1
.LC49:
	.string	", as expected."
	.section	.rodata.str1.8
	.align 8
.LC50:
	.string	"mpp::RepParser::consume: space_after_colon: going to state "
	.align 8
.LC51:
	.string	"mpp::RepParser::consume: space_after_colon: read '"
	.section	.rodata.str1.1
.LC52:
	.string	"' instead of a space"
	.section	.rodata.str1.8
	.align 8
.LC53:
	.string	"mpp::ReqParser::consume returning "
	.section	.rodata.str1.1
.LC54:
	.string	"indeterminate"
	.text
	.align 2
	.globl	_ZN3mpp9RepParser7consumeERNS_5ReplyEc
	.type	_ZN3mpp9RepParser7consumeERNS_5ReplyEc, @function
_ZN3mpp9RepParser7consumeERNS_5ReplyEc:
.LVL394:
.LFB4641:
	.loc 1 72 1 is_stmt 1 view -0
	.cfi_startproc
	.cfi_personality 0x3,__gxx_personality_v0
	.cfi_lsda 0x3,.LLSDA4641
	.loc 1 72 1 is_stmt 0 view .LVU1059
	pushq	%r15
	.cfi_def_cfa_offset 16
	.cfi_offset 15, -16
	pushq	%r14
	.cfi_def_cfa_offset 24
	.cfi_offset 14, -24
	pushq	%r13
	.cfi_def_cfa_offset 32
	.cfi_offset 13, -32
	pushq	%r12
	.cfi_def_cfa_offset 40
	.cfi_offset 12, -40
	pushq	%rbp
	.cfi_def_cfa_offset 48
	.cfi_offset 6, -48
	pushq	%rbx
	.cfi_def_cfa_offset 56
	.cfi_offset 3, -56
	subq	$264, %rsp
	.cfi_def_cfa_offset 320
	movq	%rdi, %rbx
	movq	%rsi, %r14
	movb	%dl, 12(%rsp)
	.loc 1 74 2 is_stmt 1 view .LVU1060
.LVL395:
.LBB8114:
.LBI8114:
	.file 23 "/usr/include/c++/9/ostream"
	.loc 23 565 5 view .LVU1061
	.loc 23 565 5 is_stmt 0 view .LVU1062
.LBE8114:
	.loc 13 332 2 is_stmt 1 view .LVU1063
	.loc 13 335 2 view .LVU1064
.LBB8116:
.LBB8115:
	.loc 23 570 18 is_stmt 0 view .LVU1065
	movl	$42, %edx
.LVL396:
	.loc 23 570 18 view .LVU1066
	movl	$.LC1, %esi
.LVL397:
	.loc 23 570 18 view .LVU1067
	movl	$_ZSt4cout, %edi
.LVL398:
.LEHB3:
	.loc 23 570 18 view .LVU1068
	call	_ZSt16__ostream_insertIcSt11char_traitsIcEERSt13basic_ostreamIT_T0_ES6_PKS3_l
.LVL399:
	.loc 23 570 18 view .LVU1069
.LBE8115:
.LBE8116:
	.loc 1 74 72 view .LVU1070
	movzbl	12(%rsp), %eax
.LVL400:
	.loc 1 74 72 view .LVU1071
	movb	%al, 32(%rsp)
.LVL401:
.LBB8117:
.LBI8117:
	.loc 23 517 5 is_stmt 1 view .LVU1072
.LBB8118:
	.loc 23 518 30 is_stmt 0 view .LVU1073
	movl	$1, %edx
	leaq	32(%rsp), %rsi
	movl	$_ZSt4cout, %edi
	call	_ZSt16__ostream_insertIcSt11char_traitsIcEERSt13basic_ostreamIT_T0_ES6_PKS3_l
.LVL402:
	.loc 23 518 30 view .LVU1074
	movq	%rax, %rbp
.LVL403:
	.loc 23 518 30 view .LVU1075
.LBE8118:
.LBE8117:
.LBB8119:
.LBI8119:
	.loc 23 565 5 is_stmt 1 view .LVU1076
	.loc 23 565 5 is_stmt 0 view .LVU1077
.LBE8119:
	.loc 13 332 2 is_stmt 1 view .LVU1078
	.loc 13 335 2 view .LVU1079
.LBB8121:
.LBB8120:
	.loc 23 570 18 is_stmt 0 view .LVU1080
	movl	$1, %edx
	movl	$.LC2, %esi
	movq	%rax, %rdi
	call	_ZSt16__ostream_insertIcSt11char_traitsIcEERSt13basic_ostreamIT_T0_ES6_PKS3_l
.LVL404:
	.loc 23 570 18 view .LVU1081
.LBE8120:
.LBE8121:
.LBB8122:
.LBI8122:
	.loc 23 108 7 is_stmt 1 view .LVU1082
.LBB8123:
.LBI8123:
	.loc 23 599 5 view .LVU1083
.LBB8124:
	.loc 23 600 19 is_stmt 0 view .LVU1084
	movq	0(%rbp), %rax
	movq	%rbp, %rcx
	addq	-24(%rax), %rcx
.LVL405:
.LBB8125:
.LBI8125:
	.file 24 "/usr/include/c++/9/bits/basic_ios.h"
	.loc 24 449 7 is_stmt 1 view .LVU1085
.LBB8126:
	.loc 24 450 30 is_stmt 0 view .LVU1086
	movq	240(%rcx), %r12
.LVL406:
.LBB8127:
.LBI8127:
	.loc 24 47 5 is_stmt 1 view .LVU1087
.LBB8128:
	.loc 24 49 7 is_stmt 0 view .LVU1088
	testq	%r12, %r12
	je	.L421
.LVL407:
	.loc 24 49 7 view .LVU1089
.LBE8128:
.LBE8127:
.LBB8130:
.LBI8130:
	.loc 5 872 7 is_stmt 1 view .LVU1090
.LBB8131:
	.loc 5 874 2 view .LVU1091
	cmpb	$0, 56(%r12)
	je	.L176
	.loc 5 875 4 view .LVU1092
	.loc 5 875 51 is_stmt 0 view .LVU1093
	movzbl	67(%r12), %esi
.LVL408:
.L177:
	.loc 5 875 51 view .LVU1094
.LBE8131:
.LBE8130:
.LBE8126:
.LBE8125:
	.loc 23 600 19 view .LVU1095
	movsbl	%sil, %esi
	movq	%rbp, %rdi
	call	_ZNSo3putEc
.LVL409:
	movq	%rax, %rdi
.LVL410:
.LBB8136:
.LBI8136:
	.loc 23 621 5 is_stmt 1 view .LVU1096
.LBB8137:
	.loc 23 622 25 is_stmt 0 view .LVU1097
	call	_ZNSo5flushEv
.LVL411:
	.loc 23 622 25 view .LVU1098
.LBE8137:
.LBE8136:
.LBE8124:
.LBE8123:
.LBE8122:
	.loc 1 77 2 is_stmt 1 view .LVU1099
	.loc 1 77 17 is_stmt 0 view .LVU1100
	movl	$0, %r13d
.LVL412:
	.loc 1 80 2 is_stmt 1 view .LVU1101
.LBB8141:
.LBI8141:
	.loc 12 874 17 view .LVU1102
.LBB8142:
.LBI8142:
	.loc 12 682 7 view .LVU1103
.LBB8143:
	.loc 12 683 70 is_stmt 0 view .LVU1104
	movzbl	12(%rsp), %eax
.LVL413:
	.loc 12 683 70 view .LVU1105
.LBE8143:
.LBE8142:
.LBB8144:
.LBI8144:
	.loc 12 386 17 is_stmt 1 view .LVU1106
.LBB8145:
.LBB8146:
	.loc 12 390 19 is_stmt 0 view .LVU1107
	movq	%rax, 64(%rsp)
.LVL414:
	.loc 12 390 19 view .LVU1108
.LBE8146:
.LBE8145:
.LBE8144:
.LBE8141:
	.loc 1 81 2 is_stmt 1 view .LVU1109
.LBB8147:
.LBI8147:
	.loc 23 565 5 view .LVU1110
	.loc 23 565 5 is_stmt 0 view .LVU1111
.LBE8147:
	.loc 13 332 2 is_stmt 1 view .LVU1112
	.loc 13 335 2 view .LVU1113
.LBB8149:
.LBB8148:
	.loc 23 570 18 is_stmt 0 view .LVU1114
	movl	$39, %edx
	movl	$.LC3, %esi
	movl	$_ZSt4cout, %edi
	call	_ZSt16__ostream_insertIcSt11char_traitsIcEERSt13basic_ostreamIT_T0_ES6_PKS3_l
.LVL415:
	.loc 23 570 18 view .LVU1115
.LBE8148:
.LBE8149:
	.loc 1 81 60 view .LVU1116
	leaq	64(%rsp), %rsi
	movl	$_ZSt4cout, %edi
	call	_ZStlsIcSt11char_traitsIcELm8EERSt13basic_ostreamIT_T0_ES6_RKSt6bitsetIXT1_EE
.LVL416:
	movq	%rax, %rbp
.LVL417:
.LBB8150:
.LBI8150:
	.loc 23 108 7 is_stmt 1 view .LVU1117
.LBB8151:
.LBI8151:
	.loc 23 599 5 view .LVU1118
.LBB8152:
	.loc 23 600 19 is_stmt 0 view .LVU1119
	movq	(%rax), %rax
.LVL418:
	.loc 23 600 19 view .LVU1120
	movq	%rbp, %rcx
	addq	-24(%rax), %rcx
.LVL419:
.LBB8153:
.LBI8153:
	.loc 24 449 7 is_stmt 1 view .LVU1121
.LBB8154:
	.loc 24 450 30 is_stmt 0 view .LVU1122
	movq	240(%rcx), %r12
.LVL420:
.LBB8155:
.LBI8155:
	.loc 24 47 5 is_stmt 1 view .LVU1123
.LBB8156:
	.loc 24 49 7 is_stmt 0 view .LVU1124
	testq	%r12, %r12
	je	.L422
.LVL421:
	.loc 24 49 7 view .LVU1125
.LBE8156:
.LBE8155:
.LBB8158:
.LBI8158:
	.loc 5 872 7 is_stmt 1 view .LVU1126
.LBB8159:
	.loc 5 874 2 view .LVU1127
	cmpb	$0, 56(%r12)
	je	.L179
	.loc 5 875 4 view .LVU1128
	.loc 5 875 51 is_stmt 0 view .LVU1129
	movzbl	67(%r12), %esi
.LVL422:
.L180:
	.loc 5 875 51 view .LVU1130
.LBE8159:
.LBE8158:
.LBE8154:
.LBE8153:
	.loc 23 600 19 view .LVU1131
	movsbl	%sil, %esi
	movq	%rbp, %rdi
	call	_ZNSo3putEc
.LVL423:
	movq	%rax, %rdi
.LVL424:
.LBB8164:
.LBI8164:
	.loc 23 621 5 is_stmt 1 view .LVU1132
.LBB8165:
	.loc 23 622 25 is_stmt 0 view .LVU1133
	call	_ZNSo5flushEv
.LVL425:
	.loc 23 622 25 view .LVU1134
	movq	%rax, %rbp
.LVL426:
	.loc 23 622 25 view .LVU1135
.LBE8165:
.LBE8164:
.LBE8152:
.LBE8151:
.LBE8150:
.LBB8169:
.LBI8169:
	.loc 23 565 5 is_stmt 1 view .LVU1136
	.loc 23 565 5 is_stmt 0 view .LVU1137
.LBE8169:
	.loc 13 332 2 is_stmt 1 view .LVU1138
	.loc 13 335 2 view .LVU1139
.LBB8171:
.LBB8170:
	.loc 23 570 18 is_stmt 0 view .LVU1140
	movl	$15, %edx
	movl	$.LC4, %esi
	movq	%rax, %rdi
	call	_ZSt16__ostream_insertIcSt11char_traitsIcEERSt13basic_ostreamIT_T0_ES6_PKS3_l
.LVL427:
	.loc 23 570 18 view .LVU1141
.LBE8170:
.LBE8171:
	.loc 1 82 45 view .LVU1142
	leaq	64(%rbx), %r12
.LVL428:
.LBB8172:
.LBI8172:
	.loc 22 490 7 is_stmt 1 view .LVU1143
.LBB8173:
.LBB8174:
.LBI8174:
	.loc 22 1257 7 view .LVU1144
.LBB8175:
.LBB8176:
.LBI8176:
	.loc 6 1281 7 view .LVU1145
.LBB8177:
.LBB8178:
.LBI8178:
	.loc 6 755 7 view .LVU1146
.LBB8179:
	.loc 6 756 31 is_stmt 0 view .LVU1147
	leaq	72(%rbx), %r15
.LVL429:
	.loc 6 756 31 view .LVU1148
.LBE8179:
.LBE8178:
.LBB8180:
.LBI8180:
	.loc 6 744 7 is_stmt 1 view .LVU1149
.LBB8181:
	.loc 6 745 73 is_stmt 0 view .LVU1150
	movq	16(%r12), %rsi
.LVL430:
	.loc 6 745 73 view .LVU1151
.LBE8181:
.LBE8180:
	.loc 6 1282 56 view .LVU1152
	movq	%rbx, %rcx
	movq	%r15, %rdx
	movq	%r12, %rdi
	call	_ZNSt8_Rb_treeIN3mpp9RepParser5StateESt4pairIKS2_NSt7__cxx1112basic_stringIcSt11char_traitsIcESaIcEEEESt10_Select1stISB_ESt4lessIS2_ESaISB_EE14_M_lower_boundEPSt13_Rb_tree_nodeISB_EPSt18_Rb_tree_node_baseRS4_
.LVL431:
	.loc 6 1282 56 view .LVU1153
.LBE8177:
.LBE8176:
.LBE8175:
.LBE8174:
	.loc 22 495 11 view .LVU1154
	movq	%rax, %rdx
.LVL432:
.LBB8182:
.LBI8182:
	.loc 22 372 7 is_stmt 1 view .LVU1155
.LBB8183:
.LBI8183:
	.loc 6 1014 7 view .LVU1156
.LBB8184:
.LBI8184:
	.loc 6 273 7 view .LVU1157
	.loc 6 273 7 is_stmt 0 view .LVU1158
.LBE8184:
.LBE8183:
.LBE8182:
.LBB8185:
.LBI8185:
	.loc 6 315 7 is_stmt 1 view .LVU1159
.LBB8186:
	.loc 6 316 20 is_stmt 0 view .LVU1160
	movq	%rax, %rsi
.LVL433:
	.loc 6 316 20 view .LVU1161
.LBE8186:
.LBE8185:
	.loc 22 497 19 view .LVU1162
	cmpq	%rax, %r15
	je	.L181
.LVL434:
.LBB8187:
.LBI8187:
	.loc 17 385 7 is_stmt 1 view .LVU1163
	.loc 17 385 7 is_stmt 0 view .LVU1164
.LBE8187:
	.loc 22 497 19 view .LVU1165
	movl	32(%rax), %eax
	cmpl	%eax, (%rbx)
	jge	.L182
.L181:
.LVL435:
.LBB8188:
.LBI8188:
	.loc 21 588 19 is_stmt 1 view .LVU1166
.LBB8189:
.LBI8189:
	.loc 21 343 17 view .LVU1167
.LBB8190:
.LBI8190:
	.loc 21 125 17 view .LVU1168
.LBB8191:
.LBB8192:
	.loc 21 126 25 is_stmt 0 view .LVU1169
	movq	%rbx, 80(%rsp)
.LVL436:
	.loc 21 126 25 view .LVU1170
.LBE8192:
.LBE8191:
.LBE8190:
.LBE8189:
.LBE8188:
.LBB8193:
.LBI8193:
	.loc 6 348 7 is_stmt 1 view .LVU1171
	.loc 6 348 7 is_stmt 0 view .LVU1172
.LBE8193:
	.loc 22 499 8 view .LVU1173
	leaq	79(%rsp), %r8
	leaq	80(%rsp), %rcx
	movl	$_ZSt19piecewise_construct, %edx
	movq	%r12, %rdi
	call	_ZNSt8_Rb_treeIN3mpp9RepParser5StateESt4pairIKS2_NSt7__cxx1112basic_stringIcSt11char_traitsIcESaIcEEEESt10_Select1stISB_ESt4lessIS2_ESaISB_EE22_M_emplace_hint_uniqueIJRKSt21piecewise_construct_tSt5tupleIJRS4_EESM_IJEEEEESt17_Rb_tree_iteratorISB_ESt23_Rb_tree_const_iteratorISB_EDpOT_
.LVL437:
	movq	%rax, %rdx
.L182:
.LVL438:
.LBB8194:
.LBI8194:
	.loc 6 277 7 is_stmt 1 view .LVU1174
	.loc 6 277 7 is_stmt 0 view .LVU1175
.LBE8194:
.LBE8173:
.LBE8172:
.LBB8195:
.LBI8195:
	.loc 7 6416 5 is_stmt 1 view .LVU1176
.LBB8196:
.LBB8197:
.LBI8197:
	.loc 7 930 7 view .LVU1177
.LBB8198:
	.loc 7 931 16 is_stmt 0 view .LVU1178
	movq	48(%rdx), %rax
.LVL439:
	.loc 7 931 16 view .LVU1179
.LBE8198:
.LBE8197:
.LBB8199:
.LBI8199:
	.loc 7 2312 7 is_stmt 1 view .LVU1180
.LBB8200:
.LBI8200:
	.loc 7 186 7 view .LVU1181
.LBB8201:
	.loc 7 187 28 is_stmt 0 view .LVU1182
	movq	40(%rdx), %rsi
.LVL440:
	.loc 7 187 28 view .LVU1183
.LBE8201:
.LBE8200:
.LBE8199:
	.loc 7 6421 30 view .LVU1184
	movq	%rax, %rdx
.LVL441:
	.loc 7 6421 30 view .LVU1185
	movq	%rbp, %rdi
	call	_ZSt16__ostream_insertIcSt11char_traitsIcEERSt13basic_ostreamIT_T0_ES6_PKS3_l
.LVL442:
	movq	%rax, %rbp
.LVL443:
	.loc 7 6421 30 view .LVU1186
.LBE8196:
.LBE8195:
.LBB8202:
.LBI8202:
	.loc 23 108 7 is_stmt 1 view .LVU1187
.LBB8203:
.LBI8203:
	.loc 23 599 5 view .LVU1188
.LBB8204:
	.loc 23 600 19 is_stmt 0 view .LVU1189
	movq	(%rax), %rax
.LVL444:
	.loc 23 600 19 view .LVU1190
	movq	%rbp, %rcx
	addq	-24(%rax), %rcx
.LVL445:
.LBB8205:
.LBI8205:
	.loc 24 449 7 is_stmt 1 view .LVU1191
.LBB8206:
	.loc 24 450 30 is_stmt 0 view .LVU1192
	movq	240(%rcx), %r15
.LVL446:
.LBB8207:
.LBI8207:
	.loc 24 47 5 is_stmt 1 view .LVU1193
.LBB8208:
	.loc 24 49 7 is_stmt 0 view .LVU1194
	testq	%r15, %r15
	je	.L423
.LVL447:
	.loc 24 49 7 view .LVU1195
.LBE8208:
.LBE8207:
.LBB8210:
.LBI8210:
	.loc 5 872 7 is_stmt 1 view .LVU1196
.LBB8211:
	.loc 5 874 2 view .LVU1197
	cmpb	$0, 56(%r15)
	je	.L184
	.loc 5 875 4 view .LVU1198
	.loc 5 875 51 is_stmt 0 view .LVU1199
	movzbl	67(%r15), %esi
.LVL448:
.L185:
	.loc 5 875 51 view .LVU1200
.LBE8211:
.LBE8210:
.LBE8206:
.LBE8205:
	.loc 23 600 19 view .LVU1201
	movsbl	%sil, %esi
	movq	%rbp, %rdi
	call	_ZNSo3putEc
.LVL449:
	movq	%rax, %rdi
.LVL450:
.LBB8216:
.LBI8216:
	.loc 23 621 5 is_stmt 1 view .LVU1202
.LBB8217:
	.loc 23 622 25 is_stmt 0 view .LVU1203
	call	_ZNSo5flushEv
.LVL451:
	.loc 23 622 25 view .LVU1204
.LBE8217:
.LBE8216:
.LBE8204:
.LBE8203:
.LBE8202:
	.loc 1 85 2 is_stmt 1 view .LVU1205
.LBB8221:
	.loc 1 85 10 is_stmt 0 view .LVU1206
	movl	(%rbx), %eax
	cmpl	$12, %eax
	ja	.L186
	movl	%eax, %eax
	jmp	*.L188(,%rax,8)
	.section	.rodata
	.align 8
	.align 4
.L188:
	.quad	.L200
	.quad	.L199
	.quad	.L198
	.quad	.L197
	.quad	.L196
	.quad	.L195
	.quad	.L194
	.quad	.L193
	.quad	.L192
	.quad	.L191
	.quad	.L190
	.quad	.L189
	.quad	.L187
	.text
.LVL452:
.L421:
	.loc 1 85 10 view .LVU1207
.LBE8221:
.LBB10191:
.LBB8140:
.LBB8139:
.LBB8138:
.LBB8135:
.LBB8133:
.LBB8129:
	.loc 24 50 18 view .LVU1208
	call	_ZSt16__throw_bad_castv
.LVL453:
.L176:
	.loc 24 50 18 view .LVU1209
.LBE8129:
.LBE8133:
.LBB8134:
.LBB8132:
	.loc 5 876 2 is_stmt 1 view .LVU1210
	.loc 5 876 21 is_stmt 0 view .LVU1211
	movq	%r12, %rdi
	call	_ZNKSt5ctypeIcE13_M_widen_initEv
.LVL454:
	.loc 5 877 2 is_stmt 1 view .LVU1212
	.loc 5 877 27 is_stmt 0 view .LVU1213
	movq	(%r12), %rax
	.loc 5 877 23 view .LVU1214
	movl	$10, %esi
	movq	%r12, %rdi
	call	*48(%rax)
.LVL455:
	movl	%eax, %esi
	.loc 5 877 27 view .LVU1215
	jmp	.L177
.LVL456:
.L422:
	.loc 5 877 27 view .LVU1216
.LBE8132:
.LBE8134:
.LBE8135:
.LBE8138:
.LBE8139:
.LBE8140:
.LBE10191:
.LBB10192:
.LBB8168:
.LBB8167:
.LBB8166:
.LBB8163:
.LBB8161:
.LBB8157:
	.loc 24 50 18 view .LVU1217
	call	_ZSt16__throw_bad_castv
.LVL457:
.L179:
	.loc 24 50 18 view .LVU1218
.LBE8157:
.LBE8161:
.LBB8162:
.LBB8160:
	.loc 5 876 2 is_stmt 1 view .LVU1219
	.loc 5 876 21 is_stmt 0 view .LVU1220
	movq	%r12, %rdi
	call	_ZNKSt5ctypeIcE13_M_widen_initEv
.LVL458:
	.loc 5 877 2 is_stmt 1 view .LVU1221
	.loc 5 877 27 is_stmt 0 view .LVU1222
	movq	(%r12), %rax
	.loc 5 877 23 view .LVU1223
	movl	$10, %esi
	movq	%r12, %rdi
	call	*48(%rax)
.LVL459:
	movl	%eax, %esi
	.loc 5 877 27 view .LVU1224
	jmp	.L180
.LVL460:
.L423:
	.loc 5 877 27 view .LVU1225
.LBE8160:
.LBE8162:
.LBE8163:
.LBE8166:
.LBE8167:
.LBE8168:
.LBE10192:
.LBB10193:
.LBB8220:
.LBB8219:
.LBB8218:
.LBB8215:
.LBB8213:
.LBB8209:
	.loc 24 50 18 view .LVU1226
	call	_ZSt16__throw_bad_castv
.LVL461:
.L184:
	.loc 24 50 18 view .LVU1227
.LBE8209:
.LBE8213:
.LBB8214:
.LBB8212:
	.loc 5 876 2 is_stmt 1 view .LVU1228
	.loc 5 876 21 is_stmt 0 view .LVU1229
	movq	%r15, %rdi
	call	_ZNKSt5ctypeIcE13_M_widen_initEv
.LVL462:
	.loc 5 877 2 is_stmt 1 view .LVU1230
	.loc 5 877 27 is_stmt 0 view .LVU1231
	movq	(%r15), %rax
	.loc 5 877 23 view .LVU1232
	movl	$10, %esi
	movq	%r15, %rdi
	call	*48(%rax)
.LVL463:
	movl	%eax, %esi
	.loc 5 877 27 view .LVU1233
	jmp	.L185
.LVL464:
.L200:
	.loc 5 877 27 view .LVU1234
.LBE8212:
.LBE8214:
.LBE8215:
.LBE8218:
.LBE8219:
.LBE8220:
.LBE10193:
.LBB10194:
.LBB8222:
	.loc 1 88 3 is_stmt 1 view .LVU1235
	.loc 1 89 3 view .LVU1236
	.loc 1 90 4 view .LVU1237
	cmpb	$77, 12(%rsp)
	je	.L424
	.loc 1 106 5 view .LVU1238
.LVL465:
.LBB8223:
.LBI8223:
	.loc 23 565 5 view .LVU1239
	.loc 23 565 5 is_stmt 0 view .LVU1240
.LBE8223:
.LBE8222:
.LBE10194:
	.loc 13 332 2 is_stmt 1 view .LVU1241
	.loc 13 335 2 view .LVU1242
.LBB10195:
.LBB10110:
.LBB8225:
.LBB8224:
	.loc 23 570 18 is_stmt 0 view .LVU1243
	movl	$35, %edx
	movl	$.LC8, %esi
	movl	$_ZSt4cout, %edi
	call	_ZSt16__ostream_insertIcSt11char_traitsIcEERSt13basic_ostreamIT_T0_ES6_PKS3_l
.LVL466:
	.loc 23 570 18 view .LVU1244
.LBE8224:
.LBE8225:
	.loc 1 106 112 view .LVU1245
	movzbl	12(%rsp), %eax
.LVL467:
	.loc 1 106 112 view .LVU1246
	movb	%al, 32(%rsp)
.LVL468:
.LBB8226:
.LBI8226:
	.loc 23 517 5 is_stmt 1 view .LVU1247
.LBB8227:
	.loc 23 518 30 is_stmt 0 view .LVU1248
	movl	$1, %edx
	leaq	32(%rsp), %rsi
	movl	$_ZSt4cout, %edi
	call	_ZSt16__ostream_insertIcSt11char_traitsIcEERSt13basic_ostreamIT_T0_ES6_PKS3_l
.LVL469:
	.loc 23 518 30 view .LVU1249
	movq	%rax, %rbp
.LVL470:
	.loc 23 518 30 view .LVU1250
.LBE8227:
.LBE8226:
.LBB8228:
.LBI8228:
	.loc 23 565 5 is_stmt 1 view .LVU1251
	.loc 23 565 5 is_stmt 0 view .LVU1252
.LBE8228:
.LBE10110:
.LBE10195:
	.loc 13 332 2 is_stmt 1 view .LVU1253
	.loc 13 335 2 view .LVU1254
.LBB10196:
.LBB10111:
.LBB8230:
.LBB8229:
	.loc 23 570 18 is_stmt 0 view .LVU1255
	movl	$20, %edx
	movl	$.LC9, %esi
	movq	%rax, %rdi
	call	_ZSt16__ostream_insertIcSt11char_traitsIcEERSt13basic_ostreamIT_T0_ES6_PKS3_l
.LVL471:
	.loc 23 570 18 view .LVU1256
.LBE8229:
.LBE8230:
.LBB8231:
.LBI8231:
	.loc 22 490 7 is_stmt 1 view .LVU1257
.LBB8232:
.LBB8233:
.LBI8233:
	.loc 22 1257 7 view .LVU1258
.LBB8234:
.LBB8235:
.LBI8235:
	.loc 6 1281 7 view .LVU1259
.LBB8236:
.LBB8237:
.LBI8237:
	.loc 6 755 7 view .LVU1260
.LBB8238:
	.loc 6 756 31 is_stmt 0 view .LVU1261
	leaq	8(%r12), %r13
.LVL472:
	.loc 6 756 31 view .LVU1262
.LBE8238:
.LBE8237:
.LBB8239:
.LBI8239:
	.loc 6 744 7 is_stmt 1 view .LVU1263
.LBB8240:
	.loc 6 745 73 is_stmt 0 view .LVU1264
	movq	16(%r12), %rsi
.LVL473:
	.loc 6 745 73 view .LVU1265
.LBE8240:
.LBE8239:
	.loc 6 1282 56 view .LVU1266
	movq	%rbx, %rcx
	movq	%r13, %rdx
	movq	%r12, %rdi
	call	_ZNSt8_Rb_treeIN3mpp9RepParser5StateESt4pairIKS2_NSt7__cxx1112basic_stringIcSt11char_traitsIcESaIcEEEESt10_Select1stISB_ESt4lessIS2_ESaISB_EE14_M_lower_boundEPSt13_Rb_tree_nodeISB_EPSt18_Rb_tree_node_baseRS4_
.LVL474:
	.loc 6 1282 56 view .LVU1267
.LBE8236:
.LBE8235:
.LBE8234:
.LBE8233:
	.loc 22 495 11 view .LVU1268
	movq	%rax, %rdx
.LVL475:
.LBB8241:
.LBI8241:
	.loc 22 372 7 is_stmt 1 view .LVU1269
.LBB8242:
.LBI8242:
	.loc 6 1014 7 view .LVU1270
.LBB8243:
.LBI8243:
	.loc 6 273 7 view .LVU1271
	.loc 6 273 7 is_stmt 0 view .LVU1272
.LBE8243:
.LBE8242:
.LBE8241:
.LBB8244:
.LBI8244:
	.loc 6 315 7 is_stmt 1 view .LVU1273
.LBB8245:
	.loc 6 316 20 is_stmt 0 view .LVU1274
	movq	%rax, %rsi
.LVL476:
	.loc 6 316 20 view .LVU1275
.LBE8245:
.LBE8244:
	.loc 22 497 19 view .LVU1276
	cmpq	%rax, %r13
	je	.L208
.LVL477:
.LBB8246:
.LBI8246:
	.loc 17 385 7 is_stmt 1 view .LVU1277
	.loc 17 385 7 is_stmt 0 view .LVU1278
.LBE8246:
	.loc 22 497 19 view .LVU1279
	movl	32(%rax), %eax
	cmpl	%eax, (%rbx)
	jge	.L209
.L208:
.LVL478:
.LBB8247:
.LBI8247:
	.loc 21 588 19 is_stmt 1 view .LVU1280
.LBB8248:
.LBI8248:
	.loc 21 343 17 view .LVU1281
.LBB8249:
.LBI8249:
	.loc 21 125 17 view .LVU1282
.LBB8250:
.LBB8251:
	.loc 21 126 25 is_stmt 0 view .LVU1283
	movq	%rbx, 96(%rsp)
.LVL479:
	.loc 21 126 25 view .LVU1284
.LBE8251:
.LBE8250:
.LBE8249:
.LBE8248:
.LBE8247:
.LBB8252:
.LBI8252:
	.loc 6 348 7 is_stmt 1 view .LVU1285
	.loc 6 348 7 is_stmt 0 view .LVU1286
.LBE8252:
	.loc 22 499 8 view .LVU1287
	leaq	95(%rsp), %r8
	leaq	96(%rsp), %rcx
	movl	$_ZSt19piecewise_construct, %edx
	movq	%r12, %rdi
	call	_ZNSt8_Rb_treeIN3mpp9RepParser5StateESt4pairIKS2_NSt7__cxx1112basic_stringIcSt11char_traitsIcESaIcEEEESt10_Select1stISB_ESt4lessIS2_ESaISB_EE22_M_emplace_hint_uniqueIJRKSt21piecewise_construct_tSt5tupleIJRS4_EESM_IJEEEEESt17_Rb_tree_iteratorISB_ESt23_Rb_tree_const_iteratorISB_EDpOT_
.LVL480:
	movq	%rax, %rdx
.L209:
.LVL481:
.LBB8253:
.LBI8253:
	.loc 6 277 7 is_stmt 1 view .LVU1288
	.loc 6 277 7 is_stmt 0 view .LVU1289
.LBE8253:
.LBE8232:
.LBE8231:
.LBB8254:
.LBI8254:
	.loc 7 6416 5 is_stmt 1 view .LVU1290
.LBB8255:
.LBB8256:
.LBI8256:
	.loc 7 930 7 view .LVU1291
.LBB8257:
	.loc 7 931 16 is_stmt 0 view .LVU1292
	movq	48(%rdx), %rax
.LVL482:
	.loc 7 931 16 view .LVU1293
.LBE8257:
.LBE8256:
.LBB8258:
.LBI8258:
	.loc 7 2312 7 is_stmt 1 view .LVU1294
.LBB8259:
.LBI8259:
	.loc 7 186 7 view .LVU1295
.LBB8260:
	.loc 7 187 28 is_stmt 0 view .LVU1296
	movq	40(%rdx), %rsi
.LVL483:
	.loc 7 187 28 view .LVU1297
.LBE8260:
.LBE8259:
.LBE8258:
	.loc 7 6421 30 view .LVU1298
	movq	%rax, %rdx
.LVL484:
	.loc 7 6421 30 view .LVU1299
	movq	%rbp, %rdi
	call	_ZSt16__ostream_insertIcSt11char_traitsIcEERSt13basic_ostreamIT_T0_ES6_PKS3_l
.LVL485:
	movq	%rax, %rbx
.LVL486:
	.loc 7 6421 30 view .LVU1300
.LBE8255:
.LBE8254:
.LBB8261:
.LBI8261:
	.loc 23 108 7 is_stmt 1 view .LVU1301
.LBB8262:
.LBI8262:
	.loc 23 599 5 view .LVU1302
.LBB8263:
	.loc 23 600 19 is_stmt 0 view .LVU1303
	movq	(%rax), %rax
.LVL487:
	.loc 23 600 19 view .LVU1304
	movq	%rbx, %rcx
	addq	-24(%rax), %rcx
.LVL488:
.LBB8264:
.LBI8264:
	.loc 24 449 7 is_stmt 1 view .LVU1305
.LBB8265:
	.loc 24 450 30 is_stmt 0 view .LVU1306
	movq	240(%rcx), %rbp
.LVL489:
.LBB8266:
.LBI8266:
	.loc 24 47 5 is_stmt 1 view .LVU1307
.LBB8267:
	.loc 24 49 7 is_stmt 0 view .LVU1308
	testq	%rbp, %rbp
	je	.L425
.LVL490:
	.loc 24 49 7 view .LVU1309
.LBE8267:
.LBE8266:
.LBB8269:
.LBI8269:
	.loc 5 872 7 is_stmt 1 view .LVU1310
.LBB8270:
	.loc 5 874 2 view .LVU1311
	cmpb	$0, 56(%rbp)
	je	.L211
	.loc 5 875 4 view .LVU1312
	.loc 5 875 51 is_stmt 0 view .LVU1313
	movzbl	67(%rbp), %esi
.LVL491:
.L212:
	.loc 5 875 51 view .LVU1314
.LBE8270:
.LBE8269:
.LBE8265:
.LBE8264:
	.loc 23 600 19 view .LVU1315
	movsbl	%sil, %esi
	movq	%rbx, %rdi
	call	_ZNSo3putEc
.LVL492:
	movq	%rax, %rdi
.LVL493:
.LBB8275:
.LBI8275:
	.loc 23 621 5 is_stmt 1 view .LVU1316
.LBB8276:
	.loc 23 622 25 is_stmt 0 view .LVU1317
	call	_ZNSo5flushEv
.LVL494:
	.loc 23 622 25 view .LVU1318
.LBE8276:
.LBE8275:
.LBE8263:
.LBE8262:
.LBE8261:
	.loc 1 108 5 is_stmt 1 view .LVU1319
.LBB8280:
.LBI8280:
	.file 25 "/usr/local/include/boost/logic/tribool.hpp"
	.loc 25 98 13 view .LVU1320
	.loc 25 98 13 is_stmt 0 view .LVU1321
.LBE8280:
	.loc 1 108 14 view .LVU1322
	movl	$0, %r13d
	.loc 1 108 14 view .LVU1323
	jmp	.L186
.LVL495:
.L424:
	.loc 1 93 5 is_stmt 1 view .LVU1324
.LBB8281:
.LBI8281:
	.loc 23 565 5 view .LVU1325
	.loc 23 565 5 is_stmt 0 view .LVU1326
.LBE8281:
.LBE10111:
.LBE10196:
	.loc 13 332 2 is_stmt 1 view .LVU1327
	.loc 13 335 2 view .LVU1328
.LBB10197:
.LBB10112:
.LBB8283:
.LBB8282:
	.loc 23 570 18 is_stmt 0 view .LVU1329
	movl	$42, %edx
	movl	$.LC5, %esi
	movl	$_ZSt4cout, %edi
	call	_ZSt16__ostream_insertIcSt11char_traitsIcEERSt13basic_ostreamIT_T0_ES6_PKS3_l
.LVL496:
	.loc 23 570 18 view .LVU1330
.LBE8282:
.LBE8283:
	.loc 1 93 75 view .LVU1331
	movzbl	12(%rsp), %eax
.LVL497:
	.loc 1 93 75 view .LVU1332
	movb	%al, 32(%rsp)
.LVL498:
.LBB8284:
.LBI8284:
	.loc 23 517 5 is_stmt 1 view .LVU1333
.LBB8285:
	.loc 23 518 30 is_stmt 0 view .LVU1334
	movl	$1, %edx
	leaq	32(%rsp), %rsi
	movl	$_ZSt4cout, %edi
	call	_ZSt16__ostream_insertIcSt11char_traitsIcEERSt13basic_ostreamIT_T0_ES6_PKS3_l
.LVL499:
	.loc 23 518 30 view .LVU1335
	movq	%rax, %rbp
.LVL500:
	.loc 23 518 30 view .LVU1336
.LBE8285:
.LBE8284:
.LBB8286:
.LBI8286:
	.loc 23 565 5 is_stmt 1 view .LVU1337
	.loc 23 565 5 is_stmt 0 view .LVU1338
.LBE8286:
.LBE10112:
.LBE10197:
	.loc 13 332 2 is_stmt 1 view .LVU1339
	.loc 13 335 2 view .LVU1340
.LBB10198:
.LBB10113:
.LBB8288:
.LBB8287:
	.loc 23 570 18 is_stmt 0 view .LVU1341
	movl	$14, %edx
	movl	$.LC6, %esi
	movq	%rax, %rdi
	call	_ZSt16__ostream_insertIcSt11char_traitsIcEERSt13basic_ostreamIT_T0_ES6_PKS3_l
.LVL501:
	.loc 23 570 18 view .LVU1342
.LBE8287:
.LBE8288:
.LBB8289:
.LBI8289:
	.loc 23 108 7 is_stmt 1 view .LVU1343
.LBB8290:
.LBI8290:
	.loc 23 599 5 view .LVU1344
.LBB8291:
	.loc 23 600 19 is_stmt 0 view .LVU1345
	movq	0(%rbp), %rax
	movq	%rbp, %rcx
	addq	-24(%rax), %rcx
.LVL502:
.LBB8292:
.LBI8292:
	.loc 24 449 7 is_stmt 1 view .LVU1346
.LBB8293:
	.loc 24 450 30 is_stmt 0 view .LVU1347
	movq	240(%rcx), %r13
.LVL503:
.LBB8294:
.LBI8294:
	.loc 24 47 5 is_stmt 1 view .LVU1348
.LBB8295:
	.loc 24 49 7 is_stmt 0 view .LVU1349
	testq	%r13, %r13
	je	.L426
.LVL504:
	.loc 24 49 7 view .LVU1350
.LBE8295:
.LBE8294:
.LBB8297:
.LBI8297:
	.loc 5 872 7 is_stmt 1 view .LVU1351
.LBB8298:
	.loc 5 874 2 view .LVU1352
	cmpb	$0, 56(%r13)
	je	.L203
	.loc 5 875 4 view .LVU1353
	.loc 5 875 51 is_stmt 0 view .LVU1354
	movzbl	67(%r13), %esi
.LVL505:
.L204:
	.loc 5 875 51 view .LVU1355
.LBE8298:
.LBE8297:
.LBE8293:
.LBE8292:
	.loc 23 600 19 view .LVU1356
	movsbl	%sil, %esi
	movq	%rbp, %rdi
	call	_ZNSo3putEc
.LVL506:
	movq	%rax, %rdi
.LVL507:
.LBB8303:
.LBI8303:
	.loc 23 621 5 is_stmt 1 view .LVU1357
.LBB8304:
	.loc 23 622 25 is_stmt 0 view .LVU1358
	call	_ZNSo5flushEv
.LVL508:
	.loc 23 622 25 view .LVU1359
	movq	%rax, %rdi
.LVL509:
	.loc 23 622 25 view .LVU1360
.LBE8304:
.LBE8303:
.LBE8291:
.LBE8290:
.LBE8289:
.LBB8308:
.LBI8308:
	.loc 23 565 5 is_stmt 1 view .LVU1361
	.loc 23 565 5 is_stmt 0 view .LVU1362
.LBE8308:
.LBE10113:
.LBE10198:
	.loc 13 332 2 is_stmt 1 view .LVU1363
	.loc 13 335 2 view .LVU1364
.LBB10199:
.LBB10114:
.LBB8310:
.LBB8309:
	.loc 23 570 18 is_stmt 0 view .LVU1365
	movl	$16, %edx
	movl	$.LC7, %esi
	call	_ZSt16__ostream_insertIcSt11char_traitsIcEERSt13basic_ostreamIT_T0_ES6_PKS3_l
.LVL510:
	.loc 23 570 18 view .LVU1366
.LBE8309:
.LBE8310:
	.loc 1 96 5 is_stmt 1 view .LVU1367
	.loc 1 96 13 is_stmt 0 view .LVU1368
	movl	$1, (%rbx)
	.loc 1 98 5 is_stmt 1 view .LVU1369
	.loc 1 98 36 is_stmt 0 view .LVU1370
	movq	%rbx, %rsi
	movq	%r12, %rdi
	call	_ZNSt3mapIN3mpp9RepParser5StateENSt7__cxx1112basic_stringIcSt11char_traitsIcESaIcEEESt4lessIS2_ESaISt4pairIKS2_S8_EEEixERSC_
.LVL511:
.LBB8311:
.LBI8311:
	.loc 7 6416 5 is_stmt 1 view .LVU1371
.LBB8312:
.LBB8313:
.LBI8313:
	.loc 7 930 7 view .LVU1372
.LBB8314:
	.loc 7 931 16 is_stmt 0 view .LVU1373
	movq	8(%rax), %rdx
.LVL512:
	.loc 7 931 16 view .LVU1374
.LBE8314:
.LBE8313:
.LBB8315:
.LBI8315:
	.loc 7 2312 7 is_stmt 1 view .LVU1375
.LBB8316:
.LBI8316:
	.loc 7 186 7 view .LVU1376
.LBB8317:
	.loc 7 187 28 is_stmt 0 view .LVU1377
	movq	(%rax), %rsi
.LVL513:
	.loc 7 187 28 view .LVU1378
.LBE8317:
.LBE8316:
.LBE8315:
	.loc 7 6421 30 view .LVU1379
	movl	$_ZSt4cout, %edi
	call	_ZSt16__ostream_insertIcSt11char_traitsIcEERSt13basic_ostreamIT_T0_ES6_PKS3_l
.LVL514:
	.loc 7 6421 30 view .LVU1380
	movq	%rax, %rbp
.LVL515:
	.loc 7 6421 30 view .LVU1381
.LBE8312:
.LBE8311:
.LBB8318:
.LBI8318:
	.loc 23 108 7 is_stmt 1 view .LVU1382
.LBB8319:
.LBI8319:
	.loc 23 599 5 view .LVU1383
.LBB8320:
	.loc 23 600 19 is_stmt 0 view .LVU1384
	movq	(%rax), %rax
.LVL516:
	.loc 23 600 19 view .LVU1385
	movq	%rbp, %rcx
	addq	-24(%rax), %rcx
.LVL517:
.LBB8321:
.LBI8321:
	.loc 24 449 7 is_stmt 1 view .LVU1386
.LBB8322:
	.loc 24 450 30 is_stmt 0 view .LVU1387
	movq	240(%rcx), %rbx
.LVL518:
.LBB8323:
.LBI8323:
	.loc 24 47 5 is_stmt 1 view .LVU1388
.LBB8324:
	.loc 24 49 7 is_stmt 0 view .LVU1389
	testq	%rbx, %rbx
	je	.L427
.LVL519:
	.loc 24 49 7 view .LVU1390
.LBE8324:
.LBE8323:
.LBB8326:
.LBI8326:
	.loc 5 872 7 is_stmt 1 view .LVU1391
.LBB8327:
	.loc 5 874 2 view .LVU1392
	cmpb	$0, 56(%rbx)
	je	.L206
	.loc 5 875 4 view .LVU1393
	.loc 5 875 51 is_stmt 0 view .LVU1394
	movzbl	67(%rbx), %esi
.LVL520:
.L207:
	.loc 5 875 51 view .LVU1395
.LBE8327:
.LBE8326:
.LBE8322:
.LBE8321:
	.loc 23 600 19 view .LVU1396
	movsbl	%sil, %esi
	movq	%rbp, %rdi
	call	_ZNSo3putEc
.LVL521:
	movq	%rax, %rdi
.LVL522:
.LBB8332:
.LBI8332:
	.loc 23 621 5 is_stmt 1 view .LVU1397
.LBB8333:
	.loc 23 622 25 is_stmt 0 view .LVU1398
	call	_ZNSo5flushEv
.LVL523:
	.loc 23 622 25 view .LVU1399
.LBE8333:
.LBE8332:
.LBE8320:
.LBE8319:
.LBE8318:
	.loc 1 100 5 is_stmt 1 view .LVU1400
.LBB8337:
.LBI8337:
	.loc 25 105 13 view .LVU1401
	.loc 25 105 13 is_stmt 0 view .LVU1402
.LBE8337:
	.loc 1 100 14 view .LVU1403
	movl	$2, %r13d
	.loc 1 100 14 view .LVU1404
	jmp	.L186
.LVL524:
.L426:
.LBB8338:
.LBB8307:
.LBB8306:
.LBB8305:
.LBB8302:
.LBB8300:
.LBB8296:
	.loc 24 50 18 view .LVU1405
	call	_ZSt16__throw_bad_castv
.LVL525:
.L203:
	.loc 24 50 18 view .LVU1406
.LBE8296:
.LBE8300:
.LBB8301:
.LBB8299:
	.loc 5 876 2 is_stmt 1 view .LVU1407
	.loc 5 876 21 is_stmt 0 view .LVU1408
	movq	%r13, %rdi
	call	_ZNKSt5ctypeIcE13_M_widen_initEv
.LVL526:
	.loc 5 877 2 is_stmt 1 view .LVU1409
	.loc 5 877 27 is_stmt 0 view .LVU1410
	movq	0(%r13), %rax
	.loc 5 877 23 view .LVU1411
	movl	$10, %esi
	movq	%r13, %rdi
	call	*48(%rax)
.LVL527:
	movl	%eax, %esi
	.loc 5 877 27 view .LVU1412
	jmp	.L204
.LVL528:
.L427:
	.loc 5 877 27 view .LVU1413
.LBE8299:
.LBE8301:
.LBE8302:
.LBE8305:
.LBE8306:
.LBE8307:
.LBE8338:
.LBB8339:
.LBB8336:
.LBB8335:
.LBB8334:
.LBB8331:
.LBB8329:
.LBB8325:
	.loc 24 50 18 view .LVU1414
	call	_ZSt16__throw_bad_castv
.LVL529:
.L206:
	.loc 24 50 18 view .LVU1415
.LBE8325:
.LBE8329:
.LBB8330:
.LBB8328:
	.loc 5 876 2 is_stmt 1 view .LVU1416
	.loc 5 876 21 is_stmt 0 view .LVU1417
	movq	%rbx, %rdi
	call	_ZNKSt5ctypeIcE13_M_widen_initEv
.LVL530:
	.loc 5 877 2 is_stmt 1 view .LVU1418
	.loc 5 877 27 is_stmt 0 view .LVU1419
	movq	(%rbx), %rax
	.loc 5 877 23 view .LVU1420
	movl	$10, %esi
	movq	%rbx, %rdi
	call	*48(%rax)
.LVL531:
	movl	%eax, %esi
	.loc 5 877 27 view .LVU1421
	jmp	.L207
.LVL532:
.L425:
	.loc 5 877 27 view .LVU1422
.LBE8328:
.LBE8330:
.LBE8331:
.LBE8334:
.LBE8335:
.LBE8336:
.LBE8339:
.LBB8340:
.LBB8279:
.LBB8278:
.LBB8277:
.LBB8274:
.LBB8272:
.LBB8268:
	.loc 24 50 18 view .LVU1423
	call	_ZSt16__throw_bad_castv
.LVL533:
.L211:
	.loc 24 50 18 view .LVU1424
.LBE8268:
.LBE8272:
.LBB8273:
.LBB8271:
	.loc 5 876 2 is_stmt 1 view .LVU1425
	.loc 5 876 21 is_stmt 0 view .LVU1426
	movq	%rbp, %rdi
	call	_ZNKSt5ctypeIcE13_M_widen_initEv
.LVL534:
	.loc 5 877 2 is_stmt 1 view .LVU1427
	.loc 5 877 27 is_stmt 0 view .LVU1428
	movq	0(%rbp), %rax
	.loc 5 877 23 view .LVU1429
	movl	$10, %esi
	movq	%rbp, %rdi
	call	*48(%rax)
.LVL535:
	movl	%eax, %esi
	.loc 5 877 27 view .LVU1430
	jmp	.L212
.LVL536:
.L199:
	.loc 5 877 27 view .LVU1431
.LBE8271:
.LBE8273:
.LBE8274:
.LBE8277:
.LBE8278:
.LBE8279:
.LBE8340:
	.loc 1 114 3 is_stmt 1 view .LVU1432
	.loc 1 115 3 view .LVU1433
	.loc 1 116 4 view .LVU1434
	cmpb	$80, 12(%rsp)
	je	.L428
	.loc 1 132 5 view .LVU1435
.LVL537:
.LBB8341:
.LBI8341:
	.loc 23 565 5 view .LVU1436
	.loc 23 565 5 is_stmt 0 view .LVU1437
.LBE8341:
.LBE10114:
.LBE10199:
	.loc 13 332 2 is_stmt 1 view .LVU1438
	.loc 13 335 2 view .LVU1439
.LBB10200:
.LBB10115:
.LBB8343:
.LBB8342:
	.loc 23 570 18 is_stmt 0 view .LVU1440
	movl	$35, %edx
	movl	$.LC8, %esi
	movl	$_ZSt4cout, %edi
	call	_ZSt16__ostream_insertIcSt11char_traitsIcEERSt13basic_ostreamIT_T0_ES6_PKS3_l
.LVL538:
	.loc 23 570 18 view .LVU1441
.LBE8342:
.LBE8343:
	.loc 1 132 112 view .LVU1442
	movzbl	12(%rsp), %eax
.LVL539:
	.loc 1 132 112 view .LVU1443
	movb	%al, 32(%rsp)
.LVL540:
.LBB8344:
.LBI8344:
	.loc 23 517 5 is_stmt 1 view .LVU1444
.LBB8345:
	.loc 23 518 30 is_stmt 0 view .LVU1445
	movl	$1, %edx
	leaq	32(%rsp), %rsi
	movl	$_ZSt4cout, %edi
	call	_ZSt16__ostream_insertIcSt11char_traitsIcEERSt13basic_ostreamIT_T0_ES6_PKS3_l
.LVL541:
	.loc 23 518 30 view .LVU1446
	movq	%rax, %rbp
.LVL542:
	.loc 23 518 30 view .LVU1447
.LBE8345:
.LBE8344:
.LBB8346:
.LBI8346:
	.loc 23 565 5 is_stmt 1 view .LVU1448
	.loc 23 565 5 is_stmt 0 view .LVU1449
.LBE8346:
.LBE10115:
.LBE10200:
	.loc 13 332 2 is_stmt 1 view .LVU1450
	.loc 13 335 2 view .LVU1451
.LBB10201:
.LBB10116:
.LBB8348:
.LBB8347:
	.loc 23 570 18 is_stmt 0 view .LVU1452
	movl	$20, %edx
	movl	$.LC9, %esi
	movq	%rax, %rdi
	call	_ZSt16__ostream_insertIcSt11char_traitsIcEERSt13basic_ostreamIT_T0_ES6_PKS3_l
.LVL543:
	.loc 23 570 18 view .LVU1453
.LBE8347:
.LBE8348:
.LBB8349:
.LBI8349:
	.loc 22 490 7 is_stmt 1 view .LVU1454
.LBB8350:
.LBB8351:
.LBI8351:
	.loc 22 1257 7 view .LVU1455
.LBB8352:
.LBB8353:
.LBI8353:
	.loc 6 1281 7 view .LVU1456
.LBB8354:
.LBB8355:
.LBI8355:
	.loc 6 755 7 view .LVU1457
.LBB8356:
	.loc 6 756 31 is_stmt 0 view .LVU1458
	leaq	8(%r12), %r13
.LVL544:
	.loc 6 756 31 view .LVU1459
.LBE8356:
.LBE8355:
.LBB8357:
.LBI8357:
	.loc 6 744 7 is_stmt 1 view .LVU1460
.LBB8358:
	.loc 6 745 73 is_stmt 0 view .LVU1461
	movq	16(%r12), %rsi
.LVL545:
	.loc 6 745 73 view .LVU1462
.LBE8358:
.LBE8357:
	.loc 6 1282 56 view .LVU1463
	movq	%rbx, %rcx
	movq	%r13, %rdx
	movq	%r12, %rdi
	call	_ZNSt8_Rb_treeIN3mpp9RepParser5StateESt4pairIKS2_NSt7__cxx1112basic_stringIcSt11char_traitsIcESaIcEEEESt10_Select1stISB_ESt4lessIS2_ESaISB_EE14_M_lower_boundEPSt13_Rb_tree_nodeISB_EPSt18_Rb_tree_node_baseRS4_
.LVL546:
	.loc 6 1282 56 view .LVU1464
.LBE8354:
.LBE8353:
.LBE8352:
.LBE8351:
	.loc 22 495 11 view .LVU1465
	movq	%rax, %rdx
.LVL547:
.LBB8359:
.LBI8359:
	.loc 22 372 7 is_stmt 1 view .LVU1466
.LBB8360:
.LBI8360:
	.loc 6 1014 7 view .LVU1467
.LBB8361:
.LBI8361:
	.loc 6 273 7 view .LVU1468
	.loc 6 273 7 is_stmt 0 view .LVU1469
.LBE8361:
.LBE8360:
.LBE8359:
.LBB8362:
.LBI8362:
	.loc 6 315 7 is_stmt 1 view .LVU1470
.LBB8363:
	.loc 6 316 20 is_stmt 0 view .LVU1471
	movq	%rax, %rsi
.LVL548:
	.loc 6 316 20 view .LVU1472
.LBE8363:
.LBE8362:
	.loc 22 497 19 view .LVU1473
	cmpq	%rax, %r13
	je	.L220
.LVL549:
.LBB8364:
.LBI8364:
	.loc 17 385 7 is_stmt 1 view .LVU1474
	.loc 17 385 7 is_stmt 0 view .LVU1475
.LBE8364:
	.loc 22 497 19 view .LVU1476
	movl	32(%rax), %eax
	cmpl	%eax, (%rbx)
	jge	.L221
.L220:
.LVL550:
.LBB8365:
.LBI8365:
	.loc 21 588 19 is_stmt 1 view .LVU1477
.LBB8366:
.LBI8366:
	.loc 21 343 17 view .LVU1478
.LBB8367:
.LBI8367:
	.loc 21 125 17 view .LVU1479
.LBB8368:
.LBB8369:
	.loc 21 126 25 is_stmt 0 view .LVU1480
	movq	%rbx, 112(%rsp)
.LVL551:
	.loc 21 126 25 view .LVU1481
.LBE8369:
.LBE8368:
.LBE8367:
.LBE8366:
.LBE8365:
.LBB8370:
.LBI8370:
	.loc 6 348 7 is_stmt 1 view .LVU1482
	.loc 6 348 7 is_stmt 0 view .LVU1483
.LBE8370:
	.loc 22 499 8 view .LVU1484
	leaq	111(%rsp), %r8
	leaq	112(%rsp), %rcx
	movl	$_ZSt19piecewise_construct, %edx
	movq	%r12, %rdi
	call	_ZNSt8_Rb_treeIN3mpp9RepParser5StateESt4pairIKS2_NSt7__cxx1112basic_stringIcSt11char_traitsIcESaIcEEEESt10_Select1stISB_ESt4lessIS2_ESaISB_EE22_M_emplace_hint_uniqueIJRKSt21piecewise_construct_tSt5tupleIJRS4_EESM_IJEEEEESt17_Rb_tree_iteratorISB_ESt23_Rb_tree_const_iteratorISB_EDpOT_
.LVL552:
	movq	%rax, %rdx
.L221:
.LVL553:
.LBB8371:
.LBI8371:
	.loc 6 277 7 is_stmt 1 view .LVU1485
	.loc 6 277 7 is_stmt 0 view .LVU1486
.LBE8371:
.LBE8350:
.LBE8349:
.LBB8372:
.LBI8372:
	.loc 7 6416 5 is_stmt 1 view .LVU1487
.LBB8373:
.LBB8374:
.LBI8374:
	.loc 7 930 7 view .LVU1488
.LBB8375:
	.loc 7 931 16 is_stmt 0 view .LVU1489
	movq	48(%rdx), %rax
.LVL554:
	.loc 7 931 16 view .LVU1490
.LBE8375:
.LBE8374:
.LBB8376:
.LBI8376:
	.loc 7 2312 7 is_stmt 1 view .LVU1491
.LBB8377:
.LBI8377:
	.loc 7 186 7 view .LVU1492
.LBB8378:
	.loc 7 187 28 is_stmt 0 view .LVU1493
	movq	40(%rdx), %rsi
.LVL555:
	.loc 7 187 28 view .LVU1494
.LBE8378:
.LBE8377:
.LBE8376:
	.loc 7 6421 30 view .LVU1495
	movq	%rax, %rdx
.LVL556:
	.loc 7 6421 30 view .LVU1496
	movq	%rbp, %rdi
	call	_ZSt16__ostream_insertIcSt11char_traitsIcEERSt13basic_ostreamIT_T0_ES6_PKS3_l
.LVL557:
	movq	%rax, %rbx
.LVL558:
	.loc 7 6421 30 view .LVU1497
.LBE8373:
.LBE8372:
.LBB8379:
.LBI8379:
	.loc 23 108 7 is_stmt 1 view .LVU1498
.LBB8380:
.LBI8380:
	.loc 23 599 5 view .LVU1499
.LBB8381:
	.loc 23 600 19 is_stmt 0 view .LVU1500
	movq	(%rax), %rax
.LVL559:
	.loc 23 600 19 view .LVU1501
	movq	%rbx, %rcx
	addq	-24(%rax), %rcx
.LVL560:
.LBB8382:
.LBI8382:
	.loc 24 449 7 is_stmt 1 view .LVU1502
.LBB8383:
	.loc 24 450 30 is_stmt 0 view .LVU1503
	movq	240(%rcx), %rbp
.LVL561:
.LBB8384:
.LBI8384:
	.loc 24 47 5 is_stmt 1 view .LVU1504
.LBB8385:
	.loc 24 49 7 is_stmt 0 view .LVU1505
	testq	%rbp, %rbp
	je	.L429
.LVL562:
	.loc 24 49 7 view .LVU1506
.LBE8385:
.LBE8384:
.LBB8387:
.LBI8387:
	.loc 5 872 7 is_stmt 1 view .LVU1507
.LBB8388:
	.loc 5 874 2 view .LVU1508
	cmpb	$0, 56(%rbp)
	je	.L223
	.loc 5 875 4 view .LVU1509
	.loc 5 875 51 is_stmt 0 view .LVU1510
	movzbl	67(%rbp), %esi
.LVL563:
.L224:
	.loc 5 875 51 view .LVU1511
.LBE8388:
.LBE8387:
.LBE8383:
.LBE8382:
	.loc 23 600 19 view .LVU1512
	movsbl	%sil, %esi
	movq	%rbx, %rdi
	call	_ZNSo3putEc
.LVL564:
	movq	%rax, %rdi
.LVL565:
.LBB8393:
.LBI8393:
	.loc 23 621 5 is_stmt 1 view .LVU1513
.LBB8394:
	.loc 23 622 25 is_stmt 0 view .LVU1514
	call	_ZNSo5flushEv
.LVL566:
	.loc 23 622 25 view .LVU1515
.LBE8394:
.LBE8393:
.LBE8381:
.LBE8380:
.LBE8379:
	.loc 1 134 5 is_stmt 1 view .LVU1516
.LBB8398:
.LBI8398:
	.loc 25 98 13 view .LVU1517
	.loc 25 98 13 is_stmt 0 view .LVU1518
.LBE8398:
	.loc 1 134 14 view .LVU1519
	movl	$0, %r13d
	.loc 1 134 14 view .LVU1520
	jmp	.L186
.LVL567:
.L428:
	.loc 1 119 5 is_stmt 1 view .LVU1521
.LBB8399:
.LBI8399:
	.loc 23 565 5 view .LVU1522
	.loc 23 565 5 is_stmt 0 view .LVU1523
.LBE8399:
.LBE10116:
.LBE10201:
	.loc 13 332 2 is_stmt 1 view .LVU1524
	.loc 13 335 2 view .LVU1525
.LBB10202:
.LBB10117:
.LBB8401:
.LBB8400:
	.loc 23 570 18 is_stmt 0 view .LVU1526
	movl	$40, %edx
	movl	$.LC10, %esi
	movl	$_ZSt4cout, %edi
	call	_ZSt16__ostream_insertIcSt11char_traitsIcEERSt13basic_ostreamIT_T0_ES6_PKS3_l
.LVL568:
	.loc 23 570 18 view .LVU1527
.LBE8400:
.LBE8401:
	.loc 1 119 73 view .LVU1528
	movzbl	12(%rsp), %eax
.LVL569:
	.loc 1 119 73 view .LVU1529
	movb	%al, 32(%rsp)
.LVL570:
.LBB8402:
.LBI8402:
	.loc 23 517 5 is_stmt 1 view .LVU1530
.LBB8403:
	.loc 23 518 30 is_stmt 0 view .LVU1531
	movl	$1, %edx
	leaq	32(%rsp), %rsi
	movl	$_ZSt4cout, %edi
	call	_ZSt16__ostream_insertIcSt11char_traitsIcEERSt13basic_ostreamIT_T0_ES6_PKS3_l
.LVL571:
	.loc 23 518 30 view .LVU1532
	movq	%rax, %rbp
.LVL572:
	.loc 23 518 30 view .LVU1533
.LBE8403:
.LBE8402:
.LBB8404:
.LBI8404:
	.loc 23 565 5 is_stmt 1 view .LVU1534
	.loc 23 565 5 is_stmt 0 view .LVU1535
.LBE8404:
.LBE10117:
.LBE10202:
	.loc 13 332 2 is_stmt 1 view .LVU1536
	.loc 13 335 2 view .LVU1537
.LBB10203:
.LBB10118:
.LBB8406:
.LBB8405:
	.loc 23 570 18 is_stmt 0 view .LVU1538
	movl	$15, %edx
	movl	$.LC11, %esi
	movq	%rax, %rdi
	call	_ZSt16__ostream_insertIcSt11char_traitsIcEERSt13basic_ostreamIT_T0_ES6_PKS3_l
.LVL573:
	.loc 23 570 18 view .LVU1539
.LBE8405:
.LBE8406:
.LBB8407:
.LBI8407:
	.loc 23 108 7 is_stmt 1 view .LVU1540
.LBB8408:
.LBI8408:
	.loc 23 599 5 view .LVU1541
.LBB8409:
	.loc 23 600 19 is_stmt 0 view .LVU1542
	movq	0(%rbp), %rax
	movq	%rbp, %rcx
	addq	-24(%rax), %rcx
.LVL574:
.LBB8410:
.LBI8410:
	.loc 24 449 7 is_stmt 1 view .LVU1543
.LBB8411:
	.loc 24 450 30 is_stmt 0 view .LVU1544
	movq	240(%rcx), %r13
.LVL575:
.LBB8412:
.LBI8412:
	.loc 24 47 5 is_stmt 1 view .LVU1545
.LBB8413:
	.loc 24 49 7 is_stmt 0 view .LVU1546
	testq	%r13, %r13
	je	.L430
.LVL576:
	.loc 24 49 7 view .LVU1547
.LBE8413:
.LBE8412:
.LBB8415:
.LBI8415:
	.loc 5 872 7 is_stmt 1 view .LVU1548
.LBB8416:
	.loc 5 874 2 view .LVU1549
	cmpb	$0, 56(%r13)
	je	.L215
	.loc 5 875 4 view .LVU1550
	.loc 5 875 51 is_stmt 0 view .LVU1551
	movzbl	67(%r13), %esi
.LVL577:
.L216:
	.loc 5 875 51 view .LVU1552
.LBE8416:
.LBE8415:
.LBE8411:
.LBE8410:
	.loc 23 600 19 view .LVU1553
	movsbl	%sil, %esi
	movq	%rbp, %rdi
	call	_ZNSo3putEc
.LVL578:
	movq	%rax, %rdi
.LVL579:
.LBB8421:
.LBI8421:
	.loc 23 621 5 is_stmt 1 view .LVU1554
.LBB8422:
	.loc 23 622 25 is_stmt 0 view .LVU1555
	call	_ZNSo5flushEv
.LVL580:
	.loc 23 622 25 view .LVU1556
	movq	%rax, %rdi
.LVL581:
	.loc 23 622 25 view .LVU1557
.LBE8422:
.LBE8421:
.LBE8409:
.LBE8408:
.LBE8407:
.LBB8426:
.LBI8426:
	.loc 23 565 5 is_stmt 1 view .LVU1558
	.loc 23 565 5 is_stmt 0 view .LVU1559
.LBE8426:
.LBE10118:
.LBE10203:
	.loc 13 332 2 is_stmt 1 view .LVU1560
	.loc 13 335 2 view .LVU1561
.LBB10204:
.LBB10119:
.LBB8428:
.LBB8427:
	.loc 23 570 18 is_stmt 0 view .LVU1562
	movl	$16, %edx
	movl	$.LC7, %esi
	call	_ZSt16__ostream_insertIcSt11char_traitsIcEERSt13basic_ostreamIT_T0_ES6_PKS3_l
.LVL582:
	.loc 23 570 18 view .LVU1563
.LBE8427:
.LBE8428:
	.loc 1 122 5 is_stmt 1 view .LVU1564
	.loc 1 122 13 is_stmt 0 view .LVU1565
	movl	$2, (%rbx)
	.loc 1 124 5 is_stmt 1 view .LVU1566
	.loc 1 124 36 is_stmt 0 view .LVU1567
	movq	%rbx, %rsi
	movq	%r12, %rdi
	call	_ZNSt3mapIN3mpp9RepParser5StateENSt7__cxx1112basic_stringIcSt11char_traitsIcESaIcEEESt4lessIS2_ESaISt4pairIKS2_S8_EEEixERSC_
.LVL583:
.LBB8429:
.LBI8429:
	.loc 7 6416 5 is_stmt 1 view .LVU1568
.LBB8430:
.LBB8431:
.LBI8431:
	.loc 7 930 7 view .LVU1569
.LBB8432:
	.loc 7 931 16 is_stmt 0 view .LVU1570
	movq	8(%rax), %rdx
.LVL584:
	.loc 7 931 16 view .LVU1571
.LBE8432:
.LBE8431:
.LBB8433:
.LBI8433:
	.loc 7 2312 7 is_stmt 1 view .LVU1572
.LBB8434:
.LBI8434:
	.loc 7 186 7 view .LVU1573
.LBB8435:
	.loc 7 187 28 is_stmt 0 view .LVU1574
	movq	(%rax), %rsi
.LVL585:
	.loc 7 187 28 view .LVU1575
.LBE8435:
.LBE8434:
.LBE8433:
	.loc 7 6421 30 view .LVU1576
	movl	$_ZSt4cout, %edi
	call	_ZSt16__ostream_insertIcSt11char_traitsIcEERSt13basic_ostreamIT_T0_ES6_PKS3_l
.LVL586:
	.loc 7 6421 30 view .LVU1577
	movq	%rax, %rbp
.LVL587:
	.loc 7 6421 30 view .LVU1578
.LBE8430:
.LBE8429:
.LBB8436:
.LBI8436:
	.loc 23 108 7 is_stmt 1 view .LVU1579
.LBB8437:
.LBI8437:
	.loc 23 599 5 view .LVU1580
.LBB8438:
	.loc 23 600 19 is_stmt 0 view .LVU1581
	movq	(%rax), %rax
.LVL588:
	.loc 23 600 19 view .LVU1582
	movq	%rbp, %rcx
	addq	-24(%rax), %rcx
.LVL589:
.LBB8439:
.LBI8439:
	.loc 24 449 7 is_stmt 1 view .LVU1583
.LBB8440:
	.loc 24 450 30 is_stmt 0 view .LVU1584
	movq	240(%rcx), %rbx
.LVL590:
.LBB8441:
.LBI8441:
	.loc 24 47 5 is_stmt 1 view .LVU1585
.LBB8442:
	.loc 24 49 7 is_stmt 0 view .LVU1586
	testq	%rbx, %rbx
	je	.L431
.LVL591:
	.loc 24 49 7 view .LVU1587
.LBE8442:
.LBE8441:
.LBB8444:
.LBI8444:
	.loc 5 872 7 is_stmt 1 view .LVU1588
.LBB8445:
	.loc 5 874 2 view .LVU1589
	cmpb	$0, 56(%rbx)
	je	.L218
	.loc 5 875 4 view .LVU1590
	.loc 5 875 51 is_stmt 0 view .LVU1591
	movzbl	67(%rbx), %esi
.LVL592:
.L219:
	.loc 5 875 51 view .LVU1592
.LBE8445:
.LBE8444:
.LBE8440:
.LBE8439:
	.loc 23 600 19 view .LVU1593
	movsbl	%sil, %esi
	movq	%rbp, %rdi
	call	_ZNSo3putEc
.LVL593:
	movq	%rax, %rdi
.LVL594:
.LBB8450:
.LBI8450:
	.loc 23 621 5 is_stmt 1 view .LVU1594
.LBB8451:
	.loc 23 622 25 is_stmt 0 view .LVU1595
	call	_ZNSo5flushEv
.LVL595:
	.loc 23 622 25 view .LVU1596
.LBE8451:
.LBE8450:
.LBE8438:
.LBE8437:
.LBE8436:
	.loc 1 126 5 is_stmt 1 view .LVU1597
.LBB8455:
.LBI8455:
	.loc 25 105 13 view .LVU1598
	.loc 25 105 13 is_stmt 0 view .LVU1599
.LBE8455:
	.loc 1 126 14 view .LVU1600
	movl	$2, %r13d
	.loc 1 126 14 view .LVU1601
	jmp	.L186
.LVL596:
.L430:
.LBB8456:
.LBB8425:
.LBB8424:
.LBB8423:
.LBB8420:
.LBB8418:
.LBB8414:
	.loc 24 50 18 view .LVU1602
	call	_ZSt16__throw_bad_castv
.LVL597:
.L215:
	.loc 24 50 18 view .LVU1603
.LBE8414:
.LBE8418:
.LBB8419:
.LBB8417:
	.loc 5 876 2 is_stmt 1 view .LVU1604
	.loc 5 876 21 is_stmt 0 view .LVU1605
	movq	%r13, %rdi
	call	_ZNKSt5ctypeIcE13_M_widen_initEv
.LVL598:
	.loc 5 877 2 is_stmt 1 view .LVU1606
	.loc 5 877 27 is_stmt 0 view .LVU1607
	movq	0(%r13), %rax
	.loc 5 877 23 view .LVU1608
	movl	$10, %esi
	movq	%r13, %rdi
	call	*48(%rax)
.LVL599:
	movl	%eax, %esi
	.loc 5 877 27 view .LVU1609
	jmp	.L216
.LVL600:
.L431:
	.loc 5 877 27 view .LVU1610
.LBE8417:
.LBE8419:
.LBE8420:
.LBE8423:
.LBE8424:
.LBE8425:
.LBE8456:
.LBB8457:
.LBB8454:
.LBB8453:
.LBB8452:
.LBB8449:
.LBB8447:
.LBB8443:
	.loc 24 50 18 view .LVU1611
	call	_ZSt16__throw_bad_castv
.LVL601:
.L218:
	.loc 24 50 18 view .LVU1612
.LBE8443:
.LBE8447:
.LBB8448:
.LBB8446:
	.loc 5 876 2 is_stmt 1 view .LVU1613
	.loc 5 876 21 is_stmt 0 view .LVU1614
	movq	%rbx, %rdi
	call	_ZNKSt5ctypeIcE13_M_widen_initEv
.LVL602:
	.loc 5 877 2 is_stmt 1 view .LVU1615
	.loc 5 877 27 is_stmt 0 view .LVU1616
	movq	(%rbx), %rax
	.loc 5 877 23 view .LVU1617
	movl	$10, %esi
	movq	%rbx, %rdi
	call	*48(%rax)
.LVL603:
	movl	%eax, %esi
	.loc 5 877 27 view .LVU1618
	jmp	.L219
.LVL604:
.L429:
	.loc 5 877 27 view .LVU1619
.LBE8446:
.LBE8448:
.LBE8449:
.LBE8452:
.LBE8453:
.LBE8454:
.LBE8457:
.LBB8458:
.LBB8397:
.LBB8396:
.LBB8395:
.LBB8392:
.LBB8390:
.LBB8386:
	.loc 24 50 18 view .LVU1620
	call	_ZSt16__throw_bad_castv
.LVL605:
.L223:
	.loc 24 50 18 view .LVU1621
.LBE8386:
.LBE8390:
.LBB8391:
.LBB8389:
	.loc 5 876 2 is_stmt 1 view .LVU1622
	.loc 5 876 21 is_stmt 0 view .LVU1623
	movq	%rbp, %rdi
	call	_ZNKSt5ctypeIcE13_M_widen_initEv
.LVL606:
	.loc 5 877 2 is_stmt 1 view .LVU1624
	.loc 5 877 27 is_stmt 0 view .LVU1625
	movq	0(%rbp), %rax
	.loc 5 877 23 view .LVU1626
	movl	$10, %esi
	movq	%rbp, %rdi
	call	*48(%rax)
.LVL607:
	movl	%eax, %esi
	.loc 5 877 27 view .LVU1627
	jmp	.L224
.LVL608:
.L198:
	.loc 5 877 27 view .LVU1628
.LBE8389:
.LBE8391:
.LBE8392:
.LBE8395:
.LBE8396:
.LBE8397:
.LBE8458:
	.loc 1 140 3 is_stmt 1 view .LVU1629
	.loc 1 141 3 view .LVU1630
	.loc 1 142 4 view .LVU1631
	cmpb	$80, 12(%rsp)
	je	.L432
	.loc 1 158 5 view .LVU1632
.LVL609:
.LBB8459:
.LBI8459:
	.loc 23 565 5 view .LVU1633
	.loc 23 565 5 is_stmt 0 view .LVU1634
.LBE8459:
.LBE10119:
.LBE10204:
	.loc 13 332 2 is_stmt 1 view .LVU1635
	.loc 13 335 2 view .LVU1636
.LBB10205:
.LBB10120:
.LBB8461:
.LBB8460:
	.loc 23 570 18 is_stmt 0 view .LVU1637
	movl	$35, %edx
	movl	$.LC8, %esi
	movl	$_ZSt4cout, %edi
	call	_ZSt16__ostream_insertIcSt11char_traitsIcEERSt13basic_ostreamIT_T0_ES6_PKS3_l
.LVL610:
	.loc 23 570 18 view .LVU1638
.LBE8460:
.LBE8461:
	.loc 1 158 112 view .LVU1639
	movzbl	12(%rsp), %eax
.LVL611:
	.loc 1 158 112 view .LVU1640
	movb	%al, 32(%rsp)
.LVL612:
.LBB8462:
.LBI8462:
	.loc 23 517 5 is_stmt 1 view .LVU1641
.LBB8463:
	.loc 23 518 30 is_stmt 0 view .LVU1642
	movl	$1, %edx
	leaq	32(%rsp), %rsi
	movl	$_ZSt4cout, %edi
	call	_ZSt16__ostream_insertIcSt11char_traitsIcEERSt13basic_ostreamIT_T0_ES6_PKS3_l
.LVL613:
	.loc 23 518 30 view .LVU1643
	movq	%rax, %rbp
.LVL614:
	.loc 23 518 30 view .LVU1644
.LBE8463:
.LBE8462:
.LBB8464:
.LBI8464:
	.loc 23 565 5 is_stmt 1 view .LVU1645
	.loc 23 565 5 is_stmt 0 view .LVU1646
.LBE8464:
.LBE10120:
.LBE10205:
	.loc 13 332 2 is_stmt 1 view .LVU1647
	.loc 13 335 2 view .LVU1648
.LBB10206:
.LBB10121:
.LBB8466:
.LBB8465:
	.loc 23 570 18 is_stmt 0 view .LVU1649
	movl	$20, %edx
	movl	$.LC9, %esi
	movq	%rax, %rdi
	call	_ZSt16__ostream_insertIcSt11char_traitsIcEERSt13basic_ostreamIT_T0_ES6_PKS3_l
.LVL615:
	.loc 23 570 18 view .LVU1650
.LBE8465:
.LBE8466:
.LBB8467:
.LBI8467:
	.loc 22 490 7 is_stmt 1 view .LVU1651
.LBB8468:
.LBB8469:
.LBI8469:
	.loc 22 1257 7 view .LVU1652
.LBB8470:
.LBB8471:
.LBI8471:
	.loc 6 1281 7 view .LVU1653
.LBB8472:
.LBB8473:
.LBI8473:
	.loc 6 755 7 view .LVU1654
.LBB8474:
	.loc 6 756 31 is_stmt 0 view .LVU1655
	leaq	8(%r12), %r13
.LVL616:
	.loc 6 756 31 view .LVU1656
.LBE8474:
.LBE8473:
.LBB8475:
.LBI8475:
	.loc 6 744 7 is_stmt 1 view .LVU1657
.LBB8476:
	.loc 6 745 73 is_stmt 0 view .LVU1658
	movq	16(%r12), %rsi
.LVL617:
	.loc 6 745 73 view .LVU1659
.LBE8476:
.LBE8475:
	.loc 6 1282 56 view .LVU1660
	movq	%rbx, %rcx
	movq	%r13, %rdx
	movq	%r12, %rdi
	call	_ZNSt8_Rb_treeIN3mpp9RepParser5StateESt4pairIKS2_NSt7__cxx1112basic_stringIcSt11char_traitsIcESaIcEEEESt10_Select1stISB_ESt4lessIS2_ESaISB_EE14_M_lower_boundEPSt13_Rb_tree_nodeISB_EPSt18_Rb_tree_node_baseRS4_
.LVL618:
	.loc 6 1282 56 view .LVU1661
.LBE8472:
.LBE8471:
.LBE8470:
.LBE8469:
	.loc 22 495 11 view .LVU1662
	movq	%rax, %rdx
.LVL619:
.LBB8477:
.LBI8477:
	.loc 22 372 7 is_stmt 1 view .LVU1663
.LBB8478:
.LBI8478:
	.loc 6 1014 7 view .LVU1664
.LBB8479:
.LBI8479:
	.loc 6 273 7 view .LVU1665
	.loc 6 273 7 is_stmt 0 view .LVU1666
.LBE8479:
.LBE8478:
.LBE8477:
.LBB8480:
.LBI8480:
	.loc 6 315 7 is_stmt 1 view .LVU1667
.LBB8481:
	.loc 6 316 20 is_stmt 0 view .LVU1668
	movq	%rax, %rsi
.LVL620:
	.loc 6 316 20 view .LVU1669
.LBE8481:
.LBE8480:
	.loc 22 497 19 view .LVU1670
	cmpq	%rax, %r13
	je	.L232
.LVL621:
.LBB8482:
.LBI8482:
	.loc 17 385 7 is_stmt 1 view .LVU1671
	.loc 17 385 7 is_stmt 0 view .LVU1672
.LBE8482:
	.loc 22 497 19 view .LVU1673
	movl	32(%rax), %eax
	cmpl	%eax, (%rbx)
	jge	.L233
.L232:
.LVL622:
.LBB8483:
.LBI8483:
	.loc 21 588 19 is_stmt 1 view .LVU1674
.LBB8484:
.LBI8484:
	.loc 21 343 17 view .LVU1675
.LBB8485:
.LBI8485:
	.loc 21 125 17 view .LVU1676
.LBB8486:
.LBB8487:
	.loc 21 126 25 is_stmt 0 view .LVU1677
	movq	%rbx, 128(%rsp)
.LVL623:
	.loc 21 126 25 view .LVU1678
.LBE8487:
.LBE8486:
.LBE8485:
.LBE8484:
.LBE8483:
.LBB8488:
.LBI8488:
	.loc 6 348 7 is_stmt 1 view .LVU1679
	.loc 6 348 7 is_stmt 0 view .LVU1680
.LBE8488:
	.loc 22 499 8 view .LVU1681
	leaq	127(%rsp), %r8
	leaq	128(%rsp), %rcx
	movl	$_ZSt19piecewise_construct, %edx
	movq	%r12, %rdi
	call	_ZNSt8_Rb_treeIN3mpp9RepParser5StateESt4pairIKS2_NSt7__cxx1112basic_stringIcSt11char_traitsIcESaIcEEEESt10_Select1stISB_ESt4lessIS2_ESaISB_EE22_M_emplace_hint_uniqueIJRKSt21piecewise_construct_tSt5tupleIJRS4_EESM_IJEEEEESt17_Rb_tree_iteratorISB_ESt23_Rb_tree_const_iteratorISB_EDpOT_
.LVL624:
	movq	%rax, %rdx
.L233:
.LVL625:
.LBB8489:
.LBI8489:
	.loc 6 277 7 is_stmt 1 view .LVU1682
	.loc 6 277 7 is_stmt 0 view .LVU1683
.LBE8489:
.LBE8468:
.LBE8467:
.LBB8490:
.LBI8490:
	.loc 7 6416 5 is_stmt 1 view .LVU1684
.LBB8491:
.LBB8492:
.LBI8492:
	.loc 7 930 7 view .LVU1685
.LBB8493:
	.loc 7 931 16 is_stmt 0 view .LVU1686
	movq	48(%rdx), %rax
.LVL626:
	.loc 7 931 16 view .LVU1687
.LBE8493:
.LBE8492:
.LBB8494:
.LBI8494:
	.loc 7 2312 7 is_stmt 1 view .LVU1688
.LBB8495:
.LBI8495:
	.loc 7 186 7 view .LVU1689
.LBB8496:
	.loc 7 187 28 is_stmt 0 view .LVU1690
	movq	40(%rdx), %rsi
.LVL627:
	.loc 7 187 28 view .LVU1691
.LBE8496:
.LBE8495:
.LBE8494:
	.loc 7 6421 30 view .LVU1692
	movq	%rax, %rdx
.LVL628:
	.loc 7 6421 30 view .LVU1693
	movq	%rbp, %rdi
	call	_ZSt16__ostream_insertIcSt11char_traitsIcEERSt13basic_ostreamIT_T0_ES6_PKS3_l
.LVL629:
	movq	%rax, %rbx
.LVL630:
	.loc 7 6421 30 view .LVU1694
.LBE8491:
.LBE8490:
.LBB8497:
.LBI8497:
	.loc 23 108 7 is_stmt 1 view .LVU1695
.LBB8498:
.LBI8498:
	.loc 23 599 5 view .LVU1696
.LBB8499:
	.loc 23 600 19 is_stmt 0 view .LVU1697
	movq	(%rax), %rax
.LVL631:
	.loc 23 600 19 view .LVU1698
	movq	%rbx, %rcx
	addq	-24(%rax), %rcx
.LVL632:
.LBB8500:
.LBI8500:
	.loc 24 449 7 is_stmt 1 view .LVU1699
.LBB8501:
	.loc 24 450 30 is_stmt 0 view .LVU1700
	movq	240(%rcx), %rbp
.LVL633:
.LBB8502:
.LBI8502:
	.loc 24 47 5 is_stmt 1 view .LVU1701
.LBB8503:
	.loc 24 49 7 is_stmt 0 view .LVU1702
	testq	%rbp, %rbp
	je	.L433
.LVL634:
	.loc 24 49 7 view .LVU1703
.LBE8503:
.LBE8502:
.LBB8505:
.LBI8505:
	.loc 5 872 7 is_stmt 1 view .LVU1704
.LBB8506:
	.loc 5 874 2 view .LVU1705
	cmpb	$0, 56(%rbp)
	je	.L235
	.loc 5 875 4 view .LVU1706
	.loc 5 875 51 is_stmt 0 view .LVU1707
	movzbl	67(%rbp), %esi
.LVL635:
.L236:
	.loc 5 875 51 view .LVU1708
.LBE8506:
.LBE8505:
.LBE8501:
.LBE8500:
	.loc 23 600 19 view .LVU1709
	movsbl	%sil, %esi
	movq	%rbx, %rdi
	call	_ZNSo3putEc
.LVL636:
	movq	%rax, %rdi
.LVL637:
.LBB8511:
.LBI8511:
	.loc 23 621 5 is_stmt 1 view .LVU1710
.LBB8512:
	.loc 23 622 25 is_stmt 0 view .LVU1711
	call	_ZNSo5flushEv
.LVL638:
	.loc 23 622 25 view .LVU1712
.LBE8512:
.LBE8511:
.LBE8499:
.LBE8498:
.LBE8497:
	.loc 1 160 5 is_stmt 1 view .LVU1713
.LBB8516:
.LBI8516:
	.loc 25 98 13 view .LVU1714
	.loc 25 98 13 is_stmt 0 view .LVU1715
.LBE8516:
	.loc 1 160 14 view .LVU1716
	movl	$0, %r13d
	.loc 1 160 14 view .LVU1717
	jmp	.L186
.LVL639:
.L432:
	.loc 1 145 5 is_stmt 1 view .LVU1718
.LBB8517:
.LBI8517:
	.loc 23 565 5 view .LVU1719
	.loc 23 565 5 is_stmt 0 view .LVU1720
.LBE8517:
.LBE10121:
.LBE10206:
	.loc 13 332 2 is_stmt 1 view .LVU1721
	.loc 13 335 2 view .LVU1722
.LBB10207:
.LBB10122:
.LBB8519:
.LBB8518:
	.loc 23 570 18 is_stmt 0 view .LVU1723
	movl	$41, %edx
	movl	$.LC12, %esi
	movl	$_ZSt4cout, %edi
	call	_ZSt16__ostream_insertIcSt11char_traitsIcEERSt13basic_ostreamIT_T0_ES6_PKS3_l
.LVL640:
	.loc 23 570 18 view .LVU1724
.LBE8518:
.LBE8519:
	.loc 1 145 74 view .LVU1725
	movzbl	12(%rsp), %eax
.LVL641:
	.loc 1 145 74 view .LVU1726
	movb	%al, 32(%rsp)
.LVL642:
.LBB8520:
.LBI8520:
	.loc 23 517 5 is_stmt 1 view .LVU1727
.LBB8521:
	.loc 23 518 30 is_stmt 0 view .LVU1728
	movl	$1, %edx
	leaq	32(%rsp), %rsi
	movl	$_ZSt4cout, %edi
	call	_ZSt16__ostream_insertIcSt11char_traitsIcEERSt13basic_ostreamIT_T0_ES6_PKS3_l
.LVL643:
	.loc 23 518 30 view .LVU1729
	movq	%rax, %rbp
.LVL644:
	.loc 23 518 30 view .LVU1730
.LBE8521:
.LBE8520:
.LBB8522:
.LBI8522:
	.loc 23 565 5 is_stmt 1 view .LVU1731
	.loc 23 565 5 is_stmt 0 view .LVU1732
.LBE8522:
.LBE10122:
.LBE10207:
	.loc 13 332 2 is_stmt 1 view .LVU1733
	.loc 13 335 2 view .LVU1734
.LBB10208:
.LBB10123:
.LBB8524:
.LBB8523:
	.loc 23 570 18 is_stmt 0 view .LVU1735
	movl	$15, %edx
	movl	$.LC11, %esi
	movq	%rax, %rdi
	call	_ZSt16__ostream_insertIcSt11char_traitsIcEERSt13basic_ostreamIT_T0_ES6_PKS3_l
.LVL645:
	.loc 23 570 18 view .LVU1736
.LBE8523:
.LBE8524:
.LBB8525:
.LBI8525:
	.loc 23 108 7 is_stmt 1 view .LVU1737
.LBB8526:
.LBI8526:
	.loc 23 599 5 view .LVU1738
.LBB8527:
	.loc 23 600 19 is_stmt 0 view .LVU1739
	movq	0(%rbp), %rax
	movq	%rbp, %rcx
	addq	-24(%rax), %rcx
.LVL646:
.LBB8528:
.LBI8528:
	.loc 24 449 7 is_stmt 1 view .LVU1740
.LBB8529:
	.loc 24 450 30 is_stmt 0 view .LVU1741
	movq	240(%rcx), %r13
.LVL647:
.LBB8530:
.LBI8530:
	.loc 24 47 5 is_stmt 1 view .LVU1742
.LBB8531:
	.loc 24 49 7 is_stmt 0 view .LVU1743
	testq	%r13, %r13
	je	.L434
.LVL648:
	.loc 24 49 7 view .LVU1744
.LBE8531:
.LBE8530:
.LBB8533:
.LBI8533:
	.loc 5 872 7 is_stmt 1 view .LVU1745
.LBB8534:
	.loc 5 874 2 view .LVU1746
	cmpb	$0, 56(%r13)
	je	.L227
	.loc 5 875 4 view .LVU1747
	.loc 5 875 51 is_stmt 0 view .LVU1748
	movzbl	67(%r13), %esi
.LVL649:
.L228:
	.loc 5 875 51 view .LVU1749
.LBE8534:
.LBE8533:
.LBE8529:
.LBE8528:
	.loc 23 600 19 view .LVU1750
	movsbl	%sil, %esi
	movq	%rbp, %rdi
	call	_ZNSo3putEc
.LVL650:
	movq	%rax, %rdi
.LVL651:
.LBB8539:
.LBI8539:
	.loc 23 621 5 is_stmt 1 view .LVU1751
.LBB8540:
	.loc 23 622 25 is_stmt 0 view .LVU1752
	call	_ZNSo5flushEv
.LVL652:
	.loc 23 622 25 view .LVU1753
	movq	%rax, %rdi
.LVL653:
	.loc 23 622 25 view .LVU1754
.LBE8540:
.LBE8539:
.LBE8527:
.LBE8526:
.LBE8525:
.LBB8544:
.LBI8544:
	.loc 23 565 5 is_stmt 1 view .LVU1755
	.loc 23 565 5 is_stmt 0 view .LVU1756
.LBE8544:
.LBE10123:
.LBE10208:
	.loc 13 332 2 is_stmt 1 view .LVU1757
	.loc 13 335 2 view .LVU1758
.LBB10209:
.LBB10124:
.LBB8546:
.LBB8545:
	.loc 23 570 18 is_stmt 0 view .LVU1759
	movl	$16, %edx
	movl	$.LC7, %esi
	call	_ZSt16__ostream_insertIcSt11char_traitsIcEERSt13basic_ostreamIT_T0_ES6_PKS3_l
.LVL654:
	.loc 23 570 18 view .LVU1760
.LBE8545:
.LBE8546:
	.loc 1 148 5 is_stmt 1 view .LVU1761
	.loc 1 148 13 is_stmt 0 view .LVU1762
	movl	$3, (%rbx)
	.loc 1 150 5 is_stmt 1 view .LVU1763
	.loc 1 150 36 is_stmt 0 view .LVU1764
	movq	%rbx, %rsi
	movq	%r12, %rdi
	call	_ZNSt3mapIN3mpp9RepParser5StateENSt7__cxx1112basic_stringIcSt11char_traitsIcESaIcEEESt4lessIS2_ESaISt4pairIKS2_S8_EEEixERSC_
.LVL655:
.LBB8547:
.LBI8547:
	.loc 7 6416 5 is_stmt 1 view .LVU1765
.LBB8548:
.LBB8549:
.LBI8549:
	.loc 7 930 7 view .LVU1766
.LBB8550:
	.loc 7 931 16 is_stmt 0 view .LVU1767
	movq	8(%rax), %rdx
.LVL656:
	.loc 7 931 16 view .LVU1768
.LBE8550:
.LBE8549:
.LBB8551:
.LBI8551:
	.loc 7 2312 7 is_stmt 1 view .LVU1769
.LBB8552:
.LBI8552:
	.loc 7 186 7 view .LVU1770
.LBB8553:
	.loc 7 187 28 is_stmt 0 view .LVU1771
	movq	(%rax), %rsi
.LVL657:
	.loc 7 187 28 view .LVU1772
.LBE8553:
.LBE8552:
.LBE8551:
	.loc 7 6421 30 view .LVU1773
	movl	$_ZSt4cout, %edi
	call	_ZSt16__ostream_insertIcSt11char_traitsIcEERSt13basic_ostreamIT_T0_ES6_PKS3_l
.LVL658:
	.loc 7 6421 30 view .LVU1774
	movq	%rax, %rbp
.LVL659:
	.loc 7 6421 30 view .LVU1775
.LBE8548:
.LBE8547:
.LBB8554:
.LBI8554:
	.loc 23 108 7 is_stmt 1 view .LVU1776
.LBB8555:
.LBI8555:
	.loc 23 599 5 view .LVU1777
.LBB8556:
	.loc 23 600 19 is_stmt 0 view .LVU1778
	movq	(%rax), %rax
.LVL660:
	.loc 23 600 19 view .LVU1779
	movq	%rbp, %rcx
	addq	-24(%rax), %rcx
.LVL661:
.LBB8557:
.LBI8557:
	.loc 24 449 7 is_stmt 1 view .LVU1780
.LBB8558:
	.loc 24 450 30 is_stmt 0 view .LVU1781
	movq	240(%rcx), %rbx
.LVL662:
.LBB8559:
.LBI8559:
	.loc 24 47 5 is_stmt 1 view .LVU1782
.LBB8560:
	.loc 24 49 7 is_stmt 0 view .LVU1783
	testq	%rbx, %rbx
	je	.L435
.LVL663:
	.loc 24 49 7 view .LVU1784
.LBE8560:
.LBE8559:
.LBB8562:
.LBI8562:
	.loc 5 872 7 is_stmt 1 view .LVU1785
.LBB8563:
	.loc 5 874 2 view .LVU1786
	cmpb	$0, 56(%rbx)
	je	.L230
	.loc 5 875 4 view .LVU1787
	.loc 5 875 51 is_stmt 0 view .LVU1788
	movzbl	67(%rbx), %esi
.LVL664:
.L231:
	.loc 5 875 51 view .LVU1789
.LBE8563:
.LBE8562:
.LBE8558:
.LBE8557:
	.loc 23 600 19 view .LVU1790
	movsbl	%sil, %esi
	movq	%rbp, %rdi
	call	_ZNSo3putEc
.LVL665:
	movq	%rax, %rdi
.LVL666:
.LBB8568:
.LBI8568:
	.loc 23 621 5 is_stmt 1 view .LVU1791
.LBB8569:
	.loc 23 622 25 is_stmt 0 view .LVU1792
	call	_ZNSo5flushEv
.LVL667:
	.loc 23 622 25 view .LVU1793
.LBE8569:
.LBE8568:
.LBE8556:
.LBE8555:
.LBE8554:
	.loc 1 152 5 is_stmt 1 view .LVU1794
.LBB8573:
.LBI8573:
	.loc 25 105 13 view .LVU1795
	.loc 25 105 13 is_stmt 0 view .LVU1796
.LBE8573:
	.loc 1 152 14 view .LVU1797
	movl	$2, %r13d
	.loc 1 152 14 view .LVU1798
	jmp	.L186
.LVL668:
.L434:
.LBB8574:
.LBB8543:
.LBB8542:
.LBB8541:
.LBB8538:
.LBB8536:
.LBB8532:
	.loc 24 50 18 view .LVU1799
	call	_ZSt16__throw_bad_castv
.LVL669:
.L227:
	.loc 24 50 18 view .LVU1800
.LBE8532:
.LBE8536:
.LBB8537:
.LBB8535:
	.loc 5 876 2 is_stmt 1 view .LVU1801
	.loc 5 876 21 is_stmt 0 view .LVU1802
	movq	%r13, %rdi
	call	_ZNKSt5ctypeIcE13_M_widen_initEv
.LVL670:
	.loc 5 877 2 is_stmt 1 view .LVU1803
	.loc 5 877 27 is_stmt 0 view .LVU1804
	movq	0(%r13), %rax
	.loc 5 877 23 view .LVU1805
	movl	$10, %esi
	movq	%r13, %rdi
	call	*48(%rax)
.LVL671:
	movl	%eax, %esi
	.loc 5 877 27 view .LVU1806
	jmp	.L228
.LVL672:
.L435:
	.loc 5 877 27 view .LVU1807
.LBE8535:
.LBE8537:
.LBE8538:
.LBE8541:
.LBE8542:
.LBE8543:
.LBE8574:
.LBB8575:
.LBB8572:
.LBB8571:
.LBB8570:
.LBB8567:
.LBB8565:
.LBB8561:
	.loc 24 50 18 view .LVU1808
	call	_ZSt16__throw_bad_castv
.LVL673:
.L230:
	.loc 24 50 18 view .LVU1809
.LBE8561:
.LBE8565:
.LBB8566:
.LBB8564:
	.loc 5 876 2 is_stmt 1 view .LVU1810
	.loc 5 876 21 is_stmt 0 view .LVU1811
	movq	%rbx, %rdi
	call	_ZNKSt5ctypeIcE13_M_widen_initEv
.LVL674:
	.loc 5 877 2 is_stmt 1 view .LVU1812
	.loc 5 877 27 is_stmt 0 view .LVU1813
	movq	(%rbx), %rax
	.loc 5 877 23 view .LVU1814
	movl	$10, %esi
	movq	%rbx, %rdi
	call	*48(%rax)
.LVL675:
	movl	%eax, %esi
	.loc 5 877 27 view .LVU1815
	jmp	.L231
.LVL676:
.L433:
	.loc 5 877 27 view .LVU1816
.LBE8564:
.LBE8566:
.LBE8567:
.LBE8570:
.LBE8571:
.LBE8572:
.LBE8575:
.LBB8576:
.LBB8515:
.LBB8514:
.LBB8513:
.LBB8510:
.LBB8508:
.LBB8504:
	.loc 24 50 18 view .LVU1817
	call	_ZSt16__throw_bad_castv
.LVL677:
.L235:
	.loc 24 50 18 view .LVU1818
.LBE8504:
.LBE8508:
.LBB8509:
.LBB8507:
	.loc 5 876 2 is_stmt 1 view .LVU1819
	.loc 5 876 21 is_stmt 0 view .LVU1820
	movq	%rbp, %rdi
	call	_ZNKSt5ctypeIcE13_M_widen_initEv
.LVL678:
	.loc 5 877 2 is_stmt 1 view .LVU1821
	.loc 5 877 27 is_stmt 0 view .LVU1822
	movq	0(%rbp), %rax
	.loc 5 877 23 view .LVU1823
	movl	$10, %esi
	movq	%rbp, %rdi
	call	*48(%rax)
.LVL679:
	movl	%eax, %esi
	.loc 5 877 27 view .LVU1824
	jmp	.L236
.LVL680:
.L197:
	.loc 5 877 27 view .LVU1825
.LBE8507:
.LBE8509:
.LBE8510:
.LBE8513:
.LBE8514:
.LBE8515:
.LBE8576:
	.loc 1 166 3 is_stmt 1 view .LVU1826
	.loc 1 167 3 view .LVU1827
	.loc 1 168 4 view .LVU1828
	cmpb	$47, 12(%rsp)
	je	.L436
	.loc 1 187 5 view .LVU1829
.LVL681:
.LBB8577:
.LBI8577:
	.loc 23 565 5 view .LVU1830
	.loc 23 565 5 is_stmt 0 view .LVU1831
.LBE8577:
.LBE10124:
.LBE10209:
	.loc 13 332 2 is_stmt 1 view .LVU1832
	.loc 13 335 2 view .LVU1833
.LBB10210:
.LBB10125:
.LBB8579:
.LBB8578:
	.loc 23 570 18 is_stmt 0 view .LVU1834
	movl	$35, %edx
	movl	$.LC8, %esi
	movl	$_ZSt4cout, %edi
	call	_ZSt16__ostream_insertIcSt11char_traitsIcEERSt13basic_ostreamIT_T0_ES6_PKS3_l
.LVL682:
	.loc 23 570 18 view .LVU1835
.LBE8578:
.LBE8579:
	.loc 1 187 112 view .LVU1836
	movzbl	12(%rsp), %eax
.LVL683:
	.loc 1 187 112 view .LVU1837
	movb	%al, 32(%rsp)
.LVL684:
.LBB8580:
.LBI8580:
	.loc 23 517 5 is_stmt 1 view .LVU1838
.LBB8581:
	.loc 23 518 30 is_stmt 0 view .LVU1839
	movl	$1, %edx
	leaq	32(%rsp), %rsi
	movl	$_ZSt4cout, %edi
	call	_ZSt16__ostream_insertIcSt11char_traitsIcEERSt13basic_ostreamIT_T0_ES6_PKS3_l
.LVL685:
	.loc 23 518 30 view .LVU1840
	movq	%rax, %rbp
.LVL686:
	.loc 23 518 30 view .LVU1841
.LBE8581:
.LBE8580:
.LBB8582:
.LBI8582:
	.loc 23 565 5 is_stmt 1 view .LVU1842
	.loc 23 565 5 is_stmt 0 view .LVU1843
.LBE8582:
.LBE10125:
.LBE10210:
	.loc 13 332 2 is_stmt 1 view .LVU1844
	.loc 13 335 2 view .LVU1845
.LBB10211:
.LBB10126:
.LBB8584:
.LBB8583:
	.loc 23 570 18 is_stmt 0 view .LVU1846
	movl	$20, %edx
	movl	$.LC9, %esi
	movq	%rax, %rdi
	call	_ZSt16__ostream_insertIcSt11char_traitsIcEERSt13basic_ostreamIT_T0_ES6_PKS3_l
.LVL687:
	.loc 23 570 18 view .LVU1847
.LBE8583:
.LBE8584:
.LBB8585:
.LBI8585:
	.loc 22 490 7 is_stmt 1 view .LVU1848
.LBB8586:
.LBB8587:
.LBI8587:
	.loc 22 1257 7 view .LVU1849
.LBB8588:
.LBB8589:
.LBI8589:
	.loc 6 1281 7 view .LVU1850
.LBB8590:
.LBB8591:
.LBI8591:
	.loc 6 755 7 view .LVU1851
.LBB8592:
	.loc 6 756 31 is_stmt 0 view .LVU1852
	leaq	8(%r12), %r13
.LVL688:
	.loc 6 756 31 view .LVU1853
.LBE8592:
.LBE8591:
.LBB8593:
.LBI8593:
	.loc 6 744 7 is_stmt 1 view .LVU1854
.LBB8594:
	.loc 6 745 73 is_stmt 0 view .LVU1855
	movq	16(%r12), %rsi
.LVL689:
	.loc 6 745 73 view .LVU1856
.LBE8594:
.LBE8593:
	.loc 6 1282 56 view .LVU1857
	movq	%rbx, %rcx
	movq	%r13, %rdx
	movq	%r12, %rdi
	call	_ZNSt8_Rb_treeIN3mpp9RepParser5StateESt4pairIKS2_NSt7__cxx1112basic_stringIcSt11char_traitsIcESaIcEEEESt10_Select1stISB_ESt4lessIS2_ESaISB_EE14_M_lower_boundEPSt13_Rb_tree_nodeISB_EPSt18_Rb_tree_node_baseRS4_
.LVL690:
	.loc 6 1282 56 view .LVU1858
.LBE8590:
.LBE8589:
.LBE8588:
.LBE8587:
	.loc 22 495 11 view .LVU1859
	movq	%rax, %rdx
.LVL691:
.LBB8595:
.LBI8595:
	.loc 22 372 7 is_stmt 1 view .LVU1860
.LBB8596:
.LBI8596:
	.loc 6 1014 7 view .LVU1861
.LBB8597:
.LBI8597:
	.loc 6 273 7 view .LVU1862
	.loc 6 273 7 is_stmt 0 view .LVU1863
.LBE8597:
.LBE8596:
.LBE8595:
.LBB8598:
.LBI8598:
	.loc 6 315 7 is_stmt 1 view .LVU1864
.LBB8599:
	.loc 6 316 20 is_stmt 0 view .LVU1865
	movq	%rax, %rsi
.LVL692:
	.loc 6 316 20 view .LVU1866
.LBE8599:
.LBE8598:
	.loc 22 497 19 view .LVU1867
	cmpq	%rax, %r13
	je	.L245
.LVL693:
.LBB8600:
.LBI8600:
	.loc 17 385 7 is_stmt 1 view .LVU1868
	.loc 17 385 7 is_stmt 0 view .LVU1869
.LBE8600:
	.loc 22 497 19 view .LVU1870
	movl	32(%rax), %eax
	cmpl	%eax, (%rbx)
	jge	.L246
.L245:
.LVL694:
.LBB8601:
.LBI8601:
	.loc 21 588 19 is_stmt 1 view .LVU1871
.LBB8602:
.LBI8602:
	.loc 21 343 17 view .LVU1872
.LBB8603:
.LBI8603:
	.loc 21 125 17 view .LVU1873
.LBB8604:
.LBB8605:
	.loc 21 126 25 is_stmt 0 view .LVU1874
	movq	%rbx, 144(%rsp)
.LVL695:
	.loc 21 126 25 view .LVU1875
.LBE8605:
.LBE8604:
.LBE8603:
.LBE8602:
.LBE8601:
.LBB8606:
.LBI8606:
	.loc 6 348 7 is_stmt 1 view .LVU1876
	.loc 6 348 7 is_stmt 0 view .LVU1877
.LBE8606:
	.loc 22 499 8 view .LVU1878
	leaq	143(%rsp), %r8
	leaq	144(%rsp), %rcx
	movl	$_ZSt19piecewise_construct, %edx
	movq	%r12, %rdi
	call	_ZNSt8_Rb_treeIN3mpp9RepParser5StateESt4pairIKS2_NSt7__cxx1112basic_stringIcSt11char_traitsIcESaIcEEEESt10_Select1stISB_ESt4lessIS2_ESaISB_EE22_M_emplace_hint_uniqueIJRKSt21piecewise_construct_tSt5tupleIJRS4_EESM_IJEEEEESt17_Rb_tree_iteratorISB_ESt23_Rb_tree_const_iteratorISB_EDpOT_
.LVL696:
	movq	%rax, %rdx
.L246:
.LVL697:
.LBB8607:
.LBI8607:
	.loc 6 277 7 is_stmt 1 view .LVU1879
	.loc 6 277 7 is_stmt 0 view .LVU1880
.LBE8607:
.LBE8586:
.LBE8585:
.LBB8608:
.LBI8608:
	.loc 7 6416 5 is_stmt 1 view .LVU1881
.LBB8609:
.LBB8610:
.LBI8610:
	.loc 7 930 7 view .LVU1882
.LBB8611:
	.loc 7 931 16 is_stmt 0 view .LVU1883
	movq	48(%rdx), %rax
.LVL698:
	.loc 7 931 16 view .LVU1884
.LBE8611:
.LBE8610:
.LBB8612:
.LBI8612:
	.loc 7 2312 7 is_stmt 1 view .LVU1885
.LBB8613:
.LBI8613:
	.loc 7 186 7 view .LVU1886
.LBB8614:
	.loc 7 187 28 is_stmt 0 view .LVU1887
	movq	40(%rdx), %rsi
.LVL699:
	.loc 7 187 28 view .LVU1888
.LBE8614:
.LBE8613:
.LBE8612:
	.loc 7 6421 30 view .LVU1889
	movq	%rax, %rdx
.LVL700:
	.loc 7 6421 30 view .LVU1890
	movq	%rbp, %rdi
	call	_ZSt16__ostream_insertIcSt11char_traitsIcEERSt13basic_ostreamIT_T0_ES6_PKS3_l
.LVL701:
	movq	%rax, %rbx
.LVL702:
	.loc 7 6421 30 view .LVU1891
.LBE8609:
.LBE8608:
.LBB8615:
.LBI8615:
	.loc 23 108 7 is_stmt 1 view .LVU1892
.LBB8616:
.LBI8616:
	.loc 23 599 5 view .LVU1893
.LBB8617:
	.loc 23 600 19 is_stmt 0 view .LVU1894
	movq	(%rax), %rax
.LVL703:
	.loc 23 600 19 view .LVU1895
	movq	%rbx, %rcx
	addq	-24(%rax), %rcx
.LVL704:
.LBB8618:
.LBI8618:
	.loc 24 449 7 is_stmt 1 view .LVU1896
.LBB8619:
	.loc 24 450 30 is_stmt 0 view .LVU1897
	movq	240(%rcx), %rbp
.LVL705:
.LBB8620:
.LBI8620:
	.loc 24 47 5 is_stmt 1 view .LVU1898
.LBB8621:
	.loc 24 49 7 is_stmt 0 view .LVU1899
	testq	%rbp, %rbp
	je	.L437
.LVL706:
	.loc 24 49 7 view .LVU1900
.LBE8621:
.LBE8620:
.LBB8623:
.LBI8623:
	.loc 5 872 7 is_stmt 1 view .LVU1901
.LBB8624:
	.loc 5 874 2 view .LVU1902
	cmpb	$0, 56(%rbp)
	je	.L248
	.loc 5 875 4 view .LVU1903
	.loc 5 875 51 is_stmt 0 view .LVU1904
	movzbl	67(%rbp), %esi
.LVL707:
.L249:
	.loc 5 875 51 view .LVU1905
.LBE8624:
.LBE8623:
.LBE8619:
.LBE8618:
	.loc 23 600 19 view .LVU1906
	movsbl	%sil, %esi
	movq	%rbx, %rdi
	call	_ZNSo3putEc
.LVL708:
	movq	%rax, %rdi
.LVL709:
.LBB8629:
.LBI8629:
	.loc 23 621 5 is_stmt 1 view .LVU1907
.LBB8630:
	.loc 23 622 25 is_stmt 0 view .LVU1908
	call	_ZNSo5flushEv
.LVL710:
	.loc 23 622 25 view .LVU1909
.LBE8630:
.LBE8629:
.LBE8617:
.LBE8616:
.LBE8615:
	.loc 1 189 5 is_stmt 1 view .LVU1910
.LBB8634:
.LBI8634:
	.loc 25 98 13 view .LVU1911
	.loc 25 98 13 is_stmt 0 view .LVU1912
.LBE8634:
	.loc 1 189 14 view .LVU1913
	movl	$0, %r13d
	.loc 1 189 14 view .LVU1914
	jmp	.L186
.LVL711:
.L436:
	.loc 1 171 5 is_stmt 1 view .LVU1915
.LBB8635:
.LBI8635:
	.loc 23 565 5 view .LVU1916
	.loc 23 565 5 is_stmt 0 view .LVU1917
.LBE8635:
.LBE10126:
.LBE10211:
	.loc 13 332 2 is_stmt 1 view .LVU1918
	.loc 13 335 2 view .LVU1919
.LBB10212:
.LBB10127:
.LBB8637:
.LBB8636:
	.loc 23 570 18 is_stmt 0 view .LVU1920
	movl	$38, %edx
	movl	$.LC13, %esi
	movl	$_ZSt4cout, %edi
	call	_ZSt16__ostream_insertIcSt11char_traitsIcEERSt13basic_ostreamIT_T0_ES6_PKS3_l
.LVL712:
	.loc 23 570 18 view .LVU1921
.LBE8636:
.LBE8637:
	.loc 1 171 71 view .LVU1922
	movzbl	12(%rsp), %eax
.LVL713:
	.loc 1 171 71 view .LVU1923
	movb	%al, 32(%rsp)
.LVL714:
.LBB8638:
.LBI8638:
	.loc 23 517 5 is_stmt 1 view .LVU1924
.LBB8639:
	.loc 23 518 30 is_stmt 0 view .LVU1925
	movl	$1, %edx
	leaq	32(%rsp), %rsi
	movl	$_ZSt4cout, %edi
	call	_ZSt16__ostream_insertIcSt11char_traitsIcEERSt13basic_ostreamIT_T0_ES6_PKS3_l
.LVL715:
	.loc 23 518 30 view .LVU1926
	movq	%rax, %rbp
.LVL716:
	.loc 23 518 30 view .LVU1927
.LBE8639:
.LBE8638:
.LBB8640:
.LBI8640:
	.loc 23 565 5 is_stmt 1 view .LVU1928
	.loc 23 565 5 is_stmt 0 view .LVU1929
.LBE8640:
.LBE10127:
.LBE10212:
	.loc 13 332 2 is_stmt 1 view .LVU1930
	.loc 13 335 2 view .LVU1931
.LBB10213:
.LBB10128:
.LBB8642:
.LBB8641:
	.loc 23 570 18 is_stmt 0 view .LVU1932
	movl	$15, %edx
	movl	$.LC11, %esi
	movq	%rax, %rdi
	call	_ZSt16__ostream_insertIcSt11char_traitsIcEERSt13basic_ostreamIT_T0_ES6_PKS3_l
.LVL717:
	.loc 23 570 18 view .LVU1933
.LBE8641:
.LBE8642:
.LBB8643:
.LBI8643:
	.loc 23 108 7 is_stmt 1 view .LVU1934
.LBB8644:
.LBI8644:
	.loc 23 599 5 view .LVU1935
.LBB8645:
	.loc 23 600 19 is_stmt 0 view .LVU1936
	movq	0(%rbp), %rax
	movq	%rbp, %rcx
	addq	-24(%rax), %rcx
.LVL718:
.LBB8646:
.LBI8646:
	.loc 24 449 7 is_stmt 1 view .LVU1937
.LBB8647:
	.loc 24 450 30 is_stmt 0 view .LVU1938
	movq	240(%rcx), %r13
.LVL719:
.LBB8648:
.LBI8648:
	.loc 24 47 5 is_stmt 1 view .LVU1939
.LBB8649:
	.loc 24 49 7 is_stmt 0 view .LVU1940
	testq	%r13, %r13
	je	.L438
.LVL720:
	.loc 24 49 7 view .LVU1941
.LBE8649:
.LBE8648:
.LBB8651:
.LBI8651:
	.loc 5 872 7 is_stmt 1 view .LVU1942
.LBB8652:
	.loc 5 874 2 view .LVU1943
	cmpb	$0, 56(%r13)
	je	.L239
	.loc 5 875 4 view .LVU1944
	.loc 5 875 51 is_stmt 0 view .LVU1945
	movzbl	67(%r13), %esi
.LVL721:
.L240:
	.loc 5 875 51 view .LVU1946
.LBE8652:
.LBE8651:
.LBE8647:
.LBE8646:
	.loc 23 600 19 view .LVU1947
	movsbl	%sil, %esi
	movq	%rbp, %rdi
	call	_ZNSo3putEc
.LVL722:
	movq	%rax, %rdi
.LVL723:
.LBB8657:
.LBI8657:
	.loc 23 621 5 is_stmt 1 view .LVU1948
.LBB8658:
	.loc 23 622 25 is_stmt 0 view .LVU1949
	call	_ZNSo5flushEv
.LVL724:
	.loc 23 622 25 view .LVU1950
	movq	%rax, %rdi
.LVL725:
	.loc 23 622 25 view .LVU1951
.LBE8658:
.LBE8657:
.LBE8645:
.LBE8644:
.LBE8643:
.LBB8662:
.LBI8662:
	.loc 23 565 5 is_stmt 1 view .LVU1952
	.loc 23 565 5 is_stmt 0 view .LVU1953
.LBE8662:
.LBE10128:
.LBE10213:
	.loc 13 332 2 is_stmt 1 view .LVU1954
	.loc 13 335 2 view .LVU1955
.LBB10214:
.LBB10129:
.LBB8664:
.LBB8663:
	.loc 23 570 18 is_stmt 0 view .LVU1956
	movl	$16, %edx
	movl	$.LC7, %esi
	call	_ZSt16__ostream_insertIcSt11char_traitsIcEERSt13basic_ostreamIT_T0_ES6_PKS3_l
.LVL726:
	.loc 23 570 18 view .LVU1957
.LBE8663:
.LBE8664:
	.loc 1 175 5 is_stmt 1 view .LVU1958
	.loc 1 175 13 is_stmt 0 view .LVU1959
	movl	$4, (%rbx)
	.loc 1 176 5 is_stmt 1 view .LVU1960
	.loc 1 176 27 is_stmt 0 view .LVU1961
	movl	$392, %edi
	call	_Znwm
.LVL727:
.LEHE3:
	movq	%rax, %rbp
	movq	%rax, %rdi
.LEHB4:
	call	_ZNSt7__cxx1118basic_stringstreamIcSt11char_traitsIcESaIcEEC1Ev
.LVL728:
.LEHE4:
	jmp	.L439
.LVL729:
.L438:
.LEHB5:
.LBB8665:
.LBB8661:
.LBB8660:
.LBB8659:
.LBB8656:
.LBB8654:
.LBB8650:
	.loc 24 50 18 view .LVU1962
	call	_ZSt16__throw_bad_castv
.LVL730:
.L239:
	.loc 24 50 18 view .LVU1963
.LBE8650:
.LBE8654:
.LBB8655:
.LBB8653:
	.loc 5 876 2 is_stmt 1 view .LVU1964
	.loc 5 876 21 is_stmt 0 view .LVU1965
	movq	%r13, %rdi
	call	_ZNKSt5ctypeIcE13_M_widen_initEv
.LVL731:
	.loc 5 877 2 is_stmt 1 view .LVU1966
	.loc 5 877 27 is_stmt 0 view .LVU1967
	movq	0(%r13), %rax
	.loc 5 877 23 view .LVU1968
	movl	$10, %esi
	movq	%r13, %rdi
	call	*48(%rax)
.LVL732:
	movl	%eax, %esi
	.loc 5 877 27 view .LVU1969
	jmp	.L240
.LVL733:
.L439:
	.loc 5 877 27 view .LVU1970
.LBE8653:
.LBE8655:
.LBE8656:
.LBE8659:
.LBE8660:
.LBE8661:
.LBE8665:
.LBB8666:
.LBI8666:
	.file 26 "/usr/include/c++/9/bits/unique_ptr.h"
	.loc 26 395 7 is_stmt 1 view .LVU1971
.LBB8667:
.LBB8668:
.LBI8668:
	.loc 14 182 5 view .LVU1972
.LBB8669:
	.loc 14 193 11 is_stmt 0 view .LVU1973
	movq	16(%rbx), %rdi
.LVL734:
	.loc 14 194 7 view .LVU1974
	movq	%rbp, 16(%rbx)
.LVL735:
	.loc 14 194 7 view .LVU1975
.LBE8669:
.LBE8668:
	.loc 26 401 2 view .LVU1976
	testq	%rdi, %rdi
	je	.L241
.LVL736:
.LBB8670:
.LBI8670:
	.loc 26 75 7 is_stmt 1 view .LVU1977
.LBB8671:
	.loc 26 81 2 is_stmt 0 view .LVU1978
	movq	(%rdi), %rax
	call	*8(%rax)
.LVL737:
.L241:
	.loc 26 81 2 view .LVU1979
.LBE8671:
.LBE8670:
.LBE8667:
.LBE8666:
	.loc 1 179 5 is_stmt 1 view .LVU1980
	.loc 1 179 36 is_stmt 0 view .LVU1981
	movq	%rbx, %rsi
	movq	%r12, %rdi
	call	_ZNSt3mapIN3mpp9RepParser5StateENSt7__cxx1112basic_stringIcSt11char_traitsIcESaIcEEESt4lessIS2_ESaISt4pairIKS2_S8_EEEixERSC_
.LVL738:
.LBB8672:
.LBI8672:
	.loc 7 6416 5 is_stmt 1 view .LVU1982
.LBB8673:
.LBB8674:
.LBI8674:
	.loc 7 930 7 view .LVU1983
.LBB8675:
	.loc 7 931 16 is_stmt 0 view .LVU1984
	movq	8(%rax), %rdx
.LVL739:
	.loc 7 931 16 view .LVU1985
.LBE8675:
.LBE8674:
.LBB8676:
.LBI8676:
	.loc 7 2312 7 is_stmt 1 view .LVU1986
.LBB8677:
.LBI8677:
	.loc 7 186 7 view .LVU1987
.LBB8678:
	.loc 7 187 28 is_stmt 0 view .LVU1988
	movq	(%rax), %rsi
.LVL740:
	.loc 7 187 28 view .LVU1989
.LBE8678:
.LBE8677:
.LBE8676:
	.loc 7 6421 30 view .LVU1990
	movl	$_ZSt4cout, %edi
	call	_ZSt16__ostream_insertIcSt11char_traitsIcEERSt13basic_ostreamIT_T0_ES6_PKS3_l
.LVL741:
	.loc 7 6421 30 view .LVU1991
	movq	%rax, %rbp
.LVL742:
	.loc 7 6421 30 view .LVU1992
.LBE8673:
.LBE8672:
.LBB8679:
.LBI8679:
	.loc 23 108 7 is_stmt 1 view .LVU1993
.LBB8680:
.LBI8680:
	.loc 23 599 5 view .LVU1994
.LBB8681:
	.loc 23 600 19 is_stmt 0 view .LVU1995
	movq	(%rax), %rax
.LVL743:
	.loc 23 600 19 view .LVU1996
	movq	%rbp, %rcx
	addq	-24(%rax), %rcx
.LVL744:
.LBB8682:
.LBI8682:
	.loc 24 449 7 is_stmt 1 view .LVU1997
.LBB8683:
	.loc 24 450 30 is_stmt 0 view .LVU1998
	movq	240(%rcx), %rbx
.LVL745:
.LBB8684:
.LBI8684:
	.loc 24 47 5 is_stmt 1 view .LVU1999
.LBB8685:
	.loc 24 49 7 is_stmt 0 view .LVU2000
	testq	%rbx, %rbx
	je	.L440
.LVL746:
	.loc 24 49 7 view .LVU2001
.LBE8685:
.LBE8684:
.LBB8687:
.LBI8687:
	.loc 5 872 7 is_stmt 1 view .LVU2002
.LBB8688:
	.loc 5 874 2 view .LVU2003
	cmpb	$0, 56(%rbx)
	je	.L243
	.loc 5 875 4 view .LVU2004
	.loc 5 875 51 is_stmt 0 view .LVU2005
	movzbl	67(%rbx), %esi
.LVL747:
.L244:
	.loc 5 875 51 view .LVU2006
.LBE8688:
.LBE8687:
.LBE8683:
.LBE8682:
	.loc 23 600 19 view .LVU2007
	movsbl	%sil, %esi
	movq	%rbp, %rdi
	call	_ZNSo3putEc
.LVL748:
	movq	%rax, %rdi
.LVL749:
.LBB8693:
.LBI8693:
	.loc 23 621 5 is_stmt 1 view .LVU2008
.LBB8694:
	.loc 23 622 25 is_stmt 0 view .LVU2009
	call	_ZNSo5flushEv
.LVL750:
	.loc 23 622 25 view .LVU2010
.LBE8694:
.LBE8693:
.LBE8681:
.LBE8680:
.LBE8679:
	.loc 1 181 5 is_stmt 1 view .LVU2011
.LBB8698:
.LBI8698:
	.loc 25 105 13 view .LVU2012
	.loc 25 105 13 is_stmt 0 view .LVU2013
.LBE8698:
	.loc 1 181 14 view .LVU2014
	movl	$2, %r13d
	.loc 1 181 14 view .LVU2015
	jmp	.L186
.LVL751:
.L440:
.LBB8699:
.LBB8697:
.LBB8696:
.LBB8695:
.LBB8692:
.LBB8690:
.LBB8686:
	.loc 24 50 18 view .LVU2016
	call	_ZSt16__throw_bad_castv
.LVL752:
.L243:
	.loc 24 50 18 view .LVU2017
.LBE8686:
.LBE8690:
.LBB8691:
.LBB8689:
	.loc 5 876 2 is_stmt 1 view .LVU2018
	.loc 5 876 21 is_stmt 0 view .LVU2019
	movq	%rbx, %rdi
	call	_ZNKSt5ctypeIcE13_M_widen_initEv
.LVL753:
	.loc 5 877 2 is_stmt 1 view .LVU2020
	.loc 5 877 27 is_stmt 0 view .LVU2021
	movq	(%rbx), %rax
	.loc 5 877 23 view .LVU2022
	movl	$10, %esi
	movq	%rbx, %rdi
	call	*48(%rax)
.LVL754:
	movl	%eax, %esi
	.loc 5 877 27 view .LVU2023
	jmp	.L244
.LVL755:
.L437:
	.loc 5 877 27 view .LVU2024
.LBE8689:
.LBE8691:
.LBE8692:
.LBE8695:
.LBE8696:
.LBE8697:
.LBE8699:
.LBB8700:
.LBB8633:
.LBB8632:
.LBB8631:
.LBB8628:
.LBB8626:
.LBB8622:
	.loc 24 50 18 view .LVU2025
	call	_ZSt16__throw_bad_castv
.LVL756:
.L248:
	.loc 24 50 18 view .LVU2026
.LBE8622:
.LBE8626:
.LBB8627:
.LBB8625:
	.loc 5 876 2 is_stmt 1 view .LVU2027
	.loc 5 876 21 is_stmt 0 view .LVU2028
	movq	%rbp, %rdi
	call	_ZNKSt5ctypeIcE13_M_widen_initEv
.LVL757:
	.loc 5 877 2 is_stmt 1 view .LVU2029
	.loc 5 877 27 is_stmt 0 view .LVU2030
	movq	0(%rbp), %rax
	.loc 5 877 23 view .LVU2031
	movl	$10, %esi
	movq	%rbp, %rdi
	call	*48(%rax)
.LVL758:
	movl	%eax, %esi
	.loc 5 877 27 view .LVU2032
	jmp	.L249
.LVL759:
.L196:
	.loc 5 877 27 view .LVU2033
.LBE8625:
.LBE8627:
.LBE8628:
.LBE8631:
.LBE8632:
.LBE8633:
.LBE8700:
	.loc 1 195 3 is_stmt 1 view .LVU2034
	.loc 1 196 3 view .LVU2035
.LBE10129:
.LBE10214:
	.loc 1 197 4 view .LVU2036
.LBB10215:
.LBB10130:
.LBB8701:
	.loc 1 197 21 is_stmt 0 view .LVU2037
	movzbl	12(%rsp), %edx
	.loc 1 197 20 view .LVU2038
	movzbl	%dl, %eax
	subl	$48, %eax
	.loc 1 197 4 view .LVU2039
	cmpl	$9, %eax
	jbe	.L441
.LBE8701:
.LBE10130:
.LBE10215:
	.loc 1 206 9 is_stmt 1 view .LVU2040
.LBB10216:
.LBB10131:
.LBB8999:
.LBB8702:
	cmpb	$46, %dl
	je	.L442
	.loc 1 240 5 view .LVU2041
.LVL760:
.LBB8703:
.LBI8703:
	.loc 23 565 5 view .LVU2042
	.loc 23 565 5 is_stmt 0 view .LVU2043
.LBE8703:
.LBE8702:
.LBE8999:
.LBE10131:
.LBE10216:
	.loc 13 332 2 is_stmt 1 view .LVU2044
	.loc 13 335 2 view .LVU2045
.LBB10217:
.LBB10132:
.LBB9000:
.LBB8829:
.LBB8705:
.LBB8704:
	.loc 23 570 18 is_stmt 0 view .LVU2046
	movl	$35, %edx
	movl	$.LC8, %esi
	movl	$_ZSt4cout, %edi
	call	_ZSt16__ostream_insertIcSt11char_traitsIcEERSt13basic_ostreamIT_T0_ES6_PKS3_l
.LVL761:
	.loc 23 570 18 view .LVU2047
.LBE8704:
.LBE8705:
	.loc 1 240 112 view .LVU2048
	movzbl	12(%rsp), %eax
.LVL762:
	.loc 1 240 112 view .LVU2049
	movb	%al, 32(%rsp)
.LVL763:
.LBB8706:
.LBI8706:
	.loc 23 517 5 is_stmt 1 view .LVU2050
.LBB8707:
	.loc 23 518 30 is_stmt 0 view .LVU2051
	movl	$1, %edx
	leaq	32(%rsp), %rsi
	movl	$_ZSt4cout, %edi
	call	_ZSt16__ostream_insertIcSt11char_traitsIcEERSt13basic_ostreamIT_T0_ES6_PKS3_l
.LVL764:
	.loc 23 518 30 view .LVU2052
	movq	%rax, %rbp
.LVL765:
	.loc 23 518 30 view .LVU2053
.LBE8707:
.LBE8706:
.LBB8708:
.LBI8708:
	.loc 23 565 5 is_stmt 1 view .LVU2054
	.loc 23 565 5 is_stmt 0 view .LVU2055
.LBE8708:
.LBE8829:
.LBE9000:
.LBE10132:
.LBE10217:
	.loc 13 332 2 is_stmt 1 view .LVU2056
	.loc 13 335 2 view .LVU2057
.LBB10218:
.LBB10133:
.LBB9001:
.LBB8830:
.LBB8710:
.LBB8709:
	.loc 23 570 18 is_stmt 0 view .LVU2058
	movl	$20, %edx
	movl	$.LC9, %esi
	movq	%rax, %rdi
	call	_ZSt16__ostream_insertIcSt11char_traitsIcEERSt13basic_ostreamIT_T0_ES6_PKS3_l
.LVL766:
	.loc 23 570 18 view .LVU2059
.LBE8709:
.LBE8710:
.LBB8711:
.LBI8711:
	.loc 22 490 7 is_stmt 1 view .LVU2060
.LBB8712:
.LBB8713:
.LBI8713:
	.loc 22 1257 7 view .LVU2061
.LBB8714:
.LBB8715:
.LBI8715:
	.loc 6 1281 7 view .LVU2062
.LBB8716:
.LBB8717:
.LBI8717:
	.loc 6 755 7 view .LVU2063
.LBB8718:
	.loc 6 756 31 is_stmt 0 view .LVU2064
	leaq	8(%r12), %r13
.LVL767:
	.loc 6 756 31 view .LVU2065
.LBE8718:
.LBE8717:
.LBB8719:
.LBI8719:
	.loc 6 744 7 is_stmt 1 view .LVU2066
.LBB8720:
	.loc 6 745 73 is_stmt 0 view .LVU2067
	movq	16(%r12), %rsi
.LVL768:
	.loc 6 745 73 view .LVU2068
.LBE8720:
.LBE8719:
	.loc 6 1282 56 view .LVU2069
	movq	%rbx, %rcx
	movq	%r13, %rdx
	movq	%r12, %rdi
	call	_ZNSt8_Rb_treeIN3mpp9RepParser5StateESt4pairIKS2_NSt7__cxx1112basic_stringIcSt11char_traitsIcESaIcEEEESt10_Select1stISB_ESt4lessIS2_ESaISB_EE14_M_lower_boundEPSt13_Rb_tree_nodeISB_EPSt18_Rb_tree_node_baseRS4_
.LVL769:
	.loc 6 1282 56 view .LVU2070
.LBE8716:
.LBE8715:
.LBE8714:
.LBE8713:
	.loc 22 495 11 view .LVU2071
	movq	%rax, %rdx
.LVL770:
.LBB8721:
.LBI8721:
	.loc 22 372 7 is_stmt 1 view .LVU2072
.LBB8722:
.LBI8722:
	.loc 6 1014 7 view .LVU2073
.LBB8723:
.LBI8723:
	.loc 6 273 7 view .LVU2074
	.loc 6 273 7 is_stmt 0 view .LVU2075
.LBE8723:
.LBE8722:
.LBE8721:
.LBB8724:
.LBI8724:
	.loc 6 315 7 is_stmt 1 view .LVU2076
.LBB8725:
	.loc 6 316 20 is_stmt 0 view .LVU2077
	movq	%rax, %rsi
.LVL771:
	.loc 6 316 20 view .LVU2078
.LBE8725:
.LBE8724:
	.loc 22 497 19 view .LVU2079
	cmpq	%rax, %r13
	je	.L268
.LVL772:
.LBB8726:
.LBI8726:
	.loc 17 385 7 is_stmt 1 view .LVU2080
	.loc 17 385 7 is_stmt 0 view .LVU2081
.LBE8726:
	.loc 22 497 19 view .LVU2082
	movl	32(%rax), %eax
	cmpl	%eax, (%rbx)
	jge	.L269
.L268:
.LVL773:
.LBB8727:
.LBI8727:
	.loc 21 588 19 is_stmt 1 view .LVU2083
.LBB8728:
.LBI8728:
	.loc 21 343 17 view .LVU2084
.LBB8729:
.LBI8729:
	.loc 21 125 17 view .LVU2085
.LBB8730:
.LBB8731:
	.loc 21 126 25 is_stmt 0 view .LVU2086
	movq	%rbx, 160(%rsp)
.LVL774:
	.loc 21 126 25 view .LVU2087
.LBE8731:
.LBE8730:
.LBE8729:
.LBE8728:
.LBE8727:
.LBB8732:
.LBI8732:
	.loc 6 348 7 is_stmt 1 view .LVU2088
	.loc 6 348 7 is_stmt 0 view .LVU2089
.LBE8732:
	.loc 22 499 8 view .LVU2090
	leaq	159(%rsp), %r8
	leaq	160(%rsp), %rcx
	movl	$_ZSt19piecewise_construct, %edx
	movq	%r12, %rdi
	call	_ZNSt8_Rb_treeIN3mpp9RepParser5StateESt4pairIKS2_NSt7__cxx1112basic_stringIcSt11char_traitsIcESaIcEEEESt10_Select1stISB_ESt4lessIS2_ESaISB_EE22_M_emplace_hint_uniqueIJRKSt21piecewise_construct_tSt5tupleIJRS4_EESM_IJEEEEESt17_Rb_tree_iteratorISB_ESt23_Rb_tree_const_iteratorISB_EDpOT_
.LVL775:
	movq	%rax, %rdx
.L269:
.LVL776:
.LBB8733:
.LBI8733:
	.loc 6 277 7 is_stmt 1 view .LVU2091
	.loc 6 277 7 is_stmt 0 view .LVU2092
.LBE8733:
.LBE8712:
.LBE8711:
.LBB8734:
.LBI8734:
	.loc 7 6416 5 is_stmt 1 view .LVU2093
.LBB8735:
.LBB8736:
.LBI8736:
	.loc 7 930 7 view .LVU2094
.LBB8737:
	.loc 7 931 16 is_stmt 0 view .LVU2095
	movq	48(%rdx), %rax
.LVL777:
	.loc 7 931 16 view .LVU2096
.LBE8737:
.LBE8736:
.LBB8738:
.LBI8738:
	.loc 7 2312 7 is_stmt 1 view .LVU2097
.LBB8739:
.LBI8739:
	.loc 7 186 7 view .LVU2098
.LBB8740:
	.loc 7 187 28 is_stmt 0 view .LVU2099
	movq	40(%rdx), %rsi
.LVL778:
	.loc 7 187 28 view .LVU2100
.LBE8740:
.LBE8739:
.LBE8738:
	.loc 7 6421 30 view .LVU2101
	movq	%rax, %rdx
.LVL779:
	.loc 7 6421 30 view .LVU2102
	movq	%rbp, %rdi
	call	_ZSt16__ostream_insertIcSt11char_traitsIcEERSt13basic_ostreamIT_T0_ES6_PKS3_l
.LVL780:
	movq	%rax, %rbx
.LVL781:
	.loc 7 6421 30 view .LVU2103
.LBE8735:
.LBE8734:
.LBB8741:
.LBI8741:
	.loc 23 108 7 is_stmt 1 view .LVU2104
.LBB8742:
.LBI8742:
	.loc 23 599 5 view .LVU2105
.LBB8743:
	.loc 23 600 19 is_stmt 0 view .LVU2106
	movq	(%rax), %rax
.LVL782:
	.loc 23 600 19 view .LVU2107
	movq	%rbx, %rcx
	addq	-24(%rax), %rcx
.LVL783:
.LBB8744:
.LBI8744:
	.loc 24 449 7 is_stmt 1 view .LVU2108
.LBB8745:
	.loc 24 450 30 is_stmt 0 view .LVU2109
	movq	240(%rcx), %rbp
.LVL784:
.LBB8746:
.LBI8746:
	.loc 24 47 5 is_stmt 1 view .LVU2110
.LBB8747:
	.loc 24 49 7 is_stmt 0 view .LVU2111
	testq	%rbp, %rbp
	je	.L443
.LVL785:
	.loc 24 49 7 view .LVU2112
.LBE8747:
.LBE8746:
.LBB8749:
.LBI8749:
	.loc 5 872 7 is_stmt 1 view .LVU2113
.LBB8750:
	.loc 5 874 2 view .LVU2114
	cmpb	$0, 56(%rbp)
	je	.L271
	.loc 5 875 4 view .LVU2115
	.loc 5 875 51 is_stmt 0 view .LVU2116
	movzbl	67(%rbp), %eax
.LVL786:
.L272:
	.loc 5 875 51 view .LVU2117
.LBE8750:
.LBE8749:
.LBE8745:
.LBE8744:
	.loc 23 600 19 view .LVU2118
	movsbl	%al, %esi
	movq	%rbx, %rdi
	call	_ZNSo3putEc
.LVL787:
	movq	%rax, %rdi
.LVL788:
.LBB8755:
.LBI8755:
	.loc 23 621 5 is_stmt 1 view .LVU2119
.LBB8756:
	.loc 23 622 25 is_stmt 0 view .LVU2120
	call	_ZNSo5flushEv
.LVL789:
	.loc 23 622 25 view .LVU2121
.LBE8756:
.LBE8755:
.LBE8743:
.LBE8742:
.LBE8741:
	.loc 1 242 5 is_stmt 1 view .LVU2122
.LBB8760:
.LBI8760:
	.loc 25 98 13 view .LVU2123
	.loc 25 98 13 is_stmt 0 view .LVU2124
.LBE8760:
	.loc 1 242 14 view .LVU2125
	movl	$0, %r13d
	.loc 1 242 14 view .LVU2126
	jmp	.L186
.LVL790:
.L441:
	.loc 1 242 14 view .LVU2127
.LBE8830:
	.loc 1 199 5 is_stmt 1 view .LVU2128
.LBB8831:
.LBI8831:
	.loc 26 344 7 view .LVU2129
.LBB8832:
.LBI8832:
	.loc 26 360 7 view .LVU2130
.LBB8833:
.LBI8833:
	.loc 26 154 15 view .LVU2131
	.loc 26 154 15 is_stmt 0 view .LVU2132
.LBE8833:
.LBE8832:
.LBE8831:
	.loc 1 199 18 view .LVU2133
	movq	16(%rbx), %rax
	leaq	16(%rax), %rdi
.LVL791:
	.loc 1 199 18 view .LVU2134
	movb	%dl, 32(%rsp)
.LVL792:
.LBB8834:
.LBI8834:
	.loc 23 517 5 is_stmt 1 view .LVU2135
.LBB8835:
	.loc 23 518 30 is_stmt 0 view .LVU2136
	movl	$1, %edx
	leaq	32(%rsp), %rsi
.LVL793:
	.loc 23 518 30 view .LVU2137
	call	_ZSt16__ostream_insertIcSt11char_traitsIcEERSt13basic_ostreamIT_T0_ES6_PKS3_l
.LVL794:
	.loc 23 518 30 view .LVU2138
.LBE8835:
.LBE8834:
	.loc 1 201 5 is_stmt 1 view .LVU2139
.LBB8836:
.LBI8836:
	.loc 23 565 5 view .LVU2140
	.loc 23 565 5 is_stmt 0 view .LVU2141
.LBE8836:
.LBE9001:
.LBE10133:
.LBE10218:
	.loc 13 332 2 is_stmt 1 view .LVU2142
	.loc 13 335 2 view .LVU2143
.LBB10219:
.LBB10134:
.LBB9002:
.LBB8838:
.LBB8837:
	.loc 23 570 18 is_stmt 0 view .LVU2144
	movl	$77, %edx
	movl	$.LC14, %esi
	movl	$_ZSt4cout, %edi
	call	_ZSt16__ostream_insertIcSt11char_traitsIcEERSt13basic_ostreamIT_T0_ES6_PKS3_l
.LVL795:
.LEHE5:
	.loc 23 570 18 view .LVU2145
.LBE8837:
.LBE8838:
.LBB8839:
.LBI8839:
	.loc 26 352 7 is_stmt 1 view .LVU2146
.LBB8840:
.LBI8840:
	.loc 26 360 7 view .LVU2147
.LBB8841:
.LBI8841:
	.loc 26 154 15 view .LVU2148
.LBB8842:
	.loc 26 154 55 is_stmt 0 view .LVU2149
	movq	16(%rbx), %rsi
.LVL796:
	.loc 26 154 55 view .LVU2150
.LBE8842:
.LBE8841:
.LBE8840:
.LBE8839:
.LBB8843:
.LBI8843:
	.file 27 "/usr/include/c++/9/sstream"
	.loc 27 831 7 is_stmt 1 view .LVU2151
.LBB8844:
	.loc 27 832 33 is_stmt 0 view .LVU2152
	leaq	24(%rsi), %rax
.LVL797:
.LBB8845:
.LBI8845:
	.loc 27 178 7 is_stmt 1 view .LVU2153
.LBB8846:
	.loc 27 180 16 is_stmt 0 view .LVU2154
	addq	$96, %rsi
.LVL798:
.LBB8847:
.LBI8847:
	.loc 7 2331 7 is_stmt 1 view .LVU2155
.LBB8848:
.LBI8848:
	.loc 10 141 7 view .LVU2156
.LBB8849:
.LBI8849:
	.loc 9 83 7 view .LVU2157
	.loc 9 83 7 is_stmt 0 view .LVU2158
.LBE8849:
.LBE8848:
.LBE8847:
.LBB8850:
.LBI8850:
	.loc 7 440 7 is_stmt 1 view .LVU2159
.LBB8851:
.LBI8851:
	.loc 7 190 7 view .LVU2160
	.loc 7 190 7 is_stmt 0 view .LVU2161
.LBE8851:
.LBB8852:
.LBI8852:
	.loc 7 156 2 is_stmt 1 view .LVU2162
.LBB8853:
.LBB8854:
.LBI8854:
	.loc 10 141 7 view .LVU2163
.LBB8855:
.LBI8855:
	.loc 9 83 7 view .LVU2164
	.loc 9 83 7 is_stmt 0 view .LVU2165
.LBE8855:
.LBE8854:
	.loc 7 157 35 view .LVU2166
	leaq	48(%rsp), %rdx
.LVL799:
	.loc 7 157 35 view .LVU2167
	movq	%rdx, 32(%rsp)
.LVL800:
	.loc 7 157 35 view .LVU2168
.LBE8853:
.LBE8852:
.LBB8856:
.LBI8856:
	.loc 7 214 7 is_stmt 1 view .LVU2169
.LBB8857:
.LBI8857:
	.loc 7 182 7 view .LVU2170
.LBB8858:
	.loc 7 183 9 is_stmt 0 view .LVU2171
	movq	$0, 40(%rsp)
.LVL801:
	.loc 7 183 9 view .LVU2172
.LBE8858:
.LBE8857:
.LBB8859:
.LBI8859:
	.loc 13 299 7 is_stmt 1 view .LVU2173
.LBB8860:
	.loc 13 300 9 view .LVU2174
	.loc 13 300 14 is_stmt 0 view .LVU2175
	movb	$0, 48(%rsp)
.LVL802:
	.loc 13 300 14 view .LVU2176
.LBE8860:
.LBE8859:
.LBE8856:
.LBE8850:
.LBB8861:
.LBI8861:
	.loc 10 153 7 is_stmt 1 view .LVU2177
.LBB8862:
.LBI8862:
	.loc 9 89 7 view .LVU2178
	.loc 9 89 7 is_stmt 0 view .LVU2179
.LBE8862:
.LBE8861:
.LBB8863:
.LBI8863:
	.file 28 "/usr/include/c++/9/streambuf"
	.loc 28 539 7 is_stmt 1 view .LVU2180
.LBB8864:
	.loc 28 539 29 is_stmt 0 view .LVU2181
	movq	40(%rax), %r8
.LVL803:
	.loc 28 539 29 view .LVU2182
.LBE8864:
.LBE8863:
	.loc 27 181 2 view .LVU2183
	testq	%r8, %r8
	je	.L251
.LVL804:
.LBB8865:
.LBI8865:
	.loc 28 495 7 is_stmt 1 view .LVU2184
.LBB8866:
	.loc 28 495 30 is_stmt 0 view .LVU2185
	movq	24(%rax), %rdx
.LVL805:
	.loc 28 495 30 view .LVU2186
.LBE8866:
.LBE8865:
	.loc 27 184 6 view .LVU2187
	cmpq	%rdx, %r8
	jbe	.L252
.LVL806:
.LBB8867:
.LBI8867:
	.loc 28 536 7 is_stmt 1 view .LVU2188
.LBB8868:
	.loc 28 536 30 is_stmt 0 view .LVU2189
	movq	32(%rax), %rcx
.LVL807:
	.loc 28 536 30 view .LVU2190
.LBE8868:
.LBE8867:
.LBB8869:
.LBI8869:
	.loc 7 1470 9 is_stmt 1 view .LVU2191
.LBB8870:
.LBI8870:
	.loc 7 842 7 view .LVU2192
.LBB8871:
.LBI8871:
	.file 29 "/usr/include/c++/9/bits/stl_iterator.h"
	.loc 29 806 7 view .LVU2193
	.loc 29 806 7 is_stmt 0 view .LVU2194
.LBE8871:
.LBE8870:
.LBB8872:
.LBI8872:
	.loc 29 811 9 is_stmt 1 view .LVU2195
.LBB8873:
.LBI8873:
	.loc 29 871 7 view .LVU2196
	.loc 29 871 7 is_stmt 0 view .LVU2197
.LBE8873:
.LBE8872:
.LBB8874:
.LBI8874:
	.loc 7 826 7 is_stmt 1 view .LVU2198
.LBB8875:
.LBI8875:
	.loc 29 806 7 view .LVU2199
	.loc 29 806 7 is_stmt 0 view .LVU2200
.LBE8875:
.LBE8874:
.LBB8876:
.LBI8876:
	.loc 29 811 9 is_stmt 1 view .LVU2201
.LBB8877:
.LBI8877:
	.loc 29 871 7 view .LVU2202
	.loc 29 871 7 is_stmt 0 view .LVU2203
.LBE8877:
.LBE8876:
.LBB8878:
.LBI8878:
	.loc 7 2123 7 is_stmt 1 view .LVU2204
.LBB8879:
	.loc 7 2130 20 is_stmt 0 view .LVU2205
	subq	%rcx, %r8
.LVL808:
.LBB8880:
.LBI8880:
	.loc 7 826 7 is_stmt 1 view .LVU2206
.LBB8881:
.LBI8881:
	.loc 29 806 7 view .LVU2207
	.loc 29 806 7 is_stmt 0 view .LVU2208
.LBE8881:
.LBE8880:
.LBB8882:
.LBI8882:
	.loc 7 1936 7 is_stmt 1 view .LVU2209
.LBB8883:
.LBB8884:
.LBI8884:
	.loc 7 329 7 view .LVU2210
.LBB8885:
.LBB8886:
.LBI8886:
	.loc 7 930 7 view .LVU2211
.LBB8887:
	.loc 7 931 16 is_stmt 0 view .LVU2212
	movl	$0, %edx
.LVL809:
	.loc 7 931 16 view .LVU2213
.LBE8887:
.LBE8886:
.LBE8885:
.LBE8884:
	.loc 7 1941 38 view .LVU2214
	movl	$0, %esi
.LVL810:
	.loc 7 1941 38 view .LVU2215
	leaq	32(%rsp), %rdi
.LVL811:
.LEHB6:
	.loc 7 1941 38 view .LVU2216
	call	_ZNSt7__cxx1112basic_stringIcSt11char_traitsIcESaIcEE10_M_replaceEmmPKcm
.LVL812:
	.loc 7 1941 38 view .LVU2217
	jmp	.L254
.LVL813:
.L252:
	.loc 7 1941 38 view .LVU2218
.LBE8883:
.LBE8882:
.LBE8879:
.LBE8878:
.LBE8869:
.LBB8888:
.LBI8888:
	.loc 28 536 7 is_stmt 1 view .LVU2219
.LBB8889:
	.loc 28 536 30 is_stmt 0 view .LVU2220
	movq	32(%rax), %rcx
.LVL814:
	.loc 28 536 30 view .LVU2221
.LBE8889:
.LBE8888:
.LBB8890:
.LBI8890:
	.loc 7 1470 9 is_stmt 1 view .LVU2222
.LBB8891:
.LBI8891:
	.loc 7 842 7 view .LVU2223
.LBB8892:
.LBI8892:
	.loc 29 806 7 view .LVU2224
	.loc 29 806 7 is_stmt 0 view .LVU2225
.LBE8892:
.LBE8891:
.LBB8893:
.LBI8893:
	.loc 29 811 9 is_stmt 1 view .LVU2226
.LBB8894:
.LBI8894:
	.loc 29 871 7 view .LVU2227
	.loc 29 871 7 is_stmt 0 view .LVU2228
.LBE8894:
.LBE8893:
.LBB8895:
.LBI8895:
	.loc 7 826 7 is_stmt 1 view .LVU2229
.LBB8896:
.LBI8896:
	.loc 29 806 7 view .LVU2230
	.loc 29 806 7 is_stmt 0 view .LVU2231
.LBE8896:
.LBE8895:
.LBB8897:
.LBI8897:
	.loc 29 811 9 is_stmt 1 view .LVU2232
.LBB8898:
.LBI8898:
	.loc 29 871 7 view .LVU2233
	.loc 29 871 7 is_stmt 0 view .LVU2234
.LBE8898:
.LBE8897:
.LBB8899:
.LBI8899:
	.loc 7 2123 7 is_stmt 1 view .LVU2235
.LBB8900:
	.loc 7 2130 20 is_stmt 0 view .LVU2236
	subq	%rcx, %rdx
.LVL815:
	.loc 7 2130 20 view .LVU2237
	movq	%rdx, %r8
.LVL816:
.LBB8901:
.LBI8901:
	.loc 7 826 7 is_stmt 1 view .LVU2238
.LBB8902:
.LBI8902:
	.loc 29 806 7 view .LVU2239
	.loc 29 806 7 is_stmt 0 view .LVU2240
.LBE8902:
.LBE8901:
.LBB8903:
.LBI8903:
	.loc 7 1936 7 is_stmt 1 view .LVU2241
.LBB8904:
.LBB8905:
.LBI8905:
	.loc 7 329 7 view .LVU2242
.LBB8906:
.LBB8907:
.LBI8907:
	.loc 7 930 7 view .LVU2243
.LBB8908:
	.loc 7 931 16 is_stmt 0 view .LVU2244
	movq	40(%rsp), %rdx
.LVL817:
	.loc 7 931 16 view .LVU2245
.LBE8908:
.LBE8907:
	.loc 7 332 19 view .LVU2246
	testq	%rdx, %rdx
	je	.L255
	movl	$0, %edx
.LVL818:
.L255:
	.loc 7 332 19 view .LVU2247
.LBE8906:
.LBE8905:
	.loc 7 1941 38 view .LVU2248
	movl	$0, %esi
.LVL819:
	.loc 7 1941 38 view .LVU2249
	leaq	32(%rsp), %rdi
.LVL820:
	.loc 7 1941 38 view .LVU2250
	call	_ZNSt7__cxx1112basic_stringIcSt11char_traitsIcESaIcEE10_M_replaceEmmPKcm
.LVL821:
	.loc 7 1941 38 view .LVU2251
	jmp	.L254
.LVL822:
.L251:
	.loc 7 1941 38 view .LVU2252
.LBE8904:
.LBE8903:
.LBE8900:
.LBE8899:
.LBE8890:
.LBB8909:
.LBI8909:
	.loc 7 665 7 is_stmt 1 view .LVU2253
.LBB8910:
.LBI8910:
	.loc 7 1364 7 view .LVU2254
.LBB8911:
	.loc 7 1366 2 is_stmt 0 view .LVU2255
	leaq	32(%rsp), %rdi
.LVL823:
	.loc 7 1366 2 view .LVU2256
	call	_ZNSt7__cxx1112basic_stringIcSt11char_traitsIcESaIcEE9_M_assignERKS4_
.LVL824:
.LEHE6:
.L254:
	.loc 7 1366 2 view .LVU2257
.LBE8911:
.LBE8910:
.LBE8909:
.LBE8846:
.LBE8845:
.LBE8844:
.LBE8843:
.LBB8929:
.LBI8929:
	.loc 7 6416 5 is_stmt 1 view .LVU2258
.LBB8930:
.LBB8931:
.LBI8931:
	.loc 7 930 7 view .LVU2259
	.loc 7 930 7 is_stmt 0 view .LVU2260
.LBE8931:
.LBB8932:
.LBI8932:
	.loc 7 2312 7 is_stmt 1 view .LVU2261
.LBB8933:
.LBI8933:
	.loc 7 186 7 view .LVU2262
	.loc 7 186 7 is_stmt 0 view .LVU2263
.LBE8933:
.LBE8932:
	.loc 7 6421 30 view .LVU2264
	movq	40(%rsp), %rdx
	movq	32(%rsp), %rsi
	movl	$_ZSt4cout, %edi
.LEHB7:
	call	_ZSt16__ostream_insertIcSt11char_traitsIcEERSt13basic_ostreamIT_T0_ES6_PKS3_l
.LVL825:
	movq	%rax, %rbp
.LVL826:
	.loc 7 6421 30 view .LVU2265
.LBE8930:
.LBE8929:
.LBB8934:
.LBI8934:
	.loc 23 565 5 is_stmt 1 view .LVU2266
	.loc 23 565 5 is_stmt 0 view .LVU2267
.LBE8934:
.LBE9002:
.LBE10134:
.LBE10219:
	.loc 13 332 2 is_stmt 1 view .LVU2268
	.loc 13 335 2 view .LVU2269
.LBB10220:
.LBB10135:
.LBB9003:
.LBB8936:
.LBB8935:
	.loc 23 570 18 is_stmt 0 view .LVU2270
	movl	$1, %edx
	movl	$.LC15, %esi
	movq	%rax, %rdi
	call	_ZSt16__ostream_insertIcSt11char_traitsIcEERSt13basic_ostreamIT_T0_ES6_PKS3_l
.LVL827:
.LEHE7:
	.loc 23 570 18 view .LVU2271
	jmp	.L444
.LVL828:
.L408:
	.loc 23 570 18 view .LVU2272
	movq	%rax, %rbx
.LVL829:
	.loc 23 570 18 view .LVU2273
.LBE8935:
.LBE8936:
.LBB8937:
.LBB8928:
.LBB8927:
.LBB8926:
.LBB8912:
.LBI8912:
	.loc 7 657 7 is_stmt 1 view .LVU2274
.LBB8913:
.LBI8913:
	.loc 7 229 7 view .LVU2275
.LBB8914:
.LBB8915:
.LBI8915:
	.loc 7 221 7 view .LVU2276
.LBB8916:
.LBI8916:
	.loc 7 186 7 view .LVU2277
.LBB8917:
	.loc 7 187 28 is_stmt 0 view .LVU2278
	movq	32(%rsp), %rdi
.LVL830:
	.loc 7 187 28 view .LVU2279
.LBE8917:
.LBE8916:
.LBE8915:
	.loc 7 231 2 view .LVU2280
	leaq	48(%rsp), %rax
	cmpq	%rax, %rdi
	je	.L258
.LVL831:
.LBB8918:
.LBI8918:
	.loc 7 236 7 is_stmt 1 view .LVU2281
.LBB8919:
.LBB8920:
.LBI8920:
	.loc 8 469 7 view .LVU2282
.LBB8921:
.LBI8921:
	.loc 9 119 7 view .LVU2283
.LBB8922:
	.loc 9 128 19 is_stmt 0 view .LVU2284
	call	_ZdlPv
.LVL832:
.L258:
	.loc 9 128 19 view .LVU2285
.LBE8922:
.LBE8921:
.LBE8920:
.LBE8919:
.LBE8918:
.LBE8914:
.LBE8913:
.LBB8923:
.LBI8923:
	.loc 7 150 14 is_stmt 1 view .LVU2286
.LBB8924:
.LBI8924:
	.loc 10 153 7 view .LVU2287
.LBB8925:
.LBI8925:
	.loc 9 89 7 view .LVU2288
	.loc 9 89 7 is_stmt 0 view .LVU2289
	movq	%rbx, %rdi
.LEHB8:
	call	_Unwind_Resume
.LVL833:
.LEHE8:
.L444:
	.loc 9 89 7 view .LVU2290
.LBE8925:
.LBE8924:
.LBE8923:
.LBE8912:
.LBE8926:
.LBE8927:
.LBE8928:
.LBE8937:
.LBB8938:
.LBI8938:
	.loc 23 108 7 is_stmt 1 view .LVU2291
.LBB8939:
.LBI8939:
	.loc 23 599 5 view .LVU2292
.LBB8940:
	.loc 23 600 19 is_stmt 0 view .LVU2293
	movq	0(%rbp), %rax
	movq	%rbp, %rcx
	addq	-24(%rax), %rcx
.LVL834:
.LBB8941:
.LBI8941:
	.loc 24 449 7 is_stmt 1 view .LVU2294
.LBB8942:
	.loc 24 450 30 is_stmt 0 view .LVU2295
	movq	240(%rcx), %rbx
.LVL835:
.LBB8943:
.LBI8943:
	.loc 24 47 5 is_stmt 1 view .LVU2296
.LBB8944:
	.loc 24 49 7 is_stmt 0 view .LVU2297
	testq	%rbx, %rbx
	je	.L445
.LVL836:
	.loc 24 49 7 view .LVU2298
.LBE8944:
.LBE8943:
.LBB8946:
.LBI8946:
	.loc 5 872 7 is_stmt 1 view .LVU2299
.LBB8947:
	.loc 5 874 2 view .LVU2300
	cmpb	$0, 56(%rbx)
	je	.L260
	.loc 5 875 4 view .LVU2301
	.loc 5 875 51 is_stmt 0 view .LVU2302
	movzbl	67(%rbx), %eax
.LVL837:
.L261:
	.loc 5 875 51 view .LVU2303
.LBE8947:
.LBE8946:
.LBE8942:
.LBE8941:
	.loc 23 600 19 view .LVU2304
	movsbl	%al, %esi
	movq	%rbp, %rdi
.LEHB9:
	call	_ZNSo3putEc
.LVL838:
	jmp	.L446
.LVL839:
.L445:
.LBB8953:
.LBB8951:
.LBB8949:
.LBB8945:
	.loc 24 50 18 view .LVU2305
	call	_ZSt16__throw_bad_castv
.LVL840:
.LEHE9:
.L399:
	.loc 24 50 18 view .LVU2306
	movq	%rax, %rbx
.LVL841:
	.loc 24 50 18 view .LVU2307
.LBE8945:
.LBE8949:
.LBE8951:
.LBE8953:
.LBE8940:
.LBE8939:
.LBE8938:
.LBB8959:
.LBI8959:
	.loc 7 657 7 is_stmt 1 view .LVU2308
.LBB8960:
.LBI8960:
	.loc 7 229 7 view .LVU2309
.LBB8961:
.LBB8962:
.LBI8962:
	.loc 7 221 7 view .LVU2310
.LBB8963:
.LBI8963:
	.loc 7 186 7 view .LVU2311
.LBB8964:
	.loc 7 187 28 is_stmt 0 view .LVU2312
	movq	32(%rsp), %rdi
.LVL842:
	.loc 7 187 28 view .LVU2313
.LBE8964:
.LBE8963:
.LBB8965:
.LBI8965:
	.loc 7 200 7 is_stmt 1 view .LVU2314
	.loc 7 200 7 is_stmt 0 view .LVU2315
.LBE8965:
.LBE8962:
	.loc 7 231 2 view .LVU2316
	leaq	48(%rsp), %rax
	cmpq	%rax, %rdi
	je	.L386
.LVL843:
.LBB8966:
.LBI8966:
	.loc 7 236 7 is_stmt 1 view .LVU2317
.LBB8967:
.LBB8968:
.LBI8968:
	.loc 8 469 7 view .LVU2318
.LBB8969:
.LBI8969:
	.loc 9 119 7 view .LVU2319
.LBB8970:
	.loc 9 128 19 is_stmt 0 view .LVU2320
	call	_ZdlPv
.LVL844:
.L386:
	.loc 9 128 19 view .LVU2321
.LBE8970:
.LBE8969:
.LBE8968:
.LBE8967:
.LBE8966:
.LBE8961:
.LBE8960:
.LBB8971:
.LBI8971:
	.loc 7 150 14 is_stmt 1 view .LVU2322
.LBB8972:
.LBI8972:
	.loc 10 153 7 view .LVU2323
.LBB8973:
.LBI8973:
	.loc 9 89 7 view .LVU2324
	.loc 9 89 7 is_stmt 0 view .LVU2325
	movq	%rbx, %rdi
.LEHB10:
	call	_Unwind_Resume
.LVL845:
.LEHE10:
.L260:
	.loc 9 89 7 view .LVU2326
.LBE8973:
.LBE8972:
.LBE8971:
.LBE8959:
.LBB8974:
.LBB8958:
.LBB8957:
.LBB8954:
.LBB8952:
.LBB8950:
.LBB8948:
	.loc 5 876 2 is_stmt 1 view .LVU2327
	.loc 5 876 21 is_stmt 0 view .LVU2328
	movq	%rbx, %rdi
.LEHB11:
	call	_ZNKSt5ctypeIcE13_M_widen_initEv
.LVL846:
	.loc 5 877 2 is_stmt 1 view .LVU2329
	.loc 5 877 27 is_stmt 0 view .LVU2330
	movq	(%rbx), %rax
	.loc 5 877 23 view .LVU2331
	movl	$10, %esi
	movq	%rbx, %rdi
	call	*48(%rax)
.LVL847:
	jmp	.L261
.LVL848:
.L446:
	.loc 5 877 23 view .LVU2332
.LBE8948:
.LBE8950:
.LBE8952:
.LBE8954:
	.loc 23 600 19 view .LVU2333
	movq	%rax, %rdi
.LVL849:
.LBB8955:
.LBI8955:
	.loc 23 621 5 is_stmt 1 view .LVU2334
.LBB8956:
	.loc 23 622 25 is_stmt 0 view .LVU2335
	call	_ZNSo5flushEv
.LVL850:
.LEHE11:
	.loc 23 622 25 view .LVU2336
.LBE8956:
.LBE8955:
.LBE8957:
.LBE8958:
.LBE8974:
.LBB8975:
.LBI8975:
	.loc 7 657 7 is_stmt 1 view .LVU2337
.LBB8976:
.LBI8976:
	.loc 7 229 7 view .LVU2338
.LBB8977:
.LBB8978:
.LBI8978:
	.loc 7 221 7 view .LVU2339
.LBB8979:
.LBI8979:
	.loc 7 186 7 view .LVU2340
.LBB8980:
	.loc 7 187 28 is_stmt 0 view .LVU2341
	movq	32(%rsp), %rdi
.LVL851:
	.loc 7 187 28 view .LVU2342
.LBE8980:
.LBE8979:
.LBB8981:
.LBI8981:
	.loc 7 200 7 is_stmt 1 view .LVU2343
	.loc 7 200 7 is_stmt 0 view .LVU2344
.LBE8981:
.LBE8978:
	.loc 7 231 2 view .LVU2345
	leaq	48(%rsp), %rax
	cmpq	%rax, %rdi
	je	.L262
.LVL852:
.LBB8982:
.LBI8982:
	.loc 7 236 7 is_stmt 1 view .LVU2346
.LBB8983:
.LBB8984:
.LBI8984:
	.loc 8 469 7 view .LVU2347
.LBB8985:
.LBI8985:
	.loc 9 119 7 view .LVU2348
.LBB8986:
	.loc 9 128 19 is_stmt 0 view .LVU2349
	call	_ZdlPv
.LVL853:
.L262:
	.loc 9 128 19 view .LVU2350
.LBE8986:
.LBE8985:
.LBE8984:
.LBE8983:
.LBE8982:
.LBE8977:
.LBE8976:
.LBB8987:
.LBI8987:
	.loc 7 150 14 is_stmt 1 view .LVU2351
.LBB8988:
.LBI8988:
	.loc 10 153 7 view .LVU2352
.LBB8989:
.LBI8989:
	.loc 9 89 7 view .LVU2353
	.loc 9 89 7 is_stmt 0 view .LVU2354
.LBE8989:
.LBE8988:
.LBE8987:
.LBE8975:
	.loc 1 203 5 is_stmt 1 view .LVU2355
.LBB8990:
.LBI8990:
	.loc 25 105 13 view .LVU2356
	.loc 25 105 13 is_stmt 0 view .LVU2357
.LBE8990:
	.loc 1 203 14 view .LVU2358
	movl	$2, %r13d
	.loc 1 203 14 view .LVU2359
	jmp	.L186
.LVL854:
.L442:
.LBB8991:
.LBB8761:
	.loc 1 209 5 is_stmt 1 view .LVU2360
	.loc 1 210 5 view .LVU2361
.LBB8762:
.LBI8762:
	.loc 26 344 7 view .LVU2362
.LBB8763:
.LBI8763:
	.loc 26 360 7 view .LVU2363
.LBB8764:
.LBI8764:
	.loc 26 154 15 view .LVU2364
.LBB8765:
	.loc 26 154 55 is_stmt 0 view .LVU2365
	movq	16(%rbx), %rdi
.LVL855:
	.loc 26 154 55 view .LVU2366
.LBE8765:
.LBE8764:
.LBE8763:
.LBE8762:
	.loc 1 210 18 view .LVU2367
	leaq	32(%rsp), %rsi
.LEHB12:
	call	_ZNSirsERs
.LVL856:
	.loc 1 212 5 is_stmt 1 view .LVU2368
.LBB8766:
.LBI8766:
	.loc 23 565 5 view .LVU2369
	.loc 23 565 5 is_stmt 0 view .LVU2370
.LBE8766:
.LBE8761:
.LBE8991:
.LBE9003:
.LBE10135:
.LBE10220:
	.loc 13 332 2 is_stmt 1 view .LVU2371
	.loc 13 335 2 view .LVU2372
.LBB10221:
.LBB10136:
.LBB9004:
.LBB8992:
.LBB8821:
.LBB8768:
.LBB8767:
	.loc 23 570 18 is_stmt 0 view .LVU2373
	movl	$58, %edx
	movl	$.LC16, %esi
	movl	$_ZSt4cout, %edi
	call	_ZSt16__ostream_insertIcSt11char_traitsIcEERSt13basic_ostreamIT_T0_ES6_PKS3_l
.LVL857:
	.loc 23 570 18 view .LVU2374
.LBE8767:
.LBE8768:
	.loc 1 212 82 view .LVU2375
	movswl	32(%rsp), %esi
	movl	$_ZSt4cout, %edi
	call	_ZNSolsEs
.LVL858:
	movq	%rax, %rbp
.LVL859:
.LBB8769:
.LBI8769:
	.loc 23 108 7 is_stmt 1 view .LVU2376
.LBB8770:
.LBI8770:
	.loc 23 599 5 view .LVU2377
.LBB8771:
	.loc 23 600 19 is_stmt 0 view .LVU2378
	movq	(%rax), %rax
.LVL860:
	.loc 23 600 19 view .LVU2379
	movq	%rbp, %rcx
	addq	-24(%rax), %rcx
.LVL861:
.LBB8772:
.LBI8772:
	.loc 24 449 7 is_stmt 1 view .LVU2380
.LBB8773:
	.loc 24 450 30 is_stmt 0 view .LVU2381
	movq	240(%rcx), %rdi
.LVL862:
.LBB8774:
.LBI8774:
	.loc 24 47 5 is_stmt 1 view .LVU2382
.LBB8775:
	.loc 24 49 7 is_stmt 0 view .LVU2383
	testq	%rdi, %rdi
	je	.L447
.LVL863:
	.loc 24 49 7 view .LVU2384
.LBE8775:
.LBE8774:
	.loc 24 450 49 view .LVU2385
	movl	$10, %esi
	call	_ZNKSt5ctypeIcE5widenEc
.LVL864:
	.loc 24 450 49 view .LVU2386
.LBE8773:
.LBE8772:
	.loc 23 600 19 view .LVU2387
	movsbl	%al, %esi
	movq	%rbp, %rdi
	call	_ZNSo3putEc
.LVL865:
	movq	%rax, %rdi
.LVL866:
.LBB8779:
.LBI8779:
	.loc 23 621 5 is_stmt 1 view .LVU2388
.LBB8780:
	.loc 23 622 25 is_stmt 0 view .LVU2389
	call	_ZNSo5flushEv
.LVL867:
	.loc 23 622 25 view .LVU2390
	movq	%rax, %rbp
.LVL868:
	.loc 23 622 25 view .LVU2391
.LBE8780:
.LBE8779:
.LBE8771:
.LBE8770:
.LBE8769:
.LBB8784:
.LBI8784:
	.loc 23 565 5 is_stmt 1 view .LVU2392
	.loc 23 565 5 is_stmt 0 view .LVU2393
.LBE8784:
.LBE8821:
.LBE8992:
.LBE9004:
.LBE10136:
.LBE10221:
	.loc 13 332 2 is_stmt 1 view .LVU2394
	.loc 13 335 2 view .LVU2395
.LBB10222:
.LBB10137:
.LBB9005:
.LBB8993:
.LBB8822:
.LBB8786:
.LBB8785:
	.loc 23 570 18 is_stmt 0 view .LVU2396
	movl	$28, %edx
	movl	$.LC17, %esi
	movq	%rax, %rdi
	call	_ZSt16__ostream_insertIcSt11char_traitsIcEERSt13basic_ostreamIT_T0_ES6_PKS3_l
.LVL869:
	.loc 23 570 18 view .LVU2397
.LBE8785:
.LBE8786:
	.loc 1 213 55 view .LVU2398
	movswl	8(%rbx), %esi
	movq	%rbp, %rdi
	call	_ZNSolsEs
.LVL870:
	movq	%rax, %rdi
.LVL871:
.LBB8787:
.LBI8787:
	.loc 23 108 7 is_stmt 1 view .LVU2399
.LBB8788:
	.loc 23 113 13 is_stmt 0 view .LVU2400
	call	_ZSt4endlIcSt11char_traitsIcEERSt13basic_ostreamIT_T0_ES6_
.LVL872:
	.loc 23 113 13 view .LVU2401
.LBE8788:
.LBE8787:
	.loc 1 216 5 is_stmt 1 view .LVU2402
	movzwl	32(%rsp), %eax
	cmpw	%ax, 8(%rbx)
	je	.L265
	.loc 1 218 6 view .LVU2403
	.loc 1 218 17 is_stmt 0 view .LVU2404
	movl	$401, 4(%rbx)
	.loc 1 219 6 is_stmt 1 view .LVU2405
.LVL873:
.LBB8789:
.LBI8789:
	.loc 25 98 13 view .LVU2406
	.loc 25 98 13 is_stmt 0 view .LVU2407
.LBE8789:
	.loc 1 219 15 view .LVU2408
	movl	$0, %r13d
	.loc 1 222 6 is_stmt 1 view .LVU2409
.LVL874:
.LBB8790:
.LBI8790:
	.loc 23 565 5 view .LVU2410
	.loc 23 565 5 is_stmt 0 view .LVU2411
.LBE8790:
.LBE8822:
.LBE8993:
.LBE9005:
.LBE10137:
.LBE10222:
	.loc 13 332 2 is_stmt 1 view .LVU2412
	.loc 13 335 2 view .LVU2413
.LBB10223:
.LBB10138:
.LBB9006:
.LBB8994:
.LBB8823:
.LBB8792:
.LBB8791:
	.loc 23 570 18 is_stmt 0 view .LVU2414
	movl	$56, %edx
	movl	$.LC18, %esi
	movl	$_ZSt4cout, %edi
	call	_ZSt16__ostream_insertIcSt11char_traitsIcEERSt13basic_ostreamIT_T0_ES6_PKS3_l
.LVL875:
	.loc 23 570 18 view .LVU2415
.LBE8791:
.LBE8792:
	.loc 1 222 98 view .LVU2416
	movswl	8(%rbx), %esi
	movl	$_ZSt4cout, %edi
	call	_ZNSolsEs
.LVL876:
	movq	%rax, %rbx
.LVL877:
.LBB8793:
.LBI8793:
	.loc 23 565 5 is_stmt 1 view .LVU2417
	.loc 23 565 5 is_stmt 0 view .LVU2418
.LBE8793:
.LBE8823:
.LBE8994:
.LBE9006:
.LBE10138:
.LBE10223:
	.loc 13 332 2 is_stmt 1 view .LVU2419
	.loc 13 335 2 view .LVU2420
.LBB10224:
.LBB10139:
.LBB9007:
.LBB8995:
.LBB8824:
.LBB8795:
.LBB8794:
	.loc 23 570 18 is_stmt 0 view .LVU2421
	movl	$11, %edx
	movl	$.LC19, %esi
	movq	%rax, %rdi
	call	_ZSt16__ostream_insertIcSt11char_traitsIcEERSt13basic_ostreamIT_T0_ES6_PKS3_l
.LVL878:
	.loc 23 570 18 view .LVU2422
.LBE8794:
.LBE8795:
	.loc 1 222 115 view .LVU2423
	movswl	32(%rsp), %esi
	movq	%rbx, %rdi
	call	_ZNSolsEs
.LVL879:
	movq	%rax, %rdi
.LVL880:
.LBB8796:
.LBI8796:
	.loc 23 108 7 is_stmt 1 view .LVU2424
.LBB8797:
	.loc 23 113 13 is_stmt 0 view .LVU2425
	call	_ZSt4endlIcSt11char_traitsIcEERSt13basic_ostreamIT_T0_ES6_
.LVL881:
	.loc 23 113 13 view .LVU2426
	jmp	.L186
.LVL882:
.L447:
	.loc 23 113 13 view .LVU2427
.LBE8797:
.LBE8796:
.LBB8798:
.LBB8783:
.LBB8782:
.LBB8781:
.LBB8778:
.LBB8777:
.LBB8776:
	.loc 24 50 18 view .LVU2428
	call	_ZSt16__throw_bad_castv
.LVL883:
.L265:
	.loc 24 50 18 view .LVU2429
.LBE8776:
.LBE8777:
.LBE8778:
.LBE8781:
.LBE8782:
.LBE8783:
.LBE8798:
	.loc 1 228 6 is_stmt 1 view .LVU2430
	.loc 1 228 28 is_stmt 0 view .LVU2431
	movl	$392, %edi
	call	_Znwm
.LVL884:
.LEHE12:
	movq	%rax, %rbp
	movq	%rax, %rdi
.LEHB13:
	call	_ZNSt7__cxx1118basic_stringstreamIcSt11char_traitsIcESaIcEEC1Ev
.LVL885:
.LEHE13:
.LBB8799:
.LBI8799:
	.loc 26 395 7 is_stmt 1 view .LVU2432
.LBB8800:
.LBB8801:
.LBI8801:
	.loc 14 182 5 view .LVU2433
.LBB8802:
	.loc 14 193 11 is_stmt 0 view .LVU2434
	movq	24(%rbx), %rdi
.LVL886:
	.loc 14 194 7 view .LVU2435
	movq	%rbp, 24(%rbx)
.LVL887:
	.loc 14 194 7 view .LVU2436
.LBE8802:
.LBE8801:
	.loc 26 401 2 view .LVU2437
	testq	%rdi, %rdi
	je	.L267
.LVL888:
.LBB8803:
.LBI8803:
	.loc 26 75 7 is_stmt 1 view .LVU2438
.LBB8804:
	.loc 26 81 2 is_stmt 0 view .LVU2439
	movq	(%rdi), %rax
	call	*8(%rax)
.LVL889:
.L267:
	.loc 26 81 2 view .LVU2440
.LBE8804:
.LBE8803:
.LBE8800:
.LBE8799:
	.loc 1 229 6 is_stmt 1 view .LVU2441
	.loc 1 229 14 is_stmt 0 view .LVU2442
	movl	$5, (%rbx)
	.loc 1 230 6 is_stmt 1 view .LVU2443
.LVL890:
.LBB8805:
.LBI8805:
	.loc 25 105 13 view .LVU2444
	.loc 25 105 13 is_stmt 0 view .LVU2445
.LBE8805:
	.loc 1 230 15 view .LVU2446
	movl	$2, %r13d
	.loc 1 232 6 is_stmt 1 view .LVU2447
.LVL891:
.LBB8806:
.LBI8806:
	.loc 23 565 5 view .LVU2448
	.loc 23 565 5 is_stmt 0 view .LVU2449
.LBE8806:
.LBE8824:
.LBE8995:
.LBE9007:
.LBE10139:
.LBE10224:
	.loc 13 332 2 is_stmt 1 view .LVU2450
	.loc 13 335 2 view .LVU2451
.LBB10225:
.LBB10140:
.LBB9008:
.LBB8996:
.LBB8825:
.LBB8808:
.LBB8807:
	.loc 23 570 18 is_stmt 0 view .LVU2452
	movl	$54, %edx
	movl	$.LC20, %esi
	movl	$_ZSt4cout, %edi
.LEHB14:
	call	_ZSt16__ostream_insertIcSt11char_traitsIcEERSt13basic_ostreamIT_T0_ES6_PKS3_l
.LVL892:
	.loc 23 570 18 view .LVU2453
.LBE8807:
.LBE8808:
	.loc 1 232 130 view .LVU2454
	movswl	32(%rsp), %esi
	movl	$_ZSt4cout, %edi
	call	_ZNSolsEs
.LVL893:
	movq	%rax, %rbp
.LVL894:
.LBB8809:
.LBI8809:
	.loc 23 565 5 is_stmt 1 view .LVU2455
	.loc 23 565 5 is_stmt 0 view .LVU2456
.LBE8809:
.LBE8825:
.LBE8996:
.LBE9008:
.LBE10140:
.LBE10225:
	.loc 13 332 2 is_stmt 1 view .LVU2457
	.loc 13 335 2 view .LVU2458
.LBB10226:
.LBB10141:
.LBB9009:
.LBB8997:
.LBB8826:
.LBB8811:
.LBB8810:
	.loc 23 570 18 is_stmt 0 view .LVU2459
	movl	$17, %edx
	movl	$.LC21, %esi
	movq	%rax, %rdi
	call	_ZSt16__ostream_insertIcSt11char_traitsIcEERSt13basic_ostreamIT_T0_ES6_PKS3_l
.LVL895:
	.loc 23 570 18 view .LVU2460
.LBE8810:
.LBE8811:
	.loc 1 232 130 view .LVU2461
	movq	%rbx, %rsi
	movq	%r12, %rdi
	call	_ZNSt3mapIN3mpp9RepParser5StateENSt7__cxx1112basic_stringIcSt11char_traitsIcESaIcEEESt4lessIS2_ESaISt4pairIKS2_S8_EEEixERSC_
.LVL896:
.LBB8812:
.LBI8812:
	.loc 7 6416 5 is_stmt 1 view .LVU2462
.LBB8813:
.LBB8814:
.LBI8814:
	.loc 7 930 7 view .LVU2463
.LBB8815:
	.loc 7 931 16 is_stmt 0 view .LVU2464
	movq	8(%rax), %rdx
.LVL897:
	.loc 7 931 16 view .LVU2465
.LBE8815:
.LBE8814:
.LBB8816:
.LBI8816:
	.loc 7 2312 7 is_stmt 1 view .LVU2466
.LBB8817:
.LBI8817:
	.loc 7 186 7 view .LVU2467
.LBB8818:
	.loc 7 187 28 is_stmt 0 view .LVU2468
	movq	(%rax), %rsi
.LVL898:
	.loc 7 187 28 view .LVU2469
.LBE8818:
.LBE8817:
.LBE8816:
	.loc 7 6421 30 view .LVU2470
	movq	%rbp, %rdi
	call	_ZSt16__ostream_insertIcSt11char_traitsIcEERSt13basic_ostreamIT_T0_ES6_PKS3_l
.LVL899:
	.loc 7 6421 30 view .LVU2471
	movq	%rax, %rdi
.LVL900:
	.loc 7 6421 30 view .LVU2472
.LBE8813:
.LBE8812:
.LBB8819:
.LBI8819:
	.loc 23 108 7 is_stmt 1 view .LVU2473
.LBB8820:
	.loc 23 113 13 is_stmt 0 view .LVU2474
	call	_ZSt4endlIcSt11char_traitsIcEERSt13basic_ostreamIT_T0_ES6_
.LVL901:
	.loc 23 113 13 view .LVU2475
	jmp	.L186
.LVL902:
.L443:
	.loc 23 113 13 view .LVU2476
.LBE8820:
.LBE8819:
.LBE8826:
.LBB8827:
.LBB8759:
.LBB8758:
.LBB8757:
.LBB8754:
.LBB8752:
.LBB8748:
	.loc 24 50 18 view .LVU2477
	call	_ZSt16__throw_bad_castv
.LVL903:
.L271:
	.loc 24 50 18 view .LVU2478
.LBE8748:
.LBE8752:
.LBB8753:
.LBB8751:
	.loc 5 876 2 is_stmt 1 view .LVU2479
	.loc 5 876 21 is_stmt 0 view .LVU2480
	movq	%rbp, %rdi
	call	_ZNKSt5ctypeIcE13_M_widen_initEv
.LVL904:
	.loc 5 877 2 is_stmt 1 view .LVU2481
	.loc 5 877 27 is_stmt 0 view .LVU2482
	movq	0(%rbp), %rax
	.loc 5 877 23 view .LVU2483
	movl	$10, %esi
	movq	%rbp, %rdi
	call	*48(%rax)
.LVL905:
	.loc 5 877 27 view .LVU2484
	jmp	.L272
.LVL906:
.L195:
	.loc 5 877 27 view .LVU2485
.LBE8751:
.LBE8753:
.LBE8754:
.LBE8757:
.LBE8758:
.LBE8759:
.LBE8827:
.LBE8997:
.LBE9009:
	.loc 1 248 3 is_stmt 1 view .LVU2486
	.loc 1 249 3 view .LVU2487
.LBE10141:
.LBE10226:
	.loc 1 250 4 view .LVU2488
.LBB10227:
.LBB10142:
.LBB9010:
	.loc 1 250 21 is_stmt 0 view .LVU2489
	movzbl	12(%rsp), %edx
	.loc 1 250 20 view .LVU2490
	movzbl	%dl, %eax
	subl	$48, %eax
	.loc 1 250 4 view .LVU2491
	cmpl	$9, %eax
	jbe	.L448
.LBE9010:
.LBE10142:
.LBE10227:
	.loc 1 259 9 is_stmt 1 view .LVU2492
.LBB10228:
.LBB10143:
.LBB9280:
.LBB9011:
	cmpb	$46, %dl
	je	.L449
	.loc 1 286 5 view .LVU2493
.LVL907:
.LBB9012:
.LBI9012:
	.loc 23 565 5 view .LVU2494
	.loc 23 565 5 is_stmt 0 view .LVU2495
.LBE9012:
.LBE9011:
.LBE9280:
.LBE10143:
.LBE10228:
	.loc 13 332 2 is_stmt 1 view .LVU2496
	.loc 13 335 2 view .LVU2497
.LBB10229:
.LBB10144:
.LBB9281:
.LBB9112:
.LBB9014:
.LBB9013:
	.loc 23 570 18 is_stmt 0 view .LVU2498
	movl	$35, %edx
	movl	$.LC8, %esi
	movl	$_ZSt4cout, %edi
	call	_ZSt16__ostream_insertIcSt11char_traitsIcEERSt13basic_ostreamIT_T0_ES6_PKS3_l
.LVL908:
	.loc 23 570 18 view .LVU2499
.LBE9013:
.LBE9014:
	.loc 1 286 112 view .LVU2500
	movzbl	12(%rsp), %eax
.LVL909:
	.loc 1 286 112 view .LVU2501
	movb	%al, 32(%rsp)
.LVL910:
.LBB9015:
.LBI9015:
	.loc 23 517 5 is_stmt 1 view .LVU2502
.LBB9016:
	.loc 23 518 30 is_stmt 0 view .LVU2503
	movl	$1, %edx
	leaq	32(%rsp), %rsi
	movl	$_ZSt4cout, %edi
	call	_ZSt16__ostream_insertIcSt11char_traitsIcEERSt13basic_ostreamIT_T0_ES6_PKS3_l
.LVL911:
	.loc 23 518 30 view .LVU2504
	movq	%rax, %rbp
.LVL912:
	.loc 23 518 30 view .LVU2505
.LBE9016:
.LBE9015:
.LBB9017:
.LBI9017:
	.loc 23 565 5 is_stmt 1 view .LVU2506
	.loc 23 565 5 is_stmt 0 view .LVU2507
.LBE9017:
.LBE9112:
.LBE9281:
.LBE10144:
.LBE10229:
	.loc 13 332 2 is_stmt 1 view .LVU2508
	.loc 13 335 2 view .LVU2509
.LBB10230:
.LBB10145:
.LBB9282:
.LBB9113:
.LBB9019:
.LBB9018:
	.loc 23 570 18 is_stmt 0 view .LVU2510
	movl	$20, %edx
	movl	$.LC9, %esi
	movq	%rax, %rdi
	call	_ZSt16__ostream_insertIcSt11char_traitsIcEERSt13basic_ostreamIT_T0_ES6_PKS3_l
.LVL913:
	.loc 23 570 18 view .LVU2511
.LBE9018:
.LBE9019:
.LBB9020:
.LBI9020:
	.loc 22 490 7 is_stmt 1 view .LVU2512
.LBB9021:
.LBB9022:
.LBI9022:
	.loc 22 1257 7 view .LVU2513
.LBB9023:
.LBB9024:
.LBI9024:
	.loc 6 1281 7 view .LVU2514
.LBB9025:
.LBB9026:
.LBI9026:
	.loc 6 755 7 view .LVU2515
.LBB9027:
	.loc 6 756 31 is_stmt 0 view .LVU2516
	leaq	8(%r12), %r13
.LVL914:
	.loc 6 756 31 view .LVU2517
.LBE9027:
.LBE9026:
.LBB9028:
.LBI9028:
	.loc 6 744 7 is_stmt 1 view .LVU2518
.LBB9029:
	.loc 6 745 73 is_stmt 0 view .LVU2519
	movq	16(%r12), %rsi
.LVL915:
	.loc 6 745 73 view .LVU2520
.LBE9029:
.LBE9028:
	.loc 6 1282 56 view .LVU2521
	movq	%rbx, %rcx
	movq	%r13, %rdx
	movq	%r12, %rdi
	call	_ZNSt8_Rb_treeIN3mpp9RepParser5StateESt4pairIKS2_NSt7__cxx1112basic_stringIcSt11char_traitsIcESaIcEEEESt10_Select1stISB_ESt4lessIS2_ESaISB_EE14_M_lower_boundEPSt13_Rb_tree_nodeISB_EPSt18_Rb_tree_node_baseRS4_
.LVL916:
	.loc 6 1282 56 view .LVU2522
.LBE9025:
.LBE9024:
.LBE9023:
.LBE9022:
	.loc 22 495 11 view .LVU2523
	movq	%rax, %rdx
.LVL917:
.LBB9030:
.LBI9030:
	.loc 22 372 7 is_stmt 1 view .LVU2524
.LBB9031:
.LBI9031:
	.loc 6 1014 7 view .LVU2525
.LBB9032:
.LBI9032:
	.loc 6 273 7 view .LVU2526
	.loc 6 273 7 is_stmt 0 view .LVU2527
.LBE9032:
.LBE9031:
.LBE9030:
.LBB9033:
.LBI9033:
	.loc 6 315 7 is_stmt 1 view .LVU2528
.LBB9034:
	.loc 6 316 20 is_stmt 0 view .LVU2529
	movq	%rax, %rsi
.LVL918:
	.loc 6 316 20 view .LVU2530
.LBE9034:
.LBE9033:
	.loc 22 497 19 view .LVU2531
	cmpq	%rax, %r13
	je	.L290
.LVL919:
.LBB9035:
.LBI9035:
	.loc 17 385 7 is_stmt 1 view .LVU2532
	.loc 17 385 7 is_stmt 0 view .LVU2533
.LBE9035:
	.loc 22 497 19 view .LVU2534
	movl	32(%rax), %eax
	cmpl	%eax, (%rbx)
	jge	.L291
.L290:
.LVL920:
.LBB9036:
.LBI9036:
	.loc 21 588 19 is_stmt 1 view .LVU2535
.LBB9037:
.LBI9037:
	.loc 21 343 17 view .LVU2536
.LBB9038:
.LBI9038:
	.loc 21 125 17 view .LVU2537
.LBB9039:
.LBB9040:
	.loc 21 126 25 is_stmt 0 view .LVU2538
	movq	%rbx, 176(%rsp)
.LVL921:
	.loc 21 126 25 view .LVU2539
.LBE9040:
.LBE9039:
.LBE9038:
.LBE9037:
.LBE9036:
.LBB9041:
.LBI9041:
	.loc 6 348 7 is_stmt 1 view .LVU2540
	.loc 6 348 7 is_stmt 0 view .LVU2541
.LBE9041:
	.loc 22 499 8 view .LVU2542
	leaq	175(%rsp), %r8
	leaq	176(%rsp), %rcx
	movl	$_ZSt19piecewise_construct, %edx
	movq	%r12, %rdi
	call	_ZNSt8_Rb_treeIN3mpp9RepParser5StateESt4pairIKS2_NSt7__cxx1112basic_stringIcSt11char_traitsIcESaIcEEEESt10_Select1stISB_ESt4lessIS2_ESaISB_EE22_M_emplace_hint_uniqueIJRKSt21piecewise_construct_tSt5tupleIJRS4_EESM_IJEEEEESt17_Rb_tree_iteratorISB_ESt23_Rb_tree_const_iteratorISB_EDpOT_
.LVL922:
	movq	%rax, %rdx
.L291:
.LVL923:
.LBB9042:
.LBI9042:
	.loc 6 277 7 is_stmt 1 view .LVU2543
	.loc 6 277 7 is_stmt 0 view .LVU2544
.LBE9042:
.LBE9021:
.LBE9020:
.LBB9043:
.LBI9043:
	.loc 7 6416 5 is_stmt 1 view .LVU2545
.LBB9044:
.LBB9045:
.LBI9045:
	.loc 7 930 7 view .LVU2546
.LBB9046:
	.loc 7 931 16 is_stmt 0 view .LVU2547
	movq	48(%rdx), %rax
.LVL924:
	.loc 7 931 16 view .LVU2548
.LBE9046:
.LBE9045:
.LBB9047:
.LBI9047:
	.loc 7 2312 7 is_stmt 1 view .LVU2549
.LBB9048:
.LBI9048:
	.loc 7 186 7 view .LVU2550
.LBB9049:
	.loc 7 187 28 is_stmt 0 view .LVU2551
	movq	40(%rdx), %rsi
.LVL925:
	.loc 7 187 28 view .LVU2552
.LBE9049:
.LBE9048:
.LBE9047:
	.loc 7 6421 30 view .LVU2553
	movq	%rax, %rdx
.LVL926:
	.loc 7 6421 30 view .LVU2554
	movq	%rbp, %rdi
	call	_ZSt16__ostream_insertIcSt11char_traitsIcEERSt13basic_ostreamIT_T0_ES6_PKS3_l
.LVL927:
	movq	%rax, %rbx
.LVL928:
	.loc 7 6421 30 view .LVU2555
.LBE9044:
.LBE9043:
.LBB9050:
.LBI9050:
	.loc 23 108 7 is_stmt 1 view .LVU2556
.LBB9051:
.LBI9051:
	.loc 23 599 5 view .LVU2557
.LBB9052:
	.loc 23 600 19 is_stmt 0 view .LVU2558
	movq	(%rax), %rax
.LVL929:
	.loc 23 600 19 view .LVU2559
	movq	%rbx, %rcx
	addq	-24(%rax), %rcx
.LVL930:
.LBB9053:
.LBI9053:
	.loc 24 449 7 is_stmt 1 view .LVU2560
.LBB9054:
	.loc 24 450 30 is_stmt 0 view .LVU2561
	movq	240(%rcx), %rbp
.LVL931:
.LBB9055:
.LBI9055:
	.loc 24 47 5 is_stmt 1 view .LVU2562
.LBB9056:
	.loc 24 49 7 is_stmt 0 view .LVU2563
	testq	%rbp, %rbp
	je	.L450
.LVL932:
	.loc 24 49 7 view .LVU2564
.LBE9056:
.LBE9055:
.LBB9058:
.LBI9058:
	.loc 5 872 7 is_stmt 1 view .LVU2565
.LBB9059:
	.loc 5 874 2 view .LVU2566
	cmpb	$0, 56(%rbp)
	je	.L293
	.loc 5 875 4 view .LVU2567
	.loc 5 875 51 is_stmt 0 view .LVU2568
	movzbl	67(%rbp), %eax
.LVL933:
.L294:
	.loc 5 875 51 view .LVU2569
.LBE9059:
.LBE9058:
.LBE9054:
.LBE9053:
	.loc 23 600 19 view .LVU2570
	movsbl	%al, %esi
	movq	%rbx, %rdi
	call	_ZNSo3putEc
.LVL934:
	movq	%rax, %rdi
.LVL935:
.LBB9064:
.LBI9064:
	.loc 23 621 5 is_stmt 1 view .LVU2571
.LBB9065:
	.loc 23 622 25 is_stmt 0 view .LVU2572
	call	_ZNSo5flushEv
.LVL936:
	.loc 23 622 25 view .LVU2573
.LBE9065:
.LBE9064:
.LBE9052:
.LBE9051:
.LBE9050:
	.loc 1 288 5 is_stmt 1 view .LVU2574
.LBB9069:
.LBI9069:
	.loc 25 98 13 view .LVU2575
	.loc 25 98 13 is_stmt 0 view .LVU2576
.LBE9069:
	.loc 1 288 14 view .LVU2577
	movl	$0, %r13d
	.loc 1 288 14 view .LVU2578
	jmp	.L186
.LVL937:
.L448:
	.loc 1 288 14 view .LVU2579
.LBE9113:
	.loc 1 252 5 is_stmt 1 view .LVU2580
.LBB9114:
.LBI9114:
	.loc 26 344 7 view .LVU2581
.LBB9115:
.LBI9115:
	.loc 26 360 7 view .LVU2582
.LBB9116:
.LBI9116:
	.loc 26 154 15 view .LVU2583
	.loc 26 154 15 is_stmt 0 view .LVU2584
.LBE9116:
.LBE9115:
.LBE9114:
	.loc 1 252 18 view .LVU2585
	movq	24(%rbx), %rax
	leaq	16(%rax), %rdi
.LVL938:
	.loc 1 252 18 view .LVU2586
	movb	%dl, 32(%rsp)
.LVL939:
.LBB9117:
.LBI9117:
	.loc 23 517 5 is_stmt 1 view .LVU2587
.LBB9118:
	.loc 23 518 30 is_stmt 0 view .LVU2588
	movl	$1, %edx
	leaq	32(%rsp), %rsi
.LVL940:
	.loc 23 518 30 view .LVU2589
	call	_ZSt16__ostream_insertIcSt11char_traitsIcEERSt13basic_ostreamIT_T0_ES6_PKS3_l
.LVL941:
	.loc 23 518 30 view .LVU2590
.LBE9118:
.LBE9117:
	.loc 1 254 5 is_stmt 1 view .LVU2591
.LBB9119:
.LBI9119:
	.loc 23 565 5 view .LVU2592
	.loc 23 565 5 is_stmt 0 view .LVU2593
.LBE9119:
.LBE9282:
.LBE10145:
.LBE10230:
	.loc 13 332 2 is_stmt 1 view .LVU2594
	.loc 13 335 2 view .LVU2595
.LBB10231:
.LBB10146:
.LBB9283:
.LBB9121:
.LBB9120:
	.loc 23 570 18 is_stmt 0 view .LVU2596
	movl	$61, %edx
	movl	$.LC22, %esi
	movl	$_ZSt4cout, %edi
	call	_ZSt16__ostream_insertIcSt11char_traitsIcEERSt13basic_ostreamIT_T0_ES6_PKS3_l
.LVL942:
.LEHE14:
	.loc 23 570 18 view .LVU2597
.LBE9120:
.LBE9121:
.LBB9122:
.LBI9122:
	.loc 26 352 7 is_stmt 1 view .LVU2598
.LBB9123:
.LBI9123:
	.loc 26 360 7 view .LVU2599
.LBB9124:
.LBI9124:
	.loc 26 154 15 view .LVU2600
.LBB9125:
	.loc 26 154 55 is_stmt 0 view .LVU2601
	movq	24(%rbx), %rsi
.LVL943:
	.loc 26 154 55 view .LVU2602
.LBE9125:
.LBE9124:
.LBE9123:
.LBE9122:
.LBB9126:
.LBI9126:
	.loc 27 831 7 is_stmt 1 view .LVU2603
.LBB9127:
	.loc 27 832 33 is_stmt 0 view .LVU2604
	leaq	24(%rsi), %rax
.LVL944:
.LBB9128:
.LBI9128:
	.loc 27 178 7 is_stmt 1 view .LVU2605
.LBB9129:
	.loc 27 180 16 is_stmt 0 view .LVU2606
	addq	$96, %rsi
.LVL945:
.LBB9130:
.LBI9130:
	.loc 7 2331 7 is_stmt 1 view .LVU2607
.LBB9131:
.LBI9131:
	.loc 10 141 7 view .LVU2608
.LBB9132:
.LBI9132:
	.loc 9 83 7 view .LVU2609
	.loc 9 83 7 is_stmt 0 view .LVU2610
.LBE9132:
.LBE9131:
.LBE9130:
.LBB9133:
.LBI9133:
	.loc 7 440 7 is_stmt 1 view .LVU2611
.LBB9134:
.LBI9134:
	.loc 7 190 7 view .LVU2612
	.loc 7 190 7 is_stmt 0 view .LVU2613
.LBE9134:
.LBB9135:
.LBI9135:
	.loc 7 156 2 is_stmt 1 view .LVU2614
.LBB9136:
.LBB9137:
.LBI9137:
	.loc 10 141 7 view .LVU2615
.LBB9138:
.LBI9138:
	.loc 9 83 7 view .LVU2616
	.loc 9 83 7 is_stmt 0 view .LVU2617
.LBE9138:
.LBE9137:
	.loc 7 157 35 view .LVU2618
	leaq	48(%rsp), %rdx
.LVL946:
	.loc 7 157 35 view .LVU2619
	movq	%rdx, 32(%rsp)
.LVL947:
	.loc 7 157 35 view .LVU2620
.LBE9136:
.LBE9135:
.LBB9139:
.LBI9139:
	.loc 7 214 7 is_stmt 1 view .LVU2621
.LBB9140:
.LBI9140:
	.loc 7 182 7 view .LVU2622
.LBB9141:
	.loc 7 183 9 is_stmt 0 view .LVU2623
	movq	$0, 40(%rsp)
.LVL948:
	.loc 7 183 9 view .LVU2624
.LBE9141:
.LBE9140:
.LBB9142:
.LBI9142:
	.loc 13 299 7 is_stmt 1 view .LVU2625
.LBB9143:
	.loc 13 300 9 view .LVU2626
	.loc 13 300 14 is_stmt 0 view .LVU2627
	movb	$0, 48(%rsp)
.LVL949:
	.loc 13 300 14 view .LVU2628
.LBE9143:
.LBE9142:
.LBE9139:
.LBE9133:
.LBB9144:
.LBI9144:
	.loc 10 153 7 is_stmt 1 view .LVU2629
.LBB9145:
.LBI9145:
	.loc 9 89 7 view .LVU2630
	.loc 9 89 7 is_stmt 0 view .LVU2631
.LBE9145:
.LBE9144:
.LBB9146:
.LBI9146:
	.loc 28 539 7 is_stmt 1 view .LVU2632
.LBB9147:
	.loc 28 539 29 is_stmt 0 view .LVU2633
	movq	40(%rax), %r8
.LVL950:
	.loc 28 539 29 view .LVU2634
.LBE9147:
.LBE9146:
	.loc 27 181 2 view .LVU2635
	testq	%r8, %r8
	je	.L274
.LVL951:
.LBB9148:
.LBI9148:
	.loc 28 495 7 is_stmt 1 view .LVU2636
.LBB9149:
	.loc 28 495 30 is_stmt 0 view .LVU2637
	movq	24(%rax), %rdx
.LVL952:
	.loc 28 495 30 view .LVU2638
.LBE9149:
.LBE9148:
	.loc 27 184 6 view .LVU2639
	cmpq	%rdx, %r8
	jbe	.L275
.LVL953:
.LBB9150:
.LBI9150:
	.loc 28 536 7 is_stmt 1 view .LVU2640
.LBB9151:
	.loc 28 536 30 is_stmt 0 view .LVU2641
	movq	32(%rax), %rcx
.LVL954:
	.loc 28 536 30 view .LVU2642
.LBE9151:
.LBE9150:
.LBB9152:
.LBI9152:
	.loc 7 1470 9 is_stmt 1 view .LVU2643
.LBB9153:
.LBI9153:
	.loc 7 842 7 view .LVU2644
.LBB9154:
.LBI9154:
	.loc 29 806 7 view .LVU2645
	.loc 29 806 7 is_stmt 0 view .LVU2646
.LBE9154:
.LBE9153:
.LBB9155:
.LBI9155:
	.loc 29 811 9 is_stmt 1 view .LVU2647
.LBB9156:
.LBI9156:
	.loc 29 871 7 view .LVU2648
	.loc 29 871 7 is_stmt 0 view .LVU2649
.LBE9156:
.LBE9155:
.LBB9157:
.LBI9157:
	.loc 7 826 7 is_stmt 1 view .LVU2650
.LBB9158:
.LBI9158:
	.loc 29 806 7 view .LVU2651
	.loc 29 806 7 is_stmt 0 view .LVU2652
.LBE9158:
.LBE9157:
.LBB9159:
.LBI9159:
	.loc 29 811 9 is_stmt 1 view .LVU2653
.LBB9160:
.LBI9160:
	.loc 29 871 7 view .LVU2654
	.loc 29 871 7 is_stmt 0 view .LVU2655
.LBE9160:
.LBE9159:
.LBB9161:
.LBI9161:
	.loc 7 2123 7 is_stmt 1 view .LVU2656
.LBB9162:
	.loc 7 2130 20 is_stmt 0 view .LVU2657
	subq	%rcx, %r8
.LVL955:
.LBB9163:
.LBI9163:
	.loc 7 826 7 is_stmt 1 view .LVU2658
.LBB9164:
.LBI9164:
	.loc 29 806 7 view .LVU2659
	.loc 29 806 7 is_stmt 0 view .LVU2660
.LBE9164:
.LBE9163:
.LBB9165:
.LBI9165:
	.loc 7 1936 7 is_stmt 1 view .LVU2661
.LBB9166:
.LBB9167:
.LBI9167:
	.loc 7 329 7 view .LVU2662
.LBB9168:
.LBB9169:
.LBI9169:
	.loc 7 930 7 view .LVU2663
.LBB9170:
	.loc 7 931 16 is_stmt 0 view .LVU2664
	movl	$0, %edx
.LVL956:
	.loc 7 931 16 view .LVU2665
.LBE9170:
.LBE9169:
.LBE9168:
.LBE9167:
	.loc 7 1941 38 view .LVU2666
	movl	$0, %esi
.LVL957:
	.loc 7 1941 38 view .LVU2667
	leaq	32(%rsp), %rdi
.LVL958:
.LEHB15:
	.loc 7 1941 38 view .LVU2668
	call	_ZNSt7__cxx1112basic_stringIcSt11char_traitsIcESaIcEE10_M_replaceEmmPKcm
.LVL959:
	.loc 7 1941 38 view .LVU2669
	jmp	.L277
.LVL960:
.L275:
	.loc 7 1941 38 view .LVU2670
.LBE9166:
.LBE9165:
.LBE9162:
.LBE9161:
.LBE9152:
.LBB9171:
.LBI9171:
	.loc 28 536 7 is_stmt 1 view .LVU2671
.LBB9172:
	.loc 28 536 30 is_stmt 0 view .LVU2672
	movq	32(%rax), %rcx
.LVL961:
	.loc 28 536 30 view .LVU2673
.LBE9172:
.LBE9171:
.LBB9173:
.LBI9173:
	.loc 7 1470 9 is_stmt 1 view .LVU2674
.LBB9174:
.LBI9174:
	.loc 7 842 7 view .LVU2675
.LBB9175:
.LBI9175:
	.loc 29 806 7 view .LVU2676
	.loc 29 806 7 is_stmt 0 view .LVU2677
.LBE9175:
.LBE9174:
.LBB9176:
.LBI9176:
	.loc 29 811 9 is_stmt 1 view .LVU2678
.LBB9177:
.LBI9177:
	.loc 29 871 7 view .LVU2679
	.loc 29 871 7 is_stmt 0 view .LVU2680
.LBE9177:
.LBE9176:
.LBB9178:
.LBI9178:
	.loc 7 826 7 is_stmt 1 view .LVU2681
.LBB9179:
.LBI9179:
	.loc 29 806 7 view .LVU2682
	.loc 29 806 7 is_stmt 0 view .LVU2683
.LBE9179:
.LBE9178:
.LBB9180:
.LBI9180:
	.loc 29 811 9 is_stmt 1 view .LVU2684
.LBB9181:
.LBI9181:
	.loc 29 871 7 view .LVU2685
	.loc 29 871 7 is_stmt 0 view .LVU2686
.LBE9181:
.LBE9180:
.LBB9182:
.LBI9182:
	.loc 7 2123 7 is_stmt 1 view .LVU2687
.LBB9183:
	.loc 7 2130 20 is_stmt 0 view .LVU2688
	subq	%rcx, %rdx
.LVL962:
	.loc 7 2130 20 view .LVU2689
	movq	%rdx, %r8
.LVL963:
.LBB9184:
.LBI9184:
	.loc 7 826 7 is_stmt 1 view .LVU2690
.LBB9185:
.LBI9185:
	.loc 29 806 7 view .LVU2691
	.loc 29 806 7 is_stmt 0 view .LVU2692
.LBE9185:
.LBE9184:
.LBB9186:
.LBI9186:
	.loc 7 1936 7 is_stmt 1 view .LVU2693
.LBB9187:
.LBB9188:
.LBI9188:
	.loc 7 329 7 view .LVU2694
.LBB9189:
.LBB9190:
.LBI9190:
	.loc 7 930 7 view .LVU2695
.LBB9191:
	.loc 7 931 16 is_stmt 0 view .LVU2696
	movq	40(%rsp), %rdx
.LVL964:
	.loc 7 931 16 view .LVU2697
.LBE9191:
.LBE9190:
	.loc 7 332 19 view .LVU2698
	testq	%rdx, %rdx
	je	.L278
	movl	$0, %edx
.LVL965:
.L278:
	.loc 7 332 19 view .LVU2699
.LBE9189:
.LBE9188:
	.loc 7 1941 38 view .LVU2700
	movl	$0, %esi
.LVL966:
	.loc 7 1941 38 view .LVU2701
	leaq	32(%rsp), %rdi
.LVL967:
	.loc 7 1941 38 view .LVU2702
	call	_ZNSt7__cxx1112basic_stringIcSt11char_traitsIcESaIcEE10_M_replaceEmmPKcm
.LVL968:
	.loc 7 1941 38 view .LVU2703
	jmp	.L277
.LVL969:
.L274:
	.loc 7 1941 38 view .LVU2704
.LBE9187:
.LBE9186:
.LBE9183:
.LBE9182:
.LBE9173:
.LBB9192:
.LBI9192:
	.loc 7 665 7 is_stmt 1 view .LVU2705
.LBB9193:
.LBI9193:
	.loc 7 1364 7 view .LVU2706
.LBB9194:
	.loc 7 1366 2 is_stmt 0 view .LVU2707
	leaq	32(%rsp), %rdi
.LVL970:
	.loc 7 1366 2 view .LVU2708
	call	_ZNSt7__cxx1112basic_stringIcSt11char_traitsIcESaIcEE9_M_assignERKS4_
.LVL971:
.LEHE15:
.L277:
	.loc 7 1366 2 view .LVU2709
.LBE9194:
.LBE9193:
.LBE9192:
.LBE9129:
.LBE9128:
.LBE9127:
.LBE9126:
.LBB9212:
.LBI9212:
	.loc 7 6416 5 is_stmt 1 view .LVU2710
.LBB9213:
.LBB9214:
.LBI9214:
	.loc 7 930 7 view .LVU2711
	.loc 7 930 7 is_stmt 0 view .LVU2712
.LBE9214:
.LBB9215:
.LBI9215:
	.loc 7 2312 7 is_stmt 1 view .LVU2713
.LBB9216:
.LBI9216:
	.loc 7 186 7 view .LVU2714
	.loc 7 186 7 is_stmt 0 view .LVU2715
.LBE9216:
.LBE9215:
	.loc 7 6421 30 view .LVU2716
	movq	40(%rsp), %rdx
	movq	32(%rsp), %rsi
	movl	$_ZSt4cout, %edi
.LEHB16:
	call	_ZSt16__ostream_insertIcSt11char_traitsIcEERSt13basic_ostreamIT_T0_ES6_PKS3_l
.LVL972:
	movq	%rax, %rbp
.LVL973:
	.loc 7 6421 30 view .LVU2717
.LBE9213:
.LBE9212:
.LBB9217:
.LBI9217:
	.loc 23 565 5 is_stmt 1 view .LVU2718
	.loc 23 565 5 is_stmt 0 view .LVU2719
.LBE9217:
.LBE9283:
.LBE10146:
.LBE10231:
	.loc 13 332 2 is_stmt 1 view .LVU2720
	.loc 13 335 2 view .LVU2721
.LBB10232:
.LBB10147:
.LBB9284:
.LBB9219:
.LBB9218:
	.loc 23 570 18 is_stmt 0 view .LVU2722
	movl	$17, %edx
	movl	$.LC23, %esi
	movq	%rax, %rdi
	call	_ZSt16__ostream_insertIcSt11char_traitsIcEERSt13basic_ostreamIT_T0_ES6_PKS3_l
.LVL974:
.LEHE16:
	.loc 23 570 18 view .LVU2723
	jmp	.L451
.LVL975:
.L409:
	.loc 23 570 18 view .LVU2724
	movq	%rax, %rbx
.LVL976:
	.loc 23 570 18 view .LVU2725
.LBE9218:
.LBE9219:
.LBB9220:
.LBB9211:
.LBB9210:
.LBB9209:
.LBB9195:
.LBI9195:
	.loc 7 657 7 is_stmt 1 view .LVU2726
.LBB9196:
.LBI9196:
	.loc 7 229 7 view .LVU2727
.LBB9197:
.LBB9198:
.LBI9198:
	.loc 7 221 7 view .LVU2728
.LBB9199:
.LBI9199:
	.loc 7 186 7 view .LVU2729
.LBB9200:
	.loc 7 187 28 is_stmt 0 view .LVU2730
	movq	32(%rsp), %rdi
.LVL977:
	.loc 7 187 28 view .LVU2731
.LBE9200:
.LBE9199:
.LBE9198:
	.loc 7 231 2 view .LVU2732
	leaq	48(%rsp), %rax
	cmpq	%rax, %rdi
	je	.L281
.LVL978:
.LBB9201:
.LBI9201:
	.loc 7 236 7 is_stmt 1 view .LVU2733
.LBB9202:
.LBB9203:
.LBI9203:
	.loc 8 469 7 view .LVU2734
.LBB9204:
.LBI9204:
	.loc 9 119 7 view .LVU2735
.LBB9205:
	.loc 9 128 19 is_stmt 0 view .LVU2736
	call	_ZdlPv
.LVL979:
.L281:
	.loc 9 128 19 view .LVU2737
.LBE9205:
.LBE9204:
.LBE9203:
.LBE9202:
.LBE9201:
.LBE9197:
.LBE9196:
.LBB9206:
.LBI9206:
	.loc 7 150 14 is_stmt 1 view .LVU2738
.LBB9207:
.LBI9207:
	.loc 10 153 7 view .LVU2739
.LBB9208:
.LBI9208:
	.loc 9 89 7 view .LVU2740
	.loc 9 89 7 is_stmt 0 view .LVU2741
	movq	%rbx, %rdi
.LEHB17:
	call	_Unwind_Resume
.LVL980:
.LEHE17:
.L451:
	.loc 9 89 7 view .LVU2742
.LBE9208:
.LBE9207:
.LBE9206:
.LBE9195:
.LBE9209:
.LBE9210:
.LBE9211:
.LBE9220:
.LBB9221:
.LBI9221:
	.loc 23 108 7 is_stmt 1 view .LVU2743
.LBB9222:
.LBI9222:
	.loc 23 599 5 view .LVU2744
.LBB9223:
	.loc 23 600 19 is_stmt 0 view .LVU2745
	movq	0(%rbp), %rax
	movq	%rbp, %rcx
	addq	-24(%rax), %rcx
.LVL981:
.LBB9224:
.LBI9224:
	.loc 24 449 7 is_stmt 1 view .LVU2746
.LBB9225:
	.loc 24 450 30 is_stmt 0 view .LVU2747
	movq	240(%rcx), %rbx
.LVL982:
.LBB9226:
.LBI9226:
	.loc 24 47 5 is_stmt 1 view .LVU2748
.LBB9227:
	.loc 24 49 7 is_stmt 0 view .LVU2749
	testq	%rbx, %rbx
	je	.L452
.LVL983:
	.loc 24 49 7 view .LVU2750
.LBE9227:
.LBE9226:
.LBB9229:
.LBI9229:
	.loc 5 872 7 is_stmt 1 view .LVU2751
.LBB9230:
	.loc 5 874 2 view .LVU2752
	cmpb	$0, 56(%rbx)
	je	.L283
	.loc 5 875 4 view .LVU2753
	.loc 5 875 51 is_stmt 0 view .LVU2754
	movzbl	67(%rbx), %eax
.LVL984:
.L284:
	.loc 5 875 51 view .LVU2755
.LBE9230:
.LBE9229:
.LBE9225:
.LBE9224:
	.loc 23 600 19 view .LVU2756
	movsbl	%al, %esi
	movq	%rbp, %rdi
.LEHB18:
	call	_ZNSo3putEc
.LVL985:
	jmp	.L453
.LVL986:
.L452:
.LBB9236:
.LBB9234:
.LBB9232:
.LBB9228:
	.loc 24 50 18 view .LVU2757
	call	_ZSt16__throw_bad_castv
.LVL987:
.LEHE18:
.L401:
	.loc 24 50 18 view .LVU2758
	movq	%rax, %rbx
.LVL988:
	.loc 24 50 18 view .LVU2759
.LBE9228:
.LBE9232:
.LBE9234:
.LBE9236:
.LBE9223:
.LBE9222:
.LBE9221:
.LBB9242:
.LBI9242:
	.loc 7 657 7 is_stmt 1 view .LVU2760
.LBB9243:
.LBI9243:
	.loc 7 229 7 view .LVU2761
.LBB9244:
.LBB9245:
.LBI9245:
	.loc 7 221 7 view .LVU2762
.LBB9246:
.LBI9246:
	.loc 7 186 7 view .LVU2763
.LBB9247:
	.loc 7 187 28 is_stmt 0 view .LVU2764
	movq	32(%rsp), %rdi
.LVL989:
	.loc 7 187 28 view .LVU2765
.LBE9247:
.LBE9246:
.LBB9248:
.LBI9248:
	.loc 7 200 7 is_stmt 1 view .LVU2766
	.loc 7 200 7 is_stmt 0 view .LVU2767
.LBE9248:
.LBE9245:
	.loc 7 231 2 view .LVU2768
	leaq	48(%rsp), %rax
	cmpq	%rax, %rdi
	je	.L389
.LVL990:
.LBB9249:
.LBI9249:
	.loc 7 236 7 is_stmt 1 view .LVU2769
.LBB9250:
.LBB9251:
.LBI9251:
	.loc 8 469 7 view .LVU2770
.LBB9252:
.LBI9252:
	.loc 9 119 7 view .LVU2771
.LBB9253:
	.loc 9 128 19 is_stmt 0 view .LVU2772
	call	_ZdlPv
.LVL991:
.L389:
	.loc 9 128 19 view .LVU2773
.LBE9253:
.LBE9252:
.LBE9251:
.LBE9250:
.LBE9249:
.LBE9244:
.LBE9243:
.LBB9254:
.LBI9254:
	.loc 7 150 14 is_stmt 1 view .LVU2774
.LBB9255:
.LBI9255:
	.loc 10 153 7 view .LVU2775
.LBB9256:
.LBI9256:
	.loc 9 89 7 view .LVU2776
	.loc 9 89 7 is_stmt 0 view .LVU2777
	movq	%rbx, %rdi
.LEHB19:
	call	_Unwind_Resume
.LVL992:
.LEHE19:
.L283:
	.loc 9 89 7 view .LVU2778
.LBE9256:
.LBE9255:
.LBE9254:
.LBE9242:
.LBB9257:
.LBB9241:
.LBB9240:
.LBB9237:
.LBB9235:
.LBB9233:
.LBB9231:
	.loc 5 876 2 is_stmt 1 view .LVU2779
	.loc 5 876 21 is_stmt 0 view .LVU2780
	movq	%rbx, %rdi
.LEHB20:
	call	_ZNKSt5ctypeIcE13_M_widen_initEv
.LVL993:
	.loc 5 877 2 is_stmt 1 view .LVU2781
	.loc 5 877 27 is_stmt 0 view .LVU2782
	movq	(%rbx), %rax
	.loc 5 877 23 view .LVU2783
	movl	$10, %esi
	movq	%rbx, %rdi
	call	*48(%rax)
.LVL994:
	jmp	.L284
.LVL995:
.L453:
	.loc 5 877 23 view .LVU2784
.LBE9231:
.LBE9233:
.LBE9235:
.LBE9237:
	.loc 23 600 19 view .LVU2785
	movq	%rax, %rdi
.LVL996:
.LBB9238:
.LBI9238:
	.loc 23 621 5 is_stmt 1 view .LVU2786
.LBB9239:
	.loc 23 622 25 is_stmt 0 view .LVU2787
	call	_ZNSo5flushEv
.LVL997:
.LEHE20:
	.loc 23 622 25 view .LVU2788
.LBE9239:
.LBE9238:
.LBE9240:
.LBE9241:
.LBE9257:
.LBB9258:
.LBI9258:
	.loc 7 657 7 is_stmt 1 view .LVU2789
.LBB9259:
.LBI9259:
	.loc 7 229 7 view .LVU2790
.LBB9260:
.LBB9261:
.LBI9261:
	.loc 7 221 7 view .LVU2791
.LBB9262:
.LBI9262:
	.loc 7 186 7 view .LVU2792
.LBB9263:
	.loc 7 187 28 is_stmt 0 view .LVU2793
	movq	32(%rsp), %rdi
.LVL998:
	.loc 7 187 28 view .LVU2794
.LBE9263:
.LBE9262:
.LBB9264:
.LBI9264:
	.loc 7 200 7 is_stmt 1 view .LVU2795
	.loc 7 200 7 is_stmt 0 view .LVU2796
.LBE9264:
.LBE9261:
	.loc 7 231 2 view .LVU2797
	leaq	48(%rsp), %rax
	cmpq	%rax, %rdi
	je	.L285
.LVL999:
.LBB9265:
.LBI9265:
	.loc 7 236 7 is_stmt 1 view .LVU2798
.LBB9266:
.LBB9267:
.LBI9267:
	.loc 8 469 7 view .LVU2799
.LBB9268:
.LBI9268:
	.loc 9 119 7 view .LVU2800
.LBB9269:
	.loc 9 128 19 is_stmt 0 view .LVU2801
	call	_ZdlPv
.LVL1000:
.L285:
	.loc 9 128 19 view .LVU2802
.LBE9269:
.LBE9268:
.LBE9267:
.LBE9266:
.LBE9265:
.LBE9260:
.LBE9259:
.LBB9270:
.LBI9270:
	.loc 7 150 14 is_stmt 1 view .LVU2803
.LBB9271:
.LBI9271:
	.loc 10 153 7 view .LVU2804
.LBB9272:
.LBI9272:
	.loc 9 89 7 view .LVU2805
	.loc 9 89 7 is_stmt 0 view .LVU2806
.LBE9272:
.LBE9271:
.LBE9270:
.LBE9258:
	.loc 1 256 5 is_stmt 1 view .LVU2807
.LBB9273:
.LBI9273:
	.loc 25 105 13 view .LVU2808
	.loc 25 105 13 is_stmt 0 view .LVU2809
.LBE9273:
	.loc 1 256 14 view .LVU2810
	movl	$2, %r13d
	.loc 1 256 14 view .LVU2811
	jmp	.L186
.LVL1001:
.L449:
.LBB9274:
.LBB9070:
	.loc 1 261 5 is_stmt 1 view .LVU2812
	.loc 1 262 5 view .LVU2813
.LBB9071:
.LBI9071:
	.loc 26 344 7 view .LVU2814
.LBB9072:
.LBI9072:
	.loc 26 360 7 view .LVU2815
.LBB9073:
.LBI9073:
	.loc 26 154 15 view .LVU2816
.LBB9074:
	.loc 26 154 55 is_stmt 0 view .LVU2817
	movq	24(%rbx), %rdi
.LVL1002:
	.loc 26 154 55 view .LVU2818
.LBE9074:
.LBE9073:
.LBE9072:
.LBE9071:
	.loc 1 262 18 view .LVU2819
	leaq	32(%rsp), %rsi
.LEHB21:
	call	_ZNSirsERs
.LVL1003:
	.loc 1 264 5 is_stmt 1 view .LVU2820
	movzwl	32(%rsp), %eax
	cmpw	%ax, 10(%rbx)
	je	.L287
	.loc 1 266 6 view .LVU2821
.LVL1004:
.LBB9075:
.LBI9075:
	.loc 25 98 13 view .LVU2822
	.loc 25 98 13 is_stmt 0 view .LVU2823
.LBE9075:
	.loc 1 266 15 view .LVU2824
	movl	$0, %r13d
	.loc 1 268 6 is_stmt 1 view .LVU2825
.LVL1005:
.LBB9076:
.LBI9076:
	.loc 23 565 5 view .LVU2826
	.loc 23 565 5 is_stmt 0 view .LVU2827
.LBE9076:
.LBE9070:
.LBE9274:
.LBE9284:
.LBE10147:
.LBE10232:
	.loc 13 332 2 is_stmt 1 view .LVU2828
	.loc 13 335 2 view .LVU2829
.LBB10233:
.LBB10148:
.LBB9285:
.LBB9275:
.LBB9106:
.LBB9078:
.LBB9077:
	.loc 23 570 18 is_stmt 0 view .LVU2830
	movl	$56, %edx
	movl	$.LC24, %esi
	movl	$_ZSt4cout, %edi
	call	_ZSt16__ostream_insertIcSt11char_traitsIcEERSt13basic_ostreamIT_T0_ES6_PKS3_l
.LVL1006:
	.loc 23 570 18 view .LVU2831
.LBE9077:
.LBE9078:
	.loc 1 268 98 view .LVU2832
	movswl	10(%rbx), %esi
	movl	$_ZSt4cout, %edi
	call	_ZNSolsEs
.LVL1007:
	movq	%rax, %rbx
.LVL1008:
.LBB9079:
.LBI9079:
	.loc 23 565 5 is_stmt 1 view .LVU2833
	.loc 23 565 5 is_stmt 0 view .LVU2834
.LBE9079:
.LBE9106:
.LBE9275:
.LBE9285:
.LBE10148:
.LBE10233:
	.loc 13 332 2 is_stmt 1 view .LVU2835
	.loc 13 335 2 view .LVU2836
.LBB10234:
.LBB10149:
.LBB9286:
.LBB9276:
.LBB9107:
.LBB9081:
.LBB9080:
	.loc 23 570 18 is_stmt 0 view .LVU2837
	movl	$11, %edx
	movl	$.LC19, %esi
	movq	%rax, %rdi
	call	_ZSt16__ostream_insertIcSt11char_traitsIcEERSt13basic_ostreamIT_T0_ES6_PKS3_l
.LVL1009:
	.loc 23 570 18 view .LVU2838
.LBE9080:
.LBE9081:
	.loc 1 268 115 view .LVU2839
	movswl	32(%rsp), %esi
	movq	%rbx, %rdi
	call	_ZNSolsEs
.LVL1010:
	movq	%rax, %rdi
.LVL1011:
.LBB9082:
.LBI9082:
	.loc 23 108 7 is_stmt 1 view .LVU2840
.LBB9083:
	.loc 23 113 13 is_stmt 0 view .LVU2841
	call	_ZSt4endlIcSt11char_traitsIcEERSt13basic_ostreamIT_T0_ES6_
.LVL1012:
	.loc 23 113 13 view .LVU2842
	jmp	.L186
.LVL1013:
.L287:
	.loc 23 113 13 view .LVU2843
.LBE9083:
.LBE9082:
	.loc 1 274 6 is_stmt 1 view .LVU2844
	.loc 1 274 30 is_stmt 0 view .LVU2845
	movl	$392, %edi
	call	_Znwm
.LVL1014:
.LEHE21:
	movq	%rax, %rbp
	movq	%rax, %rdi
.LEHB22:
	call	_ZNSt7__cxx1118basic_stringstreamIcSt11char_traitsIcESaIcEEC1Ev
.LVL1015:
.LEHE22:
.LBB9084:
.LBI9084:
	.loc 26 395 7 is_stmt 1 view .LVU2846
.LBB9085:
.LBB9086:
.LBI9086:
	.loc 14 182 5 view .LVU2847
.LBB9087:
	.loc 14 193 11 is_stmt 0 view .LVU2848
	movq	32(%rbx), %rdi
.LVL1016:
	.loc 14 194 7 view .LVU2849
	movq	%rbp, 32(%rbx)
.LVL1017:
	.loc 14 194 7 view .LVU2850
.LBE9087:
.LBE9086:
	.loc 26 401 2 view .LVU2851
	testq	%rdi, %rdi
	je	.L289
.LVL1018:
.LBB9088:
.LBI9088:
	.loc 26 75 7 is_stmt 1 view .LVU2852
.LBB9089:
	.loc 26 81 2 is_stmt 0 view .LVU2853
	movq	(%rdi), %rax
	call	*8(%rax)
.LVL1019:
.L289:
	.loc 26 81 2 view .LVU2854
.LBE9089:
.LBE9088:
.LBE9085:
.LBE9084:
	.loc 1 275 6 is_stmt 1 view .LVU2855
	.loc 1 275 14 is_stmt 0 view .LVU2856
	movl	$6, (%rbx)
	.loc 1 276 6 is_stmt 1 view .LVU2857
.LVL1020:
.LBB9090:
.LBI9090:
	.loc 25 105 13 view .LVU2858
	.loc 25 105 13 is_stmt 0 view .LVU2859
.LBE9090:
	.loc 1 276 15 view .LVU2860
	movl	$2, %r13d
	.loc 1 278 6 is_stmt 1 view .LVU2861
.LVL1021:
.LBB9091:
.LBI9091:
	.loc 23 565 5 view .LVU2862
	.loc 23 565 5 is_stmt 0 view .LVU2863
.LBE9091:
.LBE9107:
.LBE9276:
.LBE9286:
.LBE10149:
.LBE10234:
	.loc 13 332 2 is_stmt 1 view .LVU2864
	.loc 13 335 2 view .LVU2865
.LBB10235:
.LBB10150:
.LBB9287:
.LBB9277:
.LBB9108:
.LBB9093:
.LBB9092:
	.loc 23 570 18 is_stmt 0 view .LVU2866
	movl	$52, %edx
	movl	$.LC25, %esi
	movl	$_ZSt4cout, %edi
.LEHB23:
	call	_ZSt16__ostream_insertIcSt11char_traitsIcEERSt13basic_ostreamIT_T0_ES6_PKS3_l
.LVL1022:
	.loc 23 570 18 view .LVU2867
.LBE9092:
.LBE9093:
	.loc 1 278 128 view .LVU2868
	movswl	32(%rsp), %esi
	movl	$_ZSt4cout, %edi
	call	_ZNSolsEs
.LVL1023:
	movq	%rax, %rbp
.LVL1024:
.LBB9094:
.LBI9094:
	.loc 23 565 5 is_stmt 1 view .LVU2869
	.loc 23 565 5 is_stmt 0 view .LVU2870
.LBE9094:
.LBE9108:
.LBE9277:
.LBE9287:
.LBE10150:
.LBE10235:
	.loc 13 332 2 is_stmt 1 view .LVU2871
	.loc 13 335 2 view .LVU2872
.LBB10236:
.LBB10151:
.LBB9288:
.LBB9278:
.LBB9109:
.LBB9096:
.LBB9095:
	.loc 23 570 18 is_stmt 0 view .LVU2873
	movl	$17, %edx
	movl	$.LC21, %esi
	movq	%rax, %rdi
	call	_ZSt16__ostream_insertIcSt11char_traitsIcEERSt13basic_ostreamIT_T0_ES6_PKS3_l
.LVL1025:
	.loc 23 570 18 view .LVU2874
.LBE9095:
.LBE9096:
	.loc 1 278 128 view .LVU2875
	movq	%rbx, %rsi
	movq	%r12, %rdi
	call	_ZNSt3mapIN3mpp9RepParser5StateENSt7__cxx1112basic_stringIcSt11char_traitsIcESaIcEEESt4lessIS2_ESaISt4pairIKS2_S8_EEEixERSC_
.LVL1026:
.LBB9097:
.LBI9097:
	.loc 7 6416 5 is_stmt 1 view .LVU2876
.LBB9098:
.LBB9099:
.LBI9099:
	.loc 7 930 7 view .LVU2877
.LBB9100:
	.loc 7 931 16 is_stmt 0 view .LVU2878
	movq	8(%rax), %rdx
.LVL1027:
	.loc 7 931 16 view .LVU2879
.LBE9100:
.LBE9099:
.LBB9101:
.LBI9101:
	.loc 7 2312 7 is_stmt 1 view .LVU2880
.LBB9102:
.LBI9102:
	.loc 7 186 7 view .LVU2881
.LBB9103:
	.loc 7 187 28 is_stmt 0 view .LVU2882
	movq	(%rax), %rsi
.LVL1028:
	.loc 7 187 28 view .LVU2883
.LBE9103:
.LBE9102:
.LBE9101:
	.loc 7 6421 30 view .LVU2884
	movq	%rbp, %rdi
	call	_ZSt16__ostream_insertIcSt11char_traitsIcEERSt13basic_ostreamIT_T0_ES6_PKS3_l
.LVL1029:
	.loc 7 6421 30 view .LVU2885
	movq	%rax, %rdi
.LVL1030:
	.loc 7 6421 30 view .LVU2886
.LBE9098:
.LBE9097:
.LBB9104:
.LBI9104:
	.loc 23 108 7 is_stmt 1 view .LVU2887
.LBB9105:
	.loc 23 113 13 is_stmt 0 view .LVU2888
	call	_ZSt4endlIcSt11char_traitsIcEERSt13basic_ostreamIT_T0_ES6_
.LVL1031:
	.loc 23 113 13 view .LVU2889
	jmp	.L186
.LVL1032:
.L450:
	.loc 23 113 13 view .LVU2890
.LBE9105:
.LBE9104:
.LBE9109:
.LBB9110:
.LBB9068:
.LBB9067:
.LBB9066:
.LBB9063:
.LBB9061:
.LBB9057:
	.loc 24 50 18 view .LVU2891
	call	_ZSt16__throw_bad_castv
.LVL1033:
.L293:
	.loc 24 50 18 view .LVU2892
.LBE9057:
.LBE9061:
.LBB9062:
.LBB9060:
	.loc 5 876 2 is_stmt 1 view .LVU2893
	.loc 5 876 21 is_stmt 0 view .LVU2894
	movq	%rbp, %rdi
	call	_ZNKSt5ctypeIcE13_M_widen_initEv
.LVL1034:
	.loc 5 877 2 is_stmt 1 view .LVU2895
	.loc 5 877 27 is_stmt 0 view .LVU2896
	movq	0(%rbp), %rax
	.loc 5 877 23 view .LVU2897
	movl	$10, %esi
	movq	%rbp, %rdi
	call	*48(%rax)
.LVL1035:
	.loc 5 877 27 view .LVU2898
	jmp	.L294
.LVL1036:
.L194:
	.loc 5 877 27 view .LVU2899
.LBE9060:
.LBE9062:
.LBE9063:
.LBE9066:
.LBE9067:
.LBE9068:
.LBE9110:
.LBE9278:
.LBE9288:
	.loc 1 294 3 is_stmt 1 view .LVU2900
	.loc 1 295 3 view .LVU2901
.LBE10151:
.LBE10236:
	.loc 1 296 4 view .LVU2902
.LBB10237:
.LBB10152:
.LBB9289:
	.loc 1 296 21 is_stmt 0 view .LVU2903
	movzbl	12(%rsp), %edi
	.loc 1 296 20 view .LVU2904
	movzbl	%dil, %eax
	subl	$48, %eax
	.loc 1 296 4 view .LVU2905
	cmpl	$9, %eax
	jbe	.L454
.LBE9289:
.LBE10152:
.LBE10237:
	.loc 1 308 9 is_stmt 1 view .LVU2906
.LBB10238:
.LBB10153:
.LBB9629:
.LBB9290:
	.loc 1 308 25 is_stmt 0 view .LVU2907
	movzbl	%dil, %edi
	call	isspace
.LVL1037:
	.loc 1 308 9 view .LVU2908
	testl	%eax, %eax
	je	.L308
.LBB9291:
	.loc 1 311 5 is_stmt 1 view .LVU2909
.LVL1038:
.LBB9292:
.LBI9292:
	.loc 23 565 5 view .LVU2910
	.loc 23 565 5 is_stmt 0 view .LVU2911
.LBE9292:
.LBE9291:
.LBE9290:
.LBE9629:
.LBE10153:
.LBE10238:
	.loc 13 332 2 is_stmt 1 view .LVU2912
	.loc 13 335 2 view .LVU2913
.LBB10239:
.LBB10154:
.LBB9630:
.LBB9451:
.LBB9406:
.LBB9294:
.LBB9293:
	.loc 23 570 18 is_stmt 0 view .LVU2914
	movl	$49, %edx
	movl	$.LC29, %esi
	movl	$_ZSt4cout, %edi
	call	_ZSt16__ostream_insertIcSt11char_traitsIcEERSt13basic_ostreamIT_T0_ES6_PKS3_l
.LVL1039:
	.loc 23 570 18 view .LVU2915
.LBE9293:
.LBE9294:
	.loc 1 311 95 view .LVU2916
	leaq	112(%rbx), %rbp
.LVL1040:
.LBB9295:
.LBI9295:
	.loc 22 490 7 is_stmt 1 view .LVU2917
.LBB9296:
.LBB9297:
.LBI9297:
	.loc 22 1257 7 view .LVU2918
.LBB9298:
.LBB9299:
.LBI9299:
	.loc 6 1281 7 view .LVU2919
.LBB9300:
.LBB9301:
.LBI9301:
	.loc 6 755 7 view .LVU2920
.LBB9302:
	.loc 6 756 31 is_stmt 0 view .LVU2921
	leaq	120(%rbx), %r13
.LVL1041:
	.loc 6 756 31 view .LVU2922
.LBE9302:
.LBE9301:
.LBB9303:
.LBI9303:
	.loc 6 744 7 is_stmt 1 view .LVU2923
.LBB9304:
	.loc 6 745 73 is_stmt 0 view .LVU2924
	movq	16(%rbp), %rsi
.LVL1042:
	.loc 6 745 73 view .LVU2925
.LBE9304:
.LBE9303:
	.loc 6 1282 56 view .LVU2926
	leaq	12(%rsp), %rcx
.LVL1043:
	.loc 6 1282 56 view .LVU2927
	movq	%r13, %rdx
	movq	%rbp, %rdi
	call	_ZNSt8_Rb_treeIcSt4pairIKcNSt7__cxx1112basic_stringIcSt11char_traitsIcESaIcEEEESt10_Select1stIS8_ESt4lessIcESaIS8_EE14_M_lower_boundEPSt13_Rb_tree_nodeIS8_EPSt18_Rb_tree_node_baseRS1_
.LVL1044:
	.loc 6 1282 56 view .LVU2928
.LBE9300:
.LBE9299:
.LBE9298:
.LBE9297:
	.loc 22 495 11 view .LVU2929
	movq	%rax, %rdx
.LVL1045:
.LBB9305:
.LBI9305:
	.loc 22 372 7 is_stmt 1 view .LVU2930
.LBB9306:
.LBI9306:
	.loc 6 1014 7 view .LVU2931
.LBB9307:
.LBI9307:
	.loc 6 273 7 view .LVU2932
	.loc 6 273 7 is_stmt 0 view .LVU2933
.LBE9307:
.LBE9306:
.LBE9305:
.LBB9308:
.LBI9308:
	.loc 6 315 7 is_stmt 1 view .LVU2934
.LBB9309:
	.loc 6 316 20 is_stmt 0 view .LVU2935
	movq	%rax, %rsi
.LVL1046:
	.loc 6 316 20 view .LVU2936
.LBE9309:
.LBE9308:
	.loc 22 497 19 view .LVU2937
	cmpq	%rax, %r13
	je	.L309
.LVL1047:
.LBB9310:
.LBI9310:
	.loc 17 385 7 is_stmt 1 view .LVU2938
	.loc 17 385 7 is_stmt 0 view .LVU2939
.LBE9310:
	.loc 22 497 19 view .LVU2940
	movzbl	32(%rax), %eax
	cmpb	%al, 12(%rsp)
	jge	.L310
.L309:
.LVL1048:
.LBB9311:
.LBI9311:
	.loc 21 588 19 is_stmt 1 view .LVU2941
.LBB9312:
.LBI9312:
	.loc 21 343 17 view .LVU2942
.LBB9313:
.LBI9313:
	.loc 21 125 17 view .LVU2943
.LBB9314:
.LBB9315:
	.loc 21 126 25 is_stmt 0 view .LVU2944
	leaq	12(%rsp), %rax
.LVL1049:
	.loc 21 126 25 view .LVU2945
	movq	%rax, 184(%rsp)
.LVL1050:
	.loc 21 126 25 view .LVU2946
.LBE9315:
.LBE9314:
.LBE9313:
.LBE9312:
.LBE9311:
.LBB9316:
.LBI9316:
	.loc 6 348 7 is_stmt 1 view .LVU2947
	.loc 6 348 7 is_stmt 0 view .LVU2948
.LBE9316:
	.loc 22 499 8 view .LVU2949
	leaq	199(%rsp), %r8
	leaq	184(%rsp), %rcx
	movl	$_ZSt19piecewise_construct, %edx
	movq	%rbp, %rdi
	call	_ZNSt8_Rb_treeIcSt4pairIKcNSt7__cxx1112basic_stringIcSt11char_traitsIcESaIcEEEESt10_Select1stIS8_ESt4lessIcESaIS8_EE22_M_emplace_hint_uniqueIJRKSt21piecewise_construct_tSt5tupleIJRS1_EESJ_IJEEEEESt17_Rb_tree_iteratorIS8_ESt23_Rb_tree_const_iteratorIS8_EDpOT_
.LVL1051:
	.loc 22 499 8 view .LVU2950
	movq	%rax, %rdx
.L310:
.LVL1052:
.LBB9317:
.LBI9317:
	.loc 6 277 7 is_stmt 1 view .LVU2951
	.loc 6 277 7 is_stmt 0 view .LVU2952
.LBE9317:
.LBE9296:
.LBE9295:
.LBB9318:
.LBI9318:
	.loc 7 6416 5 is_stmt 1 view .LVU2953
.LBB9319:
.LBB9320:
.LBI9320:
	.loc 7 930 7 view .LVU2954
.LBB9321:
	.loc 7 931 16 is_stmt 0 view .LVU2955
	movq	48(%rdx), %rax
.LVL1053:
	.loc 7 931 16 view .LVU2956
.LBE9321:
.LBE9320:
.LBB9322:
.LBI9322:
	.loc 7 2312 7 is_stmt 1 view .LVU2957
.LBB9323:
.LBI9323:
	.loc 7 186 7 view .LVU2958
.LBB9324:
	.loc 7 187 28 is_stmt 0 view .LVU2959
	movq	40(%rdx), %rsi
.LVL1054:
	.loc 7 187 28 view .LVU2960
.LBE9324:
.LBE9323:
.LBE9322:
	.loc 7 6421 30 view .LVU2961
	movq	%rax, %rdx
.LVL1055:
	.loc 7 6421 30 view .LVU2962
	movl	$_ZSt4cout, %edi
	call	_ZSt16__ostream_insertIcSt11char_traitsIcEERSt13basic_ostreamIT_T0_ES6_PKS3_l
.LVL1056:
	movq	%rax, %rbp
.LVL1057:
	.loc 7 6421 30 view .LVU2963
.LBE9319:
.LBE9318:
.LBB9325:
.LBI9325:
	.loc 23 565 5 is_stmt 1 view .LVU2964
	.loc 23 565 5 is_stmt 0 view .LVU2965
.LBE9325:
.LBE9406:
.LBE9451:
.LBE9630:
.LBE10154:
.LBE10239:
	.loc 13 332 2 is_stmt 1 view .LVU2966
	.loc 13 335 2 view .LVU2967
.LBB10240:
.LBB10155:
.LBB9631:
.LBB9452:
.LBB9407:
.LBB9327:
.LBB9326:
	.loc 23 570 18 is_stmt 0 view .LVU2968
	movl	$1, %edx
	movl	$.LC2, %esi
	movq	%rax, %rdi
	call	_ZSt16__ostream_insertIcSt11char_traitsIcEERSt13basic_ostreamIT_T0_ES6_PKS3_l
.LVL1058:
	.loc 23 570 18 view .LVU2969
.LBE9326:
.LBE9327:
.LBB9328:
.LBI9328:
	.loc 23 108 7 is_stmt 1 view .LVU2970
.LBB9329:
.LBI9329:
	.loc 23 599 5 view .LVU2971
.LBB9330:
	.loc 23 600 19 is_stmt 0 view .LVU2972
	movq	0(%rbp), %rax
	movq	%rbp, %rcx
	addq	-24(%rax), %rcx
.LVL1059:
.LBB9331:
.LBI9331:
	.loc 24 449 7 is_stmt 1 view .LVU2973
.LBB9332:
	.loc 24 450 30 is_stmt 0 view .LVU2974
	movq	240(%rcx), %r13
.LVL1060:
.LBB9333:
.LBI9333:
	.loc 24 47 5 is_stmt 1 view .LVU2975
.LBB9334:
	.loc 24 49 7 is_stmt 0 view .LVU2976
	testq	%r13, %r13
	je	.L455
.LVL1061:
	.loc 24 49 7 view .LVU2977
.LBE9334:
.LBE9333:
.LBB9336:
.LBI9336:
	.loc 5 872 7 is_stmt 1 view .LVU2978
.LBB9337:
	.loc 5 874 2 view .LVU2979
	cmpb	$0, 56(%r13)
	je	.L312
	.loc 5 875 4 view .LVU2980
	.loc 5 875 51 is_stmt 0 view .LVU2981
	movzbl	67(%r13), %eax
.LVL1062:
.L313:
	.loc 5 875 51 view .LVU2982
.LBE9337:
.LBE9336:
.LBE9332:
.LBE9331:
	.loc 23 600 19 view .LVU2983
	movsbl	%al, %esi
	movq	%rbp, %rdi
	call	_ZNSo3putEc
.LVL1063:
	movq	%rax, %rdi
.LVL1064:
.LBB9342:
.LBI9342:
	.loc 23 621 5 is_stmt 1 view .LVU2984
.LBB9343:
	.loc 23 622 25 is_stmt 0 view .LVU2985
	call	_ZNSo5flushEv
.LVL1065:
	.loc 23 622 25 view .LVU2986
.LBE9343:
.LBE9342:
.LBE9330:
.LBE9329:
.LBE9328:
	.loc 1 313 5 is_stmt 1 view .LVU2987
	.loc 1 314 5 view .LVU2988
.LBB9347:
.LBI9347:
	.loc 26 344 7 view .LVU2989
.LBB9348:
.LBI9348:
	.loc 26 360 7 view .LVU2990
.LBB9349:
.LBI9349:
	.loc 26 154 15 view .LVU2991
.LBB9350:
	.loc 26 154 55 is_stmt 0 view .LVU2992
	movq	32(%rbx), %rdi
.LVL1066:
	.loc 26 154 55 view .LVU2993
.LBE9350:
.LBE9349:
.LBE9348:
.LBE9347:
	.loc 1 314 20 view .LVU2994
	leaq	32(%rsp), %rsi
	call	_ZNSirsERs
.LVL1067:
	.loc 1 316 5 is_stmt 1 view .LVU2995
.LBB9351:
.LBI9351:
	.loc 23 565 5 view .LVU2996
	.loc 23 565 5 is_stmt 0 view .LVU2997
.LBE9351:
.LBE9407:
.LBE9452:
.LBE9631:
.LBE10155:
.LBE10240:
	.loc 13 332 2 is_stmt 1 view .LVU2998
	.loc 13 335 2 view .LVU2999
.LBB10241:
.LBB10156:
.LBB9632:
.LBB9453:
.LBB9408:
.LBB9353:
.LBB9352:
	.loc 23 570 18 is_stmt 0 view .LVU3000
	movl	$38, %edx
	movl	$.LC30, %esi
	movl	$_ZSt4cout, %edi
	call	_ZSt16__ostream_insertIcSt11char_traitsIcEERSt13basic_ostreamIT_T0_ES6_PKS3_l
.LVL1068:
	.loc 23 570 18 view .LVU3001
.LBE9352:
.LBE9353:
	.loc 1 316 62 view .LVU3002
	movswl	32(%rsp), %esi
	movl	$_ZSt4cout, %edi
	call	_ZNSolsEs
.LVL1069:
	movq	%rax, %rbp
.LVL1070:
.LBB9354:
.LBI9354:
	.loc 23 108 7 is_stmt 1 view .LVU3003
.LBB9355:
.LBI9355:
	.loc 23 599 5 view .LVU3004
.LBB9356:
	.loc 23 600 19 is_stmt 0 view .LVU3005
	movq	(%rax), %rax
.LVL1071:
	.loc 23 600 19 view .LVU3006
	movq	%rbp, %rcx
	addq	-24(%rax), %rcx
.LVL1072:
.LBB9357:
.LBI9357:
	.loc 24 449 7 is_stmt 1 view .LVU3007
.LBB9358:
	.loc 24 450 30 is_stmt 0 view .LVU3008
	movq	240(%rcx), %r13
.LVL1073:
.LBB9359:
.LBI9359:
	.loc 24 47 5 is_stmt 1 view .LVU3009
.LBB9360:
	.loc 24 49 7 is_stmt 0 view .LVU3010
	testq	%r13, %r13
	je	.L456
.LVL1074:
	.loc 24 49 7 view .LVU3011
.LBE9360:
.LBE9359:
.LBB9362:
.LBI9362:
	.loc 5 872 7 is_stmt 1 view .LVU3012
.LBB9363:
	.loc 5 874 2 view .LVU3013
	cmpb	$0, 56(%r13)
	je	.L315
	.loc 5 875 4 view .LVU3014
	.loc 5 875 51 is_stmt 0 view .LVU3015
	movzbl	67(%r13), %eax
.LVL1075:
.L316:
	.loc 5 875 51 view .LVU3016
.LBE9363:
.LBE9362:
.LBE9358:
.LBE9357:
	.loc 23 600 19 view .LVU3017
	movsbl	%al, %esi
	movq	%rbp, %rdi
	call	_ZNSo3putEc
.LVL1076:
	movq	%rax, %rdi
.LVL1077:
.LBB9368:
.LBI9368:
	.loc 23 621 5 is_stmt 1 view .LVU3018
.LBB9369:
	.loc 23 622 25 is_stmt 0 view .LVU3019
	call	_ZNSo5flushEv
.LVL1078:
	.loc 23 622 25 view .LVU3020
.LBE9369:
.LBE9368:
.LBE9356:
.LBE9355:
.LBE9354:
	.loc 1 319 5 is_stmt 1 view .LVU3021
	movzwl	32(%rsp), %eax
	cmpw	%ax, 12(%rbx)
	je	.L317
	.loc 1 321 6 view .LVU3022
.LVL1079:
.LBB9373:
.LBI9373:
	.loc 25 98 13 view .LVU3023
	.loc 25 98 13 is_stmt 0 view .LVU3024
.LBE9373:
	.loc 1 321 15 view .LVU3025
	movl	$0, %r13d
	.loc 1 323 6 is_stmt 1 view .LVU3026
.LVL1080:
.LBB9374:
.LBI9374:
	.loc 23 565 5 view .LVU3027
	.loc 23 565 5 is_stmt 0 view .LVU3028
.LBE9374:
.LBE9408:
.LBE9453:
.LBE9632:
.LBE10156:
.LBE10241:
	.loc 13 332 2 is_stmt 1 view .LVU3029
	.loc 13 335 2 view .LVU3030
.LBB10242:
.LBB10157:
.LBB9633:
.LBB9454:
.LBB9409:
.LBB9376:
.LBB9375:
	.loc 23 570 18 is_stmt 0 view .LVU3031
	movl	$46, %edx
	movl	$.LC31, %esi
	movl	$_ZSt4cout, %edi
	call	_ZSt16__ostream_insertIcSt11char_traitsIcEERSt13basic_ostreamIT_T0_ES6_PKS3_l
.LVL1081:
	.loc 23 570 18 view .LVU3032
.LBE9375:
.LBE9376:
	.loc 1 323 88 view .LVU3033
	movswl	12(%rbx), %esi
	movl	$_ZSt4cout, %edi
	call	_ZNSolsEs
.LVL1082:
	movq	%rax, %rbx
.LVL1083:
.LBB9377:
.LBI9377:
	.loc 23 565 5 is_stmt 1 view .LVU3034
	.loc 23 565 5 is_stmt 0 view .LVU3035
.LBE9377:
.LBE9409:
.LBE9454:
.LBE9633:
.LBE10157:
.LBE10242:
	.loc 13 332 2 is_stmt 1 view .LVU3036
	.loc 13 335 2 view .LVU3037
.LBB10243:
.LBB10158:
.LBB9634:
.LBB9455:
.LBB9410:
.LBB9379:
.LBB9378:
	.loc 23 570 18 is_stmt 0 view .LVU3038
	movl	$11, %edx
	movl	$.LC19, %esi
	movq	%rax, %rdi
	call	_ZSt16__ostream_insertIcSt11char_traitsIcEERSt13basic_ostreamIT_T0_ES6_PKS3_l
.LVL1084:
	.loc 23 570 18 view .LVU3039
.LBE9378:
.LBE9379:
	.loc 1 323 105 view .LVU3040
	movswl	32(%rsp), %esi
	movq	%rbx, %rdi
	call	_ZNSolsEs
.LVL1085:
	movq	%rax, %rdi
.LVL1086:
.LBB9380:
.LBI9380:
	.loc 23 108 7 is_stmt 1 view .LVU3041
.LBB9381:
	.loc 23 113 13 is_stmt 0 view .LVU3042
	call	_ZSt4endlIcSt11char_traitsIcEERSt13basic_ostreamIT_T0_ES6_
.LVL1087:
	.loc 23 113 13 view .LVU3043
	jmp	.L186
.LVL1088:
.L454:
	.loc 23 113 13 view .LVU3044
.LBE9381:
.LBE9380:
.LBE9410:
.LBE9455:
	.loc 1 299 5 is_stmt 1 view .LVU3045
.LBB9456:
.LBI9456:
	.loc 23 565 5 view .LVU3046
	.loc 23 565 5 is_stmt 0 view .LVU3047
.LBE9456:
.LBE9634:
.LBE10158:
.LBE10243:
	.loc 13 332 2 is_stmt 1 view .LVU3048
	.loc 13 335 2 view .LVU3049
.LBB10244:
.LBB10159:
.LBB9635:
.LBB9458:
.LBB9457:
	.loc 23 570 18 is_stmt 0 view .LVU3050
	movl	$43, %edx
	movl	$.LC26, %esi
	movl	$_ZSt4cout, %edi
