	.file	"Request.cpp"
	.text
.Ltext0:
	.section	.rodata._ZNKSt12bad_any_cast4whatEv.str1.1,"aMS",@progbits,1
.LC0:
	.string	"bad any_cast"
	.section	.text._ZNKSt12bad_any_cast4whatEv,"axG",@progbits,_ZNKSt12bad_any_cast4whatEv,comdat
	.align 2
	.weak	_ZNKSt12bad_any_cast4whatEv
	.type	_ZNKSt12bad_any_cast4whatEv, @function
_ZNKSt12bad_any_cast4whatEv:
.LVL0:
.LFB4516:
	.file 1 "/usr/include/c++/9/any"
	.loc 1 57 25 view -0
	.cfi_startproc
	.loc 1 57 49 view .LVU1
	.loc 1 57 72 is_stmt 0 view .LVU2
	movl	$.LC0, %eax
	ret
	.cfi_endproc
.LFE4516:
	.size	_ZNKSt12bad_any_cast4whatEv, .-_ZNKSt12bad_any_cast4whatEv
	.section	.text._ZNSt3any17_Manager_internalImE9_S_manageENS_3_OpEPKS_PNS_4_ArgE,"axG",@progbits,_ZNSt3any17_Manager_internalImE9_S_manageENS_3_OpEPKS_PNS_4_ArgE,comdat
	.align 2
	.weak	_ZNSt3any17_Manager_internalImE9_S_manageENS_3_OpEPKS_PNS_4_ArgE
	.type	_ZNSt3any17_Manager_internalImE9_S_manageENS_3_OpEPKS_PNS_4_ArgE, @function
_ZNSt3any17_Manager_internalImE9_S_manageENS_3_OpEPKS_PNS_4_ArgE:
.LVL1:
.LFB5992:
	.loc 1 567 5 is_stmt 1 view -0
	.cfi_startproc
	.loc 1 571 12 is_stmt 0 view .LVU4
	leaq	8(%rsi), %rax
.LVL2:
	.loc 1 572 7 view .LVU5
	cmpl	$2, %edi
	je	.L3
	ja	.L4
	testl	%edi, %edi
	je	.L5
	cmpl	$1, %edi
	jne	.L9
	.loc 1 579 2 view .LVU6
	movq	$_ZTIm, (%rdx)
	.loc 1 581 2 view .LVU7
	ret
.L9:
	ret
.L4:
	.loc 1 572 7 view .LVU8
	cmpl	$4, %edi
	jne	.L10
	.loc 1 590 2 view .LVU9
	movq	8(%rsi), %rcx
	.loc 1 590 16 view .LVU10
	movq	(%rdx), %rax
.LVL3:
	.file 2 "/usr/include/c++/9/new"
	.loc 2 174 3 is_stmt 1 view .LVU11
	.loc 2 174 3 is_stmt 0 view .LVU12
	movq	%rcx, 8(%rax)
	.loc 1 593 9 view .LVU13
	movq	(%rdx), %rax
	.loc 1 593 37 view .LVU14
	movq	(%rsi), %rdx
.LVL4:
	.loc 1 593 2 view .LVU15
	movq	%rdx, (%rax)
	.loc 1 594 2 view .LVU16
	movq	$0, (%rsi)
	.loc 1 597 5 view .LVU17
	ret
.LVL5:
.L10:
	.loc 1 597 5 view .LVU18
	ret
.L5:
	.loc 1 575 2 view .LVU19
	movq	%rax, (%rdx)
	.loc 1 576 2 view .LVU20
	ret
.L3:
	.loc 1 583 16 view .LVU21
	movq	(%rdx), %rax
.LVL6:
	.loc 2 174 3 is_stmt 1 view .LVU22
	.loc 2 174 3 is_stmt 0 view .LVU23
	movq	8(%rsi), %rcx
	movq	%rcx, 8(%rax)
	.loc 1 584 9 view .LVU24
	movq	(%rdx), %rax
	.loc 1 584 37 view .LVU25
	movq	(%rsi), %rdx
.LVL7:
	.loc 1 584 2 view .LVU26
	movq	%rdx, (%rax)
	.loc 1 585 2 view .LVU27
	ret
	.cfi_endproc
.LFE5992:
	.size	_ZNSt3any17_Manager_internalImE9_S_manageENS_3_OpEPKS_PNS_4_ArgE, .-_ZNSt3any17_Manager_internalImE9_S_manageENS_3_OpEPKS_PNS_4_ArgE
	.section	.text._ZN3mpp10exceptions13UnknownHeaderD1Ev,"axG",@progbits,_ZN3mpp10exceptions13UnknownHeaderD1Ev,comdat
	.align 2
	.weak	_ZN3mpp10exceptions13UnknownHeaderD1Ev
	.type	_ZN3mpp10exceptions13UnknownHeaderD1Ev, @function
_ZN3mpp10exceptions13UnknownHeaderD1Ev:
.LVL8:
.LFB6168:
	.file 3 "./hpp/mpp/exceptions/UnknownHeader.hpp"
	.loc 3 17 9 is_stmt 1 view -0
	.cfi_startproc
	.loc 3 17 9 is_stmt 0 view .LVU29
	subq	$8, %rsp
	.cfi_def_cfa_offset 16
.LVL9:
.LBB4693:
.LBB4694:
.LBI4694:
	.file 4 "./hpp/mpp/exceptions/Exception.hpp"
	.loc 4 33 13 is_stmt 1 view .LVU30
.LBB4695:
	movq	$_ZTCN3mpp10exceptions13UnknownHeaderE0_NS0_9ExceptionE+24, (%rdi)
	leaq	8(%rdi), %rax
	movq	$_ZTCN3mpp10exceptions13UnknownHeaderE0_NS0_9ExceptionE+72, 8(%rdi)
.LVL10:
	.loc 4 33 13 is_stmt 0 view .LVU31
.LBE4695:
.LBE4694:
	.loc 3 17 9 view .LVU32
	movq	%rax, %rdi
.LVL11:
	.loc 3 17 9 view .LVU33
	call	_ZNSt11logic_errorD2Ev
.LVL12:
	.loc 3 17 9 view .LVU34
.LBE4693:
	addq	$8, %rsp
	.cfi_def_cfa_offset 8
	ret
	.cfi_endproc
.LFE6168:
	.size	_ZN3mpp10exceptions13UnknownHeaderD1Ev, .-_ZN3mpp10exceptions13UnknownHeaderD1Ev
	.section	.text._ZN3mpp10exceptions14BadHeaderValueD1Ev,"axG",@progbits,_ZN3mpp10exceptions14BadHeaderValueD1Ev,comdat
	.align 2
	.weak	_ZN3mpp10exceptions14BadHeaderValueD1Ev
	.type	_ZN3mpp10exceptions14BadHeaderValueD1Ev, @function
_ZN3mpp10exceptions14BadHeaderValueD1Ev:
.LVL13:
.LFB6140:
	.file 5 "./hpp/mpp/exceptions/BadHeaderValue.hpp"
	.loc 5 19 9 is_stmt 1 view -0
	.cfi_startproc
	.loc 5 19 9 is_stmt 0 view .LVU36
	subq	$8, %rsp
	.cfi_def_cfa_offset 16
.LVL14:
.LBB4699:
.LBB4700:
.LBI4700:
	.loc 4 33 13 is_stmt 1 view .LVU37
.LBB4701:
	movq	$_ZTCN3mpp10exceptions14BadHeaderValueE0_NS0_9ExceptionE+24, (%rdi)
	leaq	8(%rdi), %rax
	movq	$_ZTCN3mpp10exceptions14BadHeaderValueE0_NS0_9ExceptionE+72, 8(%rdi)
.LVL15:
	.loc 4 33 13 is_stmt 0 view .LVU38
.LBE4701:
.LBE4700:
	.loc 5 19 9 view .LVU39
	movq	%rax, %rdi
.LVL16:
	.loc 5 19 9 view .LVU40
	call	_ZNSt11logic_errorD2Ev
.LVL17:
	.loc 5 19 9 view .LVU41
.LBE4699:
	addq	$8, %rsp
	.cfi_def_cfa_offset 8
	ret
	.cfi_endproc
.LFE6140:
	.size	_ZN3mpp10exceptions14BadHeaderValueD1Ev, .-_ZN3mpp10exceptions14BadHeaderValueD1Ev
	.section	.text._ZN3mpp10exceptions13UnknownHeaderD0Ev,"axG",@progbits,_ZN3mpp10exceptions13UnknownHeaderD0Ev,comdat
	.align 2
	.weak	_ZN3mpp10exceptions13UnknownHeaderD0Ev
	.type	_ZN3mpp10exceptions13UnknownHeaderD0Ev, @function
_ZN3mpp10exceptions13UnknownHeaderD0Ev:
.LVL18:
.LFB6169:
	.loc 3 17 9 is_stmt 1 view -0
	.cfi_startproc
	.loc 3 17 9 is_stmt 0 view .LVU43
	pushq	%rbx
	.cfi_def_cfa_offset 16
	.cfi_offset 3, -16
	movq	%rdi, %rbx
.LVL19:
.LBB4706:
.LBI4706:
	.loc 3 17 9 is_stmt 1 view .LVU44
.LBB4707:
.LBB4708:
.LBI4708:
	.loc 4 33 13 view .LVU45
.LBB4709:
	movq	$_ZTCN3mpp10exceptions13UnknownHeaderE0_NS0_9ExceptionE+24, (%rdi)
	leaq	8(%rdi), %rdi
.LVL20:
	.loc 4 33 13 is_stmt 0 view .LVU46
	movq	$_ZTCN3mpp10exceptions13UnknownHeaderE0_NS0_9ExceptionE+72, 8(%rbx)
.LVL21:
	.loc 4 33 13 view .LVU47
.LBE4709:
.LBE4708:
	.loc 3 17 9 view .LVU48
	call	_ZNSt11logic_errorD2Ev
.LVL22:
	.loc 3 17 9 view .LVU49
.LBE4707:
.LBE4706:
	movl	$24, %esi
	movq	%rbx, %rdi
	call	_ZdlPvm
.LVL23:
	popq	%rbx
	.cfi_def_cfa_offset 8
.LVL24:
	.loc 3 17 9 view .LVU50
	ret
	.cfi_endproc
.LFE6169:
	.size	_ZN3mpp10exceptions13UnknownHeaderD0Ev, .-_ZN3mpp10exceptions13UnknownHeaderD0Ev
	.section	.text._ZN3mpp10exceptions14BadHeaderValueD0Ev,"axG",@progbits,_ZN3mpp10exceptions14BadHeaderValueD0Ev,comdat
	.align 2
	.weak	_ZN3mpp10exceptions14BadHeaderValueD0Ev
	.type	_ZN3mpp10exceptions14BadHeaderValueD0Ev, @function
_ZN3mpp10exceptions14BadHeaderValueD0Ev:
.LVL25:
.LFB6141:
	.loc 5 19 9 is_stmt 1 view -0
	.cfi_startproc
	.loc 5 19 9 is_stmt 0 view .LVU52
	pushq	%rbx
	.cfi_def_cfa_offset 16
	.cfi_offset 3, -16
	movq	%rdi, %rbx
.LVL26:
.LBB4714:
.LBI4714:
	.loc 5 19 9 is_stmt 1 view .LVU53
.LBB4715:
.LBB4716:
.LBI4716:
	.loc 4 33 13 view .LVU54
.LBB4717:
	movq	$_ZTCN3mpp10exceptions14BadHeaderValueE0_NS0_9ExceptionE+24, (%rdi)
	leaq	8(%rdi), %rdi
.LVL27:
	.loc 4 33 13 is_stmt 0 view .LVU55
	movq	$_ZTCN3mpp10exceptions14BadHeaderValueE0_NS0_9ExceptionE+72, 8(%rbx)
.LVL28:
	.loc 4 33 13 view .LVU56
.LBE4717:
.LBE4716:
	.loc 5 19 9 view .LVU57
	call	_ZNSt11logic_errorD2Ev
.LVL29:
	.loc 5 19 9 view .LVU58
.LBE4715:
.LBE4714:
	movl	$24, %esi
	movq	%rbx, %rdi
	call	_ZdlPvm
.LVL30:
	popq	%rbx
	.cfi_def_cfa_offset 8
.LVL31:
	.loc 5 19 9 view .LVU59
	ret
	.cfi_endproc
.LFE6141:
	.size	_ZN3mpp10exceptions14BadHeaderValueD0Ev, .-_ZN3mpp10exceptions14BadHeaderValueD0Ev
	.section	.text._ZNSt12bad_any_castD2Ev,"axG",@progbits,_ZNSt12bad_any_castD5Ev,comdat
	.align 2
	.weak	_ZNSt12bad_any_castD2Ev
	.type	_ZNSt12bad_any_castD2Ev, @function
_ZNSt12bad_any_castD2Ev:
.LVL32:
.LFB6143:
	.loc 1 54 9 is_stmt 1 view -0
	.cfi_startproc
	.loc 1 54 9 is_stmt 0 view .LVU61
	subq	$8, %rsp
	.cfi_def_cfa_offset 16
.LBB4718:
	.loc 1 54 9 view .LVU62
	movq	$_ZTVSt12bad_any_cast+16, (%rdi)
	call	_ZNSt8bad_castD2Ev
.LVL33:
	.loc 1 54 9 view .LVU63
.LBE4718:
	addq	$8, %rsp
	.cfi_def_cfa_offset 8
	ret
	.cfi_endproc
.LFE6143:
	.size	_ZNSt12bad_any_castD2Ev, .-_ZNSt12bad_any_castD2Ev
	.weak	_ZNSt12bad_any_castD1Ev
	.set	_ZNSt12bad_any_castD1Ev,_ZNSt12bad_any_castD2Ev
	.section	.text._ZNSt12bad_any_castD0Ev,"axG",@progbits,_ZNSt12bad_any_castD5Ev,comdat
	.align 2
	.weak	_ZNSt12bad_any_castD0Ev
	.type	_ZNSt12bad_any_castD0Ev, @function
_ZNSt12bad_any_castD0Ev:
.LVL34:
.LFB6145:
	.loc 1 54 9 is_stmt 1 view -0
	.cfi_startproc
	.loc 1 54 9 is_stmt 0 view .LVU65
	pushq	%rbx
	.cfi_def_cfa_offset 16
	.cfi_offset 3, -16
	movq	%rdi, %rbx
.LVL35:
.LBB4719:
.LBI4719:
	.loc 1 54 9 is_stmt 1 view .LVU66
.LBB4720:
	movq	$_ZTVSt12bad_any_cast+16, (%rdi)
	call	_ZNSt8bad_castD2Ev
.LVL36:
	.loc 1 54 9 is_stmt 0 view .LVU67
.LBE4720:
.LBE4719:
	movl	$8, %esi
	movq	%rbx, %rdi
	call	_ZdlPvm
.LVL37:
	popq	%rbx
	.cfi_def_cfa_offset 8
.LVL38:
	.loc 1 54 9 view .LVU68
	ret
	.cfi_endproc
.LFE6145:
	.size	_ZNSt12bad_any_castD0Ev, .-_ZNSt12bad_any_castD0Ev
	.section	.text._ZN3mpp10exceptions14BadHeaderValueD1Ev,"axG",@progbits,_ZN3mpp10exceptions14BadHeaderValueD1Ev,comdat
	.weak	_ZTv0_n24_N3mpp10exceptions14BadHeaderValueD1Ev
	.type	_ZTv0_n24_N3mpp10exceptions14BadHeaderValueD1Ev, @function
_ZTv0_n24_N3mpp10exceptions14BadHeaderValueD1Ev:
.LFB6170:
	.cfi_startproc
	subq	$8, %rsp
	.cfi_def_cfa_offset 16
	movq	(%rdi), %rax
	addq	-24(%rax), %rdi
	movq	$_ZTCN3mpp10exceptions14BadHeaderValueE0_NS0_9ExceptionE+24, (%rdi)
	leaq	8(%rdi), %rax
	movq	$_ZTCN3mpp10exceptions14BadHeaderValueE0_NS0_9ExceptionE+72, 8(%rdi)
	movq	%rax, %rdi
	call	_ZNSt11logic_errorD2Ev
	addq	$8, %rsp
	.cfi_def_cfa_offset 8
	ret
	.cfi_endproc
.LFE6170:
	.size	_ZTv0_n24_N3mpp10exceptions14BadHeaderValueD1Ev, .-_ZTv0_n24_N3mpp10exceptions14BadHeaderValueD1Ev
	.section	.text._ZN3mpp10exceptions13UnknownHeaderD1Ev,"axG",@progbits,_ZN3mpp10exceptions13UnknownHeaderD1Ev,comdat
	.weak	_ZTv0_n24_N3mpp10exceptions13UnknownHeaderD1Ev
	.type	_ZTv0_n24_N3mpp10exceptions13UnknownHeaderD1Ev, @function
_ZTv0_n24_N3mpp10exceptions13UnknownHeaderD1Ev:
.LFB6171:
	.cfi_startproc
	subq	$8, %rsp
	.cfi_def_cfa_offset 16
	movq	(%rdi), %rax
	addq	-24(%rax), %rdi
	movq	$_ZTCN3mpp10exceptions13UnknownHeaderE0_NS0_9ExceptionE+24, (%rdi)
	leaq	8(%rdi), %rax
	movq	$_ZTCN3mpp10exceptions13UnknownHeaderE0_NS0_9ExceptionE+72, 8(%rdi)
	movq	%rax, %rdi
	call	_ZNSt11logic_errorD2Ev
	addq	$8, %rsp
	.cfi_def_cfa_offset 8
	ret
	.cfi_endproc
.LFE6171:
	.size	_ZTv0_n24_N3mpp10exceptions13UnknownHeaderD1Ev, .-_ZTv0_n24_N3mpp10exceptions13UnknownHeaderD1Ev
	.section	.text._ZN3mpp10exceptions14BadHeaderValueD0Ev,"axG",@progbits,_ZN3mpp10exceptions14BadHeaderValueD0Ev,comdat
	.weak	_ZTv0_n24_N3mpp10exceptions14BadHeaderValueD0Ev
	.type	_ZTv0_n24_N3mpp10exceptions14BadHeaderValueD0Ev, @function
_ZTv0_n24_N3mpp10exceptions14BadHeaderValueD0Ev:
.LFB6172:
	.cfi_startproc
	pushq	%rbx
	.cfi_def_cfa_offset 16
	.cfi_offset 3, -16
	movq	(%rdi), %rax
	movq	%rdi, %rbx
	addq	-24(%rax), %rbx
	movq	$_ZTCN3mpp10exceptions14BadHeaderValueE0_NS0_9ExceptionE+24, (%rbx)
	leaq	8(%rbx), %rdi
	movq	$_ZTCN3mpp10exceptions14BadHeaderValueE0_NS0_9ExceptionE+72, 8(%rbx)
	call	_ZNSt11logic_errorD2Ev
	movl	$24, %esi
	movq	%rbx, %rdi
	call	_ZdlPvm
	popq	%rbx
	.cfi_def_cfa_offset 8
	ret
	.cfi_endproc
.LFE6172:
	.size	_ZTv0_n24_N3mpp10exceptions14BadHeaderValueD0Ev, .-_ZTv0_n24_N3mpp10exceptions14BadHeaderValueD0Ev
	.section	.text._ZN3mpp10exceptions13UnknownHeaderD0Ev,"axG",@progbits,_ZN3mpp10exceptions13UnknownHeaderD0Ev,comdat
	.weak	_ZTv0_n24_N3mpp10exceptions13UnknownHeaderD0Ev
	.type	_ZTv0_n24_N3mpp10exceptions13UnknownHeaderD0Ev, @function
_ZTv0_n24_N3mpp10exceptions13UnknownHeaderD0Ev:
.LFB6173:
	.cfi_startproc
	pushq	%rbx
	.cfi_def_cfa_offset 16
	.cfi_offset 3, -16
	movq	(%rdi), %rax
	movq	%rdi, %rbx
	addq	-24(%rax), %rbx
	movq	$_ZTCN3mpp10exceptions13UnknownHeaderE0_NS0_9ExceptionE+24, (%rbx)
	leaq	8(%rbx), %rdi
	movq	$_ZTCN3mpp10exceptions13UnknownHeaderE0_NS0_9ExceptionE+72, 8(%rbx)
	call	_ZNSt11logic_errorD2Ev
	movl	$24, %esi
	movq	%rbx, %rdi
	call	_ZdlPvm
	popq	%rbx
	.cfi_def_cfa_offset 8
	ret
	.cfi_endproc
.LFE6173:
	.size	_ZTv0_n24_N3mpp10exceptions13UnknownHeaderD0Ev, .-_ZTv0_n24_N3mpp10exceptions13UnknownHeaderD0Ev
	.section	.text._ZSt20__throw_bad_any_castv,"axG",@progbits,_ZSt20__throw_bad_any_castv,comdat
	.weak	_ZSt20__throw_bad_any_castv
	.type	_ZSt20__throw_bad_any_castv, @function
_ZSt20__throw_bad_any_castv:
.LFB4517:
	.loc 1 61 3 is_stmt 1 view -0
	.cfi_startproc
	.loc 1 61 3 is_stmt 0 view .LVU70
	subq	$8, %rsp
	.cfi_def_cfa_offset 16
	.loc 1 63 5 is_stmt 1 view .LVU71
	.loc 1 63 24 is_stmt 0 view .LVU72
	movl	$8, %edi
	call	__cxa_allocate_exception
.LVL39:
	movq	%rax, %rdi
.LVL40:
.LBB4721:
.LBI4721:
	.loc 1 54 9 is_stmt 1 view .LVU73
.LBB4722:
.LBB4723:
.LBI4723:
	.file 6 "/usr/include/c++/9/typeinfo"
	.loc 6 190 5 view .LVU74
.LBB4724:
.LBI4724:
	.file 7 "/usr/include/c++/9/bits/exception.h"
	.loc 7 63 5 view .LVU75
	.loc 7 63 5 is_stmt 0 view .LVU76
.LBE4724:
.LBE4723:
	.loc 1 54 9 view .LVU77
	movq	$_ZTVSt12bad_any_cast+16, (%rax)
.LVL41:
	.loc 1 54 9 view .LVU78
.LBE4722:
.LBE4721:
	.loc 1 63 24 view .LVU79
	movl	$_ZNSt12bad_any_castD1Ev, %edx
	movl	$_ZTISt12bad_any_cast, %esi
	call	__cxa_throw
.LVL42:
	.cfi_endproc
.LFE4517:
	.size	_ZSt20__throw_bad_any_castv, .-_ZSt20__throw_bad_any_castv
	.text
	.align 2
	.globl	_ZN3mpp7Request10setCommandENS0_7CommandE
	.type	_ZN3mpp7Request10setCommandENS0_7CommandE, @function
_ZN3mpp7Request10setCommandENS0_7CommandE:
.LVL43:
.LFB5101:
	.file 8 "cpp/Request.cpp"
	.loc 8 39 1 is_stmt 1 view -0
	.cfi_startproc
	.loc 8 40 2 view .LVU81
	.loc 8 40 4 is_stmt 0 view .LVU82
	movl	%esi, (%rdi)
	.loc 8 41 1 view .LVU83
	ret
	.cfi_endproc
.LFE5101:
	.size	_ZN3mpp7Request10setCommandENS0_7CommandE, .-_ZN3mpp7Request10setCommandENS0_7CommandE
	.align 2
	.globl	_ZNK3mpp7Request10getCommandEv
	.type	_ZNK3mpp7Request10getCommandEv, @function
_ZNK3mpp7Request10getCommandEv:
.LVL44:
.LFB5102:
	.loc 8 47 1 is_stmt 1 view -0
	.cfi_startproc
	.loc 8 48 2 view .LVU85
	.loc 8 48 9 is_stmt 0 view .LVU86
	movl	(%rdi), %eax
	.loc 8 49 1 view .LVU87
	ret
	.cfi_endproc
.LFE5102:
	.size	_ZNK3mpp7Request10getCommandEv, .-_ZNK3mpp7Request10getCommandEv
	.section	.text._ZN3mpp6HeaderD2Ev,"axG",@progbits,_ZN3mpp6HeaderD5Ev,comdat
	.align 2
	.weak	_ZN3mpp6HeaderD2Ev
	.type	_ZN3mpp6HeaderD2Ev, @function
_ZN3mpp6HeaderD2Ev:
.LVL45:
.LFB5110:
	.file 9 "./hpp/mpp/Header.hpp"
	.loc 9 12 8 is_stmt 1 view -0
	.cfi_startproc
	.cfi_personality 0x3,__gxx_personality_v0
	.cfi_lsda 0x3,.LLSDA5110
	.loc 9 12 8 is_stmt 0 view .LVU89
	pushq	%rbx
	.cfi_def_cfa_offset 16
	.cfi_offset 3, -16
	movq	%rdi, %rbx
.LVL46:
.LBB4748:
.LBB4749:
.LBI4749:
	.loc 1 230 5 is_stmt 1 view .LVU90
.LBE4749:
.LBE4748:
	.loc 1 230 14 view .LVU91
.LBB4771:
.LBB4754:
.LBB4750:
.LBI4750:
	.loc 1 300 10 view .LVU92
.LBB4751:
	.loc 1 302 7 view .LVU93
.LBB4752:
.LBI4752:
	.loc 1 342 10 view .LVU94
.LBB4753:
	.loc 1 342 39 view .LVU95
	.loc 1 342 46 is_stmt 0 view .LVU96
	movq	32(%rdi), %rax
.LVL47:
	.loc 1 342 46 view .LVU97
.LBE4753:
.LBE4752:
	.loc 1 302 7 view .LVU98
	testq	%rax, %rax
	je	.L36
	leaq	32(%rdi), %rsi
.LVL48:
	.loc 1 304 2 is_stmt 1 view .LVU99
	.loc 1 304 12 is_stmt 0 view .LVU100
	movl	$0, %edx
	movl	$3, %edi
.LVL49:
	.loc 1 304 12 view .LVU101
	call	*%rax
.LVL50:
	.loc 1 305 2 is_stmt 1 view .LVU102
.L36:
	.loc 1 305 2 is_stmt 0 view .LVU103
.LBE4751:
.LBE4750:
.LBE4754:
.LBB4755:
.LBI4755:
	.file 10 "/usr/include/c++/9/bits/basic_string.h"
	.loc 10 657 7 is_stmt 1 view .LVU104
.LBB4756:
.LBI4756:
	.loc 10 229 7 view .LVU105
.LBB4757:
.LBB4758:
.LBI4758:
	.loc 10 221 7 view .LVU106
.LBB4759:
.LBI4759:
	.loc 10 186 7 view .LVU107
.LBB4760:
	.loc 10 187 28 is_stmt 0 view .LVU108
	movq	(%rbx), %rdi
.LVL51:
	.loc 10 187 28 view .LVU109
.LBE4760:
.LBE4759:
.LBB4761:
.LBI4761:
	.loc 10 200 7 is_stmt 1 view .LVU110
.LBB4762:
	.loc 10 203 57 is_stmt 0 view .LVU111
	addq	$16, %rbx
.LVL52:
	.loc 10 203 57 view .LVU112
.LBE4762:
.LBE4761:
.LBE4758:
	.loc 10 231 2 view .LVU113
	cmpq	%rbx, %rdi
	je	.L35
.LVL53:
.LBB4763:
.LBI4763:
	.loc 10 236 7 is_stmt 1 view .LVU114
.LBB4764:
.LBB4765:
.LBI4765:
	.file 11 "/usr/include/c++/9/bits/alloc_traits.h"
	.loc 11 469 7 view .LVU115
.LBB4766:
.LBI4766:
	.file 12 "/usr/include/c++/9/ext/new_allocator.h"
	.loc 12 119 7 view .LVU116
.LBB4767:
	.loc 12 128 19 is_stmt 0 view .LVU117
	call	_ZdlPv
.LVL54:
	.loc 12 128 19 view .LVU118
.LBE4767:
.LBE4766:
.LBE4765:
.LBE4764:
.LBE4763:
.LBE4757:
.LBE4756:
.LBB4768:
.LBI4768:
	.loc 10 150 14 is_stmt 1 view .LVU119
.LBB4769:
.LBI4769:
	.file 13 "/usr/include/c++/9/bits/allocator.h"
	.loc 13 153 7 view .LVU120
.LBB4770:
.LBI4770:
	.loc 12 89 7 view .LVU121
.L35:
	.loc 12 89 7 is_stmt 0 view .LVU122
.LBE4770:
.LBE4769:
.LBE4768:
.LBE4755:
.LBE4771:
	.loc 9 12 8 view .LVU123
	popq	%rbx
	.cfi_def_cfa_offset 8
	ret
	.cfi_endproc
.LFE5110:
	.globl	__gxx_personality_v0
	.section	.gcc_except_table._ZN3mpp6HeaderD2Ev,"aG",@progbits,_ZN3mpp6HeaderD5Ev,comdat
.LLSDA5110:
	.byte	0xff
	.byte	0xff
	.byte	0x1
	.uleb128 .LLSDACSE5110-.LLSDACSB5110
.LLSDACSB5110:
.LLSDACSE5110:
	.section	.text._ZN3mpp6HeaderD2Ev,"axG",@progbits,_ZN3mpp6HeaderD5Ev,comdat
	.size	_ZN3mpp6HeaderD2Ev, .-_ZN3mpp6HeaderD2Ev
	.weak	_ZN3mpp6HeaderD1Ev
	.set	_ZN3mpp6HeaderD1Ev,_ZN3mpp6HeaderD2Ev
	.text
	.align 2
	.globl	_ZN3mpp7Request7setNounENSt7__cxx1112basic_stringIcSt11char_traitsIcESaIcEEE
	.type	_ZN3mpp7Request7setNounENSt7__cxx1112basic_stringIcSt11char_traitsIcESaIcEEE, @function
_ZN3mpp7Request7setNounENSt7__cxx1112basic_stringIcSt11char_traitsIcESaIcEEE:
.LVL55:
.LFB5112:
	.loc 8 92 1 is_stmt 1 view -0
	.cfi_startproc
	.loc 8 92 1 is_stmt 0 view .LVU125
	subq	$8, %rsp
	.cfi_def_cfa_offset 16
	.loc 8 93 2 is_stmt 1 view .LVU126
	.loc 8 93 15 is_stmt 0 view .LVU127
	addq	$16, %rdi
.LVL56:
.LBB4772:
.LBI4772:
	.loc 10 665 7 is_stmt 1 view .LVU128
.LBB4773:
.LBI4773:
	.loc 10 1364 7 view .LVU129
.LBB4774:
	.loc 10 1366 2 is_stmt 0 view .LVU130
	call	_ZNSt7__cxx1112basic_stringIcSt11char_traitsIcESaIcEE9_M_assignERKS4_
.LVL57:
	.loc 10 1366 2 view .LVU131
.LBE4774:
.LBE4773:
.LBE4772:
	.loc 8 94 1 view .LVU132
	addq	$8, %rsp
	.cfi_def_cfa_offset 8
	ret
	.cfi_endproc
.LFE5112:
	.size	_ZN3mpp7Request7setNounENSt7__cxx1112basic_stringIcSt11char_traitsIcESaIcEEE, .-_ZN3mpp7Request7setNounENSt7__cxx1112basic_stringIcSt11char_traitsIcESaIcEEE
	.section	.text._ZNSt7__cxx1115basic_stringbufIcSt11char_traitsIcESaIcEED2Ev,"axG",@progbits,_ZNSt7__cxx1115basic_stringbufIcSt11char_traitsIcESaIcEED5Ev,comdat
	.align 2
	.weak	_ZNSt7__cxx1115basic_stringbufIcSt11char_traitsIcESaIcEED2Ev
	.type	_ZNSt7__cxx1115basic_stringbufIcSt11char_traitsIcESaIcEED2Ev, @function
_ZNSt7__cxx1115basic_stringbufIcSt11char_traitsIcESaIcEED2Ev:
.LVL58:
.LFB5481:
	.file 14 "/usr/include/c++/9/sstream"
	.loc 14 65 11 is_stmt 1 view -0
	.cfi_startproc
	.loc 14 65 11 is_stmt 0 view .LVU134
	pushq	%rbx
	.cfi_def_cfa_offset 16
	.cfi_offset 3, -16
	movq	%rdi, %rbx
.LBB4795:
	.loc 14 65 11 view .LVU135
	movq	$_ZTVNSt7__cxx1115basic_stringbufIcSt11char_traitsIcESaIcEEE+16, (%rdi)
.LVL59:
.LBB4796:
.LBI4796:
	.loc 10 657 7 is_stmt 1 view .LVU136
.LBB4797:
.LBI4797:
	.loc 10 229 7 view .LVU137
.LBB4798:
.LBB4799:
.LBI4799:
	.loc 10 221 7 view .LVU138
.LBB4800:
.LBI4800:
	.loc 10 186 7 view .LVU139
.LBB4801:
	.loc 10 187 28 is_stmt 0 view .LVU140
	movq	72(%rdi), %rdi
.LVL60:
	.loc 10 187 28 view .LVU141
.LBE4801:
.LBE4800:
.LBB4802:
.LBI4802:
	.loc 10 200 7 is_stmt 1 view .LVU142
.LBB4803:
	.loc 10 203 57 is_stmt 0 view .LVU143
	leaq	88(%rbx), %rax
.LVL61:
	.loc 10 203 57 view .LVU144
.LBE4803:
.LBE4802:
.LBE4799:
	.loc 10 231 2 view .LVU145
	cmpq	%rax, %rdi
	je	.L42
.LVL62:
.LBB4804:
.LBI4804:
	.loc 10 236 7 is_stmt 1 view .LVU146
.LBB4805:
.LBB4806:
.LBI4806:
	.loc 11 469 7 view .LVU147
.LBB4807:
.LBI4807:
	.loc 12 119 7 view .LVU148
.LBB4808:
	.loc 12 128 19 is_stmt 0 view .LVU149
	call	_ZdlPv
.LVL63:
.L42:
	.loc 12 128 19 view .LVU150
.LBE4808:
.LBE4807:
.LBE4806:
.LBE4805:
.LBE4804:
.LBE4798:
.LBE4797:
.LBB4809:
.LBI4809:
	.loc 10 150 14 is_stmt 1 view .LVU151
.LBB4810:
.LBI4810:
	.loc 13 153 7 view .LVU152
.LBB4811:
.LBI4811:
	.loc 12 89 7 view .LVU153
	.loc 12 89 7 is_stmt 0 view .LVU154
.LBE4811:
.LBE4810:
.LBE4809:
.LBE4796:
.LBB4812:
.LBI4812:
	.file 15 "/usr/include/c++/9/streambuf"
	.loc 15 204 7 is_stmt 1 view .LVU155
.LBB4813:
	.loc 15 205 9 is_stmt 0 view .LVU156
	movq	$_ZTVSt15basic_streambufIcSt11char_traitsIcEE+16, (%rbx)
	leaq	56(%rbx), %rdi
	call	_ZNSt6localeD1Ev
.LVL64:
	.loc 15 205 9 view .LVU157
.LBE4813:
.LBE4812:
.LBE4795:
	.loc 14 65 11 view .LVU158
	popq	%rbx
	.cfi_def_cfa_offset 8
.LVL65:
	.loc 14 65 11 view .LVU159
	ret
	.cfi_endproc
.LFE5481:
	.size	_ZNSt7__cxx1115basic_stringbufIcSt11char_traitsIcESaIcEED2Ev, .-_ZNSt7__cxx1115basic_stringbufIcSt11char_traitsIcESaIcEED2Ev
	.weak	_ZNSt7__cxx1115basic_stringbufIcSt11char_traitsIcESaIcEED1Ev
	.set	_ZNSt7__cxx1115basic_stringbufIcSt11char_traitsIcESaIcEED1Ev,_ZNSt7__cxx1115basic_stringbufIcSt11char_traitsIcESaIcEED2Ev
	.section	.text._ZNSt7__cxx1115basic_stringbufIcSt11char_traitsIcESaIcEED0Ev,"axG",@progbits,_ZNSt7__cxx1115basic_stringbufIcSt11char_traitsIcESaIcEED5Ev,comdat
	.align 2
	.weak	_ZNSt7__cxx1115basic_stringbufIcSt11char_traitsIcESaIcEED0Ev
	.type	_ZNSt7__cxx1115basic_stringbufIcSt11char_traitsIcESaIcEED0Ev, @function
_ZNSt7__cxx1115basic_stringbufIcSt11char_traitsIcESaIcEED0Ev:
.LVL66:
.LFB5483:
	.loc 14 65 11 is_stmt 1 view -0
	.cfi_startproc
	.loc 14 65 11 is_stmt 0 view .LVU161
	pushq	%rbx
	.cfi_def_cfa_offset 16
	.cfi_offset 3, -16
	movq	%rdi, %rbx
.LVL67:
.LBB4836:
.LBI4836:
	.loc 14 65 11 is_stmt 1 view .LVU162
.LBB4837:
	movq	$_ZTVNSt7__cxx1115basic_stringbufIcSt11char_traitsIcESaIcEEE+16, (%rdi)
.LVL68:
.LBB4838:
.LBI4838:
	.loc 10 657 7 view .LVU163
.LBB4839:
.LBI4839:
	.loc 10 229 7 view .LVU164
.LBB4840:
.LBB4841:
.LBI4841:
	.loc 10 221 7 view .LVU165
.LBB4842:
.LBI4842:
	.loc 10 186 7 view .LVU166
.LBB4843:
	.loc 10 187 28 is_stmt 0 view .LVU167
	movq	72(%rdi), %rdi
.LVL69:
	.loc 10 187 28 view .LVU168
.LBE4843:
.LBE4842:
.LBB4844:
.LBI4844:
	.loc 10 200 7 is_stmt 1 view .LVU169
.LBB4845:
	.loc 10 203 57 is_stmt 0 view .LVU170
	leaq	88(%rbx), %rax
.LVL70:
	.loc 10 203 57 view .LVU171
.LBE4845:
.LBE4844:
.LBE4841:
	.loc 10 231 2 view .LVU172
	cmpq	%rax, %rdi
	je	.L45
.LVL71:
.LBB4846:
.LBI4846:
	.loc 10 236 7 is_stmt 1 view .LVU173
.LBB4847:
.LBB4848:
.LBI4848:
	.loc 11 469 7 view .LVU174
.LBB4849:
.LBI4849:
	.loc 12 119 7 view .LVU175
.LBB4850:
	.loc 12 128 19 is_stmt 0 view .LVU176
	call	_ZdlPv
.LVL72:
.L45:
	.loc 12 128 19 view .LVU177
.LBE4850:
.LBE4849:
.LBE4848:
.LBE4847:
.LBE4846:
.LBE4840:
.LBE4839:
.LBB4851:
.LBI4851:
	.loc 10 150 14 is_stmt 1 view .LVU178
.LBB4852:
.LBI4852:
	.loc 13 153 7 view .LVU179
.LBB4853:
.LBI4853:
	.loc 12 89 7 view .LVU180
	.loc 12 89 7 is_stmt 0 view .LVU181
.LBE4853:
.LBE4852:
.LBE4851:
.LBE4838:
.LBB4854:
.LBI4854:
	.loc 15 204 7 is_stmt 1 view .LVU182
.LBB4855:
	.loc 15 205 9 is_stmt 0 view .LVU183
	movq	$_ZTVSt15basic_streambufIcSt11char_traitsIcEE+16, (%rbx)
	leaq	56(%rbx), %rdi
	call	_ZNSt6localeD1Ev
.LVL73:
	.loc 15 205 9 view .LVU184
.LBE4855:
.LBE4854:
.LBE4837:
.LBE4836:
	.loc 14 65 11 view .LVU185
	movl	$104, %esi
	movq	%rbx, %rdi
	call	_ZdlPvm
.LVL74:
	popq	%rbx
	.cfi_def_cfa_offset 8
.LVL75:
	.loc 14 65 11 view .LVU186
	ret
	.cfi_endproc
.LFE5483:
	.size	_ZNSt7__cxx1115basic_stringbufIcSt11char_traitsIcESaIcEED0Ev, .-_ZNSt7__cxx1115basic_stringbufIcSt11char_traitsIcESaIcEED0Ev
	.section	.text._ZNSt8__detaillsIcSt11char_traitsIcERKNSt7__cxx1112basic_stringIcS2_SaIcEEEEERSt13basic_ostreamIT_T0_ESD_RKNS_14_Quoted_stringIT1_SA_EE,"axG",@progbits,_ZNSt8__detaillsIcSt11char_traitsIcERKNSt7__cxx1112basic_stringIcS2_SaIcEEEEERSt13basic_ostreamIT_T0_ESD_RKNS_14_Quoted_stringIT1_SA_EE,comdat
	.weak	_ZNSt8__detaillsIcSt11char_traitsIcERKNSt7__cxx1112basic_stringIcS2_SaIcEEEEERSt13basic_ostreamIT_T0_ESD_RKNS_14_Quoted_stringIT1_SA_EE
	.type	_ZNSt8__detaillsIcSt11char_traitsIcERKNSt7__cxx1112basic_stringIcS2_SaIcEEEEERSt13basic_ostreamIT_T0_ESD_RKNS_14_Quoted_stringIT1_SA_EE, @function
_ZNSt8__detaillsIcSt11char_traitsIcERKNSt7__cxx1112basic_stringIcS2_SaIcEEEEERSt13basic_ostreamIT_T0_ESD_RKNS_14_Quoted_stringIT1_SA_EE:
.LVL76:
.LFB5530:
	.file 16 "/usr/include/c++/9/bits/quoted_string.h"
	.loc 16 117 7 is_stmt 1 view -0
	.cfi_startproc
	.cfi_personality 0x3,__gxx_personality_v0
	.cfi_lsda 0x3,.LLSDA5530
	.loc 16 117 7 is_stmt 0 view .LVU188
	pushq	%r14
	.cfi_def_cfa_offset 16
	.cfi_offset 14, -16
	pushq	%r13
	.cfi_def_cfa_offset 24
	.cfi_offset 13, -24
	pushq	%r12
	.cfi_def_cfa_offset 32
	.cfi_offset 12, -32
	pushq	%rbp
	.cfi_def_cfa_offset 40
	.cfi_offset 6, -40
	pushq	%rbx
	.cfi_def_cfa_offset 48
	.cfi_offset 3, -48
	subq	$432, %rsp
	.cfi_def_cfa_offset 480
	movq	%rdi, %r14
	movq	%rsi, %rbp
.LVL77:
.LBB5073:
.LBI5073:
	.loc 14 583 7 is_stmt 1 view .LVU189
.LBB5074:
.LBB5075:
.LBB5076:
.LBI5076:
	.file 17 "/usr/include/c++/9/bits/basic_ios.h"
	.loc 17 460 7 view .LVU190
.LBB5077:
.LBB5078:
	.loc 17 462 59 is_stmt 0 view .LVU191
	leaq	160(%rsp), %rdi
.LVL78:
	.loc 17 462 59 view .LVU192
	call	_ZNSt8ios_baseC2Ev
.LVL79:
	.loc 17 462 59 view .LVU193
	movq	$_ZTVSt9basic_iosIcSt11char_traitsIcEE+16, 160(%rsp)
	movq	$0, 376(%rsp)
	movb	$0, 384(%rsp)
	movb	$0, 385(%rsp)
	movq	$0, 392(%rsp)
	movq	$0, 400(%rsp)
	movq	$0, 408(%rsp)
	movq	$0, 416(%rsp)
.LVL80:
	.loc 17 462 59 view .LVU194
.LBE5078:
.LBE5077:
.LBE5076:
.LBB5079:
.LBI5079:
	.file 18 "/usr/include/c++/9/ostream"
	.loc 18 390 7 is_stmt 1 view .LVU195
.LBB5080:
.LBB5081:
	.loc 18 391 7 is_stmt 0 view .LVU196
	movq	_ZTTNSt7__cxx1119basic_ostringstreamIcSt11char_traitsIcESaIcEEE+8(%rip), %rbx
	movq	%rbx, 48(%rsp)
	movq	_ZTTNSt7__cxx1119basic_ostringstreamIcSt11char_traitsIcESaIcEEE+16(%rip), %r12
	movq	-24(%rbx), %rax
	movq	%r12, 48(%rsp,%rax)
	.loc 18 391 9 view .LVU197
	movq	48(%rsp), %rax
	leaq	48(%rsp), %rdi
.LVL81:
	.loc 18 391 9 view .LVU198
	addq	-24(%rax), %rdi
.LVL82:
	.loc 18 391 9 view .LVU199
	movl	$0, %esi
.LEHB0:
	call	_ZNSt9basic_iosIcSt11char_traitsIcEE4initEPSt15basic_streambufIcS1_E
.LVL83:
.LEHE0:
	.loc 18 391 9 view .LVU200
.LBE5081:
.LBE5080:
.LBE5079:
	.loc 14 584 53 view .LVU201
	movq	$_ZTVNSt7__cxx1119basic_ostringstreamIcSt11char_traitsIcESaIcEEE+24, 48(%rsp)
	movq	$_ZTVNSt7__cxx1119basic_ostringstreamIcSt11char_traitsIcESaIcEEE+64, 160(%rsp)
.LVL84:
.LBB5082:
.LBI5082:
	.loc 14 111 7 is_stmt 1 view .LVU202
.LBB5083:
.LBB5084:
.LBB5085:
.LBI5085:
	.loc 15 470 7 view .LVU203
.LBB5086:
.LBB5087:
	.loc 15 473 29 is_stmt 0 view .LVU204
	movq	$_ZTVSt15basic_streambufIcSt11char_traitsIcEE+16, 56(%rsp)
	movq	$0, 64(%rsp)
	movq	$0, 72(%rsp)
	movq	$0, 80(%rsp)
	movq	$0, 88(%rsp)
	movq	$0, 96(%rsp)
	movq	$0, 104(%rsp)
	leaq	112(%rsp), %rdi
	call	_ZNSt6localeC1Ev
.LVL85:
	.loc 15 473 29 view .LVU205
.LBE5087:
.LBE5086:
.LBE5085:
	.loc 14 112 56 view .LVU206
	movq	$_ZTVNSt7__cxx1115basic_stringbufIcSt11char_traitsIcESaIcEEE+16, 56(%rsp)
	movl	$16, 120(%rsp)
.LVL86:
.LBB5088:
.LBI5088:
	.loc 10 431 7 is_stmt 1 view .LVU207
.LBB5089:
.LBB5090:
.LBI5090:
	.loc 13 138 7 view .LVU208
.LBB5091:
.LBI5091:
	.loc 12 80 7 view .LVU209
	.loc 12 80 7 is_stmt 0 view .LVU210
.LBE5091:
.LBE5090:
.LBB5092:
.LBI5092:
	.loc 10 190 7 is_stmt 1 view .LVU211
	.loc 10 190 7 is_stmt 0 view .LVU212
.LBE5092:
.LBB5093:
.LBI5093:
	.loc 10 159 2 is_stmt 1 view .LVU213
.LBB5094:
.LBB5095:
.LBB5096:
.LBI5096:
	.file 19 "/usr/include/c++/9/bits/move.h"
	.loc 19 99 5 view .LVU214
	.loc 19 99 5 is_stmt 0 view .LVU215
.LBE5096:
.LBB5097:
.LBI5097:
	.loc 13 141 7 is_stmt 1 view .LVU216
.LBB5098:
.LBI5098:
	.loc 12 83 7 view .LVU217
	.loc 12 83 7 is_stmt 0 view .LVU218
.LBE5098:
.LBE5097:
	.loc 10 160 46 view .LVU219
	leaq	144(%rsp), %rax
.LVL87:
	.loc 10 160 46 view .LVU220
	movq	%rax, 128(%rsp)
.LVL88:
	.loc 10 160 46 view .LVU221
.LBE5095:
.LBE5094:
.LBE5093:
.LBB5099:
.LBI5099:
	.loc 13 153 7 is_stmt 1 view .LVU222
.LBB5100:
.LBI5100:
	.loc 12 89 7 view .LVU223
	.loc 12 89 7 is_stmt 0 view .LVU224
.LBE5100:
.LBE5099:
.LBB5101:
.LBI5101:
	.loc 10 214 7 is_stmt 1 view .LVU225
.LBB5102:
.LBI5102:
	.loc 10 182 7 view .LVU226
.LBB5103:
	.loc 10 183 9 is_stmt 0 view .LVU227
	movq	$0, 136(%rsp)
.LVL89:
	.loc 10 183 9 view .LVU228
.LBE5103:
.LBE5102:
.LBB5104:
.LBI5104:
	.file 20 "/usr/include/c++/9/bits/char_traits.h"
	.loc 20 299 7 is_stmt 1 view .LVU229
.LBB5105:
	.loc 20 300 9 view .LVU230
	.loc 20 300 14 is_stmt 0 view .LVU231
	movb	$0, 144(%rsp)
.LVL90:
	.loc 20 300 14 view .LVU232
.LBE5105:
.LBE5104:
.LBE5101:
.LBE5089:
.LBE5088:
.LBE5084:
.LBE5083:
.LBE5082:
	.loc 14 585 9 view .LVU233
	leaq	56(%rsp), %rsi
	leaq	160(%rsp), %rdi
.LEHB1:
	call	_ZNSt9basic_iosIcSt11char_traitsIcEE4initEPSt15basic_streambufIcS1_E
.LVL91:
.LEHE1:
	jmp	.L77
.L71:
	movq	%rax, %rbp
.LVL92:
	.loc 14 584 53 view .LVU234
	leaq	56(%rsp), %rdi
	call	_ZNSt7__cxx1115basic_stringbufIcSt11char_traitsIcESaIcEED1Ev
.LVL93:
.LBB5106:
.LBI5106:
	.loc 18 93 7 is_stmt 1 view .LVU235
.LBB5107:
	.loc 18 93 26 is_stmt 0 view .LVU236
	movq	%rbx, 48(%rsp)
	movq	-24(%rbx), %rax
	movq	%r12, 48(%rsp,%rax)
.LVL94:
.L50:
	.loc 18 93 26 view .LVU237
.LBE5107:
.LBE5106:
.LBB5108:
.LBI5108:
	.loc 17 282 7 is_stmt 1 view .LVU238
.LBB5109:
	.loc 17 282 22 is_stmt 0 view .LVU239
	movq	$_ZTVSt9basic_iosIcSt11char_traitsIcEE+16, 160(%rsp)
	leaq	160(%rsp), %rdi
.LVL95:
	.loc 17 282 22 view .LVU240
	call	_ZNSt8ios_baseD2Ev
.LVL96:
	.loc 17 282 22 view .LVU241
	movq	%rbp, %rdi
.LEHB2:
	call	_Unwind_Resume
.LVL97:
.LEHE2:
.L70:
	.loc 17 282 22 view .LVU242
	movq	%rax, %rbp
.LVL98:
	.loc 17 282 22 view .LVU243
	jmp	.L50
.LVL99:
.L77:
	.loc 17 282 22 view .LVU244
.LBE5109:
.LBE5108:
.LBE5075:
.LBE5074:
.LBE5073:
	.loc 16 121 18 view .LVU245
	movzbl	8(%rbp), %eax
.LVL100:
	.loc 16 121 18 view .LVU246
	movb	%al, 13(%rsp)
.LVL101:
.LBB5110:
.LBI5110:
	.loc 18 517 5 is_stmt 1 view .LVU247
.LBB5111:
	.loc 18 518 30 is_stmt 0 view .LVU248
	movl	$1, %edx
	leaq	13(%rsp), %rsi
	leaq	48(%rsp), %rdi
.LVL102:
.LEHB3:
	.loc 18 518 30 view .LVU249
	call	_ZSt16__ostream_insertIcSt11char_traitsIcEERSt13basic_ostreamIT_T0_ES6_PKS3_l
.LVL103:
	.loc 18 518 30 view .LVU250
.LBE5111:
.LBE5110:
.LBB5112:
	.loc 16 122 2 view .LVU251
	movq	0(%rbp), %rdx
.LVL104:
.LBB5113:
.LBI5113:
	.loc 10 834 7 is_stmt 1 view .LVU252
.LBB5114:
.LBB5115:
.LBI5115:
	.loc 10 186 7 view .LVU253
.LBB5116:
	.loc 10 187 28 is_stmt 0 view .LVU254
	movq	(%rdx), %r13
.LVL105:
	.loc 10 187 28 view .LVU255
.LBE5116:
.LBE5115:
.LBB5117:
.LBI5117:
	.file 21 "/usr/include/c++/9/bits/stl_iterator.h"
	.loc 21 806 7 is_stmt 1 view .LVU256
	.loc 21 806 7 is_stmt 0 view .LVU257
.LBE5117:
.LBE5114:
.LBE5113:
	.loc 16 122 2 view .LVU258
	movq	%r13, %rax
.LVL106:
.LBB5118:
.LBI5118:
	.loc 10 850 7 is_stmt 1 view .LVU259
.LBB5119:
.LBB5120:
.LBI5120:
	.loc 10 930 7 view .LVU260
	.loc 10 930 7 is_stmt 0 view .LVU261
.LBE5120:
	.loc 10 851 41 view .LVU262
	addq	8(%rdx), %r13
.LVL107:
.LBB5121:
.LBI5121:
	.loc 21 806 7 is_stmt 1 view .LVU263
	.loc 21 806 7 is_stmt 0 view .LVU264
	jmp	.L54
.LVL108:
.L52:
	.loc 21 806 7 view .LVU265
.LBE5121:
.LBE5119:
.LBE5118:
	.loc 16 125 24 view .LVU266
	movzbl	9(%rbp), %eax
.LVL109:
	.loc 16 125 24 view .LVU267
	movb	%al, 14(%rsp)
.LVL110:
.LBB5122:
.LBI5122:
	.loc 18 517 5 is_stmt 1 view .LVU268
.LBB5123:
	.loc 18 518 30 is_stmt 0 view .LVU269
	movl	$1, %edx
	leaq	14(%rsp), %rsi
	leaq	48(%rsp), %rdi
.LVL111:
	.loc 18 518 30 view .LVU270
	call	_ZSt16__ostream_insertIcSt11char_traitsIcEERSt13basic_ostreamIT_T0_ES6_PKS3_l
.LVL112:
	.loc 18 518 30 view .LVU271
	jmp	.L53
.LVL113:
.L78:
	.loc 18 518 30 view .LVU272
.LBE5123:
.LBE5122:
	.loc 16 122 2 is_stmt 1 view .LVU273
.LBB5124:
.LBI5124:
	.loc 21 827 7 view .LVU274
.LBB5125:
	.loc 21 829 2 is_stmt 0 view .LVU275
	leaq	1(%r12), %rax
.LVL114:
.L54:
	.loc 21 829 2 view .LVU276
.LBE5125:
.LBE5124:
	.loc 16 122 2 is_stmt 1 discriminator 1 view .LVU277
.LBB5126:
.LBI5126:
	.loc 21 907 5 discriminator 1 view .LVU278
.LBB5127:
	.loc 21 910 27 is_stmt 0 discriminator 1 view .LVU279
	movq	%rax, %r12
.LVL115:
	.loc 21 910 27 discriminator 1 view .LVU280
.LBE5127:
.LBE5126:
	.loc 16 122 2 discriminator 1 view .LVU281
	cmpq	%rax, %r13
	je	.L51
	.loc 16 122 2 view .LVU282
	movzbl	(%rax), %ebx
.LVL116:
	.loc 16 124 6 view .LVU283
	cmpb	%bl, 8(%rbp)
	je	.L52
	.loc 16 124 32 discriminator 1 view .LVU284
	cmpb	%bl, 9(%rbp)
	je	.L52
.L53:
.LVL117:
	.loc 16 124 32 discriminator 1 view .LVU285
	movb	%bl, 15(%rsp)
.LVL118:
.LBB5128:
.LBI5128:
	.loc 18 517 5 is_stmt 1 view .LVU286
.LBB5129:
	.loc 18 518 30 is_stmt 0 view .LVU287
	movl	$1, %edx
	leaq	15(%rsp), %rsi
.LVL119:
	.loc 18 518 30 view .LVU288
	leaq	48(%rsp), %rdi
.LVL120:
	.loc 18 518 30 view .LVU289
	call	_ZSt16__ostream_insertIcSt11char_traitsIcEERSt13basic_ostreamIT_T0_ES6_PKS3_l
.LVL121:
	.loc 18 518 30 view .LVU290
	jmp	.L78
.LVL122:
.L51:
	.loc 18 518 30 view .LVU291
.LBE5129:
.LBE5128:
.LBE5112:
	.loc 16 128 18 view .LVU292
	movzbl	8(%rbp), %eax
.LVL123:
	.loc 16 128 18 view .LVU293
	movb	%al, 16(%rsp)
.LVL124:
.LBB5130:
.LBI5130:
	.loc 18 517 5 is_stmt 1 view .LVU294
.LBB5131:
	.loc 18 518 30 is_stmt 0 view .LVU295
	movl	$1, %edx
	leaq	16(%rsp), %rsi
	leaq	48(%rsp), %rdi
.LVL125:
	.loc 18 518 30 view .LVU296
	call	_ZSt16__ostream_insertIcSt11char_traitsIcEERSt13basic_ostreamIT_T0_ES6_PKS3_l
.LVL126:
.LEHE3:
	.loc 18 518 30 view .LVU297
.LBE5131:
.LBE5130:
.LBB5132:
.LBI5132:
	.loc 14 677 7 is_stmt 1 view .LVU298
.LBB5133:
.LBI5133:
	.loc 14 178 7 view .LVU299
.LBB5134:
.LBB5135:
.LBI5135:
	.loc 10 2331 7 view .LVU300
.LBB5136:
.LBI5136:
	.loc 13 141 7 view .LVU301
.LBB5137:
.LBI5137:
	.loc 12 83 7 view .LVU302
	.loc 12 83 7 is_stmt 0 view .LVU303
.LBE5137:
.LBE5136:
.LBE5135:
.LBB5138:
.LBI5138:
	.loc 10 440 7 is_stmt 1 view .LVU304
.LBB5139:
.LBI5139:
	.loc 10 190 7 view .LVU305
	.loc 10 190 7 is_stmt 0 view .LVU306
.LBE5139:
.LBB5140:
.LBI5140:
	.loc 10 156 2 is_stmt 1 view .LVU307
.LBB5141:
.LBB5142:
.LBI5142:
	.loc 13 141 7 view .LVU308
.LBB5143:
.LBI5143:
	.loc 12 83 7 view .LVU309
	.loc 12 83 7 is_stmt 0 view .LVU310
.LBE5143:
.LBE5142:
	.loc 10 157 35 view .LVU311
	leaq	32(%rsp), %rax
.LVL127:
	.loc 10 157 35 view .LVU312
	movq	%rax, 16(%rsp)
.LVL128:
	.loc 10 157 35 view .LVU313
.LBE5141:
.LBE5140:
.LBB5144:
.LBI5144:
	.loc 10 214 7 is_stmt 1 view .LVU314
.LBB5145:
.LBI5145:
	.loc 10 182 7 view .LVU315
.LBB5146:
	.loc 10 183 9 is_stmt 0 view .LVU316
	movq	$0, 24(%rsp)
.LVL129:
	.loc 10 183 9 view .LVU317
.LBE5146:
.LBE5145:
.LBB5147:
.LBI5147:
	.loc 20 299 7 is_stmt 1 view .LVU318
.LBB5148:
	.loc 20 300 9 view .LVU319
	.loc 20 300 14 is_stmt 0 view .LVU320
	movb	$0, 32(%rsp)
.LVL130:
	.loc 20 300 14 view .LVU321
.LBE5148:
.LBE5147:
.LBE5144:
.LBE5138:
.LBB5149:
.LBI5149:
	.loc 13 153 7 is_stmt 1 view .LVU322
.LBB5150:
.LBI5150:
	.loc 12 89 7 view .LVU323
	.loc 12 89 7 is_stmt 0 view .LVU324
.LBE5150:
.LBE5149:
.LBB5151:
.LBI5151:
	.loc 15 539 7 is_stmt 1 view .LVU325
.LBB5152:
	.loc 15 539 29 is_stmt 0 view .LVU326
	movq	96(%rsp), %r8
.LVL131:
	.loc 15 539 29 view .LVU327
.LBE5152:
.LBE5151:
	.loc 14 181 2 view .LVU328
	testq	%r8, %r8
	je	.L55
.LVL132:
.LBB5153:
.LBI5153:
	.loc 15 495 7 is_stmt 1 view .LVU329
.LBB5154:
	.loc 15 495 30 is_stmt 0 view .LVU330
	movq	80(%rsp), %rax
.LVL133:
	.loc 15 495 30 view .LVU331
.LBE5154:
.LBE5153:
	.loc 14 184 6 view .LVU332
	cmpq	%rax, %r8
	jbe	.L56
.LVL134:
.LBB5155:
.LBI5155:
	.loc 15 536 7 is_stmt 1 view .LVU333
.LBB5156:
	.loc 15 536 30 is_stmt 0 view .LVU334
	movq	88(%rsp), %rcx
.LVL135:
	.loc 15 536 30 view .LVU335
.LBE5156:
.LBE5155:
.LBB5157:
.LBI5157:
	.loc 10 1470 9 is_stmt 1 view .LVU336
.LBB5158:
.LBI5158:
	.loc 10 842 7 view .LVU337
.LBB5159:
.LBI5159:
	.loc 21 806 7 view .LVU338
	.loc 21 806 7 is_stmt 0 view .LVU339
.LBE5159:
.LBE5158:
.LBB5160:
.LBI5160:
	.loc 21 811 9 is_stmt 1 view .LVU340
.LBB5161:
.LBI5161:
	.loc 21 871 7 view .LVU341
	.loc 21 871 7 is_stmt 0 view .LVU342
.LBE5161:
.LBE5160:
.LBB5162:
.LBI5162:
	.loc 10 826 7 is_stmt 1 view .LVU343
.LBB5163:
.LBI5163:
	.loc 21 806 7 view .LVU344
	.loc 21 806 7 is_stmt 0 view .LVU345
.LBE5163:
.LBE5162:
.LBB5164:
.LBI5164:
	.loc 21 811 9 is_stmt 1 view .LVU346
.LBB5165:
.LBI5165:
	.loc 21 871 7 view .LVU347
	.loc 21 871 7 is_stmt 0 view .LVU348
.LBE5165:
.LBE5164:
.LBB5166:
.LBI5166:
	.loc 10 2123 7 is_stmt 1 view .LVU349
.LBB5167:
	.loc 10 2130 20 is_stmt 0 view .LVU350
	subq	%rcx, %r8
.LVL136:
.LBB5168:
.LBI5168:
	.loc 10 826 7 is_stmt 1 view .LVU351
.LBB5169:
.LBI5169:
	.loc 21 806 7 view .LVU352
	.loc 21 806 7 is_stmt 0 view .LVU353
.LBE5169:
.LBE5168:
.LBB5170:
.LBI5170:
	.loc 10 1936 7 is_stmt 1 view .LVU354
.LBB5171:
.LBB5172:
.LBI5172:
	.loc 10 329 7 view .LVU355
.LBB5173:
.LBB5174:
.LBI5174:
	.loc 10 930 7 view .LVU356
.LBB5175:
	.loc 10 931 16 is_stmt 0 view .LVU357
	movl	$0, %edx
.LVL137:
	.loc 10 931 16 view .LVU358
.LBE5175:
.LBE5174:
.LBE5173:
.LBE5172:
	.loc 10 1941 38 view .LVU359
	movl	$0, %esi
	leaq	16(%rsp), %rdi
.LVL138:
.LEHB4:
	.loc 10 1941 38 view .LVU360
	call	_ZNSt7__cxx1112basic_stringIcSt11char_traitsIcESaIcEE10_M_replaceEmmPKcm
.LVL139:
	.loc 10 1941 38 view .LVU361
	jmp	.L58
.LVL140:
.L56:
	.loc 10 1941 38 view .LVU362
.LBE5171:
.LBE5170:
.LBE5167:
.LBE5166:
.LBE5157:
.LBB5176:
.LBI5176:
	.loc 15 536 7 is_stmt 1 view .LVU363
.LBB5177:
	.loc 15 536 30 is_stmt 0 view .LVU364
	movq	88(%rsp), %rcx
.LVL141:
	.loc 15 536 30 view .LVU365
.LBE5177:
.LBE5176:
.LBB5178:
.LBI5178:
	.loc 10 1470 9 is_stmt 1 view .LVU366
.LBB5179:
.LBI5179:
	.loc 10 842 7 view .LVU367
.LBB5180:
.LBI5180:
	.loc 21 806 7 view .LVU368
	.loc 21 806 7 is_stmt 0 view .LVU369
.LBE5180:
.LBE5179:
.LBB5181:
.LBI5181:
	.loc 21 811 9 is_stmt 1 view .LVU370
.LBB5182:
.LBI5182:
	.loc 21 871 7 view .LVU371
	.loc 21 871 7 is_stmt 0 view .LVU372
.LBE5182:
.LBE5181:
.LBB5183:
.LBI5183:
	.loc 10 826 7 is_stmt 1 view .LVU373
.LBB5184:
.LBI5184:
	.loc 21 806 7 view .LVU374
	.loc 21 806 7 is_stmt 0 view .LVU375
.LBE5184:
.LBE5183:
.LBB5185:
.LBI5185:
	.loc 21 811 9 is_stmt 1 view .LVU376
.LBB5186:
.LBI5186:
	.loc 21 871 7 view .LVU377
	.loc 21 871 7 is_stmt 0 view .LVU378
.LBE5186:
.LBE5185:
.LBB5187:
.LBI5187:
	.loc 10 2123 7 is_stmt 1 view .LVU379
.LBB5188:
	.loc 10 2130 20 is_stmt 0 view .LVU380
	subq	%rcx, %rax
.LVL142:
	.loc 10 2130 20 view .LVU381
	movq	%rax, %r8
.LVL143:
.LBB5189:
.LBI5189:
	.loc 10 826 7 is_stmt 1 view .LVU382
.LBB5190:
.LBI5190:
	.loc 21 806 7 view .LVU383
	.loc 21 806 7 is_stmt 0 view .LVU384
.LBE5190:
.LBE5189:
.LBB5191:
.LBI5191:
	.loc 10 1936 7 is_stmt 1 view .LVU385
.LBB5192:
.LBB5193:
.LBI5193:
	.loc 10 329 7 view .LVU386
.LBB5194:
.LBB5195:
.LBI5195:
	.loc 10 930 7 view .LVU387
.LBB5196:
	.loc 10 931 16 is_stmt 0 view .LVU388
	movq	24(%rsp), %rdx
.LVL144:
	.loc 10 931 16 view .LVU389
.LBE5196:
.LBE5195:
	.loc 10 332 19 view .LVU390
	testq	%rdx, %rdx
	je	.L59
	movl	$0, %edx
.LVL145:
.L59:
	.loc 10 332 19 view .LVU391
.LBE5194:
.LBE5193:
	.loc 10 1941 38 view .LVU392
	movl	$0, %esi
	leaq	16(%rsp), %rdi
.LVL146:
	.loc 10 1941 38 view .LVU393
	call	_ZNSt7__cxx1112basic_stringIcSt11char_traitsIcESaIcEE10_M_replaceEmmPKcm
.LVL147:
	.loc 10 1941 38 view .LVU394
	jmp	.L58
.LVL148:
.L55:
	.loc 10 1941 38 view .LVU395
.LBE5192:
.LBE5191:
.LBE5188:
.LBE5187:
.LBE5178:
.LBB5197:
.LBI5197:
	.loc 10 665 7 is_stmt 1 view .LVU396
.LBB5198:
.LBI5198:
	.loc 10 1364 7 view .LVU397
.LBB5199:
	.loc 10 1366 2 is_stmt 0 view .LVU398
	leaq	128(%rsp), %rsi
.LVL149:
	.loc 10 1366 2 view .LVU399
	leaq	16(%rsp), %rdi
.LVL150:
	.loc 10 1366 2 view .LVU400
	call	_ZNSt7__cxx1112basic_stringIcSt11char_traitsIcESaIcEE9_M_assignERKS4_
.LVL151:
.LEHE4:
.L58:
	.loc 10 1366 2 view .LVU401
.LBE5199:
.LBE5198:
.LBE5197:
.LBE5134:
.LBE5133:
.LBE5132:
.LBB5216:
.LBI5216:
	.loc 10 6416 5 is_stmt 1 view .LVU402
.LBB5217:
.LBB5218:
.LBI5218:
	.loc 10 930 7 view .LVU403
	.loc 10 930 7 is_stmt 0 view .LVU404
.LBE5218:
.LBB5219:
.LBI5219:
	.loc 10 2312 7 is_stmt 1 view .LVU405
.LBB5220:
.LBI5220:
	.loc 10 186 7 view .LVU406
	.loc 10 186 7 is_stmt 0 view .LVU407
.LBE5220:
.LBE5219:
	.loc 10 6421 30 view .LVU408
	movq	24(%rsp), %rdx
	movq	16(%rsp), %rsi
	movq	%r14, %rdi
.LEHB5:
	call	_ZSt16__ostream_insertIcSt11char_traitsIcEERSt13basic_ostreamIT_T0_ES6_PKS3_l
.LVL152:
.LEHE5:
	movq	%rax, %rbx
.LVL153:
	.loc 10 6421 30 view .LVU409
.LBE5217:
.LBE5216:
.LBB5221:
.LBI5221:
	.loc 10 657 7 is_stmt 1 view .LVU410
.LBB5222:
.LBI5222:
	.loc 10 229 7 view .LVU411
.LBB5223:
.LBB5224:
.LBI5224:
	.loc 10 221 7 view .LVU412
.LBB5225:
.LBI5225:
	.loc 10 186 7 view .LVU413
.LBB5226:
	.loc 10 187 28 is_stmt 0 view .LVU414
	movq	16(%rsp), %rdi
.LVL154:
	.loc 10 187 28 view .LVU415
.LBE5226:
.LBE5225:
.LBB5227:
.LBI5227:
	.loc 10 200 7 is_stmt 1 view .LVU416
	.loc 10 200 7 is_stmt 0 view .LVU417
.LBE5227:
.LBE5224:
	.loc 10 231 2 view .LVU418
	leaq	32(%rsp), %rax
	cmpq	%rax, %rdi
	je	.L64
.LVL155:
.LBB5228:
.LBI5228:
	.loc 10 236 7 is_stmt 1 view .LVU419
.LBB5229:
.LBB5230:
.LBI5230:
	.loc 11 469 7 view .LVU420
.LBB5231:
.LBI5231:
	.loc 12 119 7 view .LVU421
.LBB5232:
	.loc 12 128 19 is_stmt 0 view .LVU422
	call	_ZdlPv
.LVL156:
.L64:
	.loc 12 128 19 view .LVU423
.LBE5232:
.LBE5231:
.LBE5230:
.LBE5229:
.LBE5228:
.LBE5223:
.LBE5222:
.LBB5233:
.LBI5233:
	.loc 10 150 14 is_stmt 1 view .LVU424
.LBB5234:
.LBI5234:
	.loc 13 153 7 view .LVU425
.LBB5235:
.LBI5235:
	.loc 12 89 7 view .LVU426
	.loc 12 89 7 is_stmt 0 view .LVU427
.LBE5235:
.LBE5234:
.LBE5233:
.LBE5221:
.LBB5236:
.LBI5236:
	.loc 14 629 7 is_stmt 1 view .LVU428
.LBB5237:
	.loc 14 630 9 is_stmt 0 view .LVU429
	movq	$_ZTVNSt7__cxx1119basic_ostringstreamIcSt11char_traitsIcESaIcEEE+24, 48(%rsp)
	movq	$_ZTVNSt7__cxx1119basic_ostringstreamIcSt11char_traitsIcESaIcEEE+64, 160(%rsp)
.LVL157:
.LBB5238:
.LBI5238:
	.loc 14 65 11 is_stmt 1 view .LVU430
.LBB5239:
	movq	$_ZTVNSt7__cxx1115basic_stringbufIcSt11char_traitsIcESaIcEEE+16, 56(%rsp)
.LVL158:
.LBB5240:
.LBI5240:
	.loc 10 657 7 view .LVU431
.LBB5241:
.LBB5242:
.LBI5242:
	.loc 10 229 7 view .LVU432
.LBB5243:
.LBB5244:
.LBI5244:
	.loc 10 221 7 view .LVU433
.LBB5245:
.LBI5245:
	.loc 10 186 7 view .LVU434
.LBB5246:
	.loc 10 187 28 is_stmt 0 view .LVU435
	movq	128(%rsp), %rdi
.LVL159:
	.loc 10 187 28 view .LVU436
.LBE5246:
.LBE5245:
.LBB5247:
.LBI5247:
	.loc 10 200 7 is_stmt 1 view .LVU437
	.loc 10 200 7 is_stmt 0 view .LVU438
.LBE5247:
.LBE5244:
	.loc 10 231 2 view .LVU439
	leaq	144(%rsp), %rax
	cmpq	%rax, %rdi
	je	.L65
.LVL160:
.LBB5248:
.LBI5248:
	.loc 10 236 7 is_stmt 1 view .LVU440
.LBB5249:
.LBB5250:
.LBI5250:
	.loc 11 469 7 view .LVU441
.LBB5251:
.LBI5251:
	.loc 12 119 7 view .LVU442
.LBB5252:
	.loc 12 128 19 is_stmt 0 view .LVU443
	call	_ZdlPv
.LVL161:
.L65:
	.loc 12 128 19 view .LVU444
.LBE5252:
.LBE5251:
.LBE5250:
.LBE5249:
.LBE5248:
.LBE5243:
.LBE5242:
.LBB5253:
.LBI5253:
	.loc 10 150 14 is_stmt 1 view .LVU445
.LBB5254:
.LBI5254:
	.loc 13 153 7 view .LVU446
.LBB5255:
.LBI5255:
	.loc 12 89 7 view .LVU447
	.loc 12 89 7 is_stmt 0 view .LVU448
.LBE5255:
.LBE5254:
.LBE5253:
.LBE5241:
.LBE5240:
.LBB5256:
.LBI5256:
	.loc 15 204 7 is_stmt 1 view .LVU449
.LBB5257:
	.loc 15 205 9 is_stmt 0 view .LVU450
	movq	$_ZTVSt15basic_streambufIcSt11char_traitsIcEE+16, 56(%rsp)
	leaq	112(%rsp), %rdi
	call	_ZNSt6localeD1Ev
.LVL162:
	.loc 15 205 9 view .LVU451
.LBE5257:
.LBE5256:
.LBE5239:
.LBE5238:
.LBB5258:
.LBI5258:
	.loc 18 93 7 is_stmt 1 view .LVU452
.LBB5259:
	.loc 18 93 26 is_stmt 0 view .LVU453
	movq	_ZTTNSt7__cxx1119basic_ostringstreamIcSt11char_traitsIcESaIcEEE+8(%rip), %rax
	movq	%rax, 48(%rsp)
	movq	-24(%rax), %rax
	movq	_ZTTNSt7__cxx1119basic_ostringstreamIcSt11char_traitsIcESaIcEEE+16(%rip), %rdx
	movq	%rdx, 48(%rsp,%rax)
.LVL163:
	.loc 18 93 26 view .LVU454
.LBE5259:
.LBE5258:
.LBB5260:
.LBI5260:
	.loc 17 282 7 is_stmt 1 view .LVU455
.LBB5261:
	.loc 17 282 22 is_stmt 0 view .LVU456
	movq	$_ZTVSt9basic_iosIcSt11char_traitsIcEE+16, 160(%rsp)
	leaq	160(%rsp), %rdi
.LVL164:
	.loc 17 282 22 view .LVU457
	call	_ZNSt8ios_baseD2Ev
.LVL165:
	.loc 17 282 22 view .LVU458
.LBE5261:
.LBE5260:
.LBE5237:
.LBE5236:
	.loc 16 131 7 view .LVU459
	movq	%rbx, %rax
	addq	$432, %rsp
	.cfi_remember_state
	.cfi_def_cfa_offset 48
	popq	%rbx
	.cfi_def_cfa_offset 40
	popq	%rbp
	.cfi_def_cfa_offset 32
.LVL166:
	.loc 16 131 7 view .LVU460
	popq	%r12
	.cfi_def_cfa_offset 24
	popq	%r13
	.cfi_def_cfa_offset 16
	popq	%r14
	.cfi_def_cfa_offset 8
.LVL167:
	.loc 16 131 7 view .LVU461
	ret
.LVL168:
.L72:
	.cfi_restore_state
	.loc 16 131 7 view .LVU462
	movq	%rax, %rbx
.LVL169:
.LBB5262:
.LBB5215:
.LBB5214:
.LBB5200:
.LBI5200:
	.loc 10 657 7 is_stmt 1 view .LVU463
.LBB5201:
.LBI5201:
	.loc 10 229 7 view .LVU464
.LBB5202:
.LBB5203:
.LBI5203:
	.loc 10 221 7 view .LVU465
.LBB5204:
.LBI5204:
	.loc 10 186 7 view .LVU466
.LBB5205:
	.loc 10 187 28 is_stmt 0 view .LVU467
	movq	16(%rsp), %rdi
.LVL170:
	.loc 10 187 28 view .LVU468
.LBE5205:
.LBE5204:
.LBE5203:
	.loc 10 231 2 view .LVU469
	leaq	32(%rsp), %rax
	cmpq	%rax, %rdi
	je	.L63
.LVL171:
.LBB5206:
.LBI5206:
	.loc 10 236 7 is_stmt 1 view .LVU470
.LBB5207:
.LBB5208:
.LBI5208:
	.loc 11 469 7 view .LVU471
.LBB5209:
.LBI5209:
	.loc 12 119 7 view .LVU472
.LBB5210:
	.loc 12 128 19 is_stmt 0 view .LVU473
	call	_ZdlPv
.LVL172:
	.loc 12 128 19 view .LVU474
.LBE5210:
.LBE5209:
.LBE5208:
.LBE5207:
.LBE5206:
.LBE5202:
.LBE5201:
.LBB5211:
.LBI5211:
	.loc 10 150 14 is_stmt 1 view .LVU475
.LBB5212:
.LBI5212:
	.loc 13 153 7 view .LVU476
.LBB5213:
.LBI5213:
	.loc 12 89 7 view .LVU477
.L63:
	.loc 12 89 7 is_stmt 0 view .LVU478
.LBE5213:
.LBE5212:
.LBE5211:
.LBE5200:
.LBE5214:
.LBE5215:
.LBE5262:
	.loc 16 120 44 view .LVU479
	leaq	48(%rsp), %rdi
	call	_ZNSt7__cxx1119basic_ostringstreamIcSt11char_traitsIcESaIcEED1Ev
.LVL173:
	movq	%rbx, %rdi
.LEHB6:
	call	_Unwind_Resume
.LVL174:
.LEHE6:
.L69:
	.loc 16 120 44 view .LVU480
	movq	%rax, %rbx
.LVL175:
.LBB5263:
.LBI5263:
	.loc 10 657 7 is_stmt 1 view .LVU481
.LBB5264:
.LBI5264:
	.loc 10 229 7 view .LVU482
.LBB5265:
.LBB5266:
.LBI5266:
	.loc 10 221 7 view .LVU483
.LBB5267:
.LBI5267:
	.loc 10 186 7 view .LVU484
.LBB5268:
	.loc 10 187 28 is_stmt 0 view .LVU485
	movq	16(%rsp), %rdi
.LVL176:
	.loc 10 187 28 view .LVU486
.LBE5268:
.LBE5267:
.LBB5269:
.LBI5269:
	.loc 10 200 7 is_stmt 1 view .LVU487
	.loc 10 200 7 is_stmt 0 view .LVU488
.LBE5269:
.LBE5266:
	.loc 10 231 2 view .LVU489
	leaq	32(%rsp), %rax
	cmpq	%rax, %rdi
	je	.L63
.LVL177:
.LBB5270:
.LBI5270:
	.loc 10 236 7 is_stmt 1 view .LVU490
.LBB5271:
.LBB5272:
.LBI5272:
	.loc 11 469 7 view .LVU491
.LBB5273:
.LBI5273:
	.loc 12 119 7 view .LVU492
.LBB5274:
	.loc 12 128 19 is_stmt 0 view .LVU493
	call	_ZdlPv
.LVL178:
	.loc 12 128 19 view .LVU494
.LBE5274:
.LBE5273:
.LBE5272:
.LBE5271:
.LBE5270:
.LBE5265:
.LBE5264:
.LBB5278:
.LBI5278:
	.loc 10 150 14 is_stmt 1 view .LVU495
.LBB5279:
.LBI5279:
	.loc 13 153 7 view .LVU496
.LBB5280:
.LBI5280:
	.loc 12 89 7 view .LVU497
	.loc 12 89 7 is_stmt 0 view .LVU498
.LBE5280:
.LBE5279:
.LBE5278:
.LBB5281:
.LBB5277:
.LBB5276:
.LBB5275:
	.loc 10 237 79 view .LVU499
	jmp	.L63
.LVL179:
.L68:
	.loc 10 237 79 view .LVU500
	movq	%rax, %rbx
	jmp	.L63
.LBE5275:
.LBE5276:
.LBE5277:
.LBE5281:
.LBE5263:
	.cfi_endproc
.LFE5530:
	.section	.gcc_except_table._ZNSt8__detaillsIcSt11char_traitsIcERKNSt7__cxx1112basic_stringIcS2_SaIcEEEEERSt13basic_ostreamIT_T0_ESD_RKNS_14_Quoted_stringIT1_SA_EE,"aG",@progbits,_ZNSt8__detaillsIcSt11char_traitsIcERKNSt7__cxx1112basic_stringIcS2_SaIcEEEEERSt13basic_ostreamIT_T0_ESD_RKNS_14_Quoted_stringIT1_SA_EE,comdat
.LLSDA5530:
	.byte	0xff
	.byte	0xff
	.byte	0x1
	.uleb128 .LLSDACSE5530-.LLSDACSB5530
.LLSDACSB5530:
	.uleb128 .LEHB0-.LFB5530
	.uleb128 .LEHE0-.LEHB0
	.uleb128 .L70-.LFB5530
	.uleb128 0
	.uleb128 .LEHB1-.LFB5530
	.uleb128 .LEHE1-.LEHB1
	.uleb128 .L71-.LFB5530
	.uleb128 0
	.uleb128 .LEHB2-.LFB5530
	.uleb128 .LEHE2-.LEHB2
	.uleb128 0
	.uleb128 0
	.uleb128 .LEHB3-.LFB5530
	.uleb128 .LEHE3-.LEHB3
	.uleb128 .L68-.LFB5530
	.uleb128 0
	.uleb128 .LEHB4-.LFB5530
	.uleb128 .LEHE4-.LEHB4
	.uleb128 .L72-.LFB5530
	.uleb128 0
	.uleb128 .LEHB5-.LFB5530
	.uleb128 .LEHE5-.LEHB5
	.uleb128 .L69-.LFB5530
	.uleb128 0
	.uleb128 .LEHB6-.LFB5530
	.uleb128 .LEHE6-.LEHB6
	.uleb128 0
	.uleb128 0
.LLSDACSE5530:
	.section	.text._ZNSt8__detaillsIcSt11char_traitsIcERKNSt7__cxx1112basic_stringIcS2_SaIcEEEEERSt13basic_ostreamIT_T0_ESD_RKNS_14_Quoted_stringIT1_SA_EE,"axG",@progbits,_ZNSt8__detaillsIcSt11char_traitsIcERKNSt7__cxx1112basic_stringIcS2_SaIcEEEEERSt13basic_ostreamIT_T0_ESD_RKNS_14_Quoted_stringIT1_SA_EE,comdat
	.size	_ZNSt8__detaillsIcSt11char_traitsIcERKNSt7__cxx1112basic_stringIcS2_SaIcEEEEERSt13basic_ostreamIT_T0_ESD_RKNS_14_Quoted_stringIT1_SA_EE, .-_ZNSt8__detaillsIcSt11char_traitsIcERKNSt7__cxx1112basic_stringIcS2_SaIcEEEEERSt13basic_ostreamIT_T0_ESD_RKNS_14_Quoted_stringIT1_SA_EE
	.section	.text._ZNSt8__detaillsIcSt11char_traitsIcEEERSt13basic_ostreamIT_T0_ES7_RKNS_14_Quoted_stringIPKS4_S4_EE,"axG",@progbits,_ZNSt8__detaillsIcSt11char_traitsIcEEERSt13basic_ostreamIT_T0_ES7_RKNS_14_Quoted_stringIPKS4_S4_EE,comdat
	.weak	_ZNSt8__detaillsIcSt11char_traitsIcEEERSt13basic_ostreamIT_T0_ES7_RKNS_14_Quoted_stringIPKS4_S4_EE
	.type	_ZNSt8__detaillsIcSt11char_traitsIcEEERSt13basic_ostreamIT_T0_ES7_RKNS_14_Quoted_stringIPKS4_S4_EE, @function
_ZNSt8__detaillsIcSt11char_traitsIcEEERSt13basic_ostreamIT_T0_ES7_RKNS_14_Quoted_stringIPKS4_S4_EE:
.LVL180:
.LFB5534:
	.loc 16 93 7 is_stmt 1 view -0
	.cfi_startproc
	.cfi_personality 0x3,__gxx_personality_v0
	.cfi_lsda 0x3,.LLSDA5534
	.loc 16 93 7 is_stmt 0 view .LVU502
	pushq	%r13
	.cfi_def_cfa_offset 16
	.cfi_offset 13, -16
	pushq	%r12
	.cfi_def_cfa_offset 24
	.cfi_offset 12, -24
	pushq	%rbp
	.cfi_def_cfa_offset 32
	.cfi_offset 6, -32
	pushq	%rbx
	.cfi_def_cfa_offset 40
	.cfi_offset 3, -40
	subq	$440, %rsp
	.cfi_def_cfa_offset 480
	movq	%rdi, %r12
	movq	%rsi, %rbp
.LVL181:
.LBB5483:
.LBI5483:
	.loc 14 583 7 is_stmt 1 view .LVU503
.LBB5484:
.LBB5485:
.LBB5486:
.LBI5486:
	.loc 17 460 7 view .LVU504
.LBB5487:
.LBB5488:
	.loc 17 462 59 is_stmt 0 view .LVU505
	leaq	160(%rsp), %rdi
.LVL182:
	.loc 17 462 59 view .LVU506
	call	_ZNSt8ios_baseC2Ev
.LVL183:
	.loc 17 462 59 view .LVU507
	movq	$_ZTVSt9basic_iosIcSt11char_traitsIcEE+16, 160(%rsp)
	movq	$0, 376(%rsp)
	movb	$0, 384(%rsp)
	movb	$0, 385(%rsp)
	movq	$0, 392(%rsp)
	movq	$0, 400(%rsp)
	movq	$0, 408(%rsp)
	movq	$0, 416(%rsp)
.LVL184:
	.loc 17 462 59 view .LVU508
.LBE5488:
.LBE5487:
.LBE5486:
.LBB5489:
.LBI5489:
	.loc 18 390 7 is_stmt 1 view .LVU509
.LBB5490:
.LBB5491:
	.loc 18 391 7 is_stmt 0 view .LVU510
	movq	_ZTTNSt7__cxx1119basic_ostringstreamIcSt11char_traitsIcESaIcEEE+8(%rip), %rbx
	movq	%rbx, 48(%rsp)
	movq	_ZTTNSt7__cxx1119basic_ostringstreamIcSt11char_traitsIcESaIcEEE+16(%rip), %r13
	movq	-24(%rbx), %rax
	movq	%r13, 48(%rsp,%rax)
	.loc 18 391 9 view .LVU511
	movq	48(%rsp), %rax
	leaq	48(%rsp), %rdi
.LVL185:
	.loc 18 391 9 view .LVU512
	addq	-24(%rax), %rdi
.LVL186:
	.loc 18 391 9 view .LVU513
	movl	$0, %esi
.LEHB7:
	call	_ZNSt9basic_iosIcSt11char_traitsIcEE4initEPSt15basic_streambufIcS1_E
.LVL187:
.LEHE7:
	.loc 18 391 9 view .LVU514
.LBE5491:
.LBE5490:
.LBE5489:
	.loc 14 584 53 view .LVU515
	movq	$_ZTVNSt7__cxx1119basic_ostringstreamIcSt11char_traitsIcESaIcEEE+24, 48(%rsp)
	movq	$_ZTVNSt7__cxx1119basic_ostringstreamIcSt11char_traitsIcESaIcEEE+64, 160(%rsp)
.LVL188:
.LBB5492:
.LBI5492:
	.loc 14 111 7 is_stmt 1 view .LVU516
.LBB5493:
.LBB5494:
.LBB5495:
.LBI5495:
	.loc 15 470 7 view .LVU517
.LBB5496:
.LBB5497:
	.loc 15 473 29 is_stmt 0 view .LVU518
	movq	$_ZTVSt15basic_streambufIcSt11char_traitsIcEE+16, 56(%rsp)
	movq	$0, 64(%rsp)
	movq	$0, 72(%rsp)
	movq	$0, 80(%rsp)
	movq	$0, 88(%rsp)
	movq	$0, 96(%rsp)
	movq	$0, 104(%rsp)
	leaq	112(%rsp), %rdi
	call	_ZNSt6localeC1Ev
.LVL189:
	.loc 15 473 29 view .LVU519
.LBE5497:
.LBE5496:
.LBE5495:
	.loc 14 112 56 view .LVU520
	movq	$_ZTVNSt7__cxx1115basic_stringbufIcSt11char_traitsIcESaIcEEE+16, 56(%rsp)
	movl	$16, 120(%rsp)
.LVL190:
.LBB5498:
.LBI5498:
	.loc 10 431 7 is_stmt 1 view .LVU521
.LBB5499:
.LBB5500:
.LBI5500:
	.loc 13 138 7 view .LVU522
.LBB5501:
.LBI5501:
	.loc 12 80 7 view .LVU523
	.loc 12 80 7 is_stmt 0 view .LVU524
.LBE5501:
.LBE5500:
.LBB5502:
.LBI5502:
	.loc 10 190 7 is_stmt 1 view .LVU525
	.loc 10 190 7 is_stmt 0 view .LVU526
.LBE5502:
.LBB5503:
.LBI5503:
	.loc 10 159 2 is_stmt 1 view .LVU527
.LBB5504:
.LBB5505:
.LBB5506:
.LBI5506:
	.loc 19 99 5 view .LVU528
	.loc 19 99 5 is_stmt 0 view .LVU529
.LBE5506:
.LBB5507:
.LBI5507:
	.loc 13 141 7 is_stmt 1 view .LVU530
.LBB5508:
.LBI5508:
	.loc 12 83 7 view .LVU531
	.loc 12 83 7 is_stmt 0 view .LVU532
.LBE5508:
.LBE5507:
	.loc 10 160 46 view .LVU533
	leaq	144(%rsp), %rax
.LVL191:
	.loc 10 160 46 view .LVU534
	movq	%rax, 128(%rsp)
.LVL192:
	.loc 10 160 46 view .LVU535
.LBE5505:
.LBE5504:
.LBE5503:
.LBB5509:
.LBI5509:
	.loc 13 153 7 is_stmt 1 view .LVU536
.LBB5510:
.LBI5510:
	.loc 12 89 7 view .LVU537
	.loc 12 89 7 is_stmt 0 view .LVU538
.LBE5510:
.LBE5509:
.LBB5511:
.LBI5511:
	.loc 10 214 7 is_stmt 1 view .LVU539
.LBB5512:
.LBI5512:
	.loc 10 182 7 view .LVU540
.LBB5513:
	.loc 10 183 9 is_stmt 0 view .LVU541
	movq	$0, 136(%rsp)
.LVL193:
	.loc 10 183 9 view .LVU542
.LBE5513:
.LBE5512:
.LBB5514:
.LBI5514:
	.loc 20 299 7 is_stmt 1 view .LVU543
.LBB5515:
	.loc 20 300 9 view .LVU544
	.loc 20 300 14 is_stmt 0 view .LVU545
	movb	$0, 144(%rsp)
.LVL194:
	.loc 20 300 14 view .LVU546
.LBE5515:
.LBE5514:
.LBE5511:
.LBE5499:
.LBE5498:
.LBE5494:
.LBE5493:
.LBE5492:
	.loc 14 585 9 view .LVU547
	leaq	56(%rsp), %rsi
	leaq	160(%rsp), %rdi
.LEHB8:
	call	_ZNSt9basic_iosIcSt11char_traitsIcEE4initEPSt15basic_streambufIcS1_E
.LVL195:
.LEHE8:
	jmp	.L109
.L103:
	movq	%rax, %rbp
.LVL196:
	.loc 14 584 53 view .LVU548
	leaq	56(%rsp), %rdi
	call	_ZNSt7__cxx1115basic_stringbufIcSt11char_traitsIcESaIcEED1Ev
.LVL197:
.LBB5516:
.LBI5516:
	.loc 18 93 7 is_stmt 1 view .LVU549
.LBB5517:
	.loc 18 93 26 is_stmt 0 view .LVU550
	movq	%rbx, 48(%rsp)
	movq	-24(%rbx), %rax
	movq	%r13, 48(%rsp,%rax)
.LVL198:
.L82:
	.loc 18 93 26 view .LVU551
.LBE5517:
.LBE5516:
.LBB5518:
.LBI5518:
	.loc 17 282 7 is_stmt 1 view .LVU552
.LBB5519:
	.loc 17 282 22 is_stmt 0 view .LVU553
	movq	$_ZTVSt9basic_iosIcSt11char_traitsIcEE+16, 160(%rsp)
	leaq	160(%rsp), %rdi
.LVL199:
	.loc 17 282 22 view .LVU554
	call	_ZNSt8ios_baseD2Ev
.LVL200:
	.loc 17 282 22 view .LVU555
	movq	%rbp, %rdi
.LEHB9:
	call	_Unwind_Resume
.LVL201:
.LEHE9:
.L102:
	.loc 17 282 22 view .LVU556
	movq	%rax, %rbp
.LVL202:
	.loc 17 282 22 view .LVU557
	jmp	.L82
.LVL203:
.L109:
	.loc 17 282 22 view .LVU558
.LBE5519:
.LBE5518:
.LBE5485:
.LBE5484:
.LBE5483:
	.loc 16 97 18 view .LVU559
	movzbl	8(%rbp), %eax
.LVL204:
	.loc 16 97 18 view .LVU560
	movb	%al, 13(%rsp)
.LVL205:
.LBB5520:
.LBI5520:
	.loc 18 517 5 is_stmt 1 view .LVU561
.LBB5521:
	.loc 18 518 30 is_stmt 0 view .LVU562
	movl	$1, %edx
	leaq	13(%rsp), %rsi
	leaq	48(%rsp), %rdi
.LVL206:
.LEHB10:
	.loc 18 518 30 view .LVU563
	call	_ZSt16__ostream_insertIcSt11char_traitsIcEERSt13basic_ostreamIT_T0_ES6_PKS3_l
.LVL207:
	.loc 18 518 30 view .LVU564
.LBE5521:
.LBE5520:
.LBB5522:
	.loc 16 98 21 view .LVU565
	movq	0(%rbp), %rbx
.LVL208:
	.loc 16 98 21 view .LVU566
	jmp	.L86
.L84:
	.loc 16 101 24 view .LVU567
	movzbl	9(%rbp), %eax
.LVL209:
	.loc 16 101 24 view .LVU568
	movb	%al, 14(%rsp)
.LVL210:
.LBB5523:
.LBI5523:
	.loc 18 517 5 is_stmt 1 view .LVU569
.LBB5524:
	.loc 18 518 30 is_stmt 0 view .LVU570
	movl	$1, %edx
	leaq	14(%rsp), %rsi
	leaq	48(%rsp), %rdi
.LVL211:
	.loc 18 518 30 view .LVU571
	call	_ZSt16__ostream_insertIcSt11char_traitsIcEERSt13basic_ostreamIT_T0_ES6_PKS3_l
.LVL212:
	.loc 18 518 30 view .LVU572
	jmp	.L85
.LVL213:
.L110:
	.loc 18 518 30 view .LVU573
.LBE5524:
.LBE5523:
	.loc 16 98 2 is_stmt 1 view .LVU574
	addq	$1, %rbx
.LVL214:
.L86:
	.loc 16 98 2 discriminator 1 view .LVU575
	movzbl	(%rbx), %eax
	testb	%al, %al
	je	.L83
	.loc 16 100 6 is_stmt 0 view .LVU576
	cmpb	8(%rbp), %al
	je	.L84
	.loc 16 100 33 discriminator 1 view .LVU577
	cmpb	9(%rbp), %al
	je	.L84
.L85:
	.loc 16 102 13 view .LVU578
	movzbl	(%rbx), %eax
.LVL215:
	.loc 16 102 13 view .LVU579
	movb	%al, 15(%rsp)
.LVL216:
.LBB5525:
.LBI5525:
	.loc 18 517 5 is_stmt 1 view .LVU580
.LBB5526:
	.loc 18 518 30 is_stmt 0 view .LVU581
	movl	$1, %edx
	leaq	15(%rsp), %rsi
	leaq	48(%rsp), %rdi
.LVL217:
	.loc 18 518 30 view .LVU582
	call	_ZSt16__ostream_insertIcSt11char_traitsIcEERSt13basic_ostreamIT_T0_ES6_PKS3_l
.LVL218:
	.loc 18 518 30 view .LVU583
	jmp	.L110
.LVL219:
.L83:
	.loc 18 518 30 view .LVU584
.LBE5526:
.LBE5525:
.LBE5522:
	.loc 16 104 18 view .LVU585
	movzbl	8(%rbp), %eax
.LVL220:
	.loc 16 104 18 view .LVU586
	movb	%al, 16(%rsp)
.LVL221:
.LBB5527:
.LBI5527:
	.loc 18 517 5 is_stmt 1 view .LVU587
.LBB5528:
	.loc 18 518 30 is_stmt 0 view .LVU588
	movl	$1, %edx
	leaq	16(%rsp), %rsi
	leaq	48(%rsp), %rdi
.LVL222:
	.loc 18 518 30 view .LVU589
	call	_ZSt16__ostream_insertIcSt11char_traitsIcEERSt13basic_ostreamIT_T0_ES6_PKS3_l
.LVL223:
.LEHE10:
	.loc 18 518 30 view .LVU590
.LBE5528:
.LBE5527:
.LBB5529:
.LBI5529:
	.loc 14 677 7 is_stmt 1 view .LVU591
.LBB5530:
.LBI5530:
	.loc 14 178 7 view .LVU592
.LBB5531:
.LBB5532:
.LBI5532:
	.loc 10 2331 7 view .LVU593
.LBB5533:
.LBI5533:
	.loc 13 141 7 view .LVU594
.LBB5534:
.LBI5534:
	.loc 12 83 7 view .LVU595
	.loc 12 83 7 is_stmt 0 view .LVU596
.LBE5534:
.LBE5533:
.LBE5532:
.LBB5535:
.LBI5535:
	.loc 10 440 7 is_stmt 1 view .LVU597
.LBB5536:
.LBI5536:
	.loc 10 190 7 view .LVU598
	.loc 10 190 7 is_stmt 0 view .LVU599
.LBE5536:
.LBB5537:
.LBI5537:
	.loc 10 156 2 is_stmt 1 view .LVU600
.LBB5538:
.LBB5539:
.LBI5539:
	.loc 13 141 7 view .LVU601
.LBB5540:
.LBI5540:
	.loc 12 83 7 view .LVU602
	.loc 12 83 7 is_stmt 0 view .LVU603
.LBE5540:
.LBE5539:
	.loc 10 157 35 view .LVU604
	leaq	32(%rsp), %rax
.LVL224:
	.loc 10 157 35 view .LVU605
	movq	%rax, 16(%rsp)
.LVL225:
	.loc 10 157 35 view .LVU606
.LBE5538:
.LBE5537:
.LBB5541:
.LBI5541:
	.loc 10 214 7 is_stmt 1 view .LVU607
.LBB5542:
.LBI5542:
	.loc 10 182 7 view .LVU608
.LBB5543:
	.loc 10 183 9 is_stmt 0 view .LVU609
	movq	$0, 24(%rsp)
.LVL226:
	.loc 10 183 9 view .LVU610
.LBE5543:
.LBE5542:
.LBB5544:
.LBI5544:
	.loc 20 299 7 is_stmt 1 view .LVU611
.LBB5545:
	.loc 20 300 9 view .LVU612
	.loc 20 300 14 is_stmt 0 view .LVU613
	movb	$0, 32(%rsp)
.LVL227:
	.loc 20 300 14 view .LVU614
.LBE5545:
.LBE5544:
.LBE5541:
.LBE5535:
.LBB5546:
.LBI5546:
	.loc 13 153 7 is_stmt 1 view .LVU615
.LBB5547:
.LBI5547:
	.loc 12 89 7 view .LVU616
	.loc 12 89 7 is_stmt 0 view .LVU617
.LBE5547:
.LBE5546:
.LBB5548:
.LBI5548:
	.loc 15 539 7 is_stmt 1 view .LVU618
.LBB5549:
	.loc 15 539 29 is_stmt 0 view .LVU619
	movq	96(%rsp), %r8
.LVL228:
	.loc 15 539 29 view .LVU620
.LBE5549:
.LBE5548:
	.loc 14 181 2 view .LVU621
	testq	%r8, %r8
	je	.L87
.LVL229:
.LBB5550:
.LBI5550:
	.loc 15 495 7 is_stmt 1 view .LVU622
.LBB5551:
	.loc 15 495 30 is_stmt 0 view .LVU623
	movq	80(%rsp), %rax
.LVL230:
	.loc 15 495 30 view .LVU624
.LBE5551:
.LBE5550:
	.loc 14 184 6 view .LVU625
	cmpq	%rax, %r8
	jbe	.L88
.LVL231:
.LBB5552:
.LBI5552:
	.loc 15 536 7 is_stmt 1 view .LVU626
.LBB5553:
	.loc 15 536 30 is_stmt 0 view .LVU627
	movq	88(%rsp), %rcx
.LVL232:
	.loc 15 536 30 view .LVU628
.LBE5553:
.LBE5552:
.LBB5554:
.LBI5554:
	.loc 10 1470 9 is_stmt 1 view .LVU629
.LBB5555:
.LBI5555:
	.loc 10 842 7 view .LVU630
.LBB5556:
.LBI5556:
	.loc 21 806 7 view .LVU631
	.loc 21 806 7 is_stmt 0 view .LVU632
.LBE5556:
.LBE5555:
.LBB5557:
.LBI5557:
	.loc 21 811 9 is_stmt 1 view .LVU633
.LBB5558:
.LBI5558:
	.loc 21 871 7 view .LVU634
	.loc 21 871 7 is_stmt 0 view .LVU635
.LBE5558:
.LBE5557:
.LBB5559:
.LBI5559:
	.loc 10 826 7 is_stmt 1 view .LVU636
.LBB5560:
.LBI5560:
	.loc 21 806 7 view .LVU637
	.loc 21 806 7 is_stmt 0 view .LVU638
.LBE5560:
.LBE5559:
.LBB5561:
.LBI5561:
	.loc 21 811 9 is_stmt 1 view .LVU639
.LBB5562:
.LBI5562:
	.loc 21 871 7 view .LVU640
	.loc 21 871 7 is_stmt 0 view .LVU641
.LBE5562:
.LBE5561:
.LBB5563:
.LBI5563:
	.loc 10 2123 7 is_stmt 1 view .LVU642
.LBB5564:
	.loc 10 2130 20 is_stmt 0 view .LVU643
	subq	%rcx, %r8
.LVL233:
.LBB5565:
.LBI5565:
	.loc 10 826 7 is_stmt 1 view .LVU644
.LBB5566:
.LBI5566:
	.loc 21 806 7 view .LVU645
	.loc 21 806 7 is_stmt 0 view .LVU646
.LBE5566:
.LBE5565:
.LBB5567:
.LBI5567:
	.loc 10 1936 7 is_stmt 1 view .LVU647
.LBB5568:
.LBB5569:
.LBI5569:
	.loc 10 329 7 view .LVU648
.LBB5570:
.LBB5571:
.LBI5571:
	.loc 10 930 7 view .LVU649
.LBB5572:
	.loc 10 931 16 is_stmt 0 view .LVU650
	movl	$0, %edx
.LVL234:
	.loc 10 931 16 view .LVU651
.LBE5572:
.LBE5571:
.LBE5570:
.LBE5569:
	.loc 10 1941 38 view .LVU652
	movl	$0, %esi
	leaq	16(%rsp), %rdi
.LVL235:
.LEHB11:
	.loc 10 1941 38 view .LVU653
	call	_ZNSt7__cxx1112basic_stringIcSt11char_traitsIcESaIcEE10_M_replaceEmmPKcm
.LVL236:
	.loc 10 1941 38 view .LVU654
	jmp	.L90
.LVL237:
.L88:
	.loc 10 1941 38 view .LVU655
.LBE5568:
.LBE5567:
.LBE5564:
.LBE5563:
.LBE5554:
.LBB5573:
.LBI5573:
	.loc 15 536 7 is_stmt 1 view .LVU656
.LBB5574:
	.loc 15 536 30 is_stmt 0 view .LVU657
	movq	88(%rsp), %rcx
.LVL238:
	.loc 15 536 30 view .LVU658
.LBE5574:
.LBE5573:
.LBB5575:
.LBI5575:
	.loc 10 1470 9 is_stmt 1 view .LVU659
.LBB5576:
.LBI5576:
	.loc 10 842 7 view .LVU660
.LBB5577:
.LBI5577:
	.loc 21 806 7 view .LVU661
	.loc 21 806 7 is_stmt 0 view .LVU662
.LBE5577:
.LBE5576:
.LBB5578:
.LBI5578:
	.loc 21 811 9 is_stmt 1 view .LVU663
.LBB5579:
.LBI5579:
	.loc 21 871 7 view .LVU664
	.loc 21 871 7 is_stmt 0 view .LVU665
.LBE5579:
.LBE5578:
.LBB5580:
.LBI5580:
	.loc 10 826 7 is_stmt 1 view .LVU666
.LBB5581:
.LBI5581:
	.loc 21 806 7 view .LVU667
	.loc 21 806 7 is_stmt 0 view .LVU668
.LBE5581:
.LBE5580:
.LBB5582:
.LBI5582:
	.loc 21 811 9 is_stmt 1 view .LVU669
.LBB5583:
.LBI5583:
	.loc 21 871 7 view .LVU670
	.loc 21 871 7 is_stmt 0 view .LVU671
.LBE5583:
.LBE5582:
.LBB5584:
.LBI5584:
	.loc 10 2123 7 is_stmt 1 view .LVU672
.LBB5585:
	.loc 10 2130 20 is_stmt 0 view .LVU673
	subq	%rcx, %rax
.LVL239:
	.loc 10 2130 20 view .LVU674
	movq	%rax, %r8
.LVL240:
.LBB5586:
.LBI5586:
	.loc 10 826 7 is_stmt 1 view .LVU675
.LBB5587:
.LBI5587:
	.loc 21 806 7 view .LVU676
	.loc 21 806 7 is_stmt 0 view .LVU677
.LBE5587:
.LBE5586:
.LBB5588:
.LBI5588:
	.loc 10 1936 7 is_stmt 1 view .LVU678
.LBB5589:
.LBB5590:
.LBI5590:
	.loc 10 329 7 view .LVU679
.LBB5591:
.LBB5592:
.LBI5592:
	.loc 10 930 7 view .LVU680
.LBB5593:
	.loc 10 931 16 is_stmt 0 view .LVU681
	movq	24(%rsp), %rdx
.LVL241:
	.loc 10 931 16 view .LVU682
.LBE5593:
.LBE5592:
	.loc 10 332 19 view .LVU683
	testq	%rdx, %rdx
	je	.L91
	movl	$0, %edx
.LVL242:
.L91:
	.loc 10 332 19 view .LVU684
.LBE5591:
.LBE5590:
	.loc 10 1941 38 view .LVU685
	movl	$0, %esi
	leaq	16(%rsp), %rdi
.LVL243:
	.loc 10 1941 38 view .LVU686
	call	_ZNSt7__cxx1112basic_stringIcSt11char_traitsIcESaIcEE10_M_replaceEmmPKcm
.LVL244:
	.loc 10 1941 38 view .LVU687
	jmp	.L90
.LVL245:
.L87:
	.loc 10 1941 38 view .LVU688
.LBE5589:
.LBE5588:
.LBE5585:
.LBE5584:
.LBE5575:
.LBB5594:
.LBI5594:
	.loc 10 665 7 is_stmt 1 view .LVU689
.LBB5595:
.LBI5595:
	.loc 10 1364 7 view .LVU690
.LBB5596:
	.loc 10 1366 2 is_stmt 0 view .LVU691
	leaq	128(%rsp), %rsi
.LVL246:
	.loc 10 1366 2 view .LVU692
	leaq	16(%rsp), %rdi
.LVL247:
	.loc 10 1366 2 view .LVU693
	call	_ZNSt7__cxx1112basic_stringIcSt11char_traitsIcESaIcEE9_M_assignERKS4_
.LVL248:
.LEHE11:
.L90:
	.loc 10 1366 2 view .LVU694
.LBE5596:
.LBE5595:
.LBE5594:
.LBE5531:
.LBE5530:
.LBE5529:
.LBB5613:
.LBI5613:
	.loc 10 6416 5 is_stmt 1 view .LVU695
.LBB5614:
.LBB5615:
.LBI5615:
	.loc 10 930 7 view .LVU696
	.loc 10 930 7 is_stmt 0 view .LVU697
.LBE5615:
.LBB5616:
.LBI5616:
	.loc 10 2312 7 is_stmt 1 view .LVU698
.LBB5617:
.LBI5617:
	.loc 10 186 7 view .LVU699
	.loc 10 186 7 is_stmt 0 view .LVU700
.LBE5617:
.LBE5616:
	.loc 10 6421 30 view .LVU701
	movq	24(%rsp), %rdx
	movq	16(%rsp), %rsi
	movq	%r12, %rdi
.LEHB12:
	call	_ZSt16__ostream_insertIcSt11char_traitsIcEERSt13basic_ostreamIT_T0_ES6_PKS3_l
.LVL249:
.LEHE12:
	movq	%rax, %rbx
.LVL250:
	.loc 10 6421 30 view .LVU702
.LBE5614:
.LBE5613:
.LBB5618:
.LBI5618:
	.loc 10 657 7 is_stmt 1 view .LVU703
.LBB5619:
.LBI5619:
	.loc 10 229 7 view .LVU704
.LBB5620:
.LBB5621:
.LBI5621:
	.loc 10 221 7 view .LVU705
.LBB5622:
.LBI5622:
	.loc 10 186 7 view .LVU706
.LBB5623:
	.loc 10 187 28 is_stmt 0 view .LVU707
	movq	16(%rsp), %rdi
.LVL251:
	.loc 10 187 28 view .LVU708
.LBE5623:
.LBE5622:
.LBB5624:
.LBI5624:
	.loc 10 200 7 is_stmt 1 view .LVU709
	.loc 10 200 7 is_stmt 0 view .LVU710
.LBE5624:
.LBE5621:
	.loc 10 231 2 view .LVU711
	leaq	32(%rsp), %rax
	cmpq	%rax, %rdi
	je	.L96
.LVL252:
.LBB5625:
.LBI5625:
	.loc 10 236 7 is_stmt 1 view .LVU712
.LBB5626:
.LBB5627:
.LBI5627:
	.loc 11 469 7 view .LVU713
.LBB5628:
.LBI5628:
	.loc 12 119 7 view .LVU714
.LBB5629:
	.loc 12 128 19 is_stmt 0 view .LVU715
	call	_ZdlPv
.LVL253:
.L96:
	.loc 12 128 19 view .LVU716
.LBE5629:
.LBE5628:
.LBE5627:
.LBE5626:
.LBE5625:
.LBE5620:
.LBE5619:
.LBB5630:
.LBI5630:
	.loc 10 150 14 is_stmt 1 view .LVU717
.LBB5631:
.LBI5631:
	.loc 13 153 7 view .LVU718
.LBB5632:
.LBI5632:
	.loc 12 89 7 view .LVU719
	.loc 12 89 7 is_stmt 0 view .LVU720
.LBE5632:
.LBE5631:
.LBE5630:
.LBE5618:
.LBB5633:
.LBI5633:
	.loc 14 629 7 is_stmt 1 view .LVU721
.LBB5634:
	.loc 14 630 9 is_stmt 0 view .LVU722
	movq	$_ZTVNSt7__cxx1119basic_ostringstreamIcSt11char_traitsIcESaIcEEE+24, 48(%rsp)
	movq	$_ZTVNSt7__cxx1119basic_ostringstreamIcSt11char_traitsIcESaIcEEE+64, 160(%rsp)
.LVL254:
.LBB5635:
.LBI5635:
	.loc 14 65 11 is_stmt 1 view .LVU723
.LBB5636:
	movq	$_ZTVNSt7__cxx1115basic_stringbufIcSt11char_traitsIcESaIcEEE+16, 56(%rsp)
.LVL255:
.LBB5637:
.LBI5637:
	.loc 10 657 7 view .LVU724
.LBB5638:
.LBB5639:
.LBI5639:
	.loc 10 229 7 view .LVU725
.LBB5640:
.LBB5641:
.LBI5641:
	.loc 10 221 7 view .LVU726
.LBB5642:
.LBI5642:
	.loc 10 186 7 view .LVU727
.LBB5643:
	.loc 10 187 28 is_stmt 0 view .LVU728
	movq	128(%rsp), %rdi
.LVL256:
	.loc 10 187 28 view .LVU729
.LBE5643:
.LBE5642:
.LBB5644:
.LBI5644:
	.loc 10 200 7 is_stmt 1 view .LVU730
	.loc 10 200 7 is_stmt 0 view .LVU731
.LBE5644:
.LBE5641:
	.loc 10 231 2 view .LVU732
	leaq	144(%rsp), %rax
	cmpq	%rax, %rdi
	je	.L97
.LVL257:
.LBB5645:
.LBI5645:
	.loc 10 236 7 is_stmt 1 view .LVU733
.LBB5646:
.LBB5647:
.LBI5647:
	.loc 11 469 7 view .LVU734
.LBB5648:
.LBI5648:
	.loc 12 119 7 view .LVU735
.LBB5649:
	.loc 12 128 19 is_stmt 0 view .LVU736
	call	_ZdlPv
.LVL258:
.L97:
	.loc 12 128 19 view .LVU737
.LBE5649:
.LBE5648:
.LBE5647:
.LBE5646:
.LBE5645:
.LBE5640:
.LBE5639:
.LBB5650:
.LBI5650:
	.loc 10 150 14 is_stmt 1 view .LVU738
.LBB5651:
.LBI5651:
	.loc 13 153 7 view .LVU739
.LBB5652:
.LBI5652:
	.loc 12 89 7 view .LVU740
	.loc 12 89 7 is_stmt 0 view .LVU741
.LBE5652:
.LBE5651:
.LBE5650:
.LBE5638:
.LBE5637:
.LBB5653:
.LBI5653:
	.loc 15 204 7 is_stmt 1 view .LVU742
.LBB5654:
	.loc 15 205 9 is_stmt 0 view .LVU743
	movq	$_ZTVSt15basic_streambufIcSt11char_traitsIcEE+16, 56(%rsp)
	leaq	112(%rsp), %rdi
	call	_ZNSt6localeD1Ev
.LVL259:
	.loc 15 205 9 view .LVU744
.LBE5654:
.LBE5653:
.LBE5636:
.LBE5635:
.LBB5655:
.LBI5655:
	.loc 18 93 7 is_stmt 1 view .LVU745
.LBB5656:
	.loc 18 93 26 is_stmt 0 view .LVU746
	movq	_ZTTNSt7__cxx1119basic_ostringstreamIcSt11char_traitsIcESaIcEEE+8(%rip), %rax
	movq	%rax, 48(%rsp)
	movq	-24(%rax), %rax
	movq	_ZTTNSt7__cxx1119basic_ostringstreamIcSt11char_traitsIcESaIcEEE+16(%rip), %rdx
	movq	%rdx, 48(%rsp,%rax)
.LVL260:
	.loc 18 93 26 view .LVU747
.LBE5656:
.LBE5655:
.LBB5657:
.LBI5657:
	.loc 17 282 7 is_stmt 1 view .LVU748
.LBB5658:
	.loc 17 282 22 is_stmt 0 view .LVU749
	movq	$_ZTVSt9basic_iosIcSt11char_traitsIcEE+16, 160(%rsp)
	leaq	160(%rsp), %rdi
.LVL261:
	.loc 17 282 22 view .LVU750
	call	_ZNSt8ios_baseD2Ev
.LVL262:
	.loc 17 282 22 view .LVU751
.LBE5658:
.LBE5657:
.LBE5634:
.LBE5633:
	.loc 16 107 7 view .LVU752
	movq	%rbx, %rax
	addq	$440, %rsp
	.cfi_remember_state
	.cfi_def_cfa_offset 40
	popq	%rbx
	.cfi_def_cfa_offset 32
	popq	%rbp
	.cfi_def_cfa_offset 24
.LVL263:
	.loc 16 107 7 view .LVU753
	popq	%r12
	.cfi_def_cfa_offset 16
.LVL264:
	.loc 16 107 7 view .LVU754
	popq	%r13
	.cfi_def_cfa_offset 8
	ret
.LVL265:
.L104:
	.cfi_restore_state
	.loc 16 107 7 view .LVU755
	movq	%rax, %rbx
.LVL266:
.LBB5659:
.LBB5612:
.LBB5611:
.LBB5597:
.LBI5597:
	.loc 10 657 7 is_stmt 1 view .LVU756
.LBB5598:
.LBI5598:
	.loc 10 229 7 view .LVU757
.LBB5599:
.LBB5600:
.LBI5600:
	.loc 10 221 7 view .LVU758
.LBB5601:
.LBI5601:
	.loc 10 186 7 view .LVU759
.LBB5602:
	.loc 10 187 28 is_stmt 0 view .LVU760
	movq	16(%rsp), %rdi
.LVL267:
	.loc 10 187 28 view .LVU761
.LBE5602:
.LBE5601:
.LBE5600:
	.loc 10 231 2 view .LVU762
	leaq	32(%rsp), %rax
	cmpq	%rax, %rdi
	je	.L95
.LVL268:
.LBB5603:
.LBI5603:
	.loc 10 236 7 is_stmt 1 view .LVU763
.LBB5604:
.LBB5605:
.LBI5605:
	.loc 11 469 7 view .LVU764
.LBB5606:
.LBI5606:
	.loc 12 119 7 view .LVU765
.LBB5607:
	.loc 12 128 19 is_stmt 0 view .LVU766
	call	_ZdlPv
.LVL269:
	.loc 12 128 19 view .LVU767
.LBE5607:
.LBE5606:
.LBE5605:
.LBE5604:
.LBE5603:
.LBE5599:
.LBE5598:
.LBB5608:
.LBI5608:
	.loc 10 150 14 is_stmt 1 view .LVU768
.LBB5609:
.LBI5609:
	.loc 13 153 7 view .LVU769
.LBB5610:
.LBI5610:
	.loc 12 89 7 view .LVU770
.L95:
	.loc 12 89 7 is_stmt 0 view .LVU771
.LBE5610:
.LBE5609:
.LBE5608:
.LBE5597:
.LBE5611:
.LBE5612:
.LBE5659:
	.loc 16 96 44 view .LVU772
	leaq	48(%rsp), %rdi
	call	_ZNSt7__cxx1119basic_ostringstreamIcSt11char_traitsIcESaIcEED1Ev
.LVL270:
	movq	%rbx, %rdi
.LEHB13:
	call	_Unwind_Resume
.LVL271:
.LEHE13:
.L101:
	.loc 16 96 44 view .LVU773
	movq	%rax, %rbx
.LVL272:
.LBB5660:
.LBI5660:
	.loc 10 657 7 is_stmt 1 view .LVU774
.LBB5661:
.LBI5661:
	.loc 10 229 7 view .LVU775
.LBB5662:
.LBB5663:
.LBI5663:
	.loc 10 221 7 view .LVU776
.LBB5664:
.LBI5664:
	.loc 10 186 7 view .LVU777
.LBB5665:
	.loc 10 187 28 is_stmt 0 view .LVU778
	movq	16(%rsp), %rdi
.LVL273:
	.loc 10 187 28 view .LVU779
.LBE5665:
.LBE5664:
.LBB5666:
.LBI5666:
	.loc 10 200 7 is_stmt 1 view .LVU780
	.loc 10 200 7 is_stmt 0 view .LVU781
.LBE5666:
.LBE5663:
	.loc 10 231 2 view .LVU782
	leaq	32(%rsp), %rax
	cmpq	%rax, %rdi
	je	.L95
.LVL274:
.LBB5667:
.LBI5667:
	.loc 10 236 7 is_stmt 1 view .LVU783
.LBB5668:
.LBB5669:
.LBI5669:
	.loc 11 469 7 view .LVU784
.LBB5670:
.LBI5670:
	.loc 12 119 7 view .LVU785
.LBB5671:
	.loc 12 128 19 is_stmt 0 view .LVU786
	call	_ZdlPv
.LVL275:
	.loc 12 128 19 view .LVU787
.LBE5671:
.LBE5670:
.LBE5669:
.LBE5668:
.LBE5667:
.LBE5662:
.LBE5661:
.LBB5675:
.LBI5675:
	.loc 10 150 14 is_stmt 1 view .LVU788
.LBB5676:
.LBI5676:
	.loc 13 153 7 view .LVU789
.LBB5677:
.LBI5677:
	.loc 12 89 7 view .LVU790
	.loc 12 89 7 is_stmt 0 view .LVU791
.LBE5677:
.LBE5676:
.LBE5675:
.LBB5678:
.LBB5674:
.LBB5673:
.LBB5672:
	.loc 10 237 79 view .LVU792
	jmp	.L95
.LVL276:
.L100:
	.loc 10 237 79 view .LVU793
	movq	%rax, %rbx
	jmp	.L95
.LBE5672:
.LBE5673:
.LBE5674:
.LBE5678:
.LBE5660:
	.cfi_endproc
.LFE5534:
	.section	.gcc_except_table._ZNSt8__detaillsIcSt11char_traitsIcEEERSt13basic_ostreamIT_T0_ES7_RKNS_14_Quoted_stringIPKS4_S4_EE,"aG",@progbits,_ZNSt8__detaillsIcSt11char_traitsIcEEERSt13basic_ostreamIT_T0_ES7_RKNS_14_Quoted_stringIPKS4_S4_EE,comdat
.LLSDA5534:
	.byte	0xff
	.byte	0xff
	.byte	0x1
	.uleb128 .LLSDACSE5534-.LLSDACSB5534
.LLSDACSB5534:
	.uleb128 .LEHB7-.LFB5534
	.uleb128 .LEHE7-.LEHB7
	.uleb128 .L102-.LFB5534
	.uleb128 0
	.uleb128 .LEHB8-.LFB5534
	.uleb128 .LEHE8-.LEHB8
	.uleb128 .L103-.LFB5534
	.uleb128 0
	.uleb128 .LEHB9-.LFB5534
	.uleb128 .LEHE9-.LEHB9
	.uleb128 0
	.uleb128 0
	.uleb128 .LEHB10-.LFB5534
	.uleb128 .LEHE10-.LEHB10
	.uleb128 .L100-.LFB5534
	.uleb128 0
	.uleb128 .LEHB11-.LFB5534
	.uleb128 .LEHE11-.LEHB11
	.uleb128 .L104-.LFB5534
	.uleb128 0
	.uleb128 .LEHB12-.LFB5534
	.uleb128 .LEHE12-.LEHB12
	.uleb128 .L101-.LFB5534
	.uleb128 0
	.uleb128 .LEHB13-.LFB5534
	.uleb128 .LEHE13-.LEHB13
	.uleb128 0
	.uleb128 0
.LLSDACSE5534:
	.section	.text._ZNSt8__detaillsIcSt11char_traitsIcEEERSt13basic_ostreamIT_T0_ES7_RKNS_14_Quoted_stringIPKS4_S4_EE,"axG",@progbits,_ZNSt8__detaillsIcSt11char_traitsIcEEERSt13basic_ostreamIT_T0_ES7_RKNS_14_Quoted_stringIPKS4_S4_EE,comdat
	.size	_ZNSt8__detaillsIcSt11char_traitsIcEEERSt13basic_ostreamIT_T0_ES7_RKNS_14_Quoted_stringIPKS4_S4_EE, .-_ZNSt8__detaillsIcSt11char_traitsIcEEERSt13basic_ostreamIT_T0_ES7_RKNS_14_Quoted_stringIPKS4_S4_EE
	.section	.text._ZNSt14_Fwd_list_baseIN3mpp6HeaderESaIS1_EE14_M_erase_afterEPSt19_Fwd_list_node_baseS5_,"axG",@progbits,_ZNSt14_Fwd_list_baseIN3mpp6HeaderESaIS1_EE14_M_erase_afterEPSt19_Fwd_list_node_baseS5_,comdat
	.align 2
	.weak	_ZNSt14_Fwd_list_baseIN3mpp6HeaderESaIS1_EE14_M_erase_afterEPSt19_Fwd_list_node_baseS5_
	.type	_ZNSt14_Fwd_list_baseIN3mpp6HeaderESaIS1_EE14_M_erase_afterEPSt19_Fwd_list_node_baseS5_, @function
_ZNSt14_Fwd_list_baseIN3mpp6HeaderESaIS1_EE14_M_erase_afterEPSt19_Fwd_list_node_baseS5_:
.LVL277:
.LFB5627:
	.file 22 "/usr/include/c++/9/bits/forward_list.tcc"
	.loc 22 77 5 is_stmt 1 view -0
	.cfi_startproc
	.cfi_personality 0x3,__gxx_personality_v0
	.cfi_lsda 0x3,.LLSDA5627
	.loc 22 77 5 is_stmt 0 view .LVU795
	pushq	%r14
	.cfi_def_cfa_offset 16
	.cfi_offset 14, -16
	pushq	%r13
	.cfi_def_cfa_offset 24
	.cfi_offset 13, -24
	pushq	%r12
	.cfi_def_cfa_offset 32
	.cfi_offset 12, -32
	pushq	%rbp
	.cfi_def_cfa_offset 40
	.cfi_offset 6, -40
	pushq	%rbx
	.cfi_def_cfa_offset 48
	.cfi_offset 3, -48
	movq	%rsi, %r14
	movq	%rdx, %r13
	.loc 22 81 14 view .LVU796
	movq	(%rsi), %rbx
.LVL278:
	.loc 22 81 14 view .LVU797
	jmp	.L115
.LVL279:
.L117:
.LBB5717:
.LBB5718:
.LBB5719:
.LBB5720:
.LBB5721:
.LBB5722:
.LBB5723:
.LBB5724:
.LBB5725:
.LBI5725:
	.loc 10 236 7 is_stmt 1 view .LVU798
.LBB5726:
.LBB5727:
.LBI5727:
	.loc 11 469 7 view .LVU799
.LBB5728:
.LBI5728:
	.loc 12 119 7 view .LVU800
.LBB5729:
	.loc 12 128 19 is_stmt 0 view .LVU801
	call	_ZdlPv
.LVL280:
.L114:
	.loc 12 128 19 view .LVU802
.LBE5729:
.LBE5728:
.LBE5727:
.LBE5726:
.LBE5725:
.LBE5724:
.LBE5723:
.LBB5736:
.LBI5736:
	.loc 10 150 14 is_stmt 1 view .LVU803
.LBB5737:
.LBI5737:
	.loc 13 153 7 view .LVU804
.LBB5738:
.LBI5738:
	.loc 12 89 7 view .LVU805
	.loc 12 89 7 is_stmt 0 view .LVU806
.LBE5738:
.LBE5737:
.LBE5736:
.LBE5722:
.LBE5721:
.LBE5720:
.LBE5719:
.LBE5718:
.LBB5753:
.LBI5753:
	.file 23 "/usr/include/c++/9/bits/forward_list.h"
	.loc 23 378 7 is_stmt 1 view .LVU807
.LBB5754:
.LBB5755:
.LBI5755:
	.loc 11 469 7 view .LVU808
.LBB5756:
.LBI5756:
	.loc 12 119 7 view .LVU809
.LBB5757:
	.loc 12 128 19 is_stmt 0 view .LVU810
	movq	%rbx, %rdi
	call	_ZdlPv
.LVL281:
	.loc 12 128 19 view .LVU811
.LBE5757:
.LBE5756:
.LBE5755:
.LBE5754:
.LBE5753:
	.loc 22 85 4 view .LVU812
	movq	%r12, %rbx
.LVL282:
.L115:
	.loc 22 85 4 view .LVU813
.LBE5717:
	.loc 22 82 21 is_stmt 1 view .LVU814
	cmpq	%r13, %rbx
	je	.L112
.LVL283:
.LBB5764:
	.loc 22 85 4 is_stmt 0 view .LVU815
	movq	(%rbx), %r12
.LVL284:
.LBB5758:
.LBI5758:
	.loc 23 121 7 is_stmt 1 view .LVU816
.LBB5759:
.LBI5759:
	.file 24 "/usr/include/c++/9/ext/aligned_buffer.h"
	.loc 24 114 7 view .LVU817
.LBB5760:
.LBI5760:
	.loc 24 102 7 view .LVU818
.LBB5761:
	.loc 24 104 46 is_stmt 0 view .LVU819
	leaq	8(%rbx), %rbp
.LVL285:
	.loc 24 104 46 view .LVU820
.LBE5761:
.LBE5760:
.LBE5759:
.LBE5758:
.LBB5762:
.LBI5718:
	.loc 11 495 2 is_stmt 1 view .LVU821
.LBB5751:
.LBI5719:
	.loc 12 151 2 view .LVU822
.LBB5749:
.LBI5720:
	.loc 9 12 8 view .LVU823
.LBB5747:
	leaq	40(%rbx), %rsi
.LVL286:
.LBB5740:
.LBI5740:
	.loc 1 230 5 view .LVU824
.LBE5740:
.LBE5747:
.LBE5749:
.LBE5751:
.LBE5762:
.LBE5764:
	.loc 1 230 14 view .LVU825
.LBB5765:
.LBB5763:
.LBB5752:
.LBB5750:
.LBB5748:
.LBB5745:
.LBB5741:
.LBI5741:
	.loc 1 300 10 view .LVU826
.LBB5742:
	.loc 1 302 7 view .LVU827
.LBB5743:
.LBI5743:
	.loc 1 342 10 view .LVU828
.LBB5744:
	.loc 1 342 39 view .LVU829
	.loc 1 342 46 is_stmt 0 view .LVU830
	movq	32(%rbp), %rax
.LVL287:
	.loc 1 342 46 view .LVU831
.LBE5744:
.LBE5743:
	.loc 1 302 7 view .LVU832
	testq	%rax, %rax
	je	.L113
	.loc 1 304 2 is_stmt 1 view .LVU833
	.loc 1 304 12 is_stmt 0 view .LVU834
	movl	$0, %edx
	movl	$3, %edi
	call	*%rax
.LVL288:
	.loc 1 305 2 is_stmt 1 view .LVU835
.L113:
	.loc 1 305 2 is_stmt 0 view .LVU836
.LBE5742:
.LBE5741:
.LBE5745:
.LBB5746:
.LBI5722:
	.loc 10 657 7 is_stmt 1 view .LVU837
.LBB5739:
.LBI5723:
	.loc 10 229 7 view .LVU838
.LBB5735:
.LBB5730:
.LBI5730:
	.loc 10 221 7 view .LVU839
.LBB5731:
.LBI5731:
	.loc 10 186 7 view .LVU840
.LBB5732:
	.loc 10 187 28 is_stmt 0 view .LVU841
	movq	0(%rbp), %rdi
.LVL289:
	.loc 10 187 28 view .LVU842
.LBE5732:
.LBE5731:
.LBB5733:
.LBI5733:
	.loc 10 200 7 is_stmt 1 view .LVU843
.LBB5734:
	.loc 10 203 57 is_stmt 0 view .LVU844
	addq	$16, %rbp
.LVL290:
	.loc 10 203 57 view .LVU845
.LBE5734:
.LBE5733:
.LBE5730:
	.loc 10 231 2 view .LVU846
	cmpq	%rbp, %rdi
	jne	.L117
	jmp	.L114
.LVL291:
.L112:
	.loc 10 231 2 view .LVU847
.LBE5735:
.LBE5739:
.LBE5746:
.LBE5748:
.LBE5750:
.LBE5752:
.LBE5763:
.LBE5765:
	.loc 22 91 7 view .LVU848
	movq	%r13, (%r14)
	.loc 22 93 5 view .LVU849
	movq	%r13, %rax
	popq	%rbx
	.cfi_def_cfa_offset 40
.LVL292:
	.loc 22 93 5 view .LVU850
	popq	%rbp
	.cfi_def_cfa_offset 32
	popq	%r12
	.cfi_def_cfa_offset 24
	popq	%r13
	.cfi_def_cfa_offset 16
.LVL293:
	.loc 22 93 5 view .LVU851
	popq	%r14
	.cfi_def_cfa_offset 8
.LVL294:
	.loc 22 93 5 view .LVU852
	ret
	.cfi_endproc
.LFE5627:
	.section	.gcc_except_table._ZNSt14_Fwd_list_baseIN3mpp6HeaderESaIS1_EE14_M_erase_afterEPSt19_Fwd_list_node_baseS5_,"aG",@progbits,_ZNSt14_Fwd_list_baseIN3mpp6HeaderESaIS1_EE14_M_erase_afterEPSt19_Fwd_list_node_baseS5_,comdat
.LLSDA5627:
	.byte	0xff
	.byte	0xff
	.byte	0x1
	.uleb128 .LLSDACSE5627-.LLSDACSB5627
.LLSDACSB5627:
.LLSDACSE5627:
	.section	.text._ZNSt14_Fwd_list_baseIN3mpp6HeaderESaIS1_EE14_M_erase_afterEPSt19_Fwd_list_node_baseS5_,"axG",@progbits,_ZNSt14_Fwd_list_baseIN3mpp6HeaderESaIS1_EE14_M_erase_afterEPSt19_Fwd_list_node_baseS5_,comdat
	.size	_ZNSt14_Fwd_list_baseIN3mpp6HeaderESaIS1_EE14_M_erase_afterEPSt19_Fwd_list_node_baseS5_, .-_ZNSt14_Fwd_list_baseIN3mpp6HeaderESaIS1_EE14_M_erase_afterEPSt19_Fwd_list_node_baseS5_
	.text
	.align 2
	.globl	_ZN3mpp7Request12clearHeadersEv
	.type	_ZN3mpp7Request12clearHeadersEv, @function
_ZN3mpp7Request12clearHeadersEv:
.LVL295:
.LFB5148:
	.loc 8 266 1 is_stmt 1 view -0
	.cfi_startproc
	.loc 8 266 1 is_stmt 0 view .LVU854
	subq	$8, %rsp
	.cfi_def_cfa_offset 16
	.loc 8 267 2 is_stmt 1 view .LVU855
.LVL296:
.LBB5766:
.LBI5766:
	.loc 23 1083 7 view .LVU856
.LBB5767:
	.loc 23 1084 9 is_stmt 0 view .LVU857
	addq	$8, %rdi
.LVL297:
	.loc 23 1084 9 view .LVU858
	movl	$0, %edx
	movq	%rdi, %rsi
	call	_ZNSt14_Fwd_list_baseIN3mpp6HeaderESaIS1_EE14_M_erase_afterEPSt19_Fwd_list_node_baseS5_
.LVL298:
	.loc 23 1084 9 view .LVU859
.LBE5767:
.LBE5766:
	.loc 8 268 1 view .LVU860
	addq	$8, %rsp
	.cfi_def_cfa_offset 8
	ret
	.cfi_endproc
.LFE5148:
	.size	_ZN3mpp7Request12clearHeadersEv, .-_ZN3mpp7Request12clearHeadersEv
	.section	.text._ZNSt8_Rb_treeIN3mpp7Request7CommandESt4pairIKS2_NSt7__cxx1112basic_stringIcSt11char_traitsIcESaIcEEEESt10_Select1stISB_ESt4lessIS2_ESaISB_EE8_M_eraseEPSt13_Rb_tree_nodeISB_E,"axG",@progbits,_ZNSt8_Rb_treeIN3mpp7Request7CommandESt4pairIKS2_NSt7__cxx1112basic_stringIcSt11char_traitsIcESaIcEEEESt10_Select1stISB_ESt4lessIS2_ESaISB_EE8_M_eraseEPSt13_Rb_tree_nodeISB_E,comdat
	.align 2
	.weak	_ZNSt8_Rb_treeIN3mpp7Request7CommandESt4pairIKS2_NSt7__cxx1112basic_stringIcSt11char_traitsIcESaIcEEEESt10_Select1stISB_ESt4lessIS2_ESaISB_EE8_M_eraseEPSt13_Rb_tree_nodeISB_E
	.type	_ZNSt8_Rb_treeIN3mpp7Request7CommandESt4pairIKS2_NSt7__cxx1112basic_stringIcSt11char_traitsIcESaIcEEEESt10_Select1stISB_ESt4lessIS2_ESaISB_EE8_M_eraseEPSt13_Rb_tree_nodeISB_E, @function
_ZNSt8_Rb_treeIN3mpp7Request7CommandESt4pairIKS2_NSt7__cxx1112basic_stringIcSt11char_traitsIcESaIcEEEESt10_Select1stISB_ESt4lessIS2_ESaISB_EE8_M_eraseEPSt13_Rb_tree_nodeISB_E:
.LVL299:
.LFB5649:
	.file 25 "/usr/include/c++/9/bits/stl_tree.h"
	.loc 25 1907 5 is_stmt 1 view -0
	.cfi_startproc
	.loc 25 1907 5 is_stmt 0 view .LVU862
	pushq	%r12
	.cfi_def_cfa_offset 16
	.cfi_offset 12, -16
	pushq	%rbp
	.cfi_def_cfa_offset 24
	.cfi_offset 6, -24
	pushq	%rbx
	.cfi_def_cfa_offset 32
	.cfi_offset 3, -32
	movq	%rdi, %r12
	movq	%rsi, %rbx
	jmp	.L123
.LVL300:
.L125:
.LBB5768:
.LBB5769:
.LBB5770:
.LBB5771:
.LBB5772:
.LBB5773:
.LBB5774:
.LBB5775:
.LBB5776:
.LBB5777:
.LBI5777:
	.loc 10 236 7 is_stmt 1 view .LVU863
.LBB5778:
.LBB5779:
.LBI5779:
	.loc 11 469 7 view .LVU864
.LBB5780:
.LBI5780:
	.loc 12 119 7 view .LVU865
.LBB5781:
	.loc 12 128 19 is_stmt 0 view .LVU866
	call	_ZdlPv
.LVL301:
.L122:
	.loc 12 128 19 view .LVU867
.LBE5781:
.LBE5780:
.LBE5779:
.LBE5778:
.LBE5777:
.LBE5776:
.LBE5775:
.LBB5788:
.LBI5788:
	.loc 10 150 14 is_stmt 1 view .LVU868
.LBB5789:
.LBI5789:
	.loc 13 153 7 view .LVU869
.LBB5790:
.LBI5790:
	.loc 12 89 7 view .LVU870
	.loc 12 89 7 is_stmt 0 view .LVU871
.LBE5790:
.LBE5789:
.LBE5788:
.LBE5774:
.LBE5773:
.LBE5772:
.LBE5771:
.LBE5770:
.LBB5796:
.LBI5796:
	.loc 25 583 7 is_stmt 1 view .LVU872
.LBB5797:
.LBI5797:
	.loc 11 469 7 view .LVU873
.LBB5798:
.LBI5798:
	.loc 12 119 7 view .LVU874
.LBB5799:
	.loc 12 128 19 is_stmt 0 view .LVU875
	movq	%rbx, %rdi
	call	_ZdlPv
.LVL302:
	.loc 12 128 19 view .LVU876
.LBE5799:
.LBE5798:
.LBE5797:
.LBE5796:
.LBE5769:
	.loc 25 1916 4 view .LVU877
	movq	%rbp, %rbx
.LVL303:
.L123:
	.loc 25 1916 4 view .LVU878
.LBE5768:
	.loc 25 1911 18 is_stmt 1 view .LVU879
	testq	%rbx, %rbx
	je	.L120
.LVL304:
.LBB5806:
.LBB5801:
.LBI5801:
	.loc 25 797 7 view .LVU880
.LBB5802:
	.loc 25 798 53 is_stmt 0 view .LVU881
	movq	24(%rbx), %rsi
.LVL305:
	.loc 25 798 53 view .LVU882
.LBE5802:
.LBE5801:
	.loc 25 1913 4 view .LVU883
	movq	%r12, %rdi
	call	_ZNSt8_Rb_treeIN3mpp7Request7CommandESt4pairIKS2_NSt7__cxx1112basic_stringIcSt11char_traitsIcESaIcEEEESt10_Select1stISB_ESt4lessIS2_ESaISB_EE8_M_eraseEPSt13_Rb_tree_nodeISB_E
.LVL306:
.LBB5803:
.LBI5803:
	.loc 25 789 7 is_stmt 1 view .LVU884
.LBB5804:
	.loc 25 790 52 is_stmt 0 view .LVU885
	movq	16(%rbx), %rbp
.LVL307:
	.loc 25 790 52 view .LVU886
.LBE5804:
.LBE5803:
.LBB5805:
.LBI5769:
	.loc 25 648 7 is_stmt 1 view .LVU887
.LBB5800:
.LBI5770:
	.loc 25 637 7 view .LVU888
.LBB5795:
.LBI5771:
	.loc 11 495 2 view .LVU889
.LBB5794:
.LBI5772:
	.loc 12 151 2 view .LVU890
.LBB5793:
.LBI5773:
	.file 26 "/usr/include/c++/9/bits/stl_pair.h"
	.loc 26 208 12 view .LVU891
.LBB5792:
.LBI5774:
	.loc 10 657 7 view .LVU892
.LBB5791:
.LBI5775:
	.loc 10 229 7 view .LVU893
.LBB5787:
.LBB5782:
.LBI5782:
	.loc 10 221 7 view .LVU894
.LBB5783:
.LBI5783:
	.loc 10 186 7 view .LVU895
.LBB5784:
	.loc 10 187 28 is_stmt 0 view .LVU896
	movq	40(%rbx), %rdi
.LVL308:
	.loc 10 187 28 view .LVU897
.LBE5784:
.LBE5783:
.LBB5785:
.LBI5785:
	.loc 10 200 7 is_stmt 1 view .LVU898
.LBB5786:
	.loc 10 203 57 is_stmt 0 view .LVU899
	leaq	56(%rbx), %rax
.LVL309:
	.loc 10 203 57 view .LVU900
.LBE5786:
.LBE5785:
.LBE5782:
	.loc 10 231 2 view .LVU901
	cmpq	%rdi, %rax
	jne	.L125
	jmp	.L122
.LVL310:
.L120:
	.loc 10 231 2 view .LVU902
.LBE5787:
.LBE5791:
.LBE5792:
.LBE5793:
.LBE5794:
.LBE5795:
.LBE5800:
.LBE5805:
.LBE5806:
	.loc 25 1918 5 view .LVU903
	popq	%rbx
	.cfi_def_cfa_offset 24
.LVL311:
	.loc 25 1918 5 view .LVU904
	popq	%rbp
	.cfi_def_cfa_offset 16
	popq	%r12
	.cfi_def_cfa_offset 8
.LVL312:
	.loc 25 1918 5 view .LVU905
	ret
	.cfi_endproc
.LFE5649:
	.size	_ZNSt8_Rb_treeIN3mpp7Request7CommandESt4pairIKS2_NSt7__cxx1112basic_stringIcSt11char_traitsIcESaIcEEEESt10_Select1stISB_ESt4lessIS2_ESaISB_EE8_M_eraseEPSt13_Rb_tree_nodeISB_E, .-_ZNSt8_Rb_treeIN3mpp7Request7CommandESt4pairIKS2_NSt7__cxx1112basic_stringIcSt11char_traitsIcESaIcEEEESt10_Select1stISB_ESt4lessIS2_ESaISB_EE8_M_eraseEPSt13_Rb_tree_nodeISB_E
	.section	.rodata._ZNSt6vectorIN5boost4asio12const_bufferESaIS2_EE17_M_realloc_insertIJS2_EEEvN9__gnu_cxx17__normal_iteratorIPS2_S4_EEDpOT_.str1.1,"aMS",@progbits,1
.LC1:
	.string	"vector::_M_realloc_insert"
	.section	.text._ZNSt6vectorIN5boost4asio12const_bufferESaIS2_EE17_M_realloc_insertIJS2_EEEvN9__gnu_cxx17__normal_iteratorIPS2_S4_EEDpOT_,"axG",@progbits,_ZNSt6vectorIN5boost4asio12const_bufferESaIS2_EE17_M_realloc_insertIJS2_EEEvN9__gnu_cxx17__normal_iteratorIPS2_S4_EEDpOT_,comdat
	.align 2
	.weak	_ZNSt6vectorIN5boost4asio12const_bufferESaIS2_EE17_M_realloc_insertIJS2_EEEvN9__gnu_cxx17__normal_iteratorIPS2_S4_EEDpOT_
	.type	_ZNSt6vectorIN5boost4asio12const_bufferESaIS2_EE17_M_realloc_insertIJS2_EEEvN9__gnu_cxx17__normal_iteratorIPS2_S4_EEDpOT_, @function
_ZNSt6vectorIN5boost4asio12const_bufferESaIS2_EE17_M_realloc_insertIJS2_EEEvN9__gnu_cxx17__normal_iteratorIPS2_S4_EEDpOT_:
.LVL313:
.LFB5858:
	.file 27 "/usr/include/c++/9/bits/vector.tcc"
	.loc 27 426 7 is_stmt 1 view -0
	.cfi_startproc
	.loc 27 426 7 is_stmt 0 view .LVU907
	pushq	%r15
	.cfi_def_cfa_offset 16
	.cfi_offset 15, -16
	pushq	%r14
	.cfi_def_cfa_offset 24
	.cfi_offset 14, -24
	pushq	%r13
	.cfi_def_cfa_offset 32
	.cfi_offset 13, -32
	pushq	%r12
	.cfi_def_cfa_offset 40
	.cfi_offset 12, -40
	pushq	%rbp
	.cfi_def_cfa_offset 48
	.cfi_offset 6, -48
	pushq	%rbx
	.cfi_def_cfa_offset 56
	.cfi_offset 3, -56
	subq	$56, %rsp
	.cfi_def_cfa_offset 112
	movq	%rdx, %rbx
.LVL314:
	.loc 27 426 7 view .LVU908
	movq	$1, 32(%rsp)
.LVL315:
.LBB5861:
.LBI5861:
	.file 28 "/usr/include/c++/9/bits/stl_vector.h"
	.loc 28 1753 7 is_stmt 1 view .LVU909
.LBB5862:
.LBB5863:
.LBI5863:
	.loc 28 915 7 view .LVU910
.LBB5864:
	.loc 28 916 40 is_stmt 0 view .LVU911
	movq	8(%rdi), %rax
	.loc 28 916 50 view .LVU912
	movq	%rax, %r12
	subq	(%rdi), %r12
	sarq	$4, %r12
.LVL316:
	.loc 28 916 50 view .LVU913
.LBE5864:
.LBE5863:
	.loc 28 1755 2 view .LVU914
	movabsq	$576460752303423487, %rdx
.LVL317:
	.loc 28 1755 2 view .LVU915
	cmpq	%r12, %rdx
	je	.L142
	movq	%rdi, %r13
	.loc 28 1758 45 view .LVU916
	movq	%r12, 40(%rsp)
.LVL318:
.LBB5865:
.LBI5865:
	.file 29 "/usr/include/c++/9/bits/stl_algobase.h"
	.loc 29 222 5 is_stmt 1 view .LVU917
.LBB5866:
	.loc 29 227 7 is_stmt 0 view .LVU918
	cmpq	$1, %r12
	jb	.L137
	.loc 29 229 14 view .LVU919
	leaq	40(%rsp), %rdx
.LVL319:
.L128:
	.loc 29 229 14 view .LVU920
.LBE5866:
.LBE5865:
	.loc 28 1758 18 view .LVU921
	addq	(%rdx), %r12
.LVL320:
.LBB5868:
.LBI5868:
	.loc 28 915 7 is_stmt 1 view .LVU922
.LBB5869:
	.loc 28 916 50 is_stmt 0 view .LVU923
	subq	0(%r13), %rax
	sarq	$4, %rax
.LVL321:
	.loc 28 916 50 view .LVU924
.LBE5869:
.LBE5868:
	.loc 28 1759 48 view .LVU925
	cmpq	%rax, %r12
	jb	.L138
	.loc 28 1759 25 view .LVU926
	movabsq	$576460752303423487, %rax
	cmpq	%rax, %r12
	ja	.L143
.LVL322:
.L129:
	.loc 28 1759 25 view .LVU927
.LBE5862:
.LBE5861:
	.loc 27 437 15 view .LVU928
	movq	0(%r13), %r15
.LVL323:
	.loc 27 438 15 view .LVU929
	movq	8(%r13), %r14
.LVL324:
.LBB5872:
.LBI5872:
	.loc 28 808 7 is_stmt 1 view .LVU930
.LBB5873:
.LBI5873:
	.loc 21 806 7 view .LVU931
	.loc 21 806 7 is_stmt 0 view .LVU932
.LBE5873:
.LBE5872:
.LBB5874:
.LBI5874:
	.loc 21 989 5 is_stmt 1 view .LVU933
.LBB5875:
	.loc 21 992 27 is_stmt 0 view .LVU934
	movq	%rsi, %rbp
	subq	%r15, %rsi
	.loc 21 992 27 view .LVU935
	movq	%rsi, 8(%rsp)
.LVL325:
	.loc 21 992 27 view .LVU936
.LBE5875:
.LBE5874:
.LBB5876:
.LBI5876:
	.loc 28 340 7 is_stmt 1 view .LVU937
.LBB5877:
	.loc 28 343 18 is_stmt 0 view .LVU938
	testq	%r12, %r12
	je	.L140
.LVL326:
.LBB5878:
.LBI5878:
	.loc 11 443 7 is_stmt 1 view .LVU939
.LBB5879:
.LBI5879:
	.loc 12 102 7 view .LVU940
.LBB5880:
	.loc 12 104 2 is_stmt 0 view .LVU941
	movabsq	$576460752303423487, %rax
	cmpq	%rax, %r12
	ja	.L144
	.loc 12 114 41 view .LVU942
	movq	%r12, %rdi
.LVL327:
	.loc 12 114 41 view .LVU943
	salq	$4, %rdi
	call	_Znwm
.LVL328:
	.loc 12 114 41 view .LVU944
	movq	%rax, (%rsp)
.LVL329:
.L130:
	.loc 12 114 41 view .LVU945
.LBE5880:
.LBE5879:
.LBE5878:
.LBE5877:
.LBE5876:
.LBB5885:
.LBI5885:
	.loc 11 482 2 is_stmt 1 view .LVU946
.LBB5886:
.LBI5886:
	.loc 12 144 2 view .LVU947
	.loc 12 144 2 is_stmt 0 view .LVU948
.LBE5886:
.LBE5885:
	.loc 2 174 3 is_stmt 1 view .LVU949
.LBB5891:
.LBB5889:
.LBB5887:
	.loc 2 174 3 is_stmt 0 view .LVU950
	movdqu	(%rbx), %xmm2
	movaps	%xmm2, 16(%rsp)
	movq	(%rsp), %rax
	movq	8(%rsp), %rcx
	movups	%xmm2, (%rax,%rcx)
.LVL330:
	.loc 2 174 3 view .LVU951
.LBE5887:
.LBE5889:
.LBE5891:
.LBB5892:
.LBI5892:
	.loc 28 462 7 is_stmt 1 view .LVU952
.LBB5893:
.LBB5894:
.LBB5895:
.LBB5896:
.LBB5897:
	.file 30 "/usr/include/c++/9/bits/stl_uninitialized.h"
	.loc 30 948 24 is_stmt 0 view .LVU953
	movq	%rax, %rbx
.LVL331:
	.loc 30 948 24 view .LVU954
.LBE5897:
.LBE5896:
.LBE5895:
.LBE5894:
.LBE5893:
.LBE5892:
.LBB5917:
.LBB5890:
.LBB5888:
	movq	%r15, %rax
.L133:
.LVL332:
	.loc 30 948 24 view .LVU955
.LBE5888:
.LBE5890:
.LBE5917:
.LBB5918:
.LBB5915:
.LBB5913:
.LBB5911:
.LBB5909:
.LBB5907:
	.loc 30 949 22 is_stmt 1 view .LVU956
	cmpq	%rbp, %rax
	je	.L132
.LVL333:
.LBB5898:
.LBI5898:
	.loc 30 905 5 view .LVU957
.LBB5899:
.LBB5900:
.LBI5900:
	.loc 11 482 2 view .LVU958
.LBB5901:
.LBI5901:
	.loc 12 144 2 view .LVU959
	.loc 12 144 2 is_stmt 0 view .LVU960
.LBE5901:
.LBE5900:
.LBE5899:
.LBE5898:
.LBE5907:
.LBE5909:
.LBE5911:
.LBE5913:
.LBE5915:
.LBE5918:
	.loc 2 174 3 is_stmt 1 view .LVU961
.LBB5919:
.LBB5916:
.LBB5914:
.LBB5912:
.LBB5910:
.LBB5908:
.LBB5906:
.LBB5905:
.LBB5904:
.LBB5903:
.LBB5902:
	.loc 2 174 3 is_stmt 0 view .LVU962
	movdqu	(%rax), %xmm0
	movups	%xmm0, (%rbx)
.LVL334:
	.loc 2 174 3 view .LVU963
.LBE5902:
.LBE5903:
.LBE5904:
.LBE5905:
.LBE5906:
	.loc 30 949 7 is_stmt 1 view .LVU964
	addq	$16, %rax
.LVL335:
	.loc 30 949 7 is_stmt 0 view .LVU965
	addq	$16, %rbx
.LVL336:
	.loc 30 949 7 view .LVU966
	jmp	.L133
.LVL337:
.L142:
	.loc 30 949 7 view .LVU967
.LBE5908:
.LBE5910:
.LBE5912:
.LBE5914:
.LBE5916:
.LBE5919:
.LBB5920:
.LBB5871:
	.loc 28 1756 24 view .LVU968
	movl	$.LC1, %edi
.LVL338:
	.loc 28 1756 24 view .LVU969
	call	_ZSt20__throw_length_errorPKc
.LVL339:
.L137:
.LBB5870:
.LBB5867:
	.loc 29 228 9 view .LVU970
	leaq	32(%rsp), %rdx
.LVL340:
	.loc 29 228 9 view .LVU971
	jmp	.L128
.LVL341:
.L138:
	.loc 29 228 9 view .LVU972
.LBE5867:
.LBE5870:
	.loc 28 1759 48 view .LVU973
	movabsq	$576460752303423487, %r12
.LVL342:
	.loc 28 1759 48 view .LVU974
	jmp	.L129
.LVL343:
.L143:
	.loc 28 1759 48 view .LVU975
	movabsq	$576460752303423487, %r12
.LVL344:
	.loc 28 1759 48 view .LVU976
	jmp	.L129
.LVL345:
.L144:
	.loc 28 1759 48 view .LVU977
.LBE5871:
.LBE5920:
.LBB5921:
.LBB5884:
.LBB5883:
.LBB5882:
.LBB5881:
	.loc 12 105 26 view .LVU978
	call	_ZSt17__throw_bad_allocv
.LVL346:
.L140:
	.loc 12 105 26 view .LVU979
.LBE5881:
.LBE5882:
.LBE5883:
	.loc 28 343 18 view .LVU980
	movq	$0, (%rsp)
	jmp	.L130
.LVL347:
.L132:
	.loc 28 343 18 view .LVU981
.LBE5884:
.LBE5921:
	.loc 27 464 8 view .LVU982
	addq	$16, %rbx
.LVL348:
.LBB5922:
.LBI5922:
	.loc 28 462 7 is_stmt 1 view .LVU983
.L135:
.LBB5923:
.LBB5924:
.LBB5925:
.LBB5926:
.LBB5927:
	.loc 30 949 22 view .LVU984
	cmpq	%rbp, %r14
	je	.L134
.LVL349:
.LBB5928:
.LBI5928:
	.loc 30 905 5 view .LVU985
.LBB5929:
.LBB5930:
.LBI5930:
	.loc 11 482 2 view .LVU986
.LBB5931:
.LBI5931:
	.loc 12 144 2 view .LVU987
	.loc 12 144 2 is_stmt 0 view .LVU988
.LBE5931:
.LBE5930:
.LBE5929:
.LBE5928:
.LBE5927:
.LBE5926:
.LBE5925:
.LBE5924:
.LBE5923:
.LBE5922:
	.loc 2 174 3 is_stmt 1 view .LVU989
.LBB5942:
.LBB5941:
.LBB5940:
.LBB5939:
.LBB5938:
.LBB5937:
.LBB5936:
.LBB5935:
.LBB5934:
.LBB5933:
.LBB5932:
	.loc 2 174 3 is_stmt 0 view .LVU990
	movdqu	0(%rbp), %xmm1
	movups	%xmm1, (%rbx)
.LVL350:
	.loc 2 174 3 view .LVU991
.LBE5932:
.LBE5933:
.LBE5934:
.LBE5935:
.LBE5936:
	.loc 30 949 7 is_stmt 1 view .LVU992
	addq	$16, %rbp
.LVL351:
	.loc 30 949 7 is_stmt 0 view .LVU993
	addq	$16, %rbx
.LVL352:
	.loc 30 949 7 view .LVU994
	jmp	.L135
.L134:
.LVL353:
	.loc 30 949 7 view .LVU995
.LBE5937:
.LBE5938:
.LBE5939:
.LBE5940:
.LBE5941:
.LBE5942:
.LBB5943:
.LBI5943:
	.loc 28 347 7 is_stmt 1 view .LVU996
.LBB5944:
	.loc 28 350 2 is_stmt 0 view .LVU997
	testq	%r15, %r15
	je	.L136
.LVL354:
.LBB5945:
.LBI5945:
	.loc 11 469 7 is_stmt 1 view .LVU998
.LBB5946:
.LBB5947:
.LBI5947:
	.loc 12 119 7 view .LVU999
.LBB5948:
	.loc 12 128 19 is_stmt 0 view .LVU1000
	movq	%r15, %rdi
	call	_ZdlPv
.LVL355:
.L136:
	.loc 12 128 19 view .LVU1001
.LBE5948:
.LBE5947:
.LBE5946:
.LBE5945:
.LBE5944:
.LBE5943:
	.loc 27 502 7 view .LVU1002
	movq	(%rsp), %rax
	movq	%rax, 0(%r13)
	.loc 27 503 7 view .LVU1003
	movq	%rbx, 8(%r13)
	.loc 27 504 53 view .LVU1004
	salq	$4, %r12
.LVL356:
	.loc 27 504 53 view .LVU1005
	addq	%rax, %r12
	.loc 27 504 7 view .LVU1006
	movq	%r12, 16(%r13)
	.loc 27 505 5 view .LVU1007
	addq	$56, %rsp
	.cfi_def_cfa_offset 56
.LVL357:
	.loc 27 505 5 view .LVU1008
	popq	%rbx
	.cfi_def_cfa_offset 48
.LVL358:
	.loc 27 505 5 view .LVU1009
	popq	%rbp
	.cfi_def_cfa_offset 40
	popq	%r12
	.cfi_def_cfa_offset 32
	popq	%r13
	.cfi_def_cfa_offset 24
.LVL359:
	.loc 27 505 5 view .LVU1010
	popq	%r14
	.cfi_def_cfa_offset 16
.LVL360:
	.loc 27 505 5 view .LVU1011
	popq	%r15
	.cfi_def_cfa_offset 8
.LVL361:
	.loc 27 505 5 view .LVU1012
	ret
	.cfi_endproc
.LFE5858:
	.size	_ZNSt6vectorIN5boost4asio12const_bufferESaIS2_EE17_M_realloc_insertIJS2_EEEvN9__gnu_cxx17__normal_iteratorIPS2_S4_EEDpOT_, .-_ZNSt6vectorIN5boost4asio12const_bufferESaIS2_EE17_M_realloc_insertIJS2_EEEvN9__gnu_cxx17__normal_iteratorIPS2_S4_EEDpOT_
	.section	.text._ZNSt6vectorIN5boost4asio12const_bufferESaIS2_EE12emplace_backIJS2_EEERS2_DpOT_,"axG",@progbits,_ZNSt6vectorIN5boost4asio12const_bufferESaIS2_EE12emplace_backIJS2_EEERS2_DpOT_,comdat
	.align 2
	.weak	_ZNSt6vectorIN5boost4asio12const_bufferESaIS2_EE12emplace_backIJS2_EEERS2_DpOT_
	.type	_ZNSt6vectorIN5boost4asio12const_bufferESaIS2_EE12emplace_backIJS2_EEERS2_DpOT_, @function
_ZNSt6vectorIN5boost4asio12const_bufferESaIS2_EE12emplace_backIJS2_EEERS2_DpOT_:
.LVL362:
.LFB5726:
	.loc 27 109 7 is_stmt 1 view -0
	.cfi_startproc
	.loc 27 109 7 is_stmt 0 view .LVU1014
	pushq	%rbx
	.cfi_def_cfa_offset 16
	.cfi_offset 3, -16
	movq	%rdi, %rbx
	.loc 27 112 20 view .LVU1015
	movq	8(%rdi), %rax
	.loc 27 112 2 view .LVU1016
	cmpq	16(%rdi), %rax
	je	.L146
.LVL363:
.LBB5949:
.LBI5949:
	.loc 11 482 2 is_stmt 1 view .LVU1017
.LBB5950:
.LBI5950:
	.loc 12 144 2 view .LVU1018
	.loc 12 144 2 is_stmt 0 view .LVU1019
.LBE5950:
.LBE5949:
	.loc 2 174 3 is_stmt 1 view .LVU1020
.LBB5953:
.LBB5952:
.LBB5951:
	.loc 2 174 3 is_stmt 0 view .LVU1021
	movdqu	(%rsi), %xmm0
	movups	%xmm0, (%rax)
.LVL364:
	.loc 2 174 3 view .LVU1022
.LBE5951:
.LBE5952:
.LBE5953:
	.loc 27 117 6 view .LVU1023
	movq	8(%rdi), %rax
	addq	$16, %rax
	movq	%rax, 8(%rdi)
.LVL365:
.L147:
.LBB5954:
.LBI5954:
	.loc 28 1140 7 is_stmt 1 view .LVU1024
.LBB5955:
.LBI5955:
	.loc 28 826 7 view .LVU1025
.LBB5956:
.LBI5956:
	.loc 21 806 7 view .LVU1026
.LBB5957:
	.loc 21 807 23 is_stmt 0 view .LVU1027
	movq	8(%rbx), %rax
.LVL366:
	.loc 21 807 23 view .LVU1028
.LBE5957:
.LBE5956:
.LBE5955:
.LBB5958:
.LBI5958:
	.loc 21 867 7 is_stmt 1 view .LVU1029
.LBB5959:
	.loc 21 868 45 is_stmt 0 view .LVU1030
	subq	$16, %rax
.LBB5960:
.LBI5960:
	.loc 21 806 7 is_stmt 1 view .LVU1031
.LVL367:
	.loc 21 806 7 is_stmt 0 view .LVU1032
.LBE5960:
.LBE5959:
.LBE5958:
.LBE5954:
	.loc 27 125 7 view .LVU1033
	popq	%rbx
	.cfi_remember_state
	.cfi_def_cfa_offset 8
.LVL368:
	.loc 27 125 7 view .LVU1034
	ret
.LVL369:
.L146:
	.cfi_restore_state
.LBB5961:
.LBI5961:
	.loc 28 826 7 is_stmt 1 view .LVU1035
.LBB5962:
.LBB5963:
.LBI5963:
	.loc 21 806 7 view .LVU1036
	.loc 21 806 7 is_stmt 0 view .LVU1037
.LBE5963:
.LBE5962:
.LBE5961:
	.loc 27 121 4 view .LVU1038
	movq	%rsi, %rdx
	movq	%rax, %rsi
.LVL370:
	.loc 27 121 4 view .LVU1039
	call	_ZNSt6vectorIN5boost4asio12const_bufferESaIS2_EE17_M_realloc_insertIJS2_EEEvN9__gnu_cxx17__normal_iteratorIPS2_S4_EEDpOT_
.LVL371:
	.loc 27 121 4 view .LVU1040
	jmp	.L147
	.cfi_endproc
.LFE5726:
	.size	_ZNSt6vectorIN5boost4asio12const_bufferESaIS2_EE12emplace_backIJS2_EEERS2_DpOT_, .-_ZNSt6vectorIN5boost4asio12const_bufferESaIS2_EE12emplace_backIJS2_EEERS2_DpOT_
	.section	.text._ZSt12__any_casterImEPvPKSt3any,"axG",@progbits,_ZSt12__any_casterImEPvPKSt3any,comdat
	.weak	_ZSt12__any_casterImEPvPKSt3any
	.type	_ZSt12__any_casterImEPvPKSt3any, @function
_ZSt12__any_casterImEPvPKSt3any:
.LVL372:
.LFB5864:
	.loc 1 508 11 is_stmt 1 view -0
	.cfi_startproc
	.cfi_personality 0x3,__gxx_personality_v0
	.cfi_lsda 0x3,.LLSDA5864
	.loc 1 508 11 is_stmt 0 view .LVU1042
	pushq	%rbx
	.cfi_def_cfa_offset 16
	.cfi_offset 3, -16
	subq	$16, %rsp
	.cfi_def_cfa_offset 32
	movq	%rdi, %rbx
.LBB5970:
	.loc 1 521 23 view .LVU1043
	movq	(%rdi), %rax
	.loc 1 523 4 view .LVU1044
	cmpq	$_ZNSt3any17_Manager_internalImE9_S_manageENS_3_OpEPKS_PNS_4_ArgE, %rax
	je	.L150
.LVL373:
.LBB5971:
.LBI5971:
	.loc 1 346 22 is_stmt 1 view .LVU1045
.LBB5972:
	.loc 1 348 7 view .LVU1046
	.loc 1 348 7 is_stmt 0 view .LVU1047
.LBE5972:
.LBE5971:
.LBE5970:
	.loc 1 342 39 is_stmt 1 view .LVU1048
.LBB5984:
.LBB5975:
.LBB5973:
	.loc 1 348 7 is_stmt 0 view .LVU1049
	testq	%rax, %rax
	je	.L154
	.loc 1 350 7 is_stmt 1 view .LVU1050
	.loc 1 351 7 view .LVU1051
	.loc 1 351 17 is_stmt 0 view .LVU1052
	leaq	8(%rsp), %rdx
	movq	%rdi, %rsi
	movl	$1, %edi
.LVL374:
	.loc 1 351 17 view .LVU1053
	call	*%rax
.LVL375:
	.loc 1 352 7 is_stmt 1 view .LVU1054
	.loc 1 352 21 is_stmt 0 view .LVU1055
	movq	8(%rsp), %rax
.L151:
.LVL376:
	.loc 1 352 21 view .LVU1056
.LBE5973:
.LBE5975:
.LBB5976:
.LBI5976:
	.loc 6 120 10 is_stmt 1 view .LVU1057
.LBB5977:
	.loc 6 122 7 view .LVU1058
	.loc 6 122 16 is_stmt 0 view .LVU1059
	movq	8(%rax), %rdi
	.loc 6 122 32 view .LVU1060
	movq	_ZTIm+8(%rip), %rsi
	.loc 6 123 8 view .LVU1061
	cmpq	%rsi, %rdi
	je	.L155
	cmpb	$42, (%rdi)
	je	.L156
	.loc 6 124 22 view .LVU1062
	call	strcmp
.LVL377:
	.loc 6 123 29 view .LVU1063
	testl	%eax, %eax
	je	.L157
	.loc 6 123 8 view .LVU1064
	movl	$0, %eax
	jmp	.L152
.LVL378:
.L154:
	.loc 6 123 8 view .LVU1065
.LBE5977:
.LBE5976:
.LBB5980:
.LBB5974:
	.loc 1 349 20 view .LVU1066
	movl	$_ZTIv, %eax
	jmp	.L151
.LVL379:
.L155:
	.loc 1 349 20 view .LVU1067
.LBE5974:
.LBE5980:
.LBB5981:
.LBB5978:
	.loc 6 123 8 view .LVU1068
	movl	$1, %eax
.LVL380:
.L152:
	.loc 6 123 8 view .LVU1069
.LBE5978:
.LBE5981:
	.loc 1 523 4 view .LVU1070
	testb	%al, %al
	je	.L158
.L150:
.LBB5982:
	.loc 1 528 11 discriminator 3 view .LVU1071
	leaq	8(%rsp), %rdx
	movq	%rbx, %rsi
	movl	$0, %edi
.LEHB14:
	call	*(%rbx)
.LVL381:
.LEHE14:
	.loc 1 529 17 discriminator 3 view .LVU1072
	movq	8(%rsp), %rax
.L149:
	.loc 1 529 17 discriminator 3 view .LVU1073
.LBE5982:
.LBE5984:
	.loc 1 532 5 view .LVU1074
	addq	$16, %rsp
	.cfi_remember_state
	.cfi_def_cfa_offset 16
	popq	%rbx
	.cfi_def_cfa_offset 8
.LVL382:
	.loc 1 532 5 view .LVU1075
	ret
.LVL383:
.L156:
	.cfi_restore_state
.LBB5985:
.LBB5983:
.LBB5979:
	.loc 6 123 8 view .LVU1076
	movl	$0, %eax
.LVL384:
	.loc 6 123 8 view .LVU1077
	jmp	.L152
.L157:
	movl	$1, %eax
	jmp	.L152
.LVL385:
.L158:
	.loc 6 123 8 view .LVU1078
.LBE5979:
.LBE5983:
.LBE5985:
	.loc 1 531 14 view .LVU1079
	movl	$0, %eax
	jmp	.L149
	.cfi_endproc
.LFE5864:
	.section	.gcc_except_table._ZSt12__any_casterImEPvPKSt3any,"aG",@progbits,_ZSt12__any_casterImEPvPKSt3any,comdat
.LLSDA5864:
	.byte	0xff
	.byte	0xff
	.byte	0x1
	.uleb128 .LLSDACSE5864-.LLSDACSB5864
.LLSDACSB5864:
	.uleb128 .LEHB14-.LFB5864
	.uleb128 .LEHE14-.LEHB14
	.uleb128 0
	.uleb128 0
.LLSDACSE5864:
	.section	.text._ZSt12__any_casterImEPvPKSt3any,"axG",@progbits,_ZSt12__any_casterImEPvPKSt3any,comdat
	.size	_ZSt12__any_casterImEPvPKSt3any, .-_ZSt12__any_casterImEPvPKSt3any
	.section	.text._ZSt12__any_casterINSt7__cxx1112basic_stringIcSt11char_traitsIcESaIcEEEEPvPKSt3any,"axG",@progbits,_ZSt12__any_casterINSt7__cxx1112basic_stringIcSt11char_traitsIcESaIcEEEEPvPKSt3any,comdat
	.weak	_ZSt12__any_casterINSt7__cxx1112basic_stringIcSt11char_traitsIcESaIcEEEEPvPKSt3any
	.type	_ZSt12__any_casterINSt7__cxx1112basic_stringIcSt11char_traitsIcESaIcEEEEPvPKSt3any, @function
_ZSt12__any_casterINSt7__cxx1112basic_stringIcSt11char_traitsIcESaIcEEEEPvPKSt3any:
.LVL386:
.LFB5870:
	.loc 1 508 11 is_stmt 1 view -0
	.cfi_startproc
	.cfi_personality 0x3,__gxx_personality_v0
	.cfi_lsda 0x3,.LLSDA5870
	.loc 1 508 11 is_stmt 0 view .LVU1081
	pushq	%rbx
	.cfi_def_cfa_offset 16
	.cfi_offset 3, -16
	subq	$16, %rsp
	.cfi_def_cfa_offset 32
	movq	%rdi, %rbx
.LBB5992:
	.loc 1 521 23 view .LVU1082
	movq	(%rdi), %rax
	.loc 1 523 4 view .LVU1083
	cmpq	$_ZNSt3any17_Manager_externalINSt7__cxx1112basic_stringIcSt11char_traitsIcESaIcEEEE9_S_manageENS_3_OpEPKS_PNS_4_ArgE, %rax
	je	.L161
.LVL387:
.LBB5993:
.LBI5993:
	.loc 1 346 22 is_stmt 1 view .LVU1084
.LBB5994:
	.loc 1 348 7 view .LVU1085
	.loc 1 348 7 is_stmt 0 view .LVU1086
.LBE5994:
.LBE5993:
.LBE5992:
	.loc 1 342 39 is_stmt 1 view .LVU1087
.LBB6006:
.LBB5997:
.LBB5995:
	.loc 1 348 7 is_stmt 0 view .LVU1088
	testq	%rax, %rax
	je	.L165
	.loc 1 350 7 is_stmt 1 view .LVU1089
	.loc 1 351 7 view .LVU1090
	.loc 1 351 17 is_stmt 0 view .LVU1091
	leaq	8(%rsp), %rdx
	movq	%rdi, %rsi
	movl	$1, %edi
.LVL388:
	.loc 1 351 17 view .LVU1092
	call	*%rax
.LVL389:
	.loc 1 352 7 is_stmt 1 view .LVU1093
	.loc 1 352 21 is_stmt 0 view .LVU1094
	movq	8(%rsp), %rax
.L162:
.LVL390:
	.loc 1 352 21 view .LVU1095
.LBE5995:
.LBE5997:
.LBB5998:
.LBI5998:
	.loc 6 120 10 is_stmt 1 view .LVU1096
.LBB5999:
	.loc 6 122 7 view .LVU1097
	.loc 6 122 16 is_stmt 0 view .LVU1098
	movq	8(%rax), %rdi
	.loc 6 123 8 view .LVU1099
	cmpq	$_ZTSNSt7__cxx1112basic_stringIcSt11char_traitsIcESaIcEEE, %rdi
	je	.L166
	cmpb	$42, (%rdi)
	je	.L167
	.loc 6 124 22 view .LVU1100
	movl	$_ZTSNSt7__cxx1112basic_stringIcSt11char_traitsIcESaIcEEE, %esi
	call	strcmp
.LVL391:
	.loc 6 123 29 view .LVU1101
	testl	%eax, %eax
	je	.L168
	.loc 6 123 8 view .LVU1102
	movl	$0, %eax
	jmp	.L163
.LVL392:
.L165:
	.loc 6 123 8 view .LVU1103
.LBE5999:
.LBE5998:
.LBB6002:
.LBB5996:
	.loc 1 349 20 view .LVU1104
	movl	$_ZTIv, %eax
	jmp	.L162
.LVL393:
.L166:
	.loc 1 349 20 view .LVU1105
.LBE5996:
.LBE6002:
.LBB6003:
.LBB6000:
	.loc 6 123 8 view .LVU1106
	movl	$1, %eax
.LVL394:
.L163:
	.loc 6 123 8 view .LVU1107
.LBE6000:
.LBE6003:
	.loc 1 523 4 view .LVU1108
	testb	%al, %al
	je	.L169
.L161:
.LBB6004:
	.loc 1 528 11 discriminator 3 view .LVU1109
	leaq	8(%rsp), %rdx
	movq	%rbx, %rsi
	movl	$0, %edi
.LEHB15:
	call	*(%rbx)
.LVL395:
.LEHE15:
	.loc 1 529 17 discriminator 3 view .LVU1110
	movq	8(%rsp), %rax
.L160:
	.loc 1 529 17 discriminator 3 view .LVU1111
.LBE6004:
.LBE6006:
	.loc 1 532 5 view .LVU1112
	addq	$16, %rsp
	.cfi_remember_state
	.cfi_def_cfa_offset 16
	popq	%rbx
	.cfi_def_cfa_offset 8
.LVL396:
	.loc 1 532 5 view .LVU1113
	ret
.LVL397:
.L167:
	.cfi_restore_state
.LBB6007:
.LBB6005:
.LBB6001:
	.loc 6 123 8 view .LVU1114
	movl	$0, %eax
.LVL398:
	.loc 6 123 8 view .LVU1115
	jmp	.L163
.L168:
	movl	$1, %eax
	jmp	.L163
.LVL399:
.L169:
	.loc 6 123 8 view .LVU1116
.LBE6001:
.LBE6005:
.LBE6007:
	.loc 1 531 14 view .LVU1117
	movl	$0, %eax
	jmp	.L160
	.cfi_endproc
.LFE5870:
	.section	.gcc_except_table._ZSt12__any_casterINSt7__cxx1112basic_stringIcSt11char_traitsIcESaIcEEEEPvPKSt3any,"aG",@progbits,_ZSt12__any_casterINSt7__cxx1112basic_stringIcSt11char_traitsIcESaIcEEEEPvPKSt3any,comdat
.LLSDA5870:
	.byte	0xff
	.byte	0xff
	.byte	0x1
	.uleb128 .LLSDACSE5870-.LLSDACSB5870
.LLSDACSB5870:
	.uleb128 .LEHB15-.LFB5870
	.uleb128 .LEHE15-.LEHB15
	.uleb128 0
	.uleb128 0
.LLSDACSE5870:
	.section	.text._ZSt12__any_casterINSt7__cxx1112basic_stringIcSt11char_traitsIcESaIcEEEEPvPKSt3any,"axG",@progbits,_ZSt12__any_casterINSt7__cxx1112basic_stringIcSt11char_traitsIcESaIcEEEEPvPKSt3any,comdat
	.size	_ZSt12__any_casterINSt7__cxx1112basic_stringIcSt11char_traitsIcESaIcEEEEPvPKSt3any, .-_ZSt12__any_casterINSt7__cxx1112basic_stringIcSt11char_traitsIcESaIcEEEEPvPKSt3any
	.section	.rodata._ZNSt7__cxx1112basic_stringIcSt11char_traitsIcESaIcEE12_M_constructIPKcEEvT_S8_St20forward_iterator_tag.str1.8,"aMS",@progbits,1
	.align 8
.LC2:
	.string	"basic_string::_M_construct null not valid"
	.section	.text._ZNSt7__cxx1112basic_stringIcSt11char_traitsIcESaIcEE12_M_constructIPKcEEvT_S8_St20forward_iterator_tag,"axG",@progbits,_ZNSt7__cxx1112basic_stringIcSt11char_traitsIcESaIcEE12_M_constructIPKcEEvT_S8_St20forward_iterator_tag,comdat
	.align 2
	.weak	_ZNSt7__cxx1112basic_stringIcSt11char_traitsIcESaIcEE12_M_constructIPKcEEvT_S8_St20forward_iterator_tag
	.type	_ZNSt7__cxx1112basic_stringIcSt11char_traitsIcESaIcEE12_M_constructIPKcEEvT_S8_St20forward_iterator_tag, @function
_ZNSt7__cxx1112basic_stringIcSt11char_traitsIcESaIcEE12_M_constructIPKcEEvT_S8_St20forward_iterator_tag:
.LVL400:
.LFB5878:
	.file 31 "/usr/include/c++/9/bits/basic_string.tcc"
	.loc 31 206 7 is_stmt 1 view -0
	.cfi_startproc
	.loc 31 206 7 is_stmt 0 view .LVU1119
	pushq	%r12
	.cfi_def_cfa_offset 16
	.cfi_offset 12, -16
	pushq	%rbp
	.cfi_def_cfa_offset 24
	.cfi_offset 6, -24
	pushq	%rbx
	.cfi_def_cfa_offset 32
	.cfi_offset 3, -32
	subq	$16, %rsp
	.cfi_def_cfa_offset 48
	movq	%rdi, %rbp
	movq	%rsi, %r12
	movq	%rdx, %rbx
	.loc 31 211 42 view .LVU1120
	testq	%rsi, %rsi
	je	.L177
.L172:
.LVL401:
.LBB6008:
.LBI6008:
	.file 32 "/usr/include/c++/9/bits/stl_iterator_base_funcs.h"
	.loc 32 138 5 is_stmt 1 view .LVU1121
.LBB6009:
.LBI6009:
	.loc 32 98 5 view .LVU1122
.LBB6010:
	.loc 32 104 23 is_stmt 0 view .LVU1123
	subq	%r12, %rbx
.LVL402:
	.loc 32 104 23 view .LVU1124
.LBE6010:
.LBE6009:
.LBE6008:
	.loc 31 215 12 view .LVU1125
	movq	%rbx, 8(%rsp)
	.loc 31 217 2 view .LVU1126
	cmpq	$15, %rbx
	ja	.L178
.LVL403:
.L173:
.LBB6011:
.LBI6011:
	.loc 10 186 7 is_stmt 1 view .LVU1127
.LBB6012:
	.loc 10 187 28 is_stmt 0 view .LVU1128
	movq	0(%rbp), %rdi
.LVL404:
	.loc 10 187 28 view .LVU1129
.LBE6012:
.LBE6011:
.LBB6013:
.LBI6013:
	.loc 10 396 7 is_stmt 1 view .LVU1130
.LBB6014:
.LBI6014:
	.loc 10 346 7 view .LVU1131
.LBB6015:
	.loc 10 348 2 is_stmt 0 view .LVU1132
	cmpq	$1, %rbx
	je	.L179
.LVL405:
.LBB6016:
.LBI6016:
	.loc 20 361 7 is_stmt 1 view .LVU1133
.LBB6017:
	.loc 20 363 2 view .LVU1134
	testq	%rbx, %rbx
	je	.L175
	.loc 20 365 2 view .LVU1135
	.loc 20 365 49 is_stmt 0 view .LVU1136
	movq	%rbx, %rdx
	movq	%r12, %rsi
	call	memcpy
.LVL406:
	.loc 20 365 66 view .LVU1137
	jmp	.L175
.LVL407:
.L177:
	.loc 20 365 66 view .LVU1138
.LBE6017:
.LBE6016:
.LBE6015:
.LBE6014:
.LBE6013:
	.loc 31 211 42 discriminator 1 view .LVU1139
	cmpq	%rdx, %rsi
	je	.L172
	.loc 31 212 28 view .LVU1140
	movl	$.LC2, %edi
.LVL408:
	.loc 31 212 28 view .LVU1141
	call	_ZSt19__throw_logic_errorPKc
.LVL409:
.L178:
	.loc 31 219 6 view .LVU1142
	movl	$0, %edx
.LVL410:
	.loc 31 219 6 view .LVU1143
	leaq	8(%rsp), %rsi
.LVL411:
	.loc 31 219 6 view .LVU1144
	movq	%rbp, %rdi
.LVL412:
	.loc 31 219 6 view .LVU1145
	call	_ZNSt7__cxx1112basic_stringIcSt11char_traitsIcESaIcEE9_M_createERmm
.LVL413:
.LBB6022:
.LBI6022:
	.loc 10 178 7 is_stmt 1 view .LVU1146
.LBB6023:
	.loc 10 179 9 is_stmt 0 view .LVU1147
	movq	%rax, 0(%rbp)
.LVL414:
	.loc 10 179 9 view .LVU1148
.LBE6023:
.LBE6022:
	.loc 31 220 6 view .LVU1149
	movq	8(%rsp), %rax
.LVL415:
.LBB6024:
.LBI6024:
	.loc 10 210 7 is_stmt 1 view .LVU1150
.LBB6025:
	.loc 10 211 9 is_stmt 0 view .LVU1151
	movq	%rax, 16(%rbp)
	.loc 10 211 45 view .LVU1152
	jmp	.L173
.LVL416:
.L179:
	.loc 10 211 45 view .LVU1153
.LBE6025:
.LBE6024:
.LBB6026:
.LBB6021:
.LBB6020:
.LBB6018:
.LBI6018:
	.loc 20 299 7 is_stmt 1 view .LVU1154
.LBB6019:
	.loc 20 300 9 view .LVU1155
	.loc 20 300 16 is_stmt 0 view .LVU1156
	movzbl	(%r12), %eax
	.loc 20 300 14 view .LVU1157
	movb	%al, (%rdi)
.LVL417:
.L175:
	.loc 20 300 14 view .LVU1158
.LBE6019:
.LBE6018:
.LBE6020:
.LBE6021:
.LBE6026:
	.loc 31 232 2 view .LVU1159
	movq	8(%rsp), %rax
.LVL418:
.LBB6027:
.LBI6027:
	.loc 10 214 7 is_stmt 1 view .LVU1160
.LBB6028:
.LBB6029:
.LBI6029:
	.loc 10 182 7 view .LVU1161
.LBB6030:
	.loc 10 183 9 is_stmt 0 view .LVU1162
	movq	%rax, 8(%rbp)
.LVL419:
	.loc 10 183 9 view .LVU1163
.LBE6030:
.LBE6029:
.LBB6031:
.LBI6031:
	.loc 10 186 7 is_stmt 1 view .LVU1164
	.loc 10 186 7 is_stmt 0 view .LVU1165
.LBE6031:
	.loc 10 217 31 view .LVU1166
	addq	0(%rbp), %rax
.LVL420:
.LBB6032:
.LBI6032:
	.loc 20 299 7 is_stmt 1 view .LVU1167
.LBB6033:
	.loc 20 300 9 view .LVU1168
	.loc 20 300 14 is_stmt 0 view .LVU1169
	movb	$0, (%rax)
.LVL421:
	.loc 20 300 14 view .LVU1170
.LBE6033:
.LBE6032:
.LBE6028:
.LBE6027:
	.loc 31 233 7 view .LVU1171
	addq	$16, %rsp
	.cfi_def_cfa_offset 32
	popq	%rbx
	.cfi_def_cfa_offset 24
	popq	%rbp
	.cfi_def_cfa_offset 16
.LVL422:
	.loc 31 233 7 view .LVU1172
	popq	%r12
	.cfi_def_cfa_offset 8
.LVL423:
	.loc 31 233 7 view .LVU1173
	ret
	.cfi_endproc
.LFE5878:
	.size	_ZNSt7__cxx1112basic_stringIcSt11char_traitsIcESaIcEE12_M_constructIPKcEEvT_S8_St20forward_iterator_tag, .-_ZNSt7__cxx1112basic_stringIcSt11char_traitsIcESaIcEE12_M_constructIPKcEEvT_S8_St20forward_iterator_tag
	.section	.text._ZNSt7__cxx1112basic_stringIcSt11char_traitsIcESaIcEE12_M_constructIPcEEvT_S7_St20forward_iterator_tag,"axG",@progbits,_ZNSt7__cxx1112basic_stringIcSt11char_traitsIcESaIcEE12_M_constructIPcEEvT_S7_St20forward_iterator_tag,comdat
	.align 2
	.weak	_ZNSt7__cxx1112basic_stringIcSt11char_traitsIcESaIcEE12_M_constructIPcEEvT_S7_St20forward_iterator_tag
	.type	_ZNSt7__cxx1112basic_stringIcSt11char_traitsIcESaIcEE12_M_constructIPcEEvT_S7_St20forward_iterator_tag, @function
_ZNSt7__cxx1112basic_stringIcSt11char_traitsIcESaIcEE12_M_constructIPcEEvT_S7_St20forward_iterator_tag:
.LVL424:
.LFB5953:
	.loc 31 206 7 is_stmt 1 view -0
	.cfi_startproc
	.loc 31 206 7 is_stmt 0 view .LVU1175
	pushq	%r12
	.cfi_def_cfa_offset 16
	.cfi_offset 12, -16
	pushq	%rbp
	.cfi_def_cfa_offset 24
	.cfi_offset 6, -24
	pushq	%rbx
	.cfi_def_cfa_offset 32
	.cfi_offset 3, -32
	subq	$16, %rsp
	.cfi_def_cfa_offset 48
	movq	%rdi, %rbp
	movq	%rsi, %r12
	movq	%rdx, %rbx
	.loc 31 211 42 view .LVU1176
	testq	%rsi, %rsi
	je	.L186
.L181:
.LVL425:
.LBB6034:
.LBI6034:
	.loc 32 138 5 is_stmt 1 view .LVU1177
.LBB6035:
.LBI6035:
	.loc 32 98 5 view .LVU1178
.LBB6036:
	.loc 32 104 23 is_stmt 0 view .LVU1179
	subq	%r12, %rbx
.LVL426:
	.loc 32 104 23 view .LVU1180
.LBE6036:
.LBE6035:
.LBE6034:
	.loc 31 215 12 view .LVU1181
	movq	%rbx, 8(%rsp)
	.loc 31 217 2 view .LVU1182
	cmpq	$15, %rbx
	ja	.L187
.LVL427:
.L182:
.LBB6037:
.LBI6037:
	.loc 10 186 7 is_stmt 1 view .LVU1183
.LBB6038:
	.loc 10 187 28 is_stmt 0 view .LVU1184
	movq	0(%rbp), %rdi
.LVL428:
	.loc 10 187 28 view .LVU1185
.LBE6038:
.LBE6037:
.LBB6039:
.LBI6039:
	.loc 10 392 7 is_stmt 1 view .LVU1186
.LBB6040:
.LBI6040:
	.loc 10 346 7 view .LVU1187
.LBB6041:
	.loc 10 348 2 is_stmt 0 view .LVU1188
	cmpq	$1, %rbx
	je	.L188
.LVL429:
.LBB6042:
.LBI6042:
	.loc 20 361 7 is_stmt 1 view .LVU1189
.LBB6043:
	.loc 20 363 2 view .LVU1190
	testq	%rbx, %rbx
	je	.L184
	.loc 20 365 2 view .LVU1191
	.loc 20 365 49 is_stmt 0 view .LVU1192
	movq	%rbx, %rdx
	movq	%r12, %rsi
	call	memcpy
.LVL430:
	.loc 20 365 66 view .LVU1193
	jmp	.L184
.LVL431:
.L186:
	.loc 20 365 66 view .LVU1194
.LBE6043:
.LBE6042:
.LBE6041:
.LBE6040:
.LBE6039:
	.loc 31 211 42 discriminator 1 view .LVU1195
	cmpq	%rdx, %rsi
	je	.L181
	.loc 31 212 28 view .LVU1196
	movl	$.LC2, %edi
.LVL432:
	.loc 31 212 28 view .LVU1197
	call	_ZSt19__throw_logic_errorPKc
.LVL433:
.L187:
	.loc 31 219 6 view .LVU1198
	movl	$0, %edx
.LVL434:
	.loc 31 219 6 view .LVU1199
	leaq	8(%rsp), %rsi
.LVL435:
	.loc 31 219 6 view .LVU1200
	movq	%rbp, %rdi
.LVL436:
	.loc 31 219 6 view .LVU1201
	call	_ZNSt7__cxx1112basic_stringIcSt11char_traitsIcESaIcEE9_M_createERmm
.LVL437:
.LBB6048:
.LBI6048:
	.loc 10 178 7 is_stmt 1 view .LVU1202
.LBB6049:
	.loc 10 179 9 is_stmt 0 view .LVU1203
	movq	%rax, 0(%rbp)
.LVL438:
	.loc 10 179 9 view .LVU1204
.LBE6049:
.LBE6048:
	.loc 31 220 6 view .LVU1205
	movq	8(%rsp), %rax
.LVL439:
.LBB6050:
.LBI6050:
	.loc 10 210 7 is_stmt 1 view .LVU1206
.LBB6051:
	.loc 10 211 9 is_stmt 0 view .LVU1207
	movq	%rax, 16(%rbp)
	.loc 10 211 45 view .LVU1208
	jmp	.L182
.LVL440:
.L188:
	.loc 10 211 45 view .LVU1209
.LBE6051:
.LBE6050:
.LBB6052:
.LBB6047:
.LBB6046:
.LBB6044:
.LBI6044:
	.loc 20 299 7 is_stmt 1 view .LVU1210
.LBB6045:
	.loc 20 300 9 view .LVU1211
	.loc 20 300 16 is_stmt 0 view .LVU1212
	movzbl	(%r12), %eax
	.loc 20 300 14 view .LVU1213
	movb	%al, (%rdi)
.LVL441:
.L184:
	.loc 20 300 14 view .LVU1214
.LBE6045:
.LBE6044:
.LBE6046:
.LBE6047:
.LBE6052:
	.loc 31 232 2 view .LVU1215
	movq	8(%rsp), %rax
.LVL442:
.LBB6053:
.LBI6053:
	.loc 10 214 7 is_stmt 1 view .LVU1216
.LBB6054:
.LBB6055:
.LBI6055:
	.loc 10 182 7 view .LVU1217
.LBB6056:
	.loc 10 183 9 is_stmt 0 view .LVU1218
	movq	%rax, 8(%rbp)
.LVL443:
	.loc 10 183 9 view .LVU1219
.LBE6056:
.LBE6055:
.LBB6057:
.LBI6057:
	.loc 10 186 7 is_stmt 1 view .LVU1220
	.loc 10 186 7 is_stmt 0 view .LVU1221
.LBE6057:
	.loc 10 217 31 view .LVU1222
	addq	0(%rbp), %rax
.LVL444:
.LBB6058:
.LBI6058:
	.loc 20 299 7 is_stmt 1 view .LVU1223
.LBB6059:
	.loc 20 300 9 view .LVU1224
	.loc 20 300 14 is_stmt 0 view .LVU1225
	movb	$0, (%rax)
.LVL445:
	.loc 20 300 14 view .LVU1226
.LBE6059:
.LBE6058:
.LBE6054:
.LBE6053:
	.loc 31 233 7 view .LVU1227
	addq	$16, %rsp
	.cfi_def_cfa_offset 32
	popq	%rbx
	.cfi_def_cfa_offset 24
	popq	%rbp
	.cfi_def_cfa_offset 16
.LVL446:
	.loc 31 233 7 view .LVU1228
	popq	%r12
	.cfi_def_cfa_offset 8
.LVL447:
	.loc 31 233 7 view .LVU1229
	ret
	.cfi_endproc
.LFE5953:
	.size	_ZNSt7__cxx1112basic_stringIcSt11char_traitsIcESaIcEE12_M_constructIPcEEvT_S7_St20forward_iterator_tag, .-_ZNSt7__cxx1112basic_stringIcSt11char_traitsIcESaIcEE12_M_constructIPcEEvT_S7_St20forward_iterator_tag
	.section	.text._ZNSt14_Fwd_list_baseIN3mpp6HeaderESaIS1_EE15_M_insert_afterIJRNSt7__cxx1112basic_stringIcSt11char_traitsIcESaIcEEERSt3anyEEEPSt19_Fwd_list_node_baseSt24_Fwd_list_const_iteratorIS1_EDpOT_,"axG",@progbits,_ZNSt14_Fwd_list_baseIN3mpp6HeaderESaIS1_EE15_M_insert_afterIJRNSt7__cxx1112basic_stringIcSt11char_traitsIcESaIcEEERSt3anyEEEPSt19_Fwd_list_node_baseSt24_Fwd_list_const_iteratorIS1_EDpOT_,comdat
	.align 2
	.weak	_ZNSt14_Fwd_list_baseIN3mpp6HeaderESaIS1_EE15_M_insert_afterIJRNSt7__cxx1112basic_stringIcSt11char_traitsIcESaIcEEERSt3anyEEEPSt19_Fwd_list_node_baseSt24_Fwd_list_const_iteratorIS1_EDpOT_
	.type	_ZNSt14_Fwd_list_baseIN3mpp6HeaderESaIS1_EE15_M_insert_afterIJRNSt7__cxx1112basic_stringIcSt11char_traitsIcESaIcEEERSt3anyEEEPSt19_Fwd_list_node_baseSt24_Fwd_list_const_iteratorIS1_EDpOT_, @function
_ZNSt14_Fwd_list_baseIN3mpp6HeaderESaIS1_EE15_M_insert_afterIJRNSt7__cxx1112basic_stringIcSt11char_traitsIcESaIcEEERSt3anyEEEPSt19_Fwd_list_node_baseSt24_Fwd_list_const_iteratorIS1_EDpOT_:
.LVL448:
.LFB5652:
	.loc 22 50 7 is_stmt 1 view -0
	.cfi_startproc
	.cfi_personality 0x3,__gxx_personality_v0
	.cfi_lsda 0x3,.LLSDA5652
	.loc 22 50 7 is_stmt 0 view .LVU1231
	pushq	%r14
	.cfi_def_cfa_offset 16
	.cfi_offset 14, -16
	pushq	%r13
	.cfi_def_cfa_offset 24
	.cfi_offset 13, -24
	pushq	%r12
	.cfi_def_cfa_offset 32
	.cfi_offset 12, -32
	pushq	%rbp
	.cfi_def_cfa_offset 40
	.cfi_offset 6, -40
	pushq	%rbx
	.cfi_def_cfa_offset 48
	.cfi_offset 3, -48
	subq	$64, %rsp
	.cfi_def_cfa_offset 112
	movq	%rsi, %r12
.LVL449:
	.loc 22 50 7 view .LVU1232
	movq	%rdx, %r13
	movq	%rcx, %rbp
.LVL450:
.LBB6163:
.LBI6163:
	.loc 23 355 2 is_stmt 1 view .LVU1233
.LBB6164:
.LBB6165:
.LBI6165:
	.loc 23 347 7 view .LVU1234
.LBB6166:
.LBB6167:
.LBI6167:
	.loc 11 443 7 view .LVU1235
.LBB6168:
.LBI6168:
	.loc 12 102 7 view .LVU1236
.LBB6169:
	.loc 12 114 41 is_stmt 0 view .LVU1237
	movl	$56, %edi
.LVL451:
.LEHB16:
	.loc 12 114 41 view .LVU1238
	call	_Znwm
.LVL452:
.LEHE16:
	.loc 12 114 41 view .LVU1239
	movq	%rax, %rbx
.LVL453:
	.loc 12 114 41 view .LVU1240
.LBE6169:
.LBE6168:
.LBE6167:
.LBE6166:
.LBE6165:
.LBE6164:
.LBE6163:
	.loc 2 174 3 is_stmt 1 view .LVU1241
.LBB6283:
.LBB6277:
.LBB6170:
.LBI6170:
	.loc 23 116 7 view .LVU1242
.LBB6171:
.LBI6171:
	.loc 23 56 5 view .LVU1243
.LBB6172:
	movq	$0, (%rax)
.LVL454:
	.loc 23 56 5 is_stmt 0 view .LVU1244
.LBE6172:
.LBE6171:
.LBE6170:
.LBB6173:
.LBI6173:
	.loc 23 121 7 is_stmt 1 view .LVU1245
.LBB6174:
.LBI6174:
	.loc 24 114 7 view .LVU1246
.LBB6175:
.LBI6175:
	.loc 24 102 7 view .LVU1247
	.loc 24 102 7 is_stmt 0 view .LVU1248
.LBE6175:
.LBE6174:
.LBE6173:
.LBB6176:
.LBI6176:
	.loc 11 482 2 is_stmt 1 view .LVU1249
.LBB6177:
.LBI6177:
	.loc 12 144 2 view .LVU1250
.LBB6178:
.LBB6179:
.LBI6179:
	.loc 10 448 7 view .LVU1251
.LBB6180:
.LBB6181:
.LBB6182:
.LBI6182:
	.loc 10 290 7 view .LVU1252
	.loc 10 290 7 is_stmt 0 view .LVU1253
.LBE6182:
.LBB6183:
.LBI6183:
	.file 33 "/usr/include/c++/9/ext/alloc_traits.h"
	.loc 33 97 19 is_stmt 1 view .LVU1254
.LBB6184:
.LBI6184:
	.loc 11 514 7 view .LVU1255
.LBB6185:
.LBI6185:
	.loc 13 141 7 view .LVU1256
.LBB6186:
.LBI6186:
	.loc 12 83 7 view .LVU1257
	.loc 12 83 7 is_stmt 0 view .LVU1258
.LBE6186:
.LBE6185:
.LBE6184:
.LBE6183:
.LBB6187:
.LBI6187:
	.loc 10 190 7 is_stmt 1 view .LVU1259
	.loc 10 190 7 is_stmt 0 view .LVU1260
.LBE6187:
.LBB6188:
.LBI6188:
	.loc 10 159 2 is_stmt 1 view .LVU1261
.LBB6189:
.LBB6190:
.LBB6191:
.LBI6191:
	.loc 19 99 5 view .LVU1262
	.loc 19 99 5 is_stmt 0 view .LVU1263
.LBE6191:
.LBB6192:
.LBI6192:
	.loc 13 141 7 is_stmt 1 view .LVU1264
.LBB6193:
.LBI6193:
	.loc 12 83 7 view .LVU1265
	.loc 12 83 7 is_stmt 0 view .LVU1266
.LBE6193:
.LBE6192:
	.loc 10 160 46 view .LVU1267
	leaq	32(%rsp), %rax
.LVL455:
	.loc 10 160 46 view .LVU1268
	movq	%rax, 16(%rsp)
.LVL456:
	.loc 10 160 46 view .LVU1269
.LBE6190:
.LBE6189:
.LBE6188:
.LBB6194:
.LBI6194:
	.loc 13 153 7 is_stmt 1 view .LVU1270
.LBB6195:
.LBI6195:
	.loc 12 89 7 view .LVU1271
	.loc 12 89 7 is_stmt 0 view .LVU1272
.LBE6195:
.LBE6194:
.LBB6196:
.LBI6196:
	.loc 10 186 7 is_stmt 1 view .LVU1273
.LBB6197:
	.loc 10 187 28 is_stmt 0 view .LVU1274
	movq	0(%r13), %rsi
.LVL457:
	.loc 10 187 28 view .LVU1275
.LBE6197:
.LBE6196:
.LBB6198:
.LBI6198:
	.loc 10 936 7 is_stmt 1 view .LVU1276
	.loc 10 936 7 is_stmt 0 view .LVU1277
.LBE6198:
	.loc 10 451 9 view .LVU1278
	movq	%rsi, %rdx
	addq	8(%r13), %rdx
.LVL458:
.LBB6199:
.LBI6199:
	.loc 10 186 7 is_stmt 1 view .LVU1279
	.loc 10 186 7 is_stmt 0 view .LVU1280
.LBE6199:
.LBB6200:
.LBI6200:
	.loc 10 263 9 is_stmt 1 view .LVU1281
.LBB6201:
.LBB6202:
.LBI6202:
	.loc 10 243 9 view .LVU1282
.LBB6203:
	.loc 10 247 11 is_stmt 0 view .LVU1283
	leaq	16(%rsp), %rdi
.LVL459:
.LEHB17:
	.loc 10 247 11 view .LVU1284
	call	_ZNSt7__cxx1112basic_stringIcSt11char_traitsIcESaIcEE12_M_constructIPcEEvT_S7_St20forward_iterator_tag
.LVL460:
.LEHE17:
	.loc 10 247 11 view .LVU1285
	leaq	8(%rbx), %r14
.LVL461:
	.loc 10 247 11 view .LVU1286
.LBE6203:
.LBE6202:
.LBE6201:
.LBE6200:
.LBE6181:
.LBE6180:
.LBE6179:
.LBB6204:
.LBI6204:
	.loc 1 139 5 is_stmt 1 view .LVU1287
.LBB6205:
.LBB6206:
.LBI6206:
	.loc 1 82 17 view .LVU1288
.LBB6207:
.LBB6208:
	.loc 1 82 44 is_stmt 0 view .LVU1289
	movq	$0, 56(%rsp)
.LVL462:
	.loc 1 82 44 view .LVU1290
.LBE6208:
.LBE6207:
.LBE6206:
.LBE6205:
.LBE6204:
.LBE6178:
.LBE6177:
.LBE6176:
.LBE6277:
.LBE6283:
	.loc 1 141 7 is_stmt 1 view .LVU1291
.LBB6284:
.LBB6278:
.LBB6267:
.LBB6262:
.LBB6257:
.LBB6214:
.LBB6213:
.LBB6209:
.LBB6210:
.LBI6210:
	.loc 1 342 10 view .LVU1292
.LBB6211:
	.loc 1 342 39 view .LVU1293
	.loc 1 342 39 is_stmt 0 view .LVU1294
.LBE6211:
.LBE6210:
	.loc 1 141 7 view .LVU1295
	cmpq	$0, 0(%rbp)
	je	.L206
.LBB6212:
	.loc 1 145 4 is_stmt 1 view .LVU1296
	.loc 1 146 4 view .LVU1297
	.loc 1 146 17 is_stmt 0 view .LVU1298
	leaq	48(%rsp), %rax
.LVL463:
	.loc 1 146 17 view .LVU1299
	movq	%rax, 8(%rsp)
	.loc 1 147 4 is_stmt 1 view .LVU1300
	.loc 1 147 22 is_stmt 0 view .LVU1301
	leaq	8(%rsp), %rdx
	movq	%rbp, %rsi
	movl	$2, %edi
.LEHB18:
	call	*0(%rbp)
.LVL464:
.LEHE18:
	.loc 1 147 22 view .LVU1302
	jmp	.L191
.L206:
.LBE6212:
	.loc 1 142 2 is_stmt 1 view .LVU1303
	.loc 1 142 13 is_stmt 0 view .LVU1304
	movq	$0, 48(%rsp)
.L191:
.LVL465:
	.loc 1 142 13 view .LVU1305
.LBE6209:
.LBE6213:
.LBE6214:
.LBE6257:
.LBE6262:
.LBE6267:
.LBE6278:
.LBE6284:
	.loc 2 174 3 is_stmt 1 view .LVU1306
.LBB6285:
.LBB6279:
.LBB6268:
.LBB6263:
.LBB6258:
	.loc 12 147 4 is_stmt 0 view .LVU1307
	leaq	48(%rsp), %rdx
	leaq	16(%rsp), %rsi
	movq	%r14, %rdi
.LEHB19:
	call	_ZN3mpp6HeaderC1ENSt7__cxx1112basic_stringIcSt11char_traitsIcESaIcEEESt3any
.LVL466:
.LEHE19:
.LBB6215:
.LBI6215:
	.loc 1 230 5 is_stmt 1 view .LVU1308
.LBE6215:
.LBE6258:
.LBE6263:
.LBE6268:
.LBE6279:
.LBE6285:
	.loc 1 230 14 view .LVU1309
.LBB6286:
.LBB6280:
.LBB6269:
.LBB6264:
.LBB6259:
.LBB6220:
.LBB6216:
.LBI6216:
	.loc 1 300 10 view .LVU1310
.LBB6217:
	.loc 1 302 7 view .LVU1311
.LBB6218:
.LBI6218:
	.loc 1 342 10 view .LVU1312
.LBB6219:
	.loc 1 342 39 view .LVU1313
	.loc 1 342 46 is_stmt 0 view .LVU1314
	movq	48(%rsp), %rax
.LVL467:
	.loc 1 342 46 view .LVU1315
.LBE6219:
.LBE6218:
	.loc 1 302 7 view .LVU1316
	testq	%rax, %rax
	je	.L192
	.loc 1 304 2 is_stmt 1 view .LVU1317
	.loc 1 304 12 is_stmt 0 view .LVU1318
	movl	$0, %edx
	leaq	48(%rsp), %rsi
.LVL468:
	.loc 1 304 12 view .LVU1319
	movl	$3, %edi
	call	*%rax
.LVL469:
	.loc 1 305 2 is_stmt 1 view .LVU1320
.L192:
	.loc 1 305 2 is_stmt 0 view .LVU1321
.LBE6217:
.LBE6216:
.LBE6220:
.LBB6221:
.LBI6221:
	.loc 10 657 7 is_stmt 1 view .LVU1322
.LBB6222:
.LBI6222:
	.loc 10 229 7 view .LVU1323
.LBB6223:
.LBB6224:
.LBI6224:
	.loc 10 221 7 view .LVU1324
.LBB6225:
.LBI6225:
	.loc 10 186 7 view .LVU1325
.LBB6226:
	.loc 10 187 28 is_stmt 0 view .LVU1326
	movq	16(%rsp), %rdi
.LVL470:
	.loc 10 187 28 view .LVU1327
.LBE6226:
.LBE6225:
.LBB6227:
.LBI6227:
	.loc 10 200 7 is_stmt 1 view .LVU1328
	.loc 10 200 7 is_stmt 0 view .LVU1329
.LBE6227:
.LBE6224:
	.loc 10 231 2 view .LVU1330
	leaq	32(%rsp), %rax
	cmpq	%rax, %rdi
	je	.L193
.LVL471:
.LBB6228:
.LBI6228:
	.loc 10 236 7 is_stmt 1 view .LVU1331
.LBB6229:
.LBB6230:
.LBI6230:
	.loc 11 469 7 view .LVU1332
.LBB6231:
.LBI6231:
	.loc 12 119 7 view .LVU1333
.LBB6232:
	.loc 12 128 19 is_stmt 0 view .LVU1334
	call	_ZdlPv
.LVL472:
.L193:
	.loc 12 128 19 view .LVU1335
.LBE6232:
.LBE6231:
.LBE6230:
.LBE6229:
.LBE6228:
.LBE6223:
.LBE6222:
.LBB6233:
.LBI6233:
	.loc 10 150 14 is_stmt 1 view .LVU1336
.LBB6234:
.LBI6234:
	.loc 13 153 7 view .LVU1337
.LBB6235:
.LBI6235:
	.loc 12 89 7 view .LVU1338
	.loc 12 89 7 is_stmt 0 view .LVU1339
.LBE6235:
.LBE6234:
.LBE6233:
.LBE6221:
.LBE6259:
.LBE6264:
.LBE6269:
.LBE6280:
.LBE6286:
	.loc 22 56 27 view .LVU1340
	movq	(%r12), %rax
	.loc 22 56 2 view .LVU1341
	movq	%rax, (%rbx)
	.loc 22 57 2 view .LVU1342
	movq	%rbx, (%r12)
	.loc 22 59 7 view .LVU1343
	movq	%rbx, %rax
	addq	$64, %rsp
	.cfi_remember_state
	.cfi_def_cfa_offset 48
	popq	%rbx
	.cfi_def_cfa_offset 40
.LVL473:
	.loc 22 59 7 view .LVU1344
	popq	%rbp
	.cfi_def_cfa_offset 32
.LVL474:
	.loc 22 59 7 view .LVU1345
	popq	%r12
	.cfi_def_cfa_offset 24
.LVL475:
	.loc 22 59 7 view .LVU1346
	popq	%r13
	.cfi_def_cfa_offset 16
.LVL476:
	.loc 22 59 7 view .LVU1347
	popq	%r14
	.cfi_def_cfa_offset 8
	ret
.LVL477:
.L203:
	.cfi_restore_state
	.loc 22 59 7 view .LVU1348
	movq	%rax, %rbp
.LVL478:
.LBB6287:
.LBB6281:
.LBB6270:
.LBB6265:
.LBB6260:
.LBB6236:
.LBI6236:
	.loc 1 230 5 is_stmt 1 view .LVU1349
.LBE6236:
.LBE6260:
.LBE6265:
.LBE6270:
.LBE6281:
.LBE6287:
	.loc 1 230 14 view .LVU1350
.LBB6288:
.LBB6282:
.LBB6271:
.LBB6266:
.LBB6261:
.LBB6241:
.LBB6237:
.LBI6237:
	.loc 1 300 10 view .LVU1351
.LBB6238:
	.loc 1 302 7 view .LVU1352
.LBB6239:
.LBI6239:
	.loc 1 342 10 view .LVU1353
.LBB6240:
	.loc 1 342 39 view .LVU1354
	.loc 1 342 46 is_stmt 0 view .LVU1355
	movq	48(%rsp), %rax
.LVL479:
	.loc 1 342 46 view .LVU1356
.LBE6240:
.LBE6239:
	.loc 1 302 7 view .LVU1357
	testq	%rax, %rax
	je	.L196
	.loc 1 304 2 is_stmt 1 view .LVU1358
	.loc 1 304 12 is_stmt 0 view .LVU1359
	movl	$0, %edx
	leaq	48(%rsp), %rsi
.LVL480:
	.loc 1 304 12 view .LVU1360
	movl	$3, %edi
	call	*%rax
.LVL481:
	.loc 1 305 2 is_stmt 1 view .LVU1361
.L196:
	.loc 1 305 2 is_stmt 0 view .LVU1362
.LBE6238:
.LBE6237:
.LBE6241:
.LBB6242:
.LBI6242:
	.loc 10 657 7 is_stmt 1 view .LVU1363
.LBB6243:
.LBI6243:
	.loc 10 229 7 view .LVU1364
.LBB6244:
.LBB6245:
.LBI6245:
	.loc 10 221 7 view .LVU1365
.LBB6246:
.LBI6246:
	.loc 10 186 7 view .LVU1366
.LBB6247:
	.loc 10 187 28 is_stmt 0 view .LVU1367
	movq	16(%rsp), %rdi
.LVL482:
	.loc 10 187 28 view .LVU1368
.LBE6247:
.LBE6246:
.LBB6248:
.LBI6248:
	.loc 10 200 7 is_stmt 1 view .LVU1369
	.loc 10 200 7 is_stmt 0 view .LVU1370
.LBE6248:
.LBE6245:
	.loc 10 231 2 view .LVU1371
	leaq	32(%rsp), %rax
	cmpq	%rax, %rdi
	je	.L197
.LVL483:
.LBB6249:
.LBI6249:
	.loc 10 236 7 is_stmt 1 view .LVU1372
.LBB6250:
.LBB6251:
.LBI6251:
	.loc 11 469 7 view .LVU1373
.LBB6252:
.LBI6252:
	.loc 12 119 7 view .LVU1374
.LBB6253:
	.loc 12 128 19 is_stmt 0 view .LVU1375
	call	_ZdlPv
.LVL484:
.L197:
	.loc 12 128 19 view .LVU1376
.LBE6253:
.LBE6252:
.LBE6251:
.LBE6250:
.LBE6249:
.LBE6244:
.LBE6243:
.LBB6254:
.LBI6254:
	.loc 10 150 14 is_stmt 1 view .LVU1377
.LBB6255:
.LBI6255:
	.loc 13 153 7 view .LVU1378
.LBB6256:
.LBI6256:
	.loc 12 89 7 view .LVU1379
	.loc 12 89 7 is_stmt 0 view .LVU1380
	movq	%rbp, %rdi
.LVL485:
.L198:
	.loc 12 89 7 view .LVU1381
.LBE6256:
.LBE6255:
.LBE6254:
.LBE6242:
.LBE6261:
.LBE6266:
.LBE6271:
	.loc 23 365 4 view .LVU1382
	call	__cxa_begin_catch
.LVL486:
.LBB6272:
.LBI6272:
	.loc 23 378 7 is_stmt 1 view .LVU1383
.LBB6273:
.LBB6274:
.LBI6274:
	.loc 11 469 7 view .LVU1384
.LBB6275:
.LBI6275:
	.loc 12 119 7 view .LVU1385
.LBB6276:
	.loc 12 128 19 is_stmt 0 view .LVU1386
	movq	%rbx, %rdi
	call	_ZdlPv
.LVL487:
.LEHB20:
	.loc 12 128 19 view .LVU1387
.LBE6276:
.LBE6275:
.LBE6274:
.LBE6273:
.LBE6272:
	.loc 23 368 8 view .LVU1388
	call	__cxa_rethrow
.LVL488:
.LEHE20:
.L200:
	movq	%rax, %rbx
.LVL489:
	.loc 23 365 4 view .LVU1389
	call	__cxa_end_catch
.LVL490:
	movq	%rbx, %rdi
.LEHB21:
	call	_Unwind_Resume
.LVL491:
.LEHE21:
.L202:
	.loc 23 365 4 view .LVU1390
	movq	%rax, %rbp
.LVL492:
	.loc 23 365 4 view .LVU1391
	jmp	.L196
.LVL493:
.L201:
	.loc 23 365 4 view .LVU1392
	movq	%rax, %rdi
	jmp	.L198
.LBE6282:
.LBE6288:
	.cfi_endproc
.LFE5652:
	.section	.gcc_except_table._ZNSt14_Fwd_list_baseIN3mpp6HeaderESaIS1_EE15_M_insert_afterIJRNSt7__cxx1112basic_stringIcSt11char_traitsIcESaIcEEERSt3anyEEEPSt19_Fwd_list_node_baseSt24_Fwd_list_const_iteratorIS1_EDpOT_,"aG",@progbits,_ZNSt14_Fwd_list_baseIN3mpp6HeaderESaIS1_EE15_M_insert_afterIJRNSt7__cxx1112basic_stringIcSt11char_traitsIcESaIcEEERSt3anyEEEPSt19_Fwd_list_node_baseSt24_Fwd_list_const_iteratorIS1_EDpOT_,comdat
	.align 4
.LLSDA5652:
	.byte	0xff
	.byte	0x3
	.uleb128 .LLSDATT5652-.LLSDATTD5652
.LLSDATTD5652:
	.byte	0x1
	.uleb128 .LLSDACSE5652-.LLSDACSB5652
.LLSDACSB5652:
	.uleb128 .LEHB16-.LFB5652
	.uleb128 .LEHE16-.LEHB16
	.uleb128 0
	.uleb128 0
	.uleb128 .LEHB17-.LFB5652
	.uleb128 .LEHE17-.LEHB17
	.uleb128 .L201-.LFB5652
	.uleb128 0x1
	.uleb128 .LEHB18-.LFB5652
	.uleb128 .LEHE18-.LEHB18
	.uleb128 .L202-.LFB5652
	.uleb128 0x3
	.uleb128 .LEHB19-.LFB5652
	.uleb128 .LEHE19-.LEHB19
	.uleb128 .L203-.LFB5652
	.uleb128 0x3
	.uleb128 .LEHB20-.LFB5652
	.uleb128 .LEHE20-.LEHB20
	.uleb128 .L200-.LFB5652
	.uleb128 0
	.uleb128 .LEHB21-.LFB5652
	.uleb128 .LEHE21-.LEHB21
	.uleb128 0
	.uleb128 0
.LLSDACSE5652:
	.byte	0x1
	.byte	0
	.byte	0
	.byte	0x7d
	.align 4
	.long	0

.LLSDATT5652:
	.section	.text._ZNSt14_Fwd_list_baseIN3mpp6HeaderESaIS1_EE15_M_insert_afterIJRNSt7__cxx1112basic_stringIcSt11char_traitsIcESaIcEEERSt3anyEEEPSt19_Fwd_list_node_baseSt24_Fwd_list_const_iteratorIS1_EDpOT_,"axG",@progbits,_ZNSt14_Fwd_list_baseIN3mpp6HeaderESaIS1_EE15_M_insert_afterIJRNSt7__cxx1112basic_stringIcSt11char_traitsIcESaIcEEERSt3anyEEEPSt19_Fwd_list_node_baseSt24_Fwd_list_const_iteratorIS1_EDpOT_,comdat
	.size	_ZNSt14_Fwd_list_baseIN3mpp6HeaderESaIS1_EE15_M_insert_afterIJRNSt7__cxx1112basic_stringIcSt11char_traitsIcESaIcEEERSt3anyEEEPSt19_Fwd_list_node_baseSt24_Fwd_list_const_iteratorIS1_EDpOT_, .-_ZNSt14_Fwd_list_baseIN3mpp6HeaderESaIS1_EE15_M_insert_afterIJRNSt7__cxx1112basic_stringIcSt11char_traitsIcESaIcEEERSt3anyEEEPSt19_Fwd_list_node_baseSt24_Fwd_list_const_iteratorIS1_EDpOT_
	.text
	.align 2
	.globl	_ZN3mpp7Request9addHeaderENSt7__cxx1112basic_stringIcSt11char_traitsIcESaIcEEESt3any
	.type	_ZN3mpp7Request9addHeaderENSt7__cxx1112basic_stringIcSt11char_traitsIcESaIcEEESt3any, @function
_ZN3mpp7Request9addHeaderENSt7__cxx1112basic_stringIcSt11char_traitsIcESaIcEEESt3any:
.LVL494:
.LFB5103:
	.loc 8 57 1 is_stmt 1 view -0
	.cfi_startproc
	.loc 8 57 1 is_stmt 0 view .LVU1394
	subq	$8, %rsp
	.cfi_def_cfa_offset 16
	movq	%rdx, %rcx
	.loc 8 58 2 is_stmt 1 view .LVU1395
.LVL495:
.LBB6289:
.LBI6289:
	.loc 23 831 2 view .LVU1396
.LBB6290:
.LBB6291:
.LBI6291:
	.loc 23 761 7 view .LVU1397
.LBB6292:
	.loc 23 762 53 is_stmt 0 view .LVU1398
	addq	$8, %rdi
.LVL496:
.LBB6293:
.LBI6293:
	.loc 23 225 7 is_stmt 1 view .LVU1399
	.loc 23 225 7 is_stmt 0 view .LVU1400
.LBE6293:
.LBE6292:
.LBE6291:
	.loc 23 833 4 view .LVU1401
	movq	%rsi, %rdx
.LVL497:
	.loc 23 833 4 view .LVU1402
	movq	%rdi, %rsi
.LVL498:
	.loc 23 833 4 view .LVU1403
	call	_ZNSt14_Fwd_list_baseIN3mpp6HeaderESaIS1_EE15_M_insert_afterIJRNSt7__cxx1112basic_stringIcSt11char_traitsIcESaIcEEERSt3anyEEEPSt19_Fwd_list_node_baseSt24_Fwd_list_const_iteratorIS1_EDpOT_
.LVL499:
	.loc 23 833 4 view .LVU1404
.LBE6290:
.LBE6289:
	.loc 8 59 1 view .LVU1405
	addq	$8, %rsp
	.cfi_def_cfa_offset 8
	ret
	.cfi_endproc
.LFE5103:
	.size	_ZN3mpp7Request9addHeaderENSt7__cxx1112basic_stringIcSt11char_traitsIcESaIcEEESt3any, .-_ZN3mpp7Request9addHeaderENSt7__cxx1112basic_stringIcSt11char_traitsIcESaIcEEESt3any
	.align 2
	.globl	_ZNK3mpp7Request7getNounB5cxx11Ev
	.type	_ZNK3mpp7Request7getNounB5cxx11Ev, @function
_ZNK3mpp7Request7getNounB5cxx11Ev:
.LVL500:
.LFB5113:
	.loc 8 101 1 is_stmt 1 view -0
	.cfi_startproc
	.loc 8 101 1 is_stmt 0 view .LVU1407
	pushq	%rbx
	.cfi_def_cfa_offset 16
	.cfi_offset 3, -16
	movq	%rdi, %rbx
	.loc 8 102 2 is_stmt 1 view .LVU1408
.LVL501:
.LBB6294:
.LBI6294:
	.loc 10 448 7 view .LVU1409
.LBB6295:
.LBB6296:
.LBI6296:
	.loc 10 290 7 view .LVU1410
	.loc 10 290 7 is_stmt 0 view .LVU1411
.LBE6296:
.LBB6297:
.LBI6297:
	.loc 33 97 19 is_stmt 1 view .LVU1412
.LBB6298:
.LBI6298:
	.loc 11 514 7 view .LVU1413
.LBB6299:
.LBI6299:
	.loc 13 141 7 view .LVU1414
.LBB6300:
.LBI6300:
	.loc 12 83 7 view .LVU1415
	.loc 12 83 7 is_stmt 0 view .LVU1416
.LBE6300:
.LBE6299:
.LBE6298:
.LBE6297:
.LBB6301:
.LBI6301:
	.loc 10 190 7 is_stmt 1 view .LVU1417
.LBB6302:
	.loc 10 193 51 is_stmt 0 view .LVU1418
	leaq	16(%rdi), %rax
.LVL502:
	.loc 10 193 51 view .LVU1419
.LBE6302:
.LBE6301:
.LBB6303:
.LBI6303:
	.loc 10 159 2 is_stmt 1 view .LVU1420
.LBB6304:
.LBB6305:
.LBI6305:
	.loc 19 99 5 view .LVU1421
	.loc 19 99 5 is_stmt 0 view .LVU1422
.LBE6305:
.LBB6306:
.LBI6306:
	.loc 13 141 7 is_stmt 1 view .LVU1423
.LBB6307:
.LBI6307:
	.loc 12 83 7 view .LVU1424
	.loc 12 83 7 is_stmt 0 view .LVU1425
.LBE6307:
.LBE6306:
	.loc 10 160 46 view .LVU1426
	movq	%rax, (%rdi)
.LVL503:
	.loc 10 160 46 view .LVU1427
.LBE6304:
.LBE6303:
.LBB6308:
.LBI6308:
	.loc 13 153 7 is_stmt 1 view .LVU1428
.LBB6309:
.LBI6309:
	.loc 12 89 7 view .LVU1429
	.loc 12 89 7 is_stmt 0 view .LVU1430
.LBE6309:
.LBE6308:
.LBB6310:
.LBI6310:
	.loc 10 186 7 is_stmt 1 view .LVU1431
.LBB6311:
	.loc 10 187 28 is_stmt 0 view .LVU1432
	movq	16(%rsi), %rax
.LVL504:
	.loc 10 187 28 view .LVU1433
.LBE6311:
.LBE6310:
.LBB6312:
.LBI6312:
	.loc 10 936 7 is_stmt 1 view .LVU1434
	.loc 10 936 7 is_stmt 0 view .LVU1435
.LBE6312:
	.loc 10 451 9 view .LVU1436
	movq	%rax, %rdx
	addq	24(%rsi), %rdx
.LVL505:
.LBB6313:
.LBI6313:
	.loc 10 186 7 is_stmt 1 view .LVU1437
	.loc 10 186 7 is_stmt 0 view .LVU1438
.LBE6313:
.LBB6314:
.LBI6314:
	.loc 10 263 9 is_stmt 1 view .LVU1439
.LBB6315:
.LBB6316:
.LBI6316:
	.loc 10 243 9 view .LVU1440
.LBB6317:
	.loc 10 247 11 is_stmt 0 view .LVU1441
	movq	%rax, %rsi
.LVL506:
	.loc 10 247 11 view .LVU1442
	call	_ZNSt7__cxx1112basic_stringIcSt11char_traitsIcESaIcEE12_M_constructIPcEEvT_S7_St20forward_iterator_tag
.LVL507:
	.loc 10 247 11 view .LVU1443
.LBE6317:
.LBE6316:
.LBE6315:
.LBE6314:
.LBE6295:
.LBE6294:
	.loc 8 103 1 view .LVU1444
	movq	%rbx, %rax
	popq	%rbx
	.cfi_def_cfa_offset 8
.LVL508:
	.loc 8 103 1 view .LVU1445
	ret
	.cfi_endproc
.LFE5113:
	.size	_ZNK3mpp7Request7getNounB5cxx11Ev, .-_ZNK3mpp7Request7getNounB5cxx11Ev
	.section	.text._ZNSt3any17_Manager_externalINSt7__cxx1112basic_stringIcSt11char_traitsIcESaIcEEEE9_S_manageENS_3_OpEPKS_PNS_4_ArgE,"axG",@progbits,_ZNSt3any17_Manager_externalINSt7__cxx1112basic_stringIcSt11char_traitsIcESaIcEEEE9_S_manageENS_3_OpEPKS_PNS_4_ArgE,comdat
	.align 2
	.weak	_ZNSt3any17_Manager_externalINSt7__cxx1112basic_stringIcSt11char_traitsIcESaIcEEEE9_S_manageENS_3_OpEPKS_PNS_4_ArgE
	.type	_ZNSt3any17_Manager_externalINSt7__cxx1112basic_stringIcSt11char_traitsIcESaIcEEEE9_S_manageENS_3_OpEPKS_PNS_4_ArgE, @function
_ZNSt3any17_Manager_externalINSt7__cxx1112basic_stringIcSt11char_traitsIcESaIcEEEE9_S_manageENS_3_OpEPKS_PNS_4_ArgE:
.LVL509:
.LFB5993:
	.loc 1 601 5 is_stmt 1 view -0
	.cfi_startproc
	.cfi_personality 0x3,__gxx_personality_v0
	.cfi_lsda 0x3,.LLSDA5993
	.loc 1 601 5 is_stmt 0 view .LVU1447
	pushq	%r13
	.cfi_def_cfa_offset 16
	.cfi_offset 13, -16
	pushq	%r12
	.cfi_def_cfa_offset 24
	.cfi_offset 12, -24
	pushq	%rbp
	.cfi_def_cfa_offset 32
	.cfi_offset 6, -32
	pushq	%rbx
	.cfi_def_cfa_offset 40
	.cfi_offset 3, -40
	subq	$8, %rsp
	.cfi_def_cfa_offset 48
	.loc 1 605 12 view .LVU1448
	movq	8(%rsi), %r12
.LVL510:
	.loc 1 605 12 view .LVU1449
	cmpl	$4, %edi
	ja	.L211
	movq	%rsi, %rbx
	movq	%rdx, %rbp
	movl	%edi, %edi
	.loc 1 605 12 view .LVU1450
	jmp	*.L214(,%rdi,8)
	.section	.rodata._ZNSt3any17_Manager_externalINSt7__cxx1112basic_stringIcSt11char_traitsIcESaIcEEEE9_S_manageENS_3_OpEPKS_PNS_4_ArgE,"aG",@progbits,_ZNSt3any17_Manager_externalINSt7__cxx1112basic_stringIcSt11char_traitsIcESaIcEEEE9_S_manageENS_3_OpEPKS_PNS_4_ArgE,comdat
	.align 8
	.align 4
.L214:
	.quad	.L218
	.quad	.L217
	.quad	.L216
	.quad	.L215
	.quad	.L213
	.section	.text._ZNSt3any17_Manager_externalINSt7__cxx1112basic_stringIcSt11char_traitsIcESaIcEEEE9_S_manageENS_3_OpEPKS_PNS_4_ArgE,"axG",@progbits,_ZNSt3any17_Manager_externalINSt7__cxx1112basic_stringIcSt11char_traitsIcESaIcEEEE9_S_manageENS_3_OpEPKS_PNS_4_ArgE,comdat
.L218:
	.loc 1 609 2 view .LVU1451
	movq	%r12, (%rdx)
.LVL511:
.L211:
	.loc 1 629 5 view .LVU1452
	addq	$8, %rsp
	.cfi_remember_state
	.cfi_def_cfa_offset 40
	popq	%rbx
	.cfi_def_cfa_offset 32
	popq	%rbp
	.cfi_def_cfa_offset 24
	popq	%r12
	.cfi_def_cfa_offset 16
	popq	%r13
	.cfi_def_cfa_offset 8
	ret
.LVL512:
.L217:
	.cfi_restore_state
	.loc 1 613 2 view .LVU1453
	movq	$_ZTINSt7__cxx1112basic_stringIcSt11char_traitsIcESaIcEEE, (%rdx)
.LVL513:
	.loc 1 615 2 view .LVU1454
	jmp	.L211
.LVL514:
.L216:
	.loc 1 617 37 view .LVU1455
	movl	$32, %edi
.LEHB22:
	call	_Znwm
.LVL515:
.LEHE22:
	.loc 1 617 37 view .LVU1456
	movq	%rax, %r13
.LVL516:
.LBB6318:
.LBI6318:
	.loc 10 448 7 is_stmt 1 view .LVU1457
.LBB6319:
.LBB6320:
.LBB6321:
.LBI6321:
	.loc 10 290 7 view .LVU1458
	.loc 10 290 7 is_stmt 0 view .LVU1459
.LBE6321:
.LBB6322:
.LBI6322:
	.loc 33 97 19 is_stmt 1 view .LVU1460
.LBB6323:
.LBI6323:
	.loc 11 514 7 view .LVU1461
.LBB6324:
.LBI6324:
	.loc 13 141 7 view .LVU1462
.LBB6325:
.LBI6325:
	.loc 12 83 7 view .LVU1463
	.loc 12 83 7 is_stmt 0 view .LVU1464
.LBE6325:
.LBE6324:
.LBE6323:
.LBE6322:
.LBB6326:
.LBI6326:
	.loc 10 190 7 is_stmt 1 view .LVU1465
.LBB6327:
	.loc 10 193 51 is_stmt 0 view .LVU1466
	leaq	16(%rax), %rax
.LVL517:
	.loc 10 193 51 view .LVU1467
.LBE6327:
.LBE6326:
.LBB6328:
.LBI6328:
	.loc 10 159 2 is_stmt 1 view .LVU1468
.LBB6329:
.LBB6330:
.LBI6330:
	.loc 19 99 5 view .LVU1469
	.loc 19 99 5 is_stmt 0 view .LVU1470
.LBE6330:
.LBB6331:
.LBI6331:
	.loc 13 141 7 is_stmt 1 view .LVU1471
.LBB6332:
.LBI6332:
	.loc 12 83 7 view .LVU1472
	.loc 12 83 7 is_stmt 0 view .LVU1473
.LBE6332:
.LBE6331:
	.loc 10 160 46 view .LVU1474
	movq	%rax, 0(%r13)
.LVL518:
	.loc 10 160 46 view .LVU1475
.LBE6329:
.LBE6328:
.LBB6333:
.LBI6333:
	.loc 13 153 7 is_stmt 1 view .LVU1476
.LBB6334:
.LBI6334:
	.loc 12 89 7 view .LVU1477
	.loc 12 89 7 is_stmt 0 view .LVU1478
.LBE6334:
.LBE6333:
.LBB6335:
.LBI6335:
	.loc 10 186 7 is_stmt 1 view .LVU1479
.LBB6336:
	.loc 10 187 28 is_stmt 0 view .LVU1480
	movq	(%r12), %rsi
.LVL519:
	.loc 10 187 28 view .LVU1481
.LBE6336:
.LBE6335:
.LBB6337:
.LBI6337:
	.loc 10 936 7 is_stmt 1 view .LVU1482
	.loc 10 936 7 is_stmt 0 view .LVU1483
.LBE6337:
	.loc 10 451 9 view .LVU1484
	movq	%rsi, %rdx
	addq	8(%r12), %rdx
.LVL520:
.LBB6338:
.LBI6338:
	.loc 10 186 7 is_stmt 1 view .LVU1485
	.loc 10 186 7 is_stmt 0 view .LVU1486
.LBE6338:
.LBB6339:
.LBI6339:
	.loc 10 263 9 is_stmt 1 view .LVU1487
.LBB6340:
.LBB6341:
.LBI6341:
	.loc 10 243 9 view .LVU1488
.LBB6342:
	.loc 10 247 11 is_stmt 0 view .LVU1489
	movq	%r13, %rdi
.LEHB23:
	call	_ZNSt7__cxx1112basic_stringIcSt11char_traitsIcESaIcEE12_M_constructIPcEEvT_S7_St20forward_iterator_tag
.LVL521:
.LEHE23:
	.loc 10 247 11 view .LVU1490
.LBE6342:
.LBE6341:
.LBE6340:
.LBE6339:
.LBE6320:
.LBE6319:
.LBE6318:
	.loc 1 617 9 discriminator 2 view .LVU1491
	movq	0(%rbp), %rax
	.loc 1 617 2 discriminator 2 view .LVU1492
	movq	%r13, 8(%rax)
	.loc 1 618 9 discriminator 2 view .LVU1493
	movq	0(%rbp), %rax
	.loc 1 618 37 discriminator 2 view .LVU1494
	movq	(%rbx), %rdx
	.loc 1 618 2 discriminator 2 view .LVU1495
	movq	%rdx, (%rax)
	.loc 1 619 2 discriminator 2 view .LVU1496
	jmp	.L211
.LVL522:
.L215:
	.loc 1 621 2 view .LVU1497
	testq	%r12, %r12
	je	.L211
.LVL523:
.LBB6343:
.LBI6343:
	.loc 10 657 7 is_stmt 1 view .LVU1498
.LBB6344:
.LBI6344:
	.loc 10 229 7 view .LVU1499
.LBB6345:
.LBB6346:
.LBI6346:
	.loc 10 221 7 view .LVU1500
.LBB6347:
.LBI6347:
	.loc 10 186 7 view .LVU1501
.LBB6348:
	.loc 10 187 28 is_stmt 0 view .LVU1502
	movq	(%r12), %rdi
.LVL524:
	.loc 10 187 28 view .LVU1503
.LBE6348:
.LBE6347:
.LBB6349:
.LBI6349:
	.loc 10 200 7 is_stmt 1 view .LVU1504
.LBB6350:
	.loc 10 203 57 is_stmt 0 view .LVU1505
	leaq	16(%r12), %rax
.LVL525:
	.loc 10 203 57 view .LVU1506
.LBE6350:
.LBE6349:
.LBE6346:
	.loc 10 231 2 view .LVU1507
	cmpq	%rax, %rdi
	je	.L219
.LVL526:
.LBB6351:
.LBI6351:
	.loc 10 236 7 is_stmt 1 view .LVU1508
.LBB6352:
.LBB6353:
.LBI6353:
	.loc 11 469 7 view .LVU1509
.LBB6354:
.LBI6354:
	.loc 12 119 7 view .LVU1510
.LBB6355:
	.loc 12 128 19 is_stmt 0 view .LVU1511
	call	_ZdlPv
.LVL527:
.L219:
	.loc 12 128 19 view .LVU1512
.LBE6355:
.LBE6354:
.LBE6353:
.LBE6352:
.LBE6351:
.LBE6345:
.LBE6344:
.LBB6356:
.LBI6356:
	.loc 10 150 14 is_stmt 1 view .LVU1513
.LBB6357:
.LBI6357:
	.loc 13 153 7 view .LVU1514
.LBB6358:
.LBI6358:
	.loc 12 89 7 view .LVU1515
	.loc 12 89 7 is_stmt 0 view .LVU1516
.LBE6358:
.LBE6357:
.LBE6356:
.LBE6343:
	.loc 1 621 2 view .LVU1517
	movl	$32, %esi
	movq	%r12, %rdi
	call	_ZdlPvm
.LVL528:
	jmp	.L211
.LVL529:
.L213:
	.loc 1 624 9 view .LVU1518
	movq	(%rdx), %rax
	.loc 1 624 2 view .LVU1519
	movq	%r12, 8(%rax)
.LVL530:
	.loc 1 625 9 view .LVU1520
	movq	(%rdx), %rax
	.loc 1 625 37 view .LVU1521
	movq	(%rsi), %rdx
.LVL531:
	.loc 1 625 2 view .LVU1522
	movq	%rdx, (%rax)
	.loc 1 626 2 view .LVU1523
	movq	$0, (%rsi)
	.loc 1 629 5 view .LVU1524
	jmp	.L211
.LVL532:
.L221:
	.loc 1 629 5 view .LVU1525
	movq	%rax, %rbx
.LVL533:
	.loc 1 617 37 view .LVU1526
	movl	$32, %esi
	movq	%r13, %rdi
	call	_ZdlPvm
.LVL534:
	movq	%rbx, %rdi
.LEHB24:
	call	_Unwind_Resume
.LVL535:
.LEHE24:
	.cfi_endproc
.LFE5993:
	.section	.gcc_except_table._ZNSt3any17_Manager_externalINSt7__cxx1112basic_stringIcSt11char_traitsIcESaIcEEEE9_S_manageENS_3_OpEPKS_PNS_4_ArgE,"aG",@progbits,_ZNSt3any17_Manager_externalINSt7__cxx1112basic_stringIcSt11char_traitsIcESaIcEEEE9_S_manageENS_3_OpEPKS_PNS_4_ArgE,comdat
.LLSDA5993:
	.byte	0xff
	.byte	0xff
	.byte	0x1
	.uleb128 .LLSDACSE5993-.LLSDACSB5993
.LLSDACSB5993:
	.uleb128 .LEHB22-.LFB5993
	.uleb128 .LEHE22-.LEHB22
	.uleb128 0
	.uleb128 0
	.uleb128 .LEHB23-.LFB5993
	.uleb128 .LEHE23-.LEHB23
	.uleb128 .L221-.LFB5993
	.uleb128 0
	.uleb128 .LEHB24-.LFB5993
	.uleb128 .LEHE24-.LEHB24
	.uleb128 0
	.uleb128 0
.LLSDACSE5993:
	.section	.text._ZNSt3any17_Manager_externalINSt7__cxx1112basic_stringIcSt11char_traitsIcESaIcEEEE9_S_manageENS_3_OpEPKS_PNS_4_ArgE,"axG",@progbits,_ZNSt3any17_Manager_externalINSt7__cxx1112basic_stringIcSt11char_traitsIcESaIcEEEE9_S_manageENS_3_OpEPKS_PNS_4_ArgE,comdat
	.size	_ZNSt3any17_Manager_externalINSt7__cxx1112basic_stringIcSt11char_traitsIcESaIcEEEE9_S_manageENS_3_OpEPKS_PNS_4_ArgE, .-_ZNSt3any17_Manager_externalINSt7__cxx1112basic_stringIcSt11char_traitsIcESaIcEEEE9_S_manageENS_3_OpEPKS_PNS_4_ArgE
	.section	.rodata.str1.1,"aMS",@progbits,1
.LC3:
	.string	"Unknown header \""
.LC4:
	.string	"\" requested."
	.text
	.align 2
	.globl	_ZN3mpp7Request10findHeaderENSt7__cxx1112basic_stringIcSt11char_traitsIcESaIcEEE
	.type	_ZN3mpp7Request10findHeaderENSt7__cxx1112basic_stringIcSt11char_traitsIcESaIcEEE, @function
_ZN3mpp7Request10findHeaderENSt7__cxx1112basic_stringIcSt11char_traitsIcESaIcEEE:
.LVL536:
.LFB5104:
	.loc 8 67 1 is_stmt 1 view -0
	.cfi_startproc
	.cfi_personality 0x3,__gxx_personality_v0
	.cfi_lsda 0x3,.LLSDA5104
	.loc 8 67 1 is_stmt 0 view .LVU1528
	pushq	%r15
	.cfi_def_cfa_offset 16
	.cfi_offset 15, -16
	pushq	%r14
	.cfi_def_cfa_offset 24
	.cfi_offset 14, -24
	pushq	%r13
	.cfi_def_cfa_offset 32
	.cfi_offset 13, -32
	pushq	%r12
	.cfi_def_cfa_offset 40
	.cfi_offset 12, -40
	pushq	%rbp
	.cfi_def_cfa_offset 48
	.cfi_offset 6, -48
	pushq	%rbx
	.cfi_def_cfa_offset 56
	.cfi_offset 3, -56
	subq	$552, %rsp
	.cfi_def_cfa_offset 608
	movq	%rdi, %r13
	movq	%rsi, %rbx
	movq	%rdx, %rbp
	.loc 8 68 2 is_stmt 1 view .LVU1529
.LVL537:
.LBB6844:
.LBI6844:
	.loc 10 448 7 view .LVU1530
.LBB6845:
.LBB6846:
.LBB6847:
.LBI6847:
	.loc 10 290 7 view .LVU1531
	.loc 10 290 7 is_stmt 0 view .LVU1532
.LBE6847:
.LBB6848:
.LBI6848:
	.loc 33 97 19 is_stmt 1 view .LVU1533
.LBB6849:
.LBI6849:
	.loc 11 514 7 view .LVU1534
.LBB6850:
.LBI6850:
	.loc 13 141 7 view .LVU1535
.LBB6851:
.LBI6851:
	.loc 12 83 7 view .LVU1536
	.loc 12 83 7 is_stmt 0 view .LVU1537
.LBE6851:
.LBE6850:
.LBE6849:
.LBE6848:
.LBB6852:
.LBI6852:
	.loc 10 190 7 is_stmt 1 view .LVU1538
	.loc 10 190 7 is_stmt 0 view .LVU1539
.LBE6852:
.LBB6853:
.LBI6853:
	.loc 10 159 2 is_stmt 1 view .LVU1540
.LBB6854:
.LBB6855:
.LBB6856:
.LBI6856:
	.loc 19 99 5 view .LVU1541
	.loc 19 99 5 is_stmt 0 view .LVU1542
.LBE6856:
.LBB6857:
.LBI6857:
	.loc 13 141 7 is_stmt 1 view .LVU1543
.LBB6858:
.LBI6858:
	.loc 12 83 7 view .LVU1544
	.loc 12 83 7 is_stmt 0 view .LVU1545
.LBE6858:
.LBE6857:
	.loc 10 160 46 view .LVU1546
	leaq	16(%rsp), %rax
.LVL538:
	.loc 10 160 46 view .LVU1547
	movq	%rax, (%rsp)
.LVL539:
	.loc 10 160 46 view .LVU1548
.LBE6855:
.LBE6854:
.LBE6853:
.LBB6859:
.LBI6859:
	.loc 13 153 7 is_stmt 1 view .LVU1549
.LBB6860:
.LBI6860:
	.loc 12 89 7 view .LVU1550
	.loc 12 89 7 is_stmt 0 view .LVU1551
.LBE6860:
.LBE6859:
.LBB6861:
.LBI6861:
	.loc 10 186 7 is_stmt 1 view .LVU1552
.LBB6862:
	.loc 10 187 28 is_stmt 0 view .LVU1553
	movq	(%rdx), %rsi
.LVL540:
	.loc 10 187 28 view .LVU1554
.LBE6862:
.LBE6861:
.LBB6863:
.LBI6863:
	.loc 10 936 7 is_stmt 1 view .LVU1555
	.loc 10 936 7 is_stmt 0 view .LVU1556
.LBE6863:
	.loc 10 451 9 view .LVU1557
	movq	%rsi, %rdx
.LVL541:
	.loc 10 451 9 view .LVU1558
	addq	8(%rbp), %rdx
.LVL542:
.LBB6864:
.LBI6864:
	.loc 10 186 7 is_stmt 1 view .LVU1559
	.loc 10 186 7 is_stmt 0 view .LVU1560
.LBE6864:
.LBB6865:
.LBI6865:
	.loc 10 263 9 is_stmt 1 view .LVU1561
.LBB6866:
.LBB6867:
.LBI6867:
	.loc 10 243 9 view .LVU1562
.LBB6868:
	.loc 10 247 11 is_stmt 0 view .LVU1563
	movq	%rsp, %rdi
.LVL543:
.LEHB25:
	.loc 10 247 11 view .LVU1564
	call	_ZNSt7__cxx1112basic_stringIcSt11char_traitsIcESaIcEE12_M_constructIPcEEvT_S7_St20forward_iterator_tag
.LVL544:
.LEHE25:
	.loc 10 247 11 view .LVU1565
.LBE6868:
.LBE6867:
.LBE6866:
.LBE6865:
.LBE6846:
.LBE6845:
.LBE6844:
.LBB6869:
.LBI6869:
	.loc 23 770 7 is_stmt 1 view .LVU1566
.LBB6870:
.LBB6871:
.LBI6871:
	.loc 23 225 7 view .LVU1567
	.loc 23 225 7 is_stmt 0 view .LVU1568
.LBE6871:
.LBE6870:
.LBE6869:
.LBB6872:
.LBI6872:
	.loc 23 752 7 is_stmt 1 view .LVU1569
.LBB6873:
	.loc 23 753 53 is_stmt 0 view .LVU1570
	movq	8(%rbx), %rbx
.LVL545:
.LBB6874:
.LBI6874:
	.loc 23 225 7 is_stmt 1 view .LVU1571
	.loc 23 225 7 is_stmt 0 view .LVU1572
.LBE6874:
.LBE6873:
.LBE6872:
.LBB6875:
.LBI6875:
	.file 34 "/usr/include/c++/9/bits/stl_algo.h"
	.loc 34 3954 5 is_stmt 1 view .LVU1573
.LBB6876:
.LBB6877:
.LBI6877:
	.loc 8 68 61 view .LVU1574
.LBB6878:
.LBI6878:
	.loc 10 448 7 view .LVU1575
.LBB6879:
.LBB6880:
.LBB6881:
.LBI6881:
	.loc 10 290 7 view .LVU1576
	.loc 10 290 7 is_stmt 0 view .LVU1577
.LBE6881:
.LBB6882:
.LBI6882:
	.loc 33 97 19 is_stmt 1 view .LVU1578
.LBB6883:
.LBI6883:
	.loc 11 514 7 view .LVU1579
.LBB6884:
.LBI6884:
	.loc 13 141 7 view .LVU1580
.LBB6885:
.LBI6885:
	.loc 12 83 7 view .LVU1581
	.loc 12 83 7 is_stmt 0 view .LVU1582
.LBE6885:
.LBE6884:
.LBE6883:
.LBE6882:
.LBB6886:
.LBI6886:
	.loc 10 190 7 is_stmt 1 view .LVU1583
	.loc 10 190 7 is_stmt 0 view .LVU1584
.LBE6886:
.LBB6887:
.LBI6887:
	.loc 10 159 2 is_stmt 1 view .LVU1585
.LBB6888:
.LBB6889:
.LBB6890:
.LBI6890:
	.loc 19 99 5 view .LVU1586
	.loc 19 99 5 is_stmt 0 view .LVU1587
.LBE6890:
.LBB6891:
.LBI6891:
	.loc 13 141 7 is_stmt 1 view .LVU1588
.LBB6892:
.LBI6892:
	.loc 12 83 7 view .LVU1589
	.loc 12 83 7 is_stmt 0 view .LVU1590
.LBE6892:
.LBE6891:
	.loc 10 160 46 view .LVU1591
	leaq	48(%rsp), %rax
.LVL546:
	.loc 10 160 46 view .LVU1592
	movq	%rax, 32(%rsp)
.LVL547:
	.loc 10 160 46 view .LVU1593
.LBE6889:
.LBE6888:
.LBE6887:
.LBB6893:
.LBI6893:
	.loc 13 153 7 is_stmt 1 view .LVU1594
.LBB6894:
.LBI6894:
	.loc 12 89 7 view .LVU1595
	.loc 12 89 7 is_stmt 0 view .LVU1596
.LBE6894:
.LBE6893:
.LBB6895:
.LBI6895:
	.loc 10 186 7 is_stmt 1 view .LVU1597
.LBB6896:
	.loc 10 187 28 is_stmt 0 view .LVU1598
	movq	(%rsp), %rsi
.LVL548:
	.loc 10 187 28 view .LVU1599
.LBE6896:
.LBE6895:
.LBB6897:
.LBI6897:
	.loc 10 936 7 is_stmt 1 view .LVU1600
	.loc 10 936 7 is_stmt 0 view .LVU1601
.LBE6897:
	.loc 10 451 9 view .LVU1602
	movq	%rsi, %rdx
	addq	8(%rsp), %rdx
.LVL549:
.LBB6898:
.LBI6898:
	.loc 10 186 7 is_stmt 1 view .LVU1603
	.loc 10 186 7 is_stmt 0 view .LVU1604
.LBE6898:
.LBB6899:
.LBI6899:
	.loc 10 263 9 is_stmt 1 view .LVU1605
.LBB6900:
.LBB6901:
.LBI6901:
	.loc 10 243 9 view .LVU1606
.LBB6902:
	.loc 10 247 11 is_stmt 0 view .LVU1607
	leaq	32(%rsp), %rdi
.LVL550:
.LEHB26:
	.loc 10 247 11 view .LVU1608
	call	_ZNSt7__cxx1112basic_stringIcSt11char_traitsIcESaIcEE12_M_constructIPcEEvT_S7_St20forward_iterator_tag
.LVL551:
.LEHE26:
	.loc 10 247 11 view .LVU1609
.LBE6902:
.LBE6901:
.LBE6900:
.LBE6899:
.LBE6880:
.LBE6879:
.LBE6878:
.LBE6877:
.LBB6903:
.LBI6903:
	.file 35 "/usr/include/c++/9/bits/predefined_ops.h"
	.loc 35 288 5 is_stmt 1 view .LVU1610
.LBB6904:
.LBB6905:
.LBI6905:
	.loc 8 68 61 view .LVU1611
.LBB6906:
.LBI6906:
	.loc 10 552 7 view .LVU1612
.LBB6907:
.LBB6908:
.LBB6909:
.LBI6909:
	.loc 10 286 7 view .LVU1613
	.loc 10 286 7 is_stmt 0 view .LVU1614
.LBE6909:
.LBB6910:
.LBI6910:
	.loc 19 99 5 is_stmt 1 view .LVU1615
	.loc 19 99 5 is_stmt 0 view .LVU1616
.LBE6910:
.LBB6911:
.LBI6911:
	.loc 10 190 7 is_stmt 1 view .LVU1617
	.loc 10 190 7 is_stmt 0 view .LVU1618
.LBE6911:
.LBB6912:
.LBI6912:
	.loc 10 159 2 is_stmt 1 view .LVU1619
.LBB6913:
.LBB6914:
.LBB6915:
.LBI6915:
	.loc 19 99 5 view .LVU1620
	.loc 19 99 5 is_stmt 0 view .LVU1621
.LBE6915:
.LBB6916:
.LBI6916:
	.loc 13 141 7 is_stmt 1 view .LVU1622
.LBB6917:
.LBI6917:
	.loc 12 83 7 view .LVU1623
	.loc 12 83 7 is_stmt 0 view .LVU1624
.LBE6917:
.LBE6916:
	.loc 10 160 46 view .LVU1625
	leaq	176(%rsp), %rax
.LVL552:
	.loc 10 160 46 view .LVU1626
	movq	%rax, 160(%rsp)
.LVL553:
	.loc 10 160 46 view .LVU1627
.LBE6914:
.LBE6913:
.LBE6912:
.LBB6918:
.LBI6918:
	.loc 10 221 7 is_stmt 1 view .LVU1628
.LBB6919:
.LBI6919:
	.loc 10 186 7 view .LVU1629
.LBB6920:
	.loc 10 187 28 is_stmt 0 view .LVU1630
	movq	32(%rsp), %rax
.LVL554:
	.loc 10 187 28 view .LVU1631
.LBE6920:
.LBE6919:
.LBB6921:
.LBI6921:
	.loc 10 200 7 is_stmt 1 view .LVU1632
	.loc 10 200 7 is_stmt 0 view .LVU1633
.LBE6921:
.LBE6918:
	.loc 10 555 2 view .LVU1634
	leaq	48(%rsp), %rdx
	cmpq	%rdx, %rax
	je	.L277
.LVL555:
.LBB6922:
.LBI6922:
	.loc 10 186 7 is_stmt 1 view .LVU1635
	.loc 10 186 7 is_stmt 0 view .LVU1636
.LBE6922:
.LBB6923:
.LBI6923:
	.loc 10 178 7 is_stmt 1 view .LVU1637
.LBB6924:
	.loc 10 179 9 is_stmt 0 view .LVU1638
	movq	%rax, 160(%rsp)
.LVL556:
	.loc 10 179 9 view .LVU1639
.LBE6924:
.LBE6923:
	.loc 10 563 6 view .LVU1640
	movq	48(%rsp), %rax
.LVL557:
.LBB6925:
.LBI6925:
	.loc 10 210 7 is_stmt 1 view .LVU1641
.LBB6926:
	.loc 10 211 9 is_stmt 0 view .LVU1642
	movq	%rax, 176(%rsp)
.LVL558:
.L225:
	.loc 10 211 9 view .LVU1643
.LBE6926:
.LBE6925:
.LBB6927:
.LBI6927:
	.loc 10 936 7 is_stmt 1 view .LVU1644
.LBB6928:
	.loc 10 937 16 is_stmt 0 view .LVU1645
	movq	40(%rsp), %rax
.LVL559:
	.loc 10 937 16 view .LVU1646
.LBE6928:
.LBE6927:
.LBB6929:
.LBI6929:
	.loc 10 182 7 is_stmt 1 view .LVU1647
.LBB6930:
	.loc 10 183 9 is_stmt 0 view .LVU1648
	movq	%rax, 168(%rsp)
.LVL560:
	.loc 10 183 9 view .LVU1649
.LBE6930:
.LBE6929:
.LBB6931:
.LBI6931:
	.loc 10 190 7 is_stmt 1 view .LVU1650
	.loc 10 190 7 is_stmt 0 view .LVU1651
.LBE6931:
.LBB6932:
.LBI6932:
	.loc 10 178 7 is_stmt 1 view .LVU1652
.LBB6933:
	.loc 10 179 9 is_stmt 0 view .LVU1653
	leaq	48(%rsp), %rax
	movq	%rax, 32(%rsp)
.LVL561:
	.loc 10 179 9 view .LVU1654
.LBE6933:
.LBE6932:
.LBB6934:
.LBI6934:
	.loc 10 214 7 is_stmt 1 view .LVU1655
.LBB6935:
.LBI6935:
	.loc 10 182 7 view .LVU1656
.LBB6936:
	.loc 10 183 9 is_stmt 0 view .LVU1657
	movq	$0, 40(%rsp)
.LVL562:
	.loc 10 183 9 view .LVU1658
.LBE6936:
.LBE6935:
.LBB6937:
.LBI6937:
	.loc 20 299 7 is_stmt 1 view .LVU1659
.LBB6938:
	.loc 20 300 9 view .LVU1660
	.loc 20 300 14 is_stmt 0 view .LVU1661
	movb	$0, 48(%rsp)
.LVL563:
	.loc 20 300 14 view .LVU1662
.LBE6938:
.LBE6937:
.LBE6934:
.LBE6908:
.LBE6907:
.LBE6906:
.LBE6905:
.LBB6943:
.LBI6943:
	.loc 35 276 7 is_stmt 1 view .LVU1663
.LBB6944:
.LBI6944:
	.loc 19 99 5 view .LVU1664
	.loc 19 99 5 is_stmt 0 view .LVU1665
.LBE6944:
.LBB6945:
.LBI6945:
	.loc 8 68 61 is_stmt 1 view .LVU1666
.LBB6946:
.LBI6946:
	.loc 10 552 7 view .LVU1667
.LBB6947:
.LBB6948:
.LBI6948:
	.loc 10 286 7 view .LVU1668
	.loc 10 286 7 is_stmt 0 view .LVU1669
.LBE6948:
.LBB6949:
.LBI6949:
	.loc 19 99 5 is_stmt 1 view .LVU1670
	.loc 19 99 5 is_stmt 0 view .LVU1671
.LBE6949:
.LBB6950:
.LBI6950:
	.loc 10 190 7 is_stmt 1 view .LVU1672
	.loc 10 190 7 is_stmt 0 view .LVU1673
.LBE6950:
.LBB6951:
.LBI6951:
	.loc 10 159 2 is_stmt 1 view .LVU1674
.LBB6952:
.LBB6953:
.LBI6953:
	.loc 19 99 5 view .LVU1675
	.loc 19 99 5 is_stmt 0 view .LVU1676
.LBE6953:
.LBB6954:
.LBI6954:
	.loc 13 141 7 is_stmt 1 view .LVU1677
.LBB6955:
.LBI6955:
	.loc 12 83 7 view .LVU1678
	.loc 12 83 7 is_stmt 0 view .LVU1679
.LBE6955:
.LBE6954:
	.loc 10 160 46 view .LVU1680
	leaq	80(%rsp), %rax
.LVL564:
	.loc 10 160 46 view .LVU1681
	movq	%rax, 64(%rsp)
.LVL565:
	.loc 10 160 46 view .LVU1682
.LBE6952:
.LBE6951:
.LBB6956:
.LBI6956:
	.loc 10 221 7 is_stmt 1 view .LVU1683
.LBB6957:
.LBI6957:
	.loc 10 186 7 view .LVU1684
.LBB6958:
	.loc 10 187 28 is_stmt 0 view .LVU1685
	movq	160(%rsp), %rax
.LVL566:
	.loc 10 187 28 view .LVU1686
.LBE6958:
.LBE6957:
.LBB6959:
.LBI6959:
	.loc 10 200 7 is_stmt 1 view .LVU1687
	.loc 10 200 7 is_stmt 0 view .LVU1688
.LBE6959:
.LBE6956:
	.loc 10 555 2 view .LVU1689
	leaq	176(%rsp), %rdx
	cmpq	%rdx, %rax
	je	.L278
.LVL567:
.LBB6960:
.LBI6960:
	.loc 10 186 7 is_stmt 1 view .LVU1690
	.loc 10 186 7 is_stmt 0 view .LVU1691
.LBE6960:
.LBB6961:
.LBI6961:
	.loc 10 178 7 is_stmt 1 view .LVU1692
.LBB6962:
	.loc 10 179 9 is_stmt 0 view .LVU1693
	movq	%rax, 64(%rsp)
.LVL568:
	.loc 10 179 9 view .LVU1694
.LBE6962:
.LBE6961:
	.loc 10 563 6 view .LVU1695
	movq	176(%rsp), %rax
.LVL569:
.LBB6963:
.LBI6963:
	.loc 10 210 7 is_stmt 1 view .LVU1696
.LBB6964:
	.loc 10 211 9 is_stmt 0 view .LVU1697
	movq	%rax, 80(%rsp)
.LVL570:
.L227:
	.loc 10 211 9 view .LVU1698
.LBE6964:
.LBE6963:
.LBB6965:
.LBI6965:
	.loc 10 936 7 is_stmt 1 view .LVU1699
.LBB6966:
	.loc 10 937 16 is_stmt 0 view .LVU1700
	movq	168(%rsp), %rdx
.LVL571:
	.loc 10 937 16 view .LVU1701
.LBE6966:
.LBE6965:
.LBB6967:
.LBI6967:
	.loc 10 182 7 is_stmt 1 view .LVU1702
.LBB6968:
	.loc 10 183 9 is_stmt 0 view .LVU1703
	movq	%rdx, 72(%rsp)
.LVL572:
	.loc 10 183 9 view .LVU1704
.LBE6968:
.LBE6967:
.LBB6969:
.LBI6969:
	.loc 10 190 7 is_stmt 1 view .LVU1705
	.loc 10 190 7 is_stmt 0 view .LVU1706
.LBE6969:
.LBB6970:
.LBI6970:
	.loc 10 178 7 is_stmt 1 view .LVU1707
	.loc 10 178 7 is_stmt 0 view .LVU1708
.LBE6970:
.LBB6971:
.LBI6971:
	.loc 10 214 7 is_stmt 1 view .LVU1709
	.loc 10 214 7 is_stmt 0 view .LVU1710
.LBE6971:
.LBE6947:
.LBE6946:
.LBE6945:
.LBE6943:
.LBE6904:
.LBE6903:
.LBE6876:
.LBE6875:
	.loc 20 300 9 is_stmt 1 view .LVU1711
.LBB7200:
.LBB7196:
.LBB6987:
.LBB6984:
.LBB6976:
.LBI6976:
	.loc 8 68 61 view .LVU1712
.LBB6977:
.LBI6977:
	.loc 10 657 7 view .LVU1713
.LBB6978:
.LBI6978:
	.loc 10 229 7 view .LVU1714
	.loc 10 229 7 is_stmt 0 view .LVU1715
.LBE6978:
.LBB6979:
.LBI6979:
	.loc 10 150 14 is_stmt 1 view .LVU1716
.LBB6980:
.LBI6980:
	.loc 13 153 7 view .LVU1717
.LBB6981:
.LBI6981:
	.loc 12 89 7 view .LVU1718
	.loc 12 89 7 is_stmt 0 view .LVU1719
.LBE6981:
.LBE6980:
.LBE6979:
.LBE6977:
.LBE6976:
.LBE6984:
.LBE6987:
.LBB6988:
.LBI6988:
	.loc 34 159 5 is_stmt 1 view .LVU1720
.LBB6989:
.LBB6990:
.LBI6990:
	.loc 35 271 12 view .LVU1721
.LBB6991:
.LBI6991:
	.loc 8 68 61 view .LVU1722
.LBB6992:
.LBI6992:
	.loc 10 448 7 view .LVU1723
.LBB6993:
.LBB6994:
.LBB6995:
.LBI6995:
	.loc 10 290 7 view .LVU1724
	.loc 10 290 7 is_stmt 0 view .LVU1725
.LBE6995:
.LBB6996:
.LBI6996:
	.loc 33 97 19 is_stmt 1 view .LVU1726
.LBB6997:
.LBI6997:
	.loc 11 514 7 view .LVU1727
.LBB6998:
.LBI6998:
	.loc 13 141 7 view .LVU1728
.LBB6999:
.LBI6999:
	.loc 12 83 7 view .LVU1729
	.loc 12 83 7 is_stmt 0 view .LVU1730
.LBE6999:
.LBE6998:
.LBE6997:
.LBE6996:
.LBB7000:
.LBI7000:
	.loc 10 190 7 is_stmt 1 view .LVU1731
	.loc 10 190 7 is_stmt 0 view .LVU1732
.LBE7000:
.LBB7001:
.LBI7001:
	.loc 10 159 2 is_stmt 1 view .LVU1733
.LBB7002:
.LBB7003:
.LBB7004:
.LBI7004:
	.loc 19 99 5 view .LVU1734
	.loc 19 99 5 is_stmt 0 view .LVU1735
.LBE7004:
.LBB7005:
.LBI7005:
	.loc 13 141 7 is_stmt 1 view .LVU1736
.LBB7006:
.LBI7006:
	.loc 12 83 7 view .LVU1737
	.loc 12 83 7 is_stmt 0 view .LVU1738
.LBE7006:
.LBE7005:
	.loc 10 160 46 view .LVU1739
	leaq	112(%rsp), %rax
.LVL573:
	.loc 10 160 46 view .LVU1740
	movq	%rax, 96(%rsp)
.LVL574:
	.loc 10 160 46 view .LVU1741
.LBE7003:
.LBE7002:
.LBE7001:
.LBB7007:
.LBI7007:
	.loc 13 153 7 is_stmt 1 view .LVU1742
.LBB7008:
.LBI7008:
	.loc 12 89 7 view .LVU1743
	.loc 12 89 7 is_stmt 0 view .LVU1744
.LBE7008:
.LBE7007:
.LBB7009:
.LBI7009:
	.loc 10 186 7 is_stmt 1 view .LVU1745
.LBB7010:
	.loc 10 187 28 is_stmt 0 view .LVU1746
	movq	64(%rsp), %rsi
.LVL575:
	.loc 10 187 28 view .LVU1747
.LBE7010:
.LBE7009:
.LBB7011:
.LBI7011:
	.loc 10 936 7 is_stmt 1 view .LVU1748
	.loc 10 936 7 is_stmt 0 view .LVU1749
.LBE7011:
	.loc 10 451 9 view .LVU1750
	addq	%rsi, %rdx
.LVL576:
.LBB7012:
.LBI7012:
	.loc 10 186 7 is_stmt 1 view .LVU1751
	.loc 10 186 7 is_stmt 0 view .LVU1752
.LBE7012:
.LBB7013:
.LBI7013:
	.loc 10 263 9 is_stmt 1 view .LVU1753
.LBB7014:
.LBB7015:
.LBI7015:
	.loc 10 243 9 view .LVU1754
.LBB7016:
	.loc 10 247 11 is_stmt 0 view .LVU1755
	leaq	96(%rsp), %rdi
.LVL577:
.LEHB27:
	.loc 10 247 11 view .LVU1756
	call	_ZNSt7__cxx1112basic_stringIcSt11char_traitsIcESaIcEE12_M_constructIPcEEvT_S7_St20forward_iterator_tag
.LVL578:
.LEHE27:
	.loc 10 247 11 view .LVU1757
	jmp	.L279
.LVL579:
.L277:
	.loc 10 247 11 view .LVU1758
.LBE7016:
.LBE7015:
.LBE7014:
.LBE7013:
.LBE6994:
.LBE6993:
.LBE6992:
.LBE6991:
.LBE6990:
.LBE6989:
.LBE6988:
.LBB7126:
.LBB6985:
.LBB6982:
.LBB6942:
.LBB6941:
.LBB6940:
.LBB6939:
.LBI6939:
	.loc 20 361 7 is_stmt 1 view .LVU1759
.LBE6939:
.LBE6940:
.LBE6941:
.LBE6942:
.LBE6982:
.LBE6985:
.LBE7126:
.LBE7196:
.LBE7200:
	.loc 20 363 2 view .LVU1760
	.loc 20 365 2 view .LVU1761
	movdqa	48(%rsp), %xmm0
	movaps	%xmm0, 176(%rsp)
	jmp	.L225
.LVL580:
.L278:
.LBB7201:
.LBB7197:
.LBB7127:
.LBB6986:
.LBB6983:
.LBB6975:
.LBB6974:
.LBB6973:
.LBB6972:
.LBI6972:
	.loc 20 361 7 view .LVU1762
.LBE6972:
.LBE6973:
.LBE6974:
.LBE6975:
.LBE6983:
.LBE6986:
.LBE7127:
.LBE7197:
.LBE7201:
	.loc 20 363 2 view .LVU1763
	.loc 20 365 2 view .LVU1764
	movdqa	176(%rsp), %xmm1
	movaps	%xmm1, 80(%rsp)
	jmp	.L227
.LVL581:
.L279:
	.loc 20 365 2 is_stmt 0 view .LVU1765
	movl	$0, %r14d
.LVL582:
.LBB7202:
.LBB7198:
.LBB7128:
.LBB7124:
.LBB7017:
.LBI7017:
	.loc 34 101 5 is_stmt 1 view .LVU1766
	jmp	.L236
.LVL583:
.L281:
.LBB7018:
.LBB7019:
.LBB7020:
.LBB7021:
.LBI7021:
	.loc 8 68 59 view .LVU1767
.LBB7022:
	.loc 8 70 4 view .LVU1768
	.loc 8 70 20 is_stmt 0 view .LVU1769
	leaq	160(%rsp), %rsi
.LVL584:
	.loc 8 70 20 view .LVU1770
	leaq	128(%rsp), %rdi
.LEHB28:
	call	_ZNK3mpp6Header7getNameB5cxx11Ev
.LVL585:
.LEHE28:
.LBB7023:
.LBI7023:
	.loc 10 6149 5 is_stmt 1 view .LVU1771
.LBB7024:
.LBB7025:
.LBI7025:
	.loc 10 930 7 view .LVU1772
.LBB7026:
	.loc 10 931 16 is_stmt 0 view .LVU1773
	movq	136(%rsp), %rdx
.LVL586:
	.loc 10 931 16 view .LVU1774
.LBE7026:
.LBE7025:
.LBB7027:
.LBI7027:
	.loc 10 930 7 is_stmt 1 view .LVU1775
	.loc 10 930 7 is_stmt 0 view .LVU1776
.LBE7027:
	.loc 10 6152 8 view .LVU1777
	cmpq	104(%rsp), %rdx
	je	.L280
	movl	$0, %r12d
.L229:
.LVL587:
	.loc 10 6152 8 view .LVU1778
.LBE7024:
.LBE7023:
.LBB7037:
.LBI7037:
	.loc 10 657 7 is_stmt 1 view .LVU1779
.LBB7038:
.LBI7038:
	.loc 10 229 7 view .LVU1780
.LBB7039:
.LBB7040:
.LBI7040:
	.loc 10 221 7 view .LVU1781
.LBB7041:
.LBI7041:
	.loc 10 186 7 view .LVU1782
.LBB7042:
	.loc 10 187 28 is_stmt 0 view .LVU1783
	movq	128(%rsp), %rdi
.LVL588:
	.loc 10 187 28 view .LVU1784
.LBE7042:
.LBE7041:
.LBB7043:
.LBI7043:
	.loc 10 200 7 is_stmt 1 view .LVU1785
	.loc 10 200 7 is_stmt 0 view .LVU1786
.LBE7043:
.LBE7040:
	.loc 10 231 2 view .LVU1787
	leaq	144(%rsp), %rax
	cmpq	%rax, %rdi
	je	.L230
.LVL589:
.LBB7044:
.LBI7044:
	.loc 10 236 7 is_stmt 1 view .LVU1788
.LBB7045:
.LBB7046:
.LBI7046:
	.loc 11 469 7 view .LVU1789
.LBB7047:
.LBI7047:
	.loc 12 119 7 view .LVU1790
.LBB7048:
	.loc 12 128 19 is_stmt 0 view .LVU1791
	call	_ZdlPv
.LVL590:
.L230:
	.loc 12 128 19 view .LVU1792
.LBE7048:
.LBE7047:
.LBE7046:
.LBE7045:
.LBE7044:
.LBE7039:
.LBE7038:
.LBB7049:
.LBI7049:
	.loc 10 150 14 is_stmt 1 view .LVU1793
.LBB7050:
.LBI7050:
	.loc 13 153 7 view .LVU1794
.LBB7051:
.LBI7051:
	.loc 12 89 7 view .LVU1795
	.loc 12 89 7 is_stmt 0 view .LVU1796
.LBE7051:
.LBE7050:
.LBE7049:
.LBE7037:
.LBE7022:
.LBE7021:
.LBB7054:
.LBI7054:
	.loc 9 12 8 is_stmt 1 view .LVU1797
.LBB7055:
.LBB7056:
.LBI7056:
	.loc 1 230 5 view .LVU1798
.LBB7057:
	.loc 1 230 14 view .LVU1799
.LBB7058:
.LBI7058:
	.loc 1 300 10 view .LVU1800
.LBB7059:
	.loc 1 302 7 view .LVU1801
.LBB7060:
.LBI7060:
	.loc 1 342 10 view .LVU1802
.LBB7061:
	.loc 1 342 39 view .LVU1803
	.loc 1 342 46 is_stmt 0 view .LVU1804
	movq	192(%rsp), %rax
.LVL591:
	.loc 1 342 46 view .LVU1805
.LBE7061:
.LBE7060:
	.loc 1 302 7 view .LVU1806
	testq	%rax, %rax
	je	.L231
	.loc 1 304 2 is_stmt 1 view .LVU1807
	.loc 1 304 12 is_stmt 0 view .LVU1808
	movl	$0, %edx
	leaq	192(%rsp), %rsi
.LVL592:
	.loc 1 304 12 view .LVU1809
	movl	$3, %edi
	call	*%rax
.LVL593:
	.loc 1 305 2 is_stmt 1 view .LVU1810
.L231:
	.loc 1 305 2 is_stmt 0 view .LVU1811
.LBE7059:
.LBE7058:
.LBE7057:
.LBE7056:
.LBB7062:
.LBI7062:
	.loc 10 657 7 is_stmt 1 view .LVU1812
.LBB7063:
.LBI7063:
	.loc 10 229 7 view .LVU1813
.LBB7064:
.LBB7065:
.LBI7065:
	.loc 10 221 7 view .LVU1814
.LBB7066:
.LBI7066:
	.loc 10 186 7 view .LVU1815
.LBB7067:
	.loc 10 187 28 is_stmt 0 view .LVU1816
	movq	160(%rsp), %rdi
.LVL594:
	.loc 10 187 28 view .LVU1817
.LBE7067:
.LBE7066:
.LBB7068:
.LBI7068:
	.loc 10 200 7 is_stmt 1 view .LVU1818
	.loc 10 200 7 is_stmt 0 view .LVU1819
.LBE7068:
.LBE7065:
	.loc 10 231 2 view .LVU1820
	leaq	176(%rsp), %rax
	cmpq	%rax, %rdi
	je	.L232
.LVL595:
.LBB7069:
.LBI7069:
	.loc 10 236 7 is_stmt 1 view .LVU1821
.LBB7070:
.LBB7071:
.LBI7071:
	.loc 11 469 7 view .LVU1822
.LBB7072:
.LBI7072:
	.loc 12 119 7 view .LVU1823
.LBB7073:
	.loc 12 128 19 is_stmt 0 view .LVU1824
	call	_ZdlPv
.LVL596:
.L232:
	.loc 12 128 19 view .LVU1825
.LBE7073:
.LBE7072:
.LBE7071:
.LBE7070:
.LBE7069:
.LBE7064:
.LBE7063:
.LBB7074:
.LBI7074:
	.loc 10 150 14 is_stmt 1 view .LVU1826
.LBB7075:
.LBI7075:
	.loc 13 153 7 view .LVU1827
.LBB7076:
.LBI7076:
	.loc 12 89 7 view .LVU1828
	.loc 12 89 7 is_stmt 0 view .LVU1829
.LBE7076:
.LBE7075:
.LBE7074:
.LBE7062:
.LBE7055:
.LBE7054:
.LBE7020:
.LBE7019:
	.loc 34 104 32 view .LVU1830
	testb	%r12b, %r12b
	jne	.L228
.LVL597:
.LBB7085:
.LBI7085:
	.loc 23 240 7 is_stmt 1 view .LVU1831
.LBB7086:
	.loc 23 242 21 is_stmt 0 view .LVU1832
	movq	(%r15), %rbx
.LVL598:
.L236:
	.loc 23 242 21 view .LVU1833
.LBE7086:
.LBE7085:
	.loc 34 104 32 is_stmt 1 view .LVU1834
.LBB7087:
.LBI7087:
	.loc 23 265 7 view .LVU1835
.LBB7088:
	.loc 23 266 20 is_stmt 0 view .LVU1836
	movq	%rbx, %r15
.LVL599:
	.loc 23 266 20 view .LVU1837
.LBE7088:
.LBE7087:
	.loc 34 104 32 view .LVU1838
	cmpq	%r14, %rbx
	je	.L228
.LVL600:
.LBB7089:
.LBI7019:
	.loc 35 282 2 is_stmt 1 view .LVU1839
.LBB7084:
.LBB7077:
.LBI7077:
	.loc 23 232 7 view .LVU1840
.LBB7078:
.LBB7079:
.LBI7079:
	.loc 23 125 7 view .LVU1841
.LBB7080:
.LBI7080:
	.loc 24 118 7 view .LVU1842
.LBB7081:
.LBI7081:
	.loc 24 108 7 view .LVU1843
.LBB7082:
	.loc 24 110 52 is_stmt 0 view .LVU1844
	leaq	8(%rbx), %rsi
.LVL601:
	.loc 24 110 52 view .LVU1845
.LBE7082:
.LBE7081:
.LBE7080:
.LBE7079:
.LBE7078:
.LBE7077:
	.loc 35 283 11 view .LVU1846
	leaq	160(%rsp), %rdi
.LEHB29:
	call	_ZN3mpp6HeaderC1ERKS0_
.LVL602:
.LEHE29:
	jmp	.L281
.LVL603:
.L280:
.LBB7083:
.LBB7053:
.LBB7052:
.LBB7036:
.LBB7028:
.LBI7028:
	.loc 10 2312 7 is_stmt 1 view .LVU1847
.LBB7029:
.LBI7029:
	.loc 10 186 7 view .LVU1848
.LBB7030:
	.loc 10 187 28 is_stmt 0 view .LVU1849
	movq	96(%rsp), %rsi
.LVL604:
	.loc 10 187 28 view .LVU1850
.LBE7030:
.LBE7029:
.LBE7028:
.LBB7031:
.LBI7031:
	.loc 10 2312 7 is_stmt 1 view .LVU1851
.LBB7032:
.LBI7032:
	.loc 10 186 7 view .LVU1852
.LBB7033:
	.loc 10 187 28 is_stmt 0 view .LVU1853
	movq	128(%rsp), %rdi
.LVL605:
	.loc 10 187 28 view .LVU1854
.LBE7033:
.LBE7032:
.LBE7031:
.LBB7034:
.LBI7034:
	.loc 20 315 7 is_stmt 1 view .LVU1855
.LBB7035:
	.loc 20 317 2 view .LVU1856
	testq	%rdx, %rdx
	je	.L262
	.loc 20 320 2 view .LVU1857
	.loc 20 325 2 view .LVU1858
	.loc 20 325 25 is_stmt 0 view .LVU1859
	call	memcmp
.LVL606:
	.loc 20 325 25 view .LVU1860
.LBE7035:
.LBE7034:
	.loc 10 6152 8 view .LVU1861
	testl	%eax, %eax
	jne	.L263
	movl	$1, %r12d
	jmp	.L229
.LVL607:
.L262:
	.loc 10 6152 8 view .LVU1862
	movl	$1, %r12d
	jmp	.L229
.LVL608:
.L263:
	.loc 10 6152 8 view .LVU1863
	movl	$0, %r12d
	jmp	.L229
.LVL609:
.L270:
	.loc 10 6152 8 view .LVU1864
	movq	%rax, %rbx
.LVL610:
	.loc 10 6152 8 view .LVU1865
.LBE7036:
.LBE7052:
.LBE7053:
.LBE7083:
	.loc 35 283 11 view .LVU1866
	leaq	160(%rsp), %rdi
.LVL611:
	.loc 35 283 11 view .LVU1867
	call	_ZN3mpp6HeaderD1Ev
.LVL612:
.L235:
	.loc 35 283 11 view .LVU1868
.LBE7084:
.LBE7089:
.LBE7018:
.LBE7017:
.LBB7090:
.LBI7090:
	.loc 35 271 12 is_stmt 1 view .LVU1869
.LBB7091:
.LBI7091:
	.loc 8 68 61 view .LVU1870
.LBB7092:
.LBI7092:
	.loc 10 657 7 view .LVU1871
.LBB7093:
.LBI7093:
	.loc 10 229 7 view .LVU1872
.LBB7094:
.LBB7095:
.LBI7095:
	.loc 10 221 7 view .LVU1873
.LBB7096:
.LBI7096:
	.loc 10 186 7 view .LVU1874
.LBB7097:
	.loc 10 187 28 is_stmt 0 view .LVU1875
	movq	96(%rsp), %rdi
.LVL613:
	.loc 10 187 28 view .LVU1876
.LBE7097:
.LBE7096:
.LBB7098:
.LBI7098:
	.loc 10 200 7 is_stmt 1 view .LVU1877
	.loc 10 200 7 is_stmt 0 view .LVU1878
.LBE7098:
.LBE7095:
	.loc 10 231 2 view .LVU1879
	leaq	112(%rsp), %rax
	cmpq	%rax, %rdi
	je	.L241
.LVL614:
.LBB7099:
.LBI7099:
	.loc 10 236 7 is_stmt 1 view .LVU1880
.LBB7100:
.LBB7101:
.LBI7101:
	.loc 11 469 7 view .LVU1881
.LBB7102:
.LBI7102:
	.loc 12 119 7 view .LVU1882
.LBB7103:
	.loc 12 128 19 is_stmt 0 view .LVU1883
	call	_ZdlPv
.LVL615:
	.loc 12 128 19 view .LVU1884
.LBE7103:
.LBE7102:
.LBE7101:
.LBE7100:
.LBE7099:
.LBE7094:
.LBE7093:
.LBB7104:
.LBI7104:
	.loc 10 150 14 is_stmt 1 view .LVU1885
.LBB7105:
.LBI7105:
	.loc 13 153 7 view .LVU1886
.LBB7106:
.LBI7106:
	.loc 12 89 7 view .LVU1887
.L241:
	.loc 12 89 7 is_stmt 0 view .LVU1888
.LBE7106:
.LBE7105:
.LBE7104:
.LBE7092:
.LBE7091:
.LBE7090:
.LBE7124:
.LBE7128:
.LBB7129:
.LBI7129:
	.loc 35 271 12 is_stmt 1 view .LVU1889
.LBB7130:
.LBI7130:
	.loc 8 68 61 view .LVU1890
.LBB7131:
.LBI7131:
	.loc 10 657 7 view .LVU1891
.LBB7132:
.LBI7132:
	.loc 10 229 7 view .LVU1892
.LBB7133:
.LBB7134:
.LBI7134:
	.loc 10 221 7 view .LVU1893
.LBB7135:
.LBI7135:
	.loc 10 186 7 view .LVU1894
.LBB7136:
	.loc 10 187 28 is_stmt 0 view .LVU1895
	movq	64(%rsp), %rdi
.LVL616:
	.loc 10 187 28 view .LVU1896
.LBE7136:
.LBE7135:
.LBB7137:
.LBI7137:
	.loc 10 200 7 is_stmt 1 view .LVU1897
	.loc 10 200 7 is_stmt 0 view .LVU1898
.LBE7137:
.LBE7134:
	.loc 10 231 2 view .LVU1899
	leaq	80(%rsp), %rax
	cmpq	%rax, %rdi
	je	.L245
.LVL617:
.LBB7138:
.LBI7138:
	.loc 10 236 7 is_stmt 1 view .LVU1900
.LBB7139:
.LBB7140:
.LBI7140:
	.loc 11 469 7 view .LVU1901
.LBB7141:
.LBI7141:
	.loc 12 119 7 view .LVU1902
.LBB7142:
	.loc 12 128 19 is_stmt 0 view .LVU1903
	call	_ZdlPv
.LVL618:
.L245:
	.loc 12 128 19 view .LVU1904
.LBE7142:
.LBE7141:
.LBE7140:
.LBE7139:
.LBE7138:
.LBE7133:
.LBE7132:
.LBB7143:
.LBI7143:
	.loc 10 150 14 is_stmt 1 view .LVU1905
.LBB7144:
.LBI7144:
	.loc 13 153 7 view .LVU1906
.LBB7145:
.LBI7145:
	.loc 12 89 7 view .LVU1907
	.loc 12 89 7 is_stmt 0 view .LVU1908
.LBE7145:
.LBE7144:
.LBE7143:
.LBE7131:
.LBE7130:
.LBE7129:
.LBB7146:
.LBI7146:
	.loc 8 68 61 is_stmt 1 view .LVU1909
.LBB7147:
.LBI7147:
	.loc 10 657 7 view .LVU1910
.LBB7148:
.LBI7148:
	.loc 10 229 7 view .LVU1911
.LBB7149:
.LBB7150:
.LBI7150:
	.loc 10 221 7 view .LVU1912
.LBB7151:
.LBI7151:
	.loc 10 186 7 view .LVU1913
.LBB7152:
	.loc 10 187 28 is_stmt 0 view .LVU1914
	movq	32(%rsp), %rdi
.LVL619:
	.loc 10 187 28 view .LVU1915
.LBE7152:
.LBE7151:
.LBB7153:
.LBI7153:
	.loc 10 200 7 is_stmt 1 view .LVU1916
	.loc 10 200 7 is_stmt 0 view .LVU1917
.LBE7153:
.LBE7150:
	.loc 10 231 2 view .LVU1918
	leaq	48(%rsp), %rax
	cmpq	%rax, %rdi
	je	.L247
.LVL620:
.LBB7154:
.LBI7154:
	.loc 10 236 7 is_stmt 1 view .LVU1919
.LBB7155:
.LBB7156:
.LBI7156:
	.loc 11 469 7 view .LVU1920
.LBB7157:
.LBI7157:
	.loc 12 119 7 view .LVU1921
.LBB7158:
	.loc 12 128 19 is_stmt 0 view .LVU1922
	call	_ZdlPv
.LVL621:
	.loc 12 128 19 view .LVU1923
.LBE7158:
.LBE7157:
.LBE7156:
.LBE7155:
.LBE7154:
.LBE7149:
.LBE7148:
.LBB7159:
.LBI7159:
	.loc 10 150 14 is_stmt 1 view .LVU1924
.LBB7160:
.LBI7160:
	.loc 13 153 7 view .LVU1925
.LBB7161:
.LBI7161:
	.loc 12 89 7 view .LVU1926
.L247:
	.loc 12 89 7 is_stmt 0 view .LVU1927
.LBE7161:
.LBE7160:
.LBE7159:
.LBE7147:
.LBE7146:
.LBE7198:
.LBE7202:
.LBB7203:
.LBI7203:
	.loc 8 68 61 is_stmt 1 discriminator 2 view .LVU1928
.LBB7204:
.LBI7204:
	.loc 10 657 7 discriminator 2 view .LVU1929
.LBB7205:
.LBI7205:
	.loc 10 229 7 discriminator 2 view .LVU1930
.LBB7206:
.LBB7207:
.LBI7207:
	.loc 10 221 7 discriminator 2 view .LVU1931
.LBB7208:
.LBI7208:
	.loc 10 186 7 discriminator 2 view .LVU1932
.LBB7209:
	.loc 10 187 28 is_stmt 0 discriminator 2 view .LVU1933
	movq	(%rsp), %rdi
.LVL622:
	.loc 10 187 28 discriminator 2 view .LVU1934
.LBE7209:
.LBE7208:
.LBB7210:
.LBI7210:
	.loc 10 200 7 is_stmt 1 discriminator 2 view .LVU1935
	.loc 10 200 7 is_stmt 0 discriminator 2 view .LVU1936
.LBE7210:
.LBE7207:
	.loc 10 231 2 discriminator 2 view .LVU1937
	leaq	16(%rsp), %rax
	cmpq	%rax, %rdi
	je	.L256
.LVL623:
.LBB7211:
.LBI7211:
	.loc 10 236 7 is_stmt 1 view .LVU1938
.LBB7212:
.LBB7213:
.LBI7213:
	.loc 11 469 7 view .LVU1939
.LBB7214:
.LBI7214:
	.loc 12 119 7 view .LVU1940
.LBB7215:
	.loc 12 128 19 is_stmt 0 view .LVU1941
	call	_ZdlPv
.LVL624:
.L256:
	.loc 12 128 19 view .LVU1942
.LBE7215:
.LBE7214:
.LBE7213:
.LBE7212:
.LBE7211:
.LBE7206:
.LBE7205:
.LBB7216:
.LBI7216:
	.loc 10 150 14 is_stmt 1 view .LVU1943
.LBB7217:
.LBI7217:
	.loc 13 153 7 view .LVU1944
.LBB7218:
.LBI7218:
	.loc 12 89 7 view .LVU1945
	.loc 12 89 7 is_stmt 0 view .LVU1946
	movq	%rbx, %rdi
.LEHB30:
	call	_Unwind_Resume
.LVL625:
.L228:
	.loc 12 89 7 view .LVU1947
.LBE7218:
.LBE7217:
.LBE7216:
.LBE7204:
.LBE7203:
.LBB7219:
.LBB7199:
.LBB7162:
.LBB7125:
.LBB7107:
.LBI7107:
	.loc 35 271 12 is_stmt 1 view .LVU1948
.LBB7108:
.LBI7108:
	.loc 8 68 61 view .LVU1949
.LBB7109:
.LBI7109:
	.loc 10 657 7 view .LVU1950
.LBB7110:
.LBI7110:
	.loc 10 229 7 view .LVU1951
.LBB7111:
.LBB7112:
.LBI7112:
	.loc 10 221 7 view .LVU1952
.LBB7113:
.LBI7113:
	.loc 10 186 7 view .LVU1953
.LBB7114:
	.loc 10 187 28 is_stmt 0 view .LVU1954
	movq	96(%rsp), %rdi
.LVL626:
	.loc 10 187 28 view .LVU1955
.LBE7114:
.LBE7113:
.LBB7115:
.LBI7115:
	.loc 10 200 7 is_stmt 1 view .LVU1956
	.loc 10 200 7 is_stmt 0 view .LVU1957
.LBE7115:
.LBE7112:
	.loc 10 231 2 view .LVU1958
	leaq	112(%rsp), %rax
	cmpq	%rax, %rdi
	je	.L237
.LVL627:
.LBB7116:
.LBI7116:
	.loc 10 236 7 is_stmt 1 view .LVU1959
.LBB7117:
.LBB7118:
.LBI7118:
	.loc 11 469 7 view .LVU1960
.LBB7119:
.LBI7119:
	.loc 12 119 7 view .LVU1961
.LBB7120:
	.loc 12 128 19 is_stmt 0 view .LVU1962
	call	_ZdlPv
.LVL628:
.L237:
	.loc 12 128 19 view .LVU1963
.LBE7120:
.LBE7119:
.LBE7118:
.LBE7117:
.LBE7116:
.LBE7111:
.LBE7110:
.LBB7121:
.LBI7121:
	.loc 10 150 14 is_stmt 1 view .LVU1964
.LBB7122:
.LBI7122:
	.loc 13 153 7 view .LVU1965
.LBB7123:
.LBI7123:
	.loc 12 89 7 view .LVU1966
	.loc 12 89 7 is_stmt 0 view .LVU1967
.LBE7123:
.LBE7122:
.LBE7121:
.LBE7109:
.LBE7108:
.LBE7107:
.LBE7125:
.LBE7162:
.LBB7163:
.LBI7163:
	.loc 35 271 12 is_stmt 1 view .LVU1968
.LBB7164:
.LBI7164:
	.loc 8 68 61 view .LVU1969
.LBB7165:
.LBI7165:
	.loc 10 657 7 view .LVU1970
.LBB7166:
.LBI7166:
	.loc 10 229 7 view .LVU1971
.LBB7167:
.LBB7168:
.LBI7168:
	.loc 10 221 7 view .LVU1972
.LBB7169:
.LBI7169:
	.loc 10 186 7 view .LVU1973
.LBB7170:
	.loc 10 187 28 is_stmt 0 view .LVU1974
	movq	64(%rsp), %rdi
.LVL629:
	.loc 10 187 28 view .LVU1975
.LBE7170:
.LBE7169:
.LBB7171:
.LBI7171:
	.loc 10 200 7 is_stmt 1 view .LVU1976
	.loc 10 200 7 is_stmt 0 view .LVU1977
.LBE7171:
.LBE7168:
	.loc 10 231 2 view .LVU1978
	leaq	80(%rsp), %rax
	cmpq	%rax, %rdi
	je	.L239
.LVL630:
.LBB7172:
.LBI7172:
	.loc 10 236 7 is_stmt 1 view .LVU1979
.LBB7173:
.LBB7174:
.LBI7174:
	.loc 11 469 7 view .LVU1980
.LBB7175:
.LBI7175:
	.loc 12 119 7 view .LVU1981
.LBB7176:
	.loc 12 128 19 is_stmt 0 view .LVU1982
	call	_ZdlPv
.LVL631:
.L239:
	.loc 12 128 19 view .LVU1983
.LBE7176:
.LBE7175:
.LBE7174:
.LBE7173:
.LBE7172:
.LBE7167:
.LBE7166:
.LBB7177:
.LBI7177:
	.loc 10 150 14 is_stmt 1 view .LVU1984
.LBB7178:
.LBI7178:
	.loc 13 153 7 view .LVU1985
.LBB7179:
.LBI7179:
	.loc 12 89 7 view .LVU1986
	.loc 12 89 7 is_stmt 0 view .LVU1987
.LBE7179:
.LBE7178:
.LBE7177:
.LBE7165:
.LBE7164:
.LBE7163:
.LBB7180:
.LBI7180:
	.loc 8 68 61 is_stmt 1 view .LVU1988
.LBB7181:
.LBI7181:
	.loc 10 657 7 view .LVU1989
.LBB7182:
.LBI7182:
	.loc 10 229 7 view .LVU1990
.LBB7183:
.LBB7184:
.LBI7184:
	.loc 10 221 7 view .LVU1991
.LBB7185:
.LBI7185:
	.loc 10 186 7 view .LVU1992
.LBB7186:
	.loc 10 187 28 is_stmt 0 view .LVU1993
	movq	32(%rsp), %rdi
.LVL632:
	.loc 10 187 28 view .LVU1994
.LBE7186:
.LBE7185:
.LBB7187:
.LBI7187:
	.loc 10 200 7 is_stmt 1 view .LVU1995
	.loc 10 200 7 is_stmt 0 view .LVU1996
.LBE7187:
.LBE7184:
	.loc 10 231 2 view .LVU1997
	leaq	48(%rsp), %rax
	cmpq	%rax, %rdi
	je	.L242
.LVL633:
.LBB7188:
.LBI7188:
	.loc 10 236 7 is_stmt 1 view .LVU1998
.LBB7189:
.LBB7190:
.LBI7190:
	.loc 11 469 7 view .LVU1999
.LBB7191:
.LBI7191:
	.loc 12 119 7 view .LVU2000
.LBB7192:
	.loc 12 128 19 is_stmt 0 view .LVU2001
	call	_ZdlPv
.LVL634:
.L242:
	.loc 12 128 19 view .LVU2002
.LBE7192:
.LBE7191:
.LBE7190:
.LBE7189:
.LBE7188:
.LBE7183:
.LBE7182:
.LBB7193:
.LBI7193:
	.loc 10 150 14 is_stmt 1 view .LVU2003
.LBB7194:
.LBI7194:
	.loc 13 153 7 view .LVU2004
.LBB7195:
.LBI7195:
	.loc 12 89 7 view .LVU2005
	.loc 12 89 7 is_stmt 0 view .LVU2006
.LBE7195:
.LBE7194:
.LBE7193:
.LBE7181:
.LBE7180:
.LBE7199:
.LBE7219:
.LBB7220:
.LBI7220:
	.loc 8 68 61 is_stmt 1 view .LVU2007
.LBB7221:
.LBI7221:
	.loc 10 657 7 view .LVU2008
.LBB7222:
.LBI7222:
	.loc 10 229 7 view .LVU2009
.LBB7223:
.LBB7224:
.LBI7224:
	.loc 10 221 7 view .LVU2010
.LBB7225:
.LBI7225:
	.loc 10 186 7 view .LVU2011
.LBB7226:
	.loc 10 187 28 is_stmt 0 view .LVU2012
	movq	(%rsp), %rdi
.LVL635:
	.loc 10 187 28 view .LVU2013
.LBE7226:
.LBE7225:
.LBB7227:
.LBI7227:
	.loc 10 200 7 is_stmt 1 view .LVU2014
	.loc 10 200 7 is_stmt 0 view .LVU2015
.LBE7227:
.LBE7224:
	.loc 10 231 2 view .LVU2016
	leaq	16(%rsp), %rax
	cmpq	%rax, %rdi
	je	.L244
.LVL636:
.LBB7228:
.LBI7228:
	.loc 10 236 7 is_stmt 1 view .LVU2017
.LBB7229:
.LBB7230:
.LBI7230:
	.loc 11 469 7 view .LVU2018
.LBB7231:
.LBI7231:
	.loc 12 119 7 view .LVU2019
.LBB7232:
	.loc 12 128 19 is_stmt 0 view .LVU2020
	call	_ZdlPv
.LVL637:
.L244:
	.loc 12 128 19 view .LVU2021
.LBE7232:
.LBE7231:
.LBE7230:
.LBE7229:
.LBE7228:
.LBE7223:
.LBE7222:
.LBB7233:
.LBI7233:
	.loc 10 150 14 is_stmt 1 view .LVU2022
.LBB7234:
.LBI7234:
	.loc 13 153 7 view .LVU2023
.LBB7235:
.LBI7235:
	.loc 12 89 7 view .LVU2024
	.loc 12 89 7 is_stmt 0 view .LVU2025
.LBE7235:
.LBE7234:
.LBE7233:
.LBE7221:
.LBE7220:
	.loc 8 74 2 is_stmt 1 view .LVU2026
.LBB7236:
.LBB7237:
.LBI7237:
	.loc 23 770 7 view .LVU2027
.LBB7238:
.LBI7238:
	.loc 23 225 7 view .LVU2028
	.loc 23 225 7 is_stmt 0 view .LVU2029
.LBE7238:
.LBE7237:
.LBB7239:
.LBI7239:
	.loc 23 258 7 is_stmt 1 view .LVU2030
	.loc 23 258 7 is_stmt 0 view .LVU2031
.LBE7239:
	.loc 8 74 2 view .LVU2032
	testq	%rbx, %rbx
	je	.L282
	.loc 8 83 3 is_stmt 1 view .LVU2033
.LVL638:
.LBB7240:
.LBI7240:
	.loc 23 232 7 view .LVU2034
.LBB7241:
.LBI7241:
	.loc 23 125 7 view .LVU2035
.LBB7242:
.LBI7242:
	.loc 24 118 7 view .LVU2036
.LBB7243:
.LBI7243:
	.loc 24 108 7 view .LVU2037
.LBB7244:
	.loc 24 110 52 is_stmt 0 view .LVU2038
	leaq	8(%rbx), %rsi
.LVL639:
	.loc 24 110 52 view .LVU2039
.LBE7244:
.LBE7243:
.LBE7242:
.LBE7241:
.LBE7240:
	.loc 8 83 11 view .LVU2040
	movq	%r13, %rdi
	call	_ZN3mpp6HeaderC1ERKS0_
.LVL640:
.LEHE30:
.LBE7236:
	.loc 8 85 1 view .LVU2041
	movq	%r13, %rax
	addq	$552, %rsp
	.cfi_remember_state
	.cfi_def_cfa_offset 56
	popq	%rbx
	.cfi_def_cfa_offset 48
	popq	%rbp
	.cfi_def_cfa_offset 40
.LVL641:
	.loc 8 85 1 view .LVU2042
	popq	%r12
	.cfi_def_cfa_offset 32
	popq	%r13
	.cfi_def_cfa_offset 24
.LVL642:
	.loc 8 85 1 view .LVU2043
	popq	%r14
	.cfi_def_cfa_offset 16
.LVL643:
	.loc 8 85 1 view .LVU2044
	popq	%r15
	.cfi_def_cfa_offset 8
	ret
.LVL644:
.L269:
	.cfi_restore_state
	.loc 8 85 1 view .LVU2045
	movq	%rax, %rbx
.LVL645:
	.loc 8 85 1 view .LVU2046
	jmp	.L235
.LVL646:
.L268:
	.loc 8 85 1 view .LVU2047
	movq	%rax, %rbx
	jmp	.L241
.LVL647:
.L282:
.LBB7347:
.LBB7245:
	.loc 8 76 3 is_stmt 1 view .LVU2048
.LBB7246:
.LBI7246:
	.loc 14 583 7 view .LVU2049
.LBB7247:
.LBB7248:
.LBB7249:
.LBI7249:
	.loc 17 460 7 view .LVU2050
.LBB7250:
.LBB7251:
	.loc 17 462 59 is_stmt 0 view .LVU2051
	leaq	272(%rsp), %rdi
.LVL648:
	.loc 17 462 59 view .LVU2052
	call	_ZNSt8ios_baseC2Ev
.LVL649:
	.loc 17 462 59 view .LVU2053
	movq	$_ZTVSt9basic_iosIcSt11char_traitsIcEE+16, 272(%rsp)
	movq	$0, 488(%rsp)
	movb	$0, 496(%rsp)
	movb	$0, 497(%rsp)
	movq	$0, 504(%rsp)
	movq	$0, 512(%rsp)
	movq	$0, 520(%rsp)
	movq	$0, 528(%rsp)
.LVL650:
	.loc 17 462 59 view .LVU2054
.LBE7251:
.LBE7250:
.LBE7249:
.LBB7252:
.LBI7252:
	.loc 18 390 7 is_stmt 1 view .LVU2055
.LBB7253:
.LBB7254:
	.loc 18 391 7 is_stmt 0 view .LVU2056
	movq	_ZTTNSt7__cxx1119basic_ostringstreamIcSt11char_traitsIcESaIcEEE+8(%rip), %rbx
.LVL651:
	.loc 18 391 7 view .LVU2057
	movq	%rbx, 160(%rsp)
	movq	_ZTTNSt7__cxx1119basic_ostringstreamIcSt11char_traitsIcESaIcEEE+16(%rip), %r12
	movq	-24(%rbx), %rax
	movq	%r12, 160(%rsp,%rax)
	.loc 18 391 9 view .LVU2058
	movq	160(%rsp), %rax
	leaq	160(%rsp), %rdi
.LVL652:
	.loc 18 391 9 view .LVU2059
	addq	-24(%rax), %rdi
.LVL653:
	.loc 18 391 9 view .LVU2060
	movl	$0, %esi
.LEHB31:
	call	_ZNSt9basic_iosIcSt11char_traitsIcEE4initEPSt15basic_streambufIcS1_E
.LVL654:
.LEHE31:
	.loc 18 391 9 view .LVU2061
.LBE7254:
.LBE7253:
.LBE7252:
	.loc 14 584 53 view .LVU2062
	movq	$_ZTVNSt7__cxx1119basic_ostringstreamIcSt11char_traitsIcESaIcEEE+24, 160(%rsp)
	movq	$_ZTVNSt7__cxx1119basic_ostringstreamIcSt11char_traitsIcESaIcEEE+64, 272(%rsp)
.LVL655:
.LBB7255:
.LBI7255:
	.loc 14 111 7 is_stmt 1 view .LVU2063
.LBB7256:
.LBB7257:
.LBB7258:
.LBI7258:
	.loc 15 470 7 view .LVU2064
.LBB7259:
.LBB7260:
	.loc 15 473 29 is_stmt 0 view .LVU2065
	movq	$_ZTVSt15basic_streambufIcSt11char_traitsIcEE+16, 168(%rsp)
	movq	$0, 176(%rsp)
	movq	$0, 184(%rsp)
	movq	$0, 192(%rsp)
	movq	$0, 200(%rsp)
	movq	$0, 208(%rsp)
	movq	$0, 216(%rsp)
	leaq	224(%rsp), %rdi
	call	_ZNSt6localeC1Ev
.LVL656:
	.loc 15 473 29 view .LVU2066
.LBE7260:
.LBE7259:
.LBE7258:
	.loc 14 112 56 view .LVU2067
	movq	$_ZTVNSt7__cxx1115basic_stringbufIcSt11char_traitsIcESaIcEEE+16, 168(%rsp)
	movl	$16, 232(%rsp)
.LVL657:
.LBB7261:
.LBI7261:
	.loc 10 431 7 is_stmt 1 view .LVU2068
.LBB7262:
.LBB7263:
.LBI7263:
	.loc 13 138 7 view .LVU2069
.LBB7264:
.LBI7264:
	.loc 12 80 7 view .LVU2070
	.loc 12 80 7 is_stmt 0 view .LVU2071
.LBE7264:
.LBE7263:
.LBB7265:
.LBI7265:
	.loc 10 190 7 is_stmt 1 view .LVU2072
	.loc 10 190 7 is_stmt 0 view .LVU2073
.LBE7265:
.LBB7266:
.LBI7266:
	.loc 10 159 2 is_stmt 1 view .LVU2074
.LBB7267:
.LBB7268:
.LBB7269:
.LBI7269:
	.loc 19 99 5 view .LVU2075
	.loc 19 99 5 is_stmt 0 view .LVU2076
.LBE7269:
.LBB7270:
.LBI7270:
	.loc 13 141 7 is_stmt 1 view .LVU2077
.LBB7271:
.LBI7271:
	.loc 12 83 7 view .LVU2078
	.loc 12 83 7 is_stmt 0 view .LVU2079
.LBE7271:
.LBE7270:
	.loc 10 160 46 view .LVU2080
	leaq	256(%rsp), %rax
.LVL658:
	.loc 10 160 46 view .LVU2081
	movq	%rax, 240(%rsp)
.LVL659:
	.loc 10 160 46 view .LVU2082
.LBE7268:
.LBE7267:
.LBE7266:
.LBB7272:
.LBI7272:
	.loc 13 153 7 is_stmt 1 view .LVU2083
.LBB7273:
.LBI7273:
	.loc 12 89 7 view .LVU2084
	.loc 12 89 7 is_stmt 0 view .LVU2085
.LBE7273:
.LBE7272:
.LBB7274:
.LBI7274:
	.loc 10 214 7 is_stmt 1 view .LVU2086
.LBB7275:
.LBI7275:
	.loc 10 182 7 view .LVU2087
.LBB7276:
	.loc 10 183 9 is_stmt 0 view .LVU2088
	movq	$0, 248(%rsp)
.LVL660:
	.loc 10 183 9 view .LVU2089
.LBE7276:
.LBE7275:
.LBB7277:
.LBI7277:
	.loc 20 299 7 is_stmt 1 view .LVU2090
.LBB7278:
	.loc 20 300 9 view .LVU2091
	.loc 20 300 14 is_stmt 0 view .LVU2092
	movb	$0, 256(%rsp)
.LVL661:
	.loc 20 300 14 view .LVU2093
.LBE7278:
.LBE7277:
.LBE7274:
.LBE7262:
.LBE7261:
.LBE7257:
.LBE7256:
.LBE7255:
	.loc 14 585 9 view .LVU2094
	leaq	168(%rsp), %rsi
	leaq	272(%rsp), %rdi
.LEHB32:
	call	_ZNSt9basic_iosIcSt11char_traitsIcEE4initEPSt15basic_streambufIcS1_E
.LVL662:
.LEHE32:
	jmp	.L283
.L272:
	movq	%rax, %rbp
.LVL663:
	.loc 14 584 53 view .LVU2095
	leaq	168(%rsp), %rdi
	call	_ZNSt7__cxx1115basic_stringbufIcSt11char_traitsIcESaIcEED1Ev
.LVL664:
.LBB7279:
.LBI7279:
	.loc 18 93 7 is_stmt 1 view .LVU2096
.LBB7280:
	.loc 18 93 26 is_stmt 0 view .LVU2097
	movq	%rbx, 160(%rsp)
	movq	-24(%rbx), %rax
	movq	%r12, 160(%rsp,%rax)
.LVL665:
.L251:
	.loc 18 93 26 view .LVU2098
.LBE7280:
.LBE7279:
.LBB7281:
.LBI7281:
	.loc 17 282 7 is_stmt 1 view .LVU2099
.LBB7282:
	.loc 17 282 22 is_stmt 0 view .LVU2100
	movq	$_ZTVSt9basic_iosIcSt11char_traitsIcEE+16, 272(%rsp)
	leaq	272(%rsp), %rdi
.LVL666:
	.loc 17 282 22 view .LVU2101
	call	_ZNSt8ios_baseD2Ev
.LVL667:
	.loc 17 282 22 view .LVU2102
	movq	%rbp, %rdi
.LEHB33:
	call	_Unwind_Resume
.LVL668:
.LEHE33:
.L271:
	.loc 17 282 22 view .LVU2103
	movq	%rax, %rbp
.LVL669:
	.loc 17 282 22 view .LVU2104
	jmp	.L251
.LVL670:
.L283:
	.loc 17 282 22 view .LVU2105
.LBE7282:
.LBE7281:
.LBE7248:
.LBE7247:
.LBE7246:
	.loc 8 77 3 is_stmt 1 view .LVU2106
.LBB7283:
.LBI7283:
	.loc 18 565 5 view .LVU2107
	.loc 18 565 5 is_stmt 0 view .LVU2108
.LBE7283:
.LBE7245:
.LBE7347:
	.loc 20 332 2 is_stmt 1 view .LVU2109
	.loc 20 335 2 view .LVU2110
.LBB7348:
.LBB7345:
.LBB7285:
.LBB7284:
	.loc 18 570 18 is_stmt 0 view .LVU2111
	movl	$16, %edx
	movl	$.LC3, %esi
	leaq	160(%rsp), %rdi
.LVL671:
.LEHB34:
	.loc 18 570 18 view .LVU2112
	call	_ZSt16__ostream_insertIcSt11char_traitsIcEERSt13basic_ostreamIT_T0_ES6_PKS3_l
.LVL672:
	.loc 18 570 18 view .LVU2113
.LBE7284:
.LBE7285:
.LBB7286:
.LBI7286:
	.loc 10 6416 5 is_stmt 1 view .LVU2114
.LBB7287:
.LBB7288:
.LBI7288:
	.loc 10 930 7 view .LVU2115
.LBB7289:
	.loc 10 931 16 is_stmt 0 view .LVU2116
	movq	8(%rbp), %rdx
.LVL673:
	.loc 10 931 16 view .LVU2117
.LBE7289:
.LBE7288:
.LBB7290:
.LBI7290:
	.loc 10 2312 7 is_stmt 1 view .LVU2118
.LBB7291:
.LBI7291:
	.loc 10 186 7 view .LVU2119
.LBB7292:
	.loc 10 187 28 is_stmt 0 view .LVU2120
	movq	0(%rbp), %rsi
.LVL674:
	.loc 10 187 28 view .LVU2121
.LBE7292:
.LBE7291:
.LBE7290:
	.loc 10 6421 30 view .LVU2122
	leaq	160(%rsp), %rdi
.LVL675:
	.loc 10 6421 30 view .LVU2123
	call	_ZSt16__ostream_insertIcSt11char_traitsIcEERSt13basic_ostreamIT_T0_ES6_PKS3_l
.LVL676:
	.loc 10 6421 30 view .LVU2124
	movq	%rax, %rbx
.LVL677:
	.loc 10 6421 30 view .LVU2125
.LBE7287:
.LBE7286:
.LBB7293:
.LBI7293:
	.loc 18 565 5 is_stmt 1 view .LVU2126
	.loc 18 565 5 is_stmt 0 view .LVU2127
.LBE7293:
.LBE7345:
.LBE7348:
	.loc 20 332 2 is_stmt 1 view .LVU2128
	.loc 20 335 2 view .LVU2129
.LBB7349:
.LBB7346:
.LBB7295:
.LBB7294:
	.loc 18 570 18 is_stmt 0 view .LVU2130
	movl	$12, %edx
	movl	$.LC4, %esi
	movq	%rax, %rdi
	call	_ZSt16__ostream_insertIcSt11char_traitsIcEERSt13basic_ostreamIT_T0_ES6_PKS3_l
.LVL678:
	.loc 18 570 18 view .LVU2131
.LBE7294:
.LBE7295:
.LBB7296:
.LBI7296:
	.loc 18 108 7 is_stmt 1 view .LVU2132
.LBB7297:
.LBI7297:
	.loc 18 599 5 view .LVU2133
.LBB7298:
	.loc 18 600 19 is_stmt 0 view .LVU2134
	movq	(%rbx), %rax
	movq	%rbx, %rcx
	addq	-24(%rax), %rcx
.LVL679:
.LBB7299:
.LBI7299:
	.loc 17 449 7 is_stmt 1 view .LVU2135
.LBB7300:
	.loc 17 450 30 is_stmt 0 view .LVU2136
	movq	240(%rcx), %rbp
.LVL680:
.LBB7301:
.LBI7301:
	.loc 17 47 5 is_stmt 1 view .LVU2137
.LBB7302:
	.loc 17 49 7 is_stmt 0 view .LVU2138
	testq	%rbp, %rbp
	je	.L284
.LVL681:
	.loc 17 49 7 view .LVU2139
.LBE7302:
.LBE7301:
.LBB7304:
.LBI7304:
	.file 36 "/usr/include/c++/9/bits/locale_facets.h"
	.loc 36 872 7 is_stmt 1 view .LVU2140
.LBB7305:
	.loc 36 874 2 view .LVU2141
	cmpb	$0, 56(%rbp)
	je	.L253
	.loc 36 875 4 view .LVU2142
	.loc 36 875 51 is_stmt 0 view .LVU2143
	movzbl	67(%rbp), %esi
.LVL682:
.L254:
	.loc 36 875 51 view .LVU2144
.LBE7305:
.LBE7304:
.LBE7300:
.LBE7299:
	.loc 18 600 19 view .LVU2145
	movsbl	%sil, %esi
	movq	%rbx, %rdi
	call	_ZNSo3putEc
.LVL683:
	jmp	.L285
.LVL684:
.L284:
.LBB7310:
.LBB7309:
.LBB7307:
.LBB7303:
	.loc 17 50 18 view .LVU2146
	call	_ZSt16__throw_bad_castv
.LVL685:
.L265:
	.loc 17 50 18 view .LVU2147
	movq	%rax, %rbx
	jmp	.L260
.LVL686:
.L253:
	.loc 17 50 18 view .LVU2148
.LBE7303:
.LBE7307:
.LBB7308:
.LBB7306:
	.loc 36 876 2 is_stmt 1 view .LVU2149
	.loc 36 876 21 is_stmt 0 view .LVU2150
	movq	%rbp, %rdi
	call	_ZNKSt5ctypeIcE13_M_widen_initEv
.LVL687:
	.loc 36 877 2 is_stmt 1 view .LVU2151
	.loc 36 877 27 is_stmt 0 view .LVU2152
	movq	0(%rbp), %rax
	.loc 36 877 23 view .LVU2153
	movl	$10, %esi
	movq	%rbp, %rdi
	call	*48(%rax)
.LVL688:
	movl	%eax, %esi
	.loc 36 877 27 view .LVU2154
	jmp	.L254
.LVL689:
.L285:
	.loc 36 877 27 view .LVU2155
.LBE7306:
.LBE7308:
.LBE7309:
.LBE7310:
	.loc 18 600 19 view .LVU2156
	movq	%rax, %rdi
.LVL690:
.LBB7311:
.LBI7311:
	.loc 18 621 5 is_stmt 1 view .LVU2157
.LBB7312:
	.loc 18 622 25 is_stmt 0 view .LVU2158
	call	_ZNSo5flushEv
.LVL691:
.LEHE34:
	.loc 18 622 25 view .LVU2159
.LBE7312:
.LBE7311:
.LBE7298:
.LBE7297:
.LBE7296:
	.loc 8 78 3 is_stmt 1 view .LVU2160
	.loc 8 78 49 is_stmt 0 view .LVU2161
	movl	$24, %edi
	call	__cxa_allocate_exception
.LVL692:
	movq	%rax, %rbp
.LVL693:
.LBB7313:
.LBI7313:
	.loc 14 677 7 is_stmt 1 view .LVU2162
.LBB7314:
	.loc 14 678 33 is_stmt 0 view .LVU2163
	leaq	168(%rsp), %rsi
	leaq	128(%rsp), %rdi
.LEHB35:
	call	_ZNKSt7__cxx1115basic_stringbufIcSt11char_traitsIcESaIcEE3strEv
.LVL694:
.LEHE35:
	.loc 14 678 33 view .LVU2164
.LBE7314:
.LBE7313:
	.loc 8 78 49 discriminator 2 view .LVU2165
	leaq	128(%rsp), %rsi
	movq	%rbp, %rdi
.LEHB36:
	call	_ZN3mpp10exceptions13UnknownHeaderC1ENSt7__cxx1112basic_stringIcSt11char_traitsIcESaIcEEE
.LVL695:
.LEHE36:
.LBB7315:
.LBI7315:
	.loc 10 657 7 is_stmt 1 view .LVU2166
.LBB7316:
.LBI7316:
	.loc 10 229 7 view .LVU2167
.LBB7317:
.LBB7318:
.LBI7318:
	.loc 10 221 7 view .LVU2168
.LBB7319:
.LBI7319:
	.loc 10 186 7 view .LVU2169
.LBB7320:
	.loc 10 187 28 is_stmt 0 view .LVU2170
	movq	128(%rsp), %rdi
.LVL696:
	.loc 10 187 28 view .LVU2171
.LBE7320:
.LBE7319:
.LBB7321:
.LBI7321:
	.loc 10 200 7 is_stmt 1 view .LVU2172
	.loc 10 200 7 is_stmt 0 view .LVU2173
.LBE7321:
.LBE7318:
	.loc 10 231 2 view .LVU2174
	leaq	144(%rsp), %rax
	cmpq	%rax, %rdi
	je	.L255
.LVL697:
.LBB7322:
.LBI7322:
	.loc 10 236 7 is_stmt 1 view .LVU2175
.LBB7323:
.LBB7324:
.LBI7324:
	.loc 11 469 7 view .LVU2176
.LBB7325:
.LBI7325:
	.loc 12 119 7 view .LVU2177
.LBB7326:
	.loc 12 128 19 is_stmt 0 view .LVU2178
	call	_ZdlPv
.LVL698:
.L255:
	.loc 12 128 19 view .LVU2179
.LBE7326:
.LBE7325:
.LBE7324:
.LBE7323:
.LBE7322:
.LBE7317:
.LBE7316:
.LBB7327:
.LBI7327:
	.loc 10 150 14 is_stmt 1 view .LVU2180
.LBB7328:
.LBI7328:
	.loc 13 153 7 view .LVU2181
.LBB7329:
.LBI7329:
	.loc 12 89 7 view .LVU2182
	.loc 12 89 7 is_stmt 0 view .LVU2183
.LBE7329:
.LBE7328:
.LBE7327:
.LBE7315:
	.loc 8 78 49 view .LVU2184
	movl	$_ZN3mpp10exceptions13UnknownHeaderD1Ev, %edx
	movl	$_ZTIN3mpp10exceptions13UnknownHeaderE, %esi
	movq	%rbp, %rdi
.LEHB37:
	call	__cxa_throw
.LVL699:
.LEHE37:
.L264:
	.loc 8 78 49 view .LVU2185
	movq	%rax, %rbx
	jmp	.L247
.LVL700:
.L267:
	.loc 8 78 49 view .LVU2186
	movq	%rax, %rbx
.LVL701:
.LBB7330:
.LBI7330:
	.loc 10 657 7 is_stmt 1 view .LVU2187
.LBB7331:
.LBI7331:
	.loc 10 229 7 view .LVU2188
.LBB7332:
.LBB7333:
.LBI7333:
	.loc 10 221 7 view .LVU2189
.LBB7334:
.LBI7334:
	.loc 10 186 7 view .LVU2190
.LBB7335:
	.loc 10 187 28 is_stmt 0 view .LVU2191
	movq	128(%rsp), %rdi
.LVL702:
	.loc 10 187 28 view .LVU2192
.LBE7335:
.LBE7334:
.LBB7336:
.LBI7336:
	.loc 10 200 7 is_stmt 1 view .LVU2193
	.loc 10 200 7 is_stmt 0 view .LVU2194
.LBE7336:
.LBE7333:
	.loc 10 231 2 view .LVU2195
	leaq	144(%rsp), %rax
	cmpq	%rax, %rdi
	je	.L259
.LVL703:
.LBB7337:
.LBI7337:
	.loc 10 236 7 is_stmt 1 view .LVU2196
.LBB7338:
.LBB7339:
.LBI7339:
	.loc 11 469 7 view .LVU2197
.LBB7340:
.LBI7340:
	.loc 12 119 7 view .LVU2198
.LBB7341:
	.loc 12 128 19 is_stmt 0 view .LVU2199
	call	_ZdlPv
.LVL704:
	.loc 12 128 19 view .LVU2200
.LBE7341:
.LBE7340:
.LBE7339:
.LBE7338:
.LBE7337:
.LBE7332:
.LBE7331:
.LBB7342:
.LBI7342:
	.loc 10 150 14 is_stmt 1 view .LVU2201
.LBB7343:
.LBI7343:
	.loc 13 153 7 view .LVU2202
.LBB7344:
.LBI7344:
	.loc 12 89 7 view .LVU2203
.L259:
	.loc 12 89 7 is_stmt 0 view .LVU2204
.LBE7344:
.LBE7343:
.LBE7342:
.LBE7330:
	.loc 8 78 49 discriminator 1 view .LVU2205
	movq	%rbp, %rdi
	call	__cxa_free_exception
.LVL705:
.L260:
	.loc 8 76 22 view .LVU2206
	leaq	160(%rsp), %rdi
	call	_ZNSt7__cxx1119basic_ostringstreamIcSt11char_traitsIcESaIcEED1Ev
.LVL706:
	movq	%rbx, %rdi
.LEHB38:
	call	_Unwind_Resume
.LVL707:
.LEHE38:
.L266:
	.loc 8 76 22 view .LVU2207
	movq	%rax, %rbx
	jmp	.L259
.LBE7346:
.LBE7349:
	.cfi_endproc
.LFE5104:
	.section	.gcc_except_table,"a",@progbits
.LLSDA5104:
	.byte	0xff
	.byte	0xff
	.byte	0x1
	.uleb128 .LLSDACSE5104-.LLSDACSB5104
.LLSDACSB5104:
	.uleb128 .LEHB25-.LFB5104
	.uleb128 .LEHE25-.LEHB25
	.uleb128 0
	.uleb128 0
	.uleb128 .LEHB26-.LFB5104
	.uleb128 .LEHE26-.LEHB26
	.uleb128 .L264-.LFB5104
	.uleb128 0
	.uleb128 .LEHB27-.LFB5104
	.uleb128 .LEHE27-.LEHB27
	.uleb128 .L268-.LFB5104
	.uleb128 0
	.uleb128 .LEHB28-.LFB5104
	.uleb128 .LEHE28-.LEHB28
	.uleb128 .L270-.LFB5104
	.uleb128 0
	.uleb128 .LEHB29-.LFB5104
	.uleb128 .LEHE29-.LEHB29
	.uleb128 .L269-.LFB5104
	.uleb128 0
	.uleb128 .LEHB30-.LFB5104
	.uleb128 .LEHE30-.LEHB30
	.uleb128 0
	.uleb128 0
	.uleb128 .LEHB31-.LFB5104
	.uleb128 .LEHE31-.LEHB31
	.uleb128 .L271-.LFB5104
	.uleb128 0
	.uleb128 .LEHB32-.LFB5104
	.uleb128 .LEHE32-.LEHB32
	.uleb128 .L272-.LFB5104
	.uleb128 0
	.uleb128 .LEHB33-.LFB5104
	.uleb128 .LEHE33-.LEHB33
	.uleb128 0
	.uleb128 0
	.uleb128 .LEHB34-.LFB5104
	.uleb128 .LEHE34-.LEHB34
	.uleb128 .L265-.LFB5104
	.uleb128 0
	.uleb128 .LEHB35-.LFB5104
	.uleb128 .LEHE35-.LEHB35
	.uleb128 .L266-.LFB5104
	.uleb128 0
	.uleb128 .LEHB36-.LFB5104
	.uleb128 .LEHE36-.LEHB36
	.uleb128 .L267-.LFB5104
	.uleb128 0
	.uleb128 .LEHB37-.LFB5104
	.uleb128 .LEHE37-.LEHB37
	.uleb128 .L265-.LFB5104
	.uleb128 0
	.uleb128 .LEHB38-.LFB5104
	.uleb128 .LEHE38-.LEHB38
	.uleb128 0
	.uleb128 0
.LLSDACSE5104:
	.text
	.size	_ZN3mpp7Request10findHeaderENSt7__cxx1112basic_stringIcSt11char_traitsIcESaIcEEE, .-_ZN3mpp7Request10findHeaderENSt7__cxx1112basic_stringIcSt11char_traitsIcESaIcEEE
	.section	.text._ZNSt8_Rb_treeIN3mpp7Request7CommandESt4pairIKS2_NSt7__cxx1112basic_stringIcSt11char_traitsIcESaIcEEEESt10_Select1stISB_ESt4lessIS2_ESaISB_EE10_M_insert_IRKSB_NSH_11_Alloc_nodeEEESt17_Rb_tree_iteratorISB_EPSt18_Rb_tree_node_baseSP_OT_RT0_,"axG",@progbits,_ZNSt8_Rb_treeIN3mpp7Request7CommandESt4pairIKS2_NSt7__cxx1112basic_stringIcSt11char_traitsIcESaIcEEEESt10_Select1stISB_ESt4lessIS2_ESaISB_EE10_M_insert_IRKSB_NSH_11_Alloc_nodeEEESt17_Rb_tree_iteratorISB_EPSt18_Rb_tree_node_baseSP_OT_RT0_,comdat
	.align 2
	.weak	_ZNSt8_Rb_treeIN3mpp7Request7CommandESt4pairIKS2_NSt7__cxx1112basic_stringIcSt11char_traitsIcESaIcEEEESt10_Select1stISB_ESt4lessIS2_ESaISB_EE10_M_insert_IRKSB_NSH_11_Alloc_nodeEEESt17_Rb_tree_iteratorISB_EPSt18_Rb_tree_node_baseSP_OT_RT0_
	.type	_ZNSt8_Rb_treeIN3mpp7Request7CommandESt4pairIKS2_NSt7__cxx1112basic_stringIcSt11char_traitsIcESaIcEEEESt10_Select1stISB_ESt4lessIS2_ESaISB_EE10_M_insert_IRKSB_NSH_11_Alloc_nodeEEESt17_Rb_tree_iteratorISB_EPSt18_Rb_tree_node_baseSP_OT_RT0_, @function
_ZNSt8_Rb_treeIN3mpp7Request7CommandESt4pairIKS2_NSt7__cxx1112basic_stringIcSt11char_traitsIcESaIcEEEESt10_Select1stISB_ESt4lessIS2_ESaISB_EE10_M_insert_IRKSB_NSH_11_Alloc_nodeEEESt17_Rb_tree_iteratorISB_EPSt18_Rb_tree_node_baseSP_OT_RT0_:
.LVL708:
.LFB5948:
	.loc 25 1797 7 is_stmt 1 view -0
	.cfi_startproc
	.cfi_personality 0x3,__gxx_personality_v0
	.cfi_lsda 0x3,.LLSDA5948
	.loc 25 1797 7 is_stmt 0 view .LVU2209
	pushq	%r14
	.cfi_def_cfa_offset 16
	.cfi_offset 14, -16
	pushq	%r13
	.cfi_def_cfa_offset 24
	.cfi_offset 13, -24
	pushq	%r12
	.cfi_def_cfa_offset 32
	.cfi_offset 12, -32
	pushq	%rbp
	.cfi_def_cfa_offset 40
	.cfi_offset 6, -40
	pushq	%rbx
	.cfi_def_cfa_offset 48
	.cfi_offset 3, -48
	movq	%rdi, %rbp
	movq	%rdx, %r13
	movq	%rcx, %r12
	.loc 25 1807 10 view .LVU2210
	testq	%rsi, %rsi
	je	.L298
	movl	$1, %r14d
.L287:
.LVL709:
.LBB7407:
.LBI7407:
	.loc 25 546 4 is_stmt 1 view .LVU2211
.LBB7408:
.LBI7408:
	.loc 25 628 2 view .LVU2212
.LBB7409:
.LBB7410:
.LBI7410:
	.loc 25 579 7 view .LVU2213
.LBB7411:
.LBI7411:
	.loc 11 443 7 view .LVU2214
.LBB7412:
.LBI7412:
	.loc 12 102 7 view .LVU2215
.LBB7413:
	.loc 12 114 41 is_stmt 0 view .LVU2216
	movl	$72, %edi
.LVL710:
.LEHB39:
	.loc 12 114 41 view .LVU2217
	call	_Znwm
.LVL711:
.LEHE39:
	.loc 12 114 41 view .LVU2218
	movq	%rax, %rbx
.LVL712:
	.loc 12 114 41 view .LVU2219
.LBE7413:
.LBE7412:
.LBE7411:
.LBE7410:
.LBB7414:
.LBI7414:
	.loc 25 609 2 is_stmt 1 view .LVU2220
	.loc 25 609 2 is_stmt 0 view .LVU2221
.LBE7414:
.LBE7409:
.LBE7408:
.LBE7407:
	.loc 2 174 3 is_stmt 1 view .LVU2222
.LBB7463:
.LBB7460:
.LBB7457:
.LBB7454:
.LBB7415:
.LBB7416:
.LBI7416:
	.loc 11 482 2 view .LVU2223
.LBB7417:
.LBB7418:
.LBI7418:
	.loc 12 144 2 view .LVU2224
	.loc 12 144 2 is_stmt 0 view .LVU2225
.LBE7418:
.LBE7417:
.LBE7416:
.LBE7415:
.LBE7454:
.LBE7457:
.LBE7460:
.LBE7463:
	.loc 2 174 3 is_stmt 1 view .LVU2226
.LBB7464:
.LBB7461:
.LBB7458:
.LBB7455:
.LBB7452:
.LBB7447:
.LBB7446:
.LBB7445:
.LBB7419:
.LBI7419:
	.loc 26 303 17 view .LVU2227
.LBB7420:
	movl	(%r12), %eax
.LVL713:
	.loc 26 303 17 is_stmt 0 view .LVU2228
	movl	%eax, 32(%rbx)
	leaq	40(%rbx), %rdi
.LVL714:
.LBB7421:
.LBI7421:
	.loc 10 448 7 is_stmt 1 view .LVU2229
.LBB7422:
.LBB7423:
.LBI7423:
	.loc 10 290 7 view .LVU2230
	.loc 10 290 7 is_stmt 0 view .LVU2231
.LBE7423:
.LBB7424:
.LBI7424:
	.loc 33 97 19 is_stmt 1 view .LVU2232
.LBB7425:
.LBI7425:
	.loc 11 514 7 view .LVU2233
.LBB7426:
.LBI7426:
	.loc 13 141 7 view .LVU2234
.LBB7427:
.LBI7427:
	.loc 12 83 7 view .LVU2235
	.loc 12 83 7 is_stmt 0 view .LVU2236
.LBE7427:
.LBE7426:
.LBE7425:
.LBE7424:
.LBB7428:
.LBI7428:
	.loc 10 190 7 is_stmt 1 view .LVU2237
.LBB7429:
	.loc 10 193 51 is_stmt 0 view .LVU2238
	leaq	56(%rbx), %rax
.LVL715:
	.loc 10 193 51 view .LVU2239
.LBE7429:
.LBE7428:
.LBB7430:
.LBI7430:
	.loc 10 159 2 is_stmt 1 view .LVU2240
.LBB7431:
.LBB7432:
.LBI7432:
	.loc 19 99 5 view .LVU2241
	.loc 19 99 5 is_stmt 0 view .LVU2242
.LBE7432:
.LBB7433:
.LBI7433:
	.loc 13 141 7 is_stmt 1 view .LVU2243
.LBB7434:
.LBI7434:
	.loc 12 83 7 view .LVU2244
	.loc 12 83 7 is_stmt 0 view .LVU2245
.LBE7434:
.LBE7433:
	.loc 10 160 46 view .LVU2246
	movq	%rax, 40(%rbx)
.LVL716:
	.loc 10 160 46 view .LVU2247
.LBE7431:
.LBE7430:
.LBB7435:
.LBI7435:
	.loc 13 153 7 is_stmt 1 view .LVU2248
.LBB7436:
.LBI7436:
	.loc 12 89 7 view .LVU2249
	.loc 12 89 7 is_stmt 0 view .LVU2250
.LBE7436:
.LBE7435:
.LBB7437:
.LBI7437:
	.loc 10 186 7 is_stmt 1 view .LVU2251
.LBB7438:
	.loc 10 187 28 is_stmt 0 view .LVU2252
	movq	8(%r12), %rsi
.LVL717:
	.loc 10 187 28 view .LVU2253
.LBE7438:
.LBE7437:
.LBB7439:
.LBI7439:
	.loc 10 936 7 is_stmt 1 view .LVU2254
	.loc 10 936 7 is_stmt 0 view .LVU2255
.LBE7439:
	.loc 10 451 9 view .LVU2256
	movq	%rsi, %rdx
	addq	16(%r12), %rdx
.LVL718:
.LBB7440:
.LBI7440:
	.loc 10 186 7 is_stmt 1 view .LVU2257
	.loc 10 186 7 is_stmt 0 view .LVU2258
.LBE7440:
.LBB7441:
.LBI7441:
	.loc 10 263 9 is_stmt 1 view .LVU2259
.LBB7442:
.LBB7443:
.LBI7443:
	.loc 10 243 9 view .LVU2260
.LEHB40:
.LBB7444:
	.loc 10 247 11 is_stmt 0 view .LVU2261
	call	_ZNSt7__cxx1112basic_stringIcSt11char_traitsIcESaIcEE12_M_constructIPcEEvT_S7_St20forward_iterator_tag
.LVL719:
.LEHE40:
	.loc 10 247 11 view .LVU2262
	jmp	.L299
.LVL720:
.L298:
	.loc 10 247 11 view .LVU2263
.LBE7444:
.LBE7443:
.LBE7442:
.LBE7441:
.LBE7422:
.LBE7421:
.LBE7420:
.LBE7419:
.LBE7445:
.LBE7446:
.LBE7447:
.LBE7452:
.LBE7455:
.LBE7458:
.LBE7461:
.LBE7464:
.LBB7465:
.LBI7465:
	.loc 25 755 7 is_stmt 1 view .LVU2264
.LBB7466:
	.loc 25 756 31 is_stmt 0 view .LVU2265
	leaq	8(%rdi), %rax
.LVL721:
	.loc 25 756 31 view .LVU2266
.LBE7466:
.LBE7465:
	.loc 25 1806 33 view .LVU2267
	cmpq	%rax, %rdx
	je	.L292
.LVL722:
.LBB7467:
.LBI7467:
	.file 37 "/usr/include/c++/9/bits/stl_function.h"
	.loc 37 385 7 is_stmt 1 view .LVU2268
	.loc 37 385 7 is_stmt 0 view .LVU2269
.LBE7467:
	.loc 25 1807 10 view .LVU2270
	movl	(%rcx), %eax
	cmpl	%eax, 32(%rdx)
	jg	.L293
	movl	$0, %r14d
	jmp	.L287
.LVL723:
.L292:
	.loc 25 1807 10 view .LVU2271
	movl	$1, %r14d
	jmp	.L287
.LVL724:
.L293:
	.loc 25 1807 10 view .LVU2272
	movl	$1, %r14d
	jmp	.L287
.LVL725:
.L295:
	.loc 25 1807 10 view .LVU2273
	movq	%rax, %rdi
.LVL726:
.LBB7468:
.LBB7462:
.LBB7459:
.LBB7456:
.LBB7453:
	.loc 25 618 4 view .LVU2274
	call	__cxa_begin_catch
.LVL727:
.LBB7448:
.LBI7448:
	.loc 25 583 7 is_stmt 1 view .LVU2275
.LBB7449:
.LBI7449:
	.loc 11 469 7 view .LVU2276
.LBB7450:
.LBI7450:
	.loc 12 119 7 view .LVU2277
.LBB7451:
	.loc 12 128 19 is_stmt 0 view .LVU2278
	movq	%rbx, %rdi
	call	_ZdlPv
.LVL728:
.LEHB41:
	.loc 12 128 19 view .LVU2279
.LBE7451:
.LBE7450:
.LBE7449:
.LBE7448:
	.loc 25 622 8 view .LVU2280
	call	__cxa_rethrow
.LVL729:
.LEHE41:
.L294:
	movq	%rax, %rbx
.LVL730:
	.loc 25 618 4 view .LVU2281
	call	__cxa_end_catch
.LVL731:
	movq	%rbx, %rdi
.LEHB42:
	call	_Unwind_Resume
.LVL732:
.LEHE42:
.L299:
	.loc 25 618 4 view .LVU2282
.LBE7453:
.LBE7456:
.LBE7459:
.LBE7462:
.LBE7468:
	.loc 25 1813 25 view .LVU2283
	leaq	8(%rbp), %rcx
	.loc 25 1812 31 view .LVU2284
	movzbl	%r14b, %edi
	movq	%r13, %rdx
	movq	%rbx, %rsi
	call	_ZSt29_Rb_tree_insert_and_rebalancebPSt18_Rb_tree_node_baseS0_RS_
.LVL733:
	.loc 25 1814 2 view .LVU2285
	movq	40(%rbp), %rax
	addq	$1, %rax
	movq	%rax, 40(%rbp)
.LVL734:
.LBB7469:
.LBI7469:
	.loc 25 273 7 is_stmt 1 view .LVU2286
	.loc 25 273 7 is_stmt 0 view .LVU2287
.LBE7469:
	.loc 25 1816 7 view .LVU2288
	movq	%rbx, %rax
	popq	%rbx
	.cfi_def_cfa_offset 40
.LVL735:
	.loc 25 1816 7 view .LVU2289
	popq	%rbp
	.cfi_def_cfa_offset 32
.LVL736:
	.loc 25 1816 7 view .LVU2290
	popq	%r12
	.cfi_def_cfa_offset 24
.LVL737:
	.loc 25 1816 7 view .LVU2291
	popq	%r13
	.cfi_def_cfa_offset 16
.LVL738:
	.loc 25 1816 7 view .LVU2292
	popq	%r14
	.cfi_def_cfa_offset 8
.LVL739:
	.loc 25 1816 7 view .LVU2293
	ret
	.cfi_endproc
.LFE5948:
	.section	.gcc_except_table
	.align 4
.LLSDA5948:
	.byte	0xff
	.byte	0x3
	.uleb128 .LLSDATT5948-.LLSDATTD5948
.LLSDATTD5948:
	.byte	0x1
	.uleb128 .LLSDACSE5948-.LLSDACSB5948
.LLSDACSB5948:
	.uleb128 .LEHB39-.LFB5948
	.uleb128 .LEHE39-.LEHB39
	.uleb128 0
	.uleb128 0
	.uleb128 .LEHB40-.LFB5948
	.uleb128 .LEHE40-.LEHB40
	.uleb128 .L295-.LFB5948
	.uleb128 0x1
	.uleb128 .LEHB41-.LFB5948
	.uleb128 .LEHE41-.LEHB41
	.uleb128 .L294-.LFB5948
	.uleb128 0
	.uleb128 .LEHB42-.LFB5948
	.uleb128 .LEHE42-.LEHB42
	.uleb128 0
	.uleb128 0
.LLSDACSE5948:
	.byte	0x1
	.byte	0
	.align 4
	.long	0

.LLSDATT5948:
	.section	.text._ZNSt8_Rb_treeIN3mpp7Request7CommandESt4pairIKS2_NSt7__cxx1112basic_stringIcSt11char_traitsIcESaIcEEEESt10_Select1stISB_ESt4lessIS2_ESaISB_EE10_M_insert_IRKSB_NSH_11_Alloc_nodeEEESt17_Rb_tree_iteratorISB_EPSt18_Rb_tree_node_baseSP_OT_RT0_,"axG",@progbits,_ZNSt8_Rb_treeIN3mpp7Request7CommandESt4pairIKS2_NSt7__cxx1112basic_stringIcSt11char_traitsIcESaIcEEEESt10_Select1stISB_ESt4lessIS2_ESaISB_EE10_M_insert_IRKSB_NSH_11_Alloc_nodeEEESt17_Rb_tree_iteratorISB_EPSt18_Rb_tree_node_baseSP_OT_RT0_,comdat
	.size	_ZNSt8_Rb_treeIN3mpp7Request7CommandESt4pairIKS2_NSt7__cxx1112basic_stringIcSt11char_traitsIcESaIcEEEESt10_Select1stISB_ESt4lessIS2_ESaISB_EE10_M_insert_IRKSB_NSH_11_Alloc_nodeEEESt17_Rb_tree_iteratorISB_EPSt18_Rb_tree_node_baseSP_OT_RT0_, .-_ZNSt8_Rb_treeIN3mpp7Request7CommandESt4pairIKS2_NSt7__cxx1112basic_stringIcSt11char_traitsIcESaIcEEEESt10_Select1stISB_ESt4lessIS2_ESaISB_EE10_M_insert_IRKSB_NSH_11_Alloc_nodeEEESt17_Rb_tree_iteratorISB_EPSt18_Rb_tree_node_baseSP_OT_RT0_
	.section	.text._ZNKSt8_Rb_treeIN3mpp7Request7CommandESt4pairIKS2_NSt7__cxx1112basic_stringIcSt11char_traitsIcESaIcEEEESt10_Select1stISB_ESt4lessIS2_ESaISB_EE14_M_lower_boundEPKSt13_Rb_tree_nodeISB_EPKSt18_Rb_tree_node_baseRS4_,"axG",@progbits,_ZNKSt8_Rb_treeIN3mpp7Request7CommandESt4pairIKS2_NSt7__cxx1112basic_stringIcSt11char_traitsIcESaIcEEEESt10_Select1stISB_ESt4lessIS2_ESaISB_EE14_M_lower_boundEPKSt13_Rb_tree_nodeISB_EPKSt18_Rb_tree_node_baseRS4_,comdat
	.align 2
	.weak	_ZNKSt8_Rb_treeIN3mpp7Request7CommandESt4pairIKS2_NSt7__cxx1112basic_stringIcSt11char_traitsIcESaIcEEEESt10_Select1stISB_ESt4lessIS2_ESaISB_EE14_M_lower_boundEPKSt13_Rb_tree_nodeISB_EPKSt18_Rb_tree_node_baseRS4_
	.type	_ZNKSt8_Rb_treeIN3mpp7Request7CommandESt4pairIKS2_NSt7__cxx1112basic_stringIcSt11char_traitsIcESaIcEEEESt10_Select1stISB_ESt4lessIS2_ESaISB_EE14_M_lower_boundEPKSt13_Rb_tree_nodeISB_EPKSt18_Rb_tree_node_baseRS4_, @function
_ZNKSt8_Rb_treeIN3mpp7Request7CommandESt4pairIKS2_NSt7__cxx1112basic_stringIcSt11char_traitsIcESaIcEEEESt10_Select1stISB_ESt4lessIS2_ESaISB_EE14_M_lower_boundEPKSt13_Rb_tree_nodeISB_EPKSt18_Rb_tree_node_baseRS4_:
.LVL740:
.LFB5974:
	.loc 25 1940 5 is_stmt 1 view -0
	.cfi_startproc
	.loc 25 1940 5 is_stmt 0 view .LVU2295
	movq	%rdx, %rax
	jmp	.L301
.LVL741:
.L303:
.LBB7470:
.LBI7470:
	.loc 25 801 7 is_stmt 1 view .LVU2296
.LBB7471:
	.loc 25 802 59 is_stmt 0 view .LVU2297
	movq	24(%rsi), %rsi
.LVL742:
.L301:
	.loc 25 802 59 view .LVU2298
.LBE7471:
.LBE7470:
	.loc 25 1944 18 is_stmt 1 view .LVU2299
	testq	%rsi, %rsi
	je	.L302
.LVL743:
.LBB7472:
.LBI7472:
	.loc 37 385 7 view .LVU2300
	.loc 37 385 7 is_stmt 0 view .LVU2301
.LBE7472:
	.loc 25 1945 2 view .LVU2302
	movl	32(%rsi), %edi
	cmpl	%edi, (%rcx)
	jg	.L303
.LVL744:
.LBB7473:
.LBI7473:
	.loc 25 793 7 is_stmt 1 view .LVU2303
	.loc 25 793 7 is_stmt 0 view .LVU2304
.LBE7473:
	.loc 25 1946 4 view .LVU2305
	movq	%rsi, %rax
	.loc 25 1946 28 view .LVU2306
	movq	16(%rsi), %rsi
.LVL745:
	.loc 25 1946 28 view .LVU2307
	jmp	.L301
.L302:
.LVL746:
.LBB7474:
.LBI7474:
	.loc 25 345 7 is_stmt 1 view .LVU2308
	.loc 25 345 7 is_stmt 0 view .LVU2309
.LBE7474:
	.loc 25 1950 5 view .LVU2310
	ret
	.cfi_endproc
.LFE5974:
	.size	_ZNKSt8_Rb_treeIN3mpp7Request7CommandESt4pairIKS2_NSt7__cxx1112basic_stringIcSt11char_traitsIcESaIcEEEESt10_Select1stISB_ESt4lessIS2_ESaISB_EE14_M_lower_boundEPKSt13_Rb_tree_nodeISB_EPKSt18_Rb_tree_node_baseRS4_, .-_ZNKSt8_Rb_treeIN3mpp7Request7CommandESt4pairIKS2_NSt7__cxx1112basic_stringIcSt11char_traitsIcESaIcEEEESt10_Select1stISB_ESt4lessIS2_ESaISB_EE14_M_lower_boundEPKSt13_Rb_tree_nodeISB_EPKSt18_Rb_tree_node_baseRS4_
	.section	.rodata.str1.1
.LC5:
	.string	"MPP/"
.LC6:
	.string	"."
.LC7:
	.string	" "
.LC8:
	.string	"map::at"
.LC9:
	.string	"Content-Length"
	.section	.rodata.str1.8,"aMS",@progbits,1
	.align 8
.LC10:
	.string	"mpp::Request::toBuffers: the header named "
	.section	.rodata.str1.1
.LC11:
	.string	" should contain an "
.LC12:
	.string	"std::string::size_type"
.LC13:
	.string	" value, but doesn't!"
.LC14:
	.string	"Error: "
.LC15:
	.string	"std::string"
	.text
	.align 2
	.globl	_ZNK3mpp7Request9toBuffersEv
	.type	_ZNK3mpp7Request9toBuffersEv, @function
_ZNK3mpp7Request9toBuffersEv:
.LVL747:
.LFB5114:
	.loc 8 110 1 is_stmt 1 view -0
	.cfi_startproc
	.cfi_personality 0x3,__gxx_personality_v0
	.cfi_lsda 0x3,.LLSDA5114
	.loc 8 110 1 is_stmt 0 view .LVU2312
	pushq	%r15
	.cfi_def_cfa_offset 16
	.cfi_offset 15, -16
	pushq	%r14
	.cfi_def_cfa_offset 24
	.cfi_offset 14, -24
	pushq	%r13
	.cfi_def_cfa_offset 32
	.cfi_offset 13, -32
	pushq	%r12
	.cfi_def_cfa_offset 40
	.cfi_offset 12, -40
	pushq	%rbp
	.cfi_def_cfa_offset 48
	.cfi_offset 6, -48
	pushq	%rbx
	.cfi_def_cfa_offset 56
	.cfi_offset 3, -56
	subq	$1192, %rsp
	.cfi_def_cfa_offset 1248
	movq	%rdi, %rbx
	movq	%rsi, %rbp
	.loc 8 111 2 is_stmt 1 view .LVU2313
.LVL748:
.LBB8496:
.LBI8496:
	.loc 28 484 7 view .LVU2314
.LBB8497:
.LBI8497:
	.loc 28 285 7 view .LVU2315
.LBB8498:
.LBI8498:
	.loc 28 128 2 view .LVU2316
.LBB8499:
.LBI8499:
	.loc 13 138 7 view .LVU2317
.LBB8500:
.LBI8500:
	.loc 12 80 7 view .LVU2318
	.loc 12 80 7 is_stmt 0 view .LVU2319
.LBE8500:
.LBE8499:
.LBB8501:
.LBI8501:
	.loc 28 94 2 is_stmt 1 view .LVU2320
.LBB8502:
	.loc 28 95 47 is_stmt 0 view .LVU2321
	movq	$0, (%rdi)
	movq	$0, 8(%rdi)
	movq	$0, 16(%rdi)
.LVL749:
	.loc 28 95 47 view .LVU2322
.LBE8502:
.LBE8501:
.LBE8498:
.LBE8497:
.LBE8496:
	.loc 8 112 2 is_stmt 1 view .LVU2323
.LBB8503:
.LBI8503:
	.loc 14 583 7 view .LVU2324
.LBB8504:
.LBB8505:
.LBB8506:
.LBI8506:
	.loc 17 460 7 view .LVU2325
.LBB8507:
.LBB8508:
	.loc 17 462 59 is_stmt 0 view .LVU2326
	leaq	688(%rsp), %rdi
.LVL750:
	.loc 17 462 59 view .LVU2327
	call	_ZNSt8ios_baseC2Ev
.LVL751:
	.loc 17 462 59 view .LVU2328
	movq	$_ZTVSt9basic_iosIcSt11char_traitsIcEE+16, 688(%rsp)
	movq	$0, 904(%rsp)
	movb	$0, 912(%rsp)
	movb	$0, 913(%rsp)
	movq	$0, 920(%rsp)
	movq	$0, 928(%rsp)
	movq	$0, 936(%rsp)
	movq	$0, 944(%rsp)
.LVL752:
	.loc 17 462 59 view .LVU2329
.LBE8508:
.LBE8507:
.LBE8506:
.LBB8509:
.LBI8509:
	.loc 18 390 7 is_stmt 1 view .LVU2330
.LBB8510:
.LBB8511:
	.loc 18 391 7 is_stmt 0 view .LVU2331
	movq	_ZTTNSt7__cxx1119basic_ostringstreamIcSt11char_traitsIcESaIcEEE+8(%rip), %r12
	movq	%r12, 576(%rsp)
	movq	_ZTTNSt7__cxx1119basic_ostringstreamIcSt11char_traitsIcESaIcEEE+16(%rip), %r13
	movq	-24(%r12), %rax
	movq	%r13, 576(%rsp,%rax)
	.loc 18 391 9 view .LVU2332
	movq	576(%rsp), %rax
	leaq	576(%rsp), %rdi
.LVL753:
	.loc 18 391 9 view .LVU2333
	addq	-24(%rax), %rdi
.LVL754:
	.loc 18 391 9 view .LVU2334
	movl	$0, %esi
.LEHB43:
	call	_ZNSt9basic_iosIcSt11char_traitsIcEE4initEPSt15basic_streambufIcS1_E
.LVL755:
.LEHE43:
	.loc 18 391 9 view .LVU2335
.LBE8511:
.LBE8510:
.LBE8509:
	.loc 14 584 53 view .LVU2336
	movq	$_ZTVNSt7__cxx1119basic_ostringstreamIcSt11char_traitsIcESaIcEEE+24, 576(%rsp)
	movq	$_ZTVNSt7__cxx1119basic_ostringstreamIcSt11char_traitsIcESaIcEEE+64, 688(%rsp)
.LVL756:
.LBB8512:
.LBI8512:
	.loc 14 111 7 is_stmt 1 view .LVU2337
.LBB8513:
.LBB8514:
.LBB8515:
.LBI8515:
	.loc 15 470 7 view .LVU2338
.LBB8516:
.LBB8517:
	.loc 15 473 29 is_stmt 0 view .LVU2339
	movq	$_ZTVSt15basic_streambufIcSt11char_traitsIcEE+16, 584(%rsp)
	movq	$0, 592(%rsp)
	movq	$0, 600(%rsp)
	movq	$0, 608(%rsp)
	movq	$0, 616(%rsp)
	movq	$0, 624(%rsp)
	movq	$0, 632(%rsp)
	leaq	640(%rsp), %rdi
	call	_ZNSt6localeC1Ev
.LVL757:
	.loc 15 473 29 view .LVU2340
.LBE8517:
.LBE8516:
.LBE8515:
	.loc 14 112 56 view .LVU2341
	movq	$_ZTVNSt7__cxx1115basic_stringbufIcSt11char_traitsIcESaIcEEE+16, 584(%rsp)
	movl	$16, 648(%rsp)
.LVL758:
.LBB8518:
.LBI8518:
	.loc 10 431 7 is_stmt 1 view .LVU2342
.LBB8519:
.LBB8520:
.LBI8520:
	.loc 13 138 7 view .LVU2343
.LBB8521:
.LBI8521:
	.loc 12 80 7 view .LVU2344
	.loc 12 80 7 is_stmt 0 view .LVU2345
.LBE8521:
.LBE8520:
.LBB8522:
.LBI8522:
	.loc 10 190 7 is_stmt 1 view .LVU2346
	.loc 10 190 7 is_stmt 0 view .LVU2347
.LBE8522:
.LBB8523:
.LBI8523:
	.loc 10 159 2 is_stmt 1 view .LVU2348
.LBB8524:
.LBB8525:
.LBB8526:
.LBI8526:
	.loc 19 99 5 view .LVU2349
	.loc 19 99 5 is_stmt 0 view .LVU2350
.LBE8526:
.LBB8527:
.LBI8527:
	.loc 13 141 7 is_stmt 1 view .LVU2351
.LBB8528:
.LBI8528:
	.loc 12 83 7 view .LVU2352
	.loc 12 83 7 is_stmt 0 view .LVU2353
.LBE8528:
.LBE8527:
	.loc 10 160 46 view .LVU2354
	leaq	672(%rsp), %rax
.LVL759:
	.loc 10 160 46 view .LVU2355
	movq	%rax, 656(%rsp)
.LVL760:
	.loc 10 160 46 view .LVU2356
.LBE8525:
.LBE8524:
.LBE8523:
.LBB8529:
.LBI8529:
	.loc 13 153 7 is_stmt 1 view .LVU2357
.LBB8530:
.LBI8530:
	.loc 12 89 7 view .LVU2358
	.loc 12 89 7 is_stmt 0 view .LVU2359
.LBE8530:
.LBE8529:
.LBB8531:
.LBI8531:
	.loc 10 214 7 is_stmt 1 view .LVU2360
.LBB8532:
.LBI8532:
	.loc 10 182 7 view .LVU2361
.LBB8533:
	.loc 10 183 9 is_stmt 0 view .LVU2362
	movq	$0, 664(%rsp)
.LVL761:
	.loc 10 183 9 view .LVU2363
.LBE8533:
.LBE8532:
.LBB8534:
.LBI8534:
	.loc 20 299 7 is_stmt 1 view .LVU2364
.LBB8535:
	.loc 20 300 9 view .LVU2365
	.loc 20 300 14 is_stmt 0 view .LVU2366
	movb	$0, 672(%rsp)
.LVL762:
	.loc 20 300 14 view .LVU2367
.LBE8535:
.LBE8534:
.LBE8531:
.LBE8519:
.LBE8518:
.LBE8514:
.LBE8513:
.LBE8512:
	.loc 14 585 9 view .LVU2368
	leaq	584(%rsp), %rsi
	leaq	688(%rsp), %rdi
.LEHB44:
	call	_ZNSt9basic_iosIcSt11char_traitsIcEE4initEPSt15basic_streambufIcS1_E
.LVL763:
.LEHE44:
	jmp	.L438
.L426:
	movq	%rax, %rbp
.LVL764:
	.loc 14 584 53 view .LVU2369
	leaq	584(%rsp), %rdi
	call	_ZNSt7__cxx1115basic_stringbufIcSt11char_traitsIcESaIcEED1Ev
.LVL765:
.LBB8536:
.LBI8536:
	.loc 18 93 7 is_stmt 1 view .LVU2370
.LBB8537:
	.loc 18 93 26 is_stmt 0 view .LVU2371
	movq	%r12, 576(%rsp)
	movq	-24(%r12), %rax
	movq	%r13, 576(%rsp,%rax)
.LVL766:
.L308:
	.loc 18 93 26 view .LVU2372
.LBE8537:
.LBE8536:
.LBB8538:
.LBI8538:
	.loc 17 282 7 is_stmt 1 view .LVU2373
.LBB8539:
	.loc 17 282 22 is_stmt 0 view .LVU2374
	movq	$_ZTVSt9basic_iosIcSt11char_traitsIcEE+16, 688(%rsp)
	leaq	688(%rsp), %rdi
.LVL767:
	.loc 17 282 22 view .LVU2375
	call	_ZNSt8ios_baseD2Ev
.LVL768:
.L309:
	.loc 17 282 22 view .LVU2376
.LBE8539:
.LBE8538:
.LBE8505:
.LBE8504:
.LBE8503:
.LBB8540:
.LBI8540:
	.loc 28 675 7 is_stmt 1 view .LVU2377
.LBB8541:
.LBB8542:
.LBI8542:
	.loc 28 273 7 view .LVU2378
	.loc 28 273 7 is_stmt 0 view .LVU2379
.LBE8542:
	.loc 28 677 15 view .LVU2380
	movq	(%rbx), %rdi
.LVL769:
.LBB8543:
.LBI8543:
	.file 38 "/usr/include/c++/9/bits/stl_construct.h"
	.loc 38 203 5 is_stmt 1 view .LVU2381
	.loc 38 203 5 is_stmt 0 view .LVU2382
.LBE8543:
.LBB8544:
.LBI8544:
	.loc 28 330 7 is_stmt 1 view .LVU2383
.LBB8545:
.LBI8545:
	.loc 28 347 7 view .LVU2384
.LBB8546:
	.loc 28 350 2 is_stmt 0 view .LVU2385
	testq	%rdi, %rdi
	je	.L401
.LVL770:
.LBB8547:
.LBI8547:
	.loc 11 469 7 is_stmt 1 view .LVU2386
.LBB8548:
.LBB8549:
.LBI8549:
	.loc 12 119 7 view .LVU2387
.LBB8550:
	.loc 12 128 19 is_stmt 0 view .LVU2388
	call	_ZdlPv
.LVL771:
.L401:
	.loc 12 128 19 view .LVU2389
.LBE8550:
.LBE8549:
.LBE8548:
.LBE8547:
.LBE8546:
.LBE8545:
.LBB8551:
.LBI8551:
	.loc 28 125 14 is_stmt 1 view .LVU2390
.LBB8552:
.LBI8552:
	.loc 13 153 7 view .LVU2391
.LBB8553:
.LBI8553:
	.loc 12 89 7 view .LVU2392
	.loc 12 89 7 is_stmt 0 view .LVU2393
	movq	%rbp, %rdi
.LEHB45:
	call	_Unwind_Resume
.LVL772:
.LEHE45:
.L425:
	.loc 12 89 7 view .LVU2394
	movq	%rax, %rbp
.LVL773:
	.loc 12 89 7 view .LVU2395
	jmp	.L308
.LVL774:
.L438:
	.loc 12 89 7 view .LVU2396
.LBE8553:
.LBE8552:
.LBE8551:
.LBE8544:
.LBE8541:
.LBE8540:
	.loc 8 114 2 is_stmt 1 view .LVU2397
.LBB8554:
.LBI8554:
	.loc 18 565 5 view .LVU2398
	.loc 18 565 5 is_stmt 0 view .LVU2399
.LBE8554:
	.loc 20 332 2 is_stmt 1 view .LVU2400
	.loc 20 335 2 view .LVU2401
.LBB8556:
.LBB8555:
	.loc 18 570 18 is_stmt 0 view .LVU2402
	movl	$4, %edx
	movl	$.LC5, %esi
	leaq	576(%rsp), %rdi
.LVL775:
.LEHB46:
	.loc 18 570 18 view .LVU2403
	call	_ZSt16__ostream_insertIcSt11char_traitsIcEERSt13basic_ostreamIT_T0_ES6_PKS3_l
.LVL776:
	.loc 18 570 18 view .LVU2404
.LBE8555:
.LBE8556:
.LBB8557:
.LBI8557:
	.loc 18 181 7 is_stmt 1 view .LVU2405
.LBB8558:
	.loc 18 185 50 is_stmt 0 view .LVU2406
	movl	$2, %esi
	leaq	576(%rsp), %rdi
.LVL777:
	.loc 18 185 50 view .LVU2407
	call	_ZNSo9_M_insertImEERSoT_
.LVL778:
	.loc 18 185 50 view .LVU2408
	movq	%rax, %r12
.LVL779:
	.loc 18 185 50 view .LVU2409
.LBE8558:
.LBE8557:
.LBB8559:
.LBI8559:
	.loc 18 565 5 is_stmt 1 view .LVU2410
	.loc 18 565 5 is_stmt 0 view .LVU2411
.LBE8559:
	.loc 20 332 2 is_stmt 1 view .LVU2412
	.loc 20 335 2 view .LVU2413
.LBB8561:
.LBB8560:
	.loc 18 570 18 is_stmt 0 view .LVU2414
	movl	$1, %edx
	movl	$.LC6, %esi
	movq	%rax, %rdi
	call	_ZSt16__ostream_insertIcSt11char_traitsIcEERSt13basic_ostreamIT_T0_ES6_PKS3_l
.LVL780:
	.loc 18 570 18 view .LVU2415
.LBE8560:
.LBE8561:
.LBB8562:
.LBI8562:
	.loc 18 181 7 is_stmt 1 view .LVU2416
.LBB8563:
	.loc 18 185 50 is_stmt 0 view .LVU2417
	movl	$3, %esi
	movq	%r12, %rdi
	call	_ZNSo9_M_insertImEERSoT_
.LVL781:
	movq	%rax, %r12
.LVL782:
	.loc 18 185 50 view .LVU2418
.LBE8563:
.LBE8562:
.LBB8564:
.LBI8564:
	.loc 18 565 5 is_stmt 1 view .LVU2419
	.loc 18 565 5 is_stmt 0 view .LVU2420
.LBE8564:
	.loc 20 332 2 is_stmt 1 view .LVU2421
	.loc 20 335 2 view .LVU2422
.LBB8566:
.LBB8565:
	.loc 18 570 18 is_stmt 0 view .LVU2423
	movl	$1, %edx
	movl	$.LC6, %esi
	movq	%rax, %rdi
	call	_ZSt16__ostream_insertIcSt11char_traitsIcEERSt13basic_ostreamIT_T0_ES6_PKS3_l
.LVL783:
	.loc 18 570 18 view .LVU2424
.LBE8565:
.LBE8566:
.LBB8567:
.LBI8567:
	.loc 18 181 7 is_stmt 1 view .LVU2425
.LBB8568:
	.loc 18 185 50 is_stmt 0 view .LVU2426
	movl	$3, %esi
	movq	%r12, %rdi
	call	_ZNSo9_M_insertImEERSoT_
.LVL784:
	movq	%rax, %r12
.LVL785:
	.loc 18 185 50 view .LVU2427
.LBE8568:
.LBE8567:
.LBB8569:
.LBI8569:
	.loc 18 565 5 is_stmt 1 view .LVU2428
	.loc 18 565 5 is_stmt 0 view .LVU2429
.LBE8569:
	.loc 20 332 2 is_stmt 1 view .LVU2430
	.loc 20 335 2 view .LVU2431
.LBB8571:
.LBB8570:
	.loc 18 570 18 is_stmt 0 view .LVU2432
	movl	$1, %edx
	movl	$.LC7, %esi
	movq	%rax, %rdi
	call	_ZSt16__ostream_insertIcSt11char_traitsIcEERSt13basic_ostreamIT_T0_ES6_PKS3_l
.LVL786:
	.loc 18 570 18 view .LVU2433
.LBE8570:
.LBE8571:
	.loc 8 114 109 view .LVU2434
	leaq	48(%rbp), %rdi
.LVL787:
.LBB8572:
.LBI8572:
	.file 39 "/usr/include/c++/9/bits/stl_map.h"
	.loc 39 544 7 is_stmt 1 view .LVU2435
.LBB8573:
.LBB8574:
.LBI8574:
	.loc 39 1282 7 view .LVU2436
.LBB8575:
.LBB8576:
.LBI8576:
	.loc 25 1285 7 view .LVU2437
.LBB8577:
.LBB8578:
.LBI8578:
	.loc 25 759 7 view .LVU2438
.LBB8579:
	.loc 25 760 31 is_stmt 0 view .LVU2439
	leaq	56(%rbp), %r13
.LVL788:
	.loc 25 760 31 view .LVU2440
.LBE8579:
.LBE8578:
.LBB8580:
.LBI8580:
	.loc 25 748 7 is_stmt 1 view .LVU2441
.LBB8581:
	.loc 25 751 38 is_stmt 0 view .LVU2442
	movq	16(%rdi), %rsi
.LVL789:
	.loc 25 751 38 view .LVU2443
.LBE8581:
.LBE8580:
	.loc 25 1286 56 view .LVU2444
	movq	%rbp, %rcx
	movq	%r13, %rdx
	call	_ZNKSt8_Rb_treeIN3mpp7Request7CommandESt4pairIKS2_NSt7__cxx1112basic_stringIcSt11char_traitsIcESaIcEEEESt10_Select1stISB_ESt4lessIS2_ESaISB_EE14_M_lower_boundEPKSt13_Rb_tree_nodeISB_EPKSt18_Rb_tree_node_baseRS4_
.LVL790:
	.loc 25 1286 56 view .LVU2445
.LBE8577:
.LBE8576:
.LBE8575:
.LBE8574:
.LBB8582:
.LBI8582:
	.loc 39 381 7 is_stmt 1 view .LVU2446
.LBB8583:
.LBI8583:
	.loc 25 1018 7 view .LVU2447
.LBB8584:
.LBI8584:
	.loc 25 345 7 view .LVU2448
	.loc 25 345 7 is_stmt 0 view .LVU2449
.LBE8584:
.LBE8583:
.LBE8582:
.LBB8585:
.LBI8585:
	.loc 25 394 7 is_stmt 1 view .LVU2450
	.loc 25 394 7 is_stmt 0 view .LVU2451
.LBE8585:
	.loc 39 547 19 view .LVU2452
	cmpq	%rax, %r13
	je	.L310
.LVL791:
.LBB8586:
.LBI8586:
	.loc 37 385 7 is_stmt 1 view .LVU2453
	.loc 37 385 7 is_stmt 0 view .LVU2454
.LBE8586:
	.loc 39 547 19 view .LVU2455
	movl	32(%rax), %ecx
	cmpl	%ecx, 0(%rbp)
	jl	.L310
.LVL792:
	.loc 39 547 19 view .LVU2456
.LBE8573:
.LBE8572:
.LBB8588:
.LBI8588:
	.loc 10 6416 5 is_stmt 1 view .LVU2457
.LBB8589:
.LBB8590:
.LBI8590:
	.loc 10 930 7 view .LVU2458
.LBB8591:
	.loc 10 931 16 is_stmt 0 view .LVU2459
	movq	48(%rax), %rdx
.LVL793:
	.loc 10 931 16 view .LVU2460
.LBE8591:
.LBE8590:
.LBB8592:
.LBI8592:
	.loc 10 2312 7 is_stmt 1 view .LVU2461
.LBB8593:
.LBI8593:
	.loc 10 186 7 view .LVU2462
.LBB8594:
	.loc 10 187 28 is_stmt 0 view .LVU2463
	movq	40(%rax), %rsi
.LVL794:
	.loc 10 187 28 view .LVU2464
.LBE8594:
.LBE8593:
.LBE8592:
	.loc 10 6421 30 view .LVU2465
	movq	%r12, %rdi
	call	_ZSt16__ostream_insertIcSt11char_traitsIcEERSt13basic_ostreamIT_T0_ES6_PKS3_l
.LVL795:
	.loc 10 6421 30 view .LVU2466
	jmp	.L439
.LVL796:
.L310:
	.loc 10 6421 30 view .LVU2467
.LBE8589:
.LBE8588:
.LBB8595:
.LBB8587:
	.loc 39 548 24 view .LVU2468
	movl	$.LC8, %edi
	call	_ZSt20__throw_out_of_rangePKc
.LVL797:
.LEHE46:
.L405:
	.loc 39 548 24 view .LVU2469
	movq	%rax, %rbp
.LVL798:
	.loc 39 548 24 view .LVU2470
	jmp	.L320
.LVL799:
.L439:
	.loc 39 548 24 view .LVU2471
.LBE8587:
.LBE8595:
	.loc 8 115 2 is_stmt 1 view .LVU2472
.LBB8596:
.LBI8596:
	.loc 14 677 7 view .LVU2473
.LBB8597:
.LBI8597:
	.loc 14 178 7 view .LVU2474
.LBB8598:
.LBB8599:
.LBI8599:
	.loc 10 2331 7 view .LVU2475
.LBB8600:
.LBI8600:
	.loc 13 141 7 view .LVU2476
.LBB8601:
.LBI8601:
	.loc 12 83 7 view .LVU2477
	.loc 12 83 7 is_stmt 0 view .LVU2478
.LBE8601:
.LBE8600:
.LBE8599:
.LBB8602:
.LBI8602:
	.loc 10 440 7 is_stmt 1 view .LVU2479
.LBB8603:
.LBI8603:
	.loc 10 190 7 view .LVU2480
	.loc 10 190 7 is_stmt 0 view .LVU2481
.LBE8603:
.LBB8604:
.LBI8604:
	.loc 10 156 2 is_stmt 1 view .LVU2482
.LBB8605:
.LBB8606:
.LBI8606:
	.loc 13 141 7 view .LVU2483
.LBB8607:
.LBI8607:
	.loc 12 83 7 view .LVU2484
	.loc 12 83 7 is_stmt 0 view .LVU2485
.LBE8607:
.LBE8606:
	.loc 10 157 35 view .LVU2486
	leaq	208(%rsp), %rax
.LVL800:
	.loc 10 157 35 view .LVU2487
	movq	%rax, 192(%rsp)
.LVL801:
	.loc 10 157 35 view .LVU2488
.LBE8605:
.LBE8604:
.LBB8608:
.LBI8608:
	.loc 10 214 7 is_stmt 1 view .LVU2489
.LBB8609:
.LBI8609:
	.loc 10 182 7 view .LVU2490
.LBB8610:
	.loc 10 183 9 is_stmt 0 view .LVU2491
	movq	$0, 200(%rsp)
.LVL802:
	.loc 10 183 9 view .LVU2492
.LBE8610:
.LBE8609:
.LBB8611:
.LBI8611:
	.loc 20 299 7 is_stmt 1 view .LVU2493
.LBB8612:
	.loc 20 300 9 view .LVU2494
	.loc 20 300 14 is_stmt 0 view .LVU2495
	movb	$0, 208(%rsp)
.LVL803:
	.loc 20 300 14 view .LVU2496
.LBE8612:
.LBE8611:
.LBE8608:
.LBE8602:
.LBB8613:
.LBI8613:
	.loc 13 153 7 is_stmt 1 view .LVU2497
.LBB8614:
.LBI8614:
	.loc 12 89 7 view .LVU2498
	.loc 12 89 7 is_stmt 0 view .LVU2499
.LBE8614:
.LBE8613:
.LBB8615:
.LBI8615:
	.loc 15 539 7 is_stmt 1 view .LVU2500
.LBB8616:
	.loc 15 539 29 is_stmt 0 view .LVU2501
	movq	624(%rsp), %r8
.LVL804:
	.loc 15 539 29 view .LVU2502
.LBE8616:
.LBE8615:
	.loc 14 181 2 view .LVU2503
	testq	%r8, %r8
	je	.L312
.LVL805:
.LBB8617:
.LBI8617:
	.loc 15 495 7 is_stmt 1 view .LVU2504
.LBB8618:
	.loc 15 495 30 is_stmt 0 view .LVU2505
	movq	608(%rsp), %rax
.LVL806:
	.loc 15 495 30 view .LVU2506
.LBE8618:
.LBE8617:
	.loc 14 184 6 view .LVU2507
	cmpq	%rax, %r8
	jbe	.L313
.LVL807:
.LBB8619:
.LBI8619:
	.loc 15 536 7 is_stmt 1 view .LVU2508
.LBB8620:
	.loc 15 536 30 is_stmt 0 view .LVU2509
	movq	616(%rsp), %rcx
.LVL808:
	.loc 15 536 30 view .LVU2510
.LBE8620:
.LBE8619:
.LBB8621:
.LBI8621:
	.loc 10 1470 9 is_stmt 1 view .LVU2511
.LBB8622:
.LBI8622:
	.loc 10 842 7 view .LVU2512
.LBB8623:
.LBI8623:
	.loc 21 806 7 view .LVU2513
	.loc 21 806 7 is_stmt 0 view .LVU2514
.LBE8623:
.LBE8622:
.LBB8624:
.LBI8624:
	.loc 21 811 9 is_stmt 1 view .LVU2515
.LBB8625:
.LBI8625:
	.loc 21 871 7 view .LVU2516
	.loc 21 871 7 is_stmt 0 view .LVU2517
.LBE8625:
.LBE8624:
.LBB8626:
.LBI8626:
	.loc 10 826 7 is_stmt 1 view .LVU2518
.LBB8627:
.LBI8627:
	.loc 21 806 7 view .LVU2519
	.loc 21 806 7 is_stmt 0 view .LVU2520
.LBE8627:
.LBE8626:
.LBB8628:
.LBI8628:
	.loc 21 811 9 is_stmt 1 view .LVU2521
.LBB8629:
.LBI8629:
	.loc 21 871 7 view .LVU2522
	.loc 21 871 7 is_stmt 0 view .LVU2523
.LBE8629:
.LBE8628:
.LBB8630:
.LBI8630:
	.loc 10 2123 7 is_stmt 1 view .LVU2524
.LBB8631:
	.loc 10 2130 20 is_stmt 0 view .LVU2525
	subq	%rcx, %r8
.LVL809:
.LBB8632:
.LBI8632:
	.loc 10 826 7 is_stmt 1 view .LVU2526
.LBB8633:
.LBI8633:
	.loc 21 806 7 view .LVU2527
	.loc 21 806 7 is_stmt 0 view .LVU2528
.LBE8633:
.LBE8632:
.LBB8634:
.LBI8634:
	.loc 10 1936 7 is_stmt 1 view .LVU2529
.LBB8635:
.LBB8636:
.LBI8636:
	.loc 10 329 7 view .LVU2530
.LBB8637:
.LBB8638:
.LBI8638:
	.loc 10 930 7 view .LVU2531
.LBB8639:
	.loc 10 931 16 is_stmt 0 view .LVU2532
	movl	$0, %edx
.LVL810:
	.loc 10 931 16 view .LVU2533
.LBE8639:
.LBE8638:
.LBE8637:
.LBE8636:
	.loc 10 1941 38 view .LVU2534
	movl	$0, %esi
	leaq	192(%rsp), %rdi
.LVL811:
.LEHB47:
	.loc 10 1941 38 view .LVU2535
	call	_ZNSt7__cxx1112basic_stringIcSt11char_traitsIcESaIcEE10_M_replaceEmmPKcm
.LVL812:
	.loc 10 1941 38 view .LVU2536
	jmp	.L315
.LVL813:
.L313:
	.loc 10 1941 38 view .LVU2537
.LBE8635:
.LBE8634:
.LBE8631:
.LBE8630:
.LBE8621:
.LBB8640:
.LBI8640:
	.loc 15 536 7 is_stmt 1 view .LVU2538
.LBB8641:
	.loc 15 536 30 is_stmt 0 view .LVU2539
	movq	616(%rsp), %rcx
.LVL814:
	.loc 15 536 30 view .LVU2540
.LBE8641:
.LBE8640:
.LBB8642:
.LBI8642:
	.loc 10 1470 9 is_stmt 1 view .LVU2541
.LBB8643:
.LBI8643:
	.loc 10 842 7 view .LVU2542
.LBB8644:
.LBI8644:
	.loc 21 806 7 view .LVU2543
	.loc 21 806 7 is_stmt 0 view .LVU2544
.LBE8644:
.LBE8643:
.LBB8645:
.LBI8645:
	.loc 21 811 9 is_stmt 1 view .LVU2545
.LBB8646:
.LBI8646:
	.loc 21 871 7 view .LVU2546
	.loc 21 871 7 is_stmt 0 view .LVU2547
.LBE8646:
.LBE8645:
.LBB8647:
.LBI8647:
	.loc 10 826 7 is_stmt 1 view .LVU2548
.LBB8648:
.LBI8648:
	.loc 21 806 7 view .LVU2549
	.loc 21 806 7 is_stmt 0 view .LVU2550
.LBE8648:
.LBE8647:
.LBB8649:
.LBI8649:
	.loc 21 811 9 is_stmt 1 view .LVU2551
.LBB8650:
.LBI8650:
	.loc 21 871 7 view .LVU2552
	.loc 21 871 7 is_stmt 0 view .LVU2553
.LBE8650:
.LBE8649:
.LBB8651:
.LBI8651:
	.loc 10 2123 7 is_stmt 1 view .LVU2554
.LBB8652:
	.loc 10 2130 20 is_stmt 0 view .LVU2555
	subq	%rcx, %rax
.LVL815:
	.loc 10 2130 20 view .LVU2556
	movq	%rax, %r8
.LVL816:
.LBB8653:
.LBI8653:
	.loc 10 826 7 is_stmt 1 view .LVU2557
.LBB8654:
.LBI8654:
	.loc 21 806 7 view .LVU2558
	.loc 21 806 7 is_stmt 0 view .LVU2559
.LBE8654:
.LBE8653:
.LBB8655:
.LBI8655:
	.loc 10 1936 7 is_stmt 1 view .LVU2560
.LBB8656:
.LBB8657:
.LBI8657:
	.loc 10 329 7 view .LVU2561
.LBB8658:
.LBB8659:
.LBI8659:
	.loc 10 930 7 view .LVU2562
.LBB8660:
	.loc 10 931 16 is_stmt 0 view .LVU2563
	movq	200(%rsp), %rdx
.LVL817:
	.loc 10 931 16 view .LVU2564
.LBE8660:
.LBE8659:
	.loc 10 332 19 view .LVU2565
	testq	%rdx, %rdx
	je	.L316
	movl	$0, %edx
.LVL818:
.L316:
	.loc 10 332 19 view .LVU2566
.LBE8658:
.LBE8657:
	.loc 10 1941 38 view .LVU2567
	movl	$0, %esi
	leaq	192(%rsp), %rdi
.LVL819:
	.loc 10 1941 38 view .LVU2568
	call	_ZNSt7__cxx1112basic_stringIcSt11char_traitsIcESaIcEE10_M_replaceEmmPKcm
.LVL820:
	.loc 10 1941 38 view .LVU2569
	jmp	.L315
.LVL821:
.L312:
	.loc 10 1941 38 view .LVU2570
.LBE8656:
.LBE8655:
.LBE8652:
.LBE8651:
.LBE8642:
.LBB8661:
.LBI8661:
	.loc 10 665 7 is_stmt 1 view .LVU2571
.LBB8662:
.LBI8662:
	.loc 10 1364 7 view .LVU2572
.LBB8663:
	.loc 10 1366 2 is_stmt 0 view .LVU2573
	leaq	656(%rsp), %rsi
.LVL822:
	.loc 10 1366 2 view .LVU2574
	leaq	192(%rsp), %rdi
.LVL823:
	.loc 10 1366 2 view .LVU2575
	call	_ZNSt7__cxx1112basic_stringIcSt11char_traitsIcESaIcEE9_M_assignERKS4_
.LVL824:
.LEHE47:
.L315:
	.loc 10 1366 2 view .LVU2576
.LBE8663:
.LBE8662:
.LBE8661:
.LBE8598:
.LBE8597:
.LBE8596:
.LBB8680:
.LBI8680:
	.file 40 "/usr/local/include/boost/asio/buffer.hpp"
	.loc 40 1456 24 is_stmt 1 view .LVU2577
.LBB8681:
.LBB8682:
.LBI8682:
	.loc 10 930 7 view .LVU2578
	.loc 10 930 7 is_stmt 0 view .LVU2579
.LBE8682:
.LBB8683:
.LBI8683:
	.loc 10 2312 7 is_stmt 1 view .LVU2580
.LBB8684:
.LBI8684:
	.loc 10 186 7 view .LVU2581
.LBB8685:
	.loc 10 187 28 is_stmt 0 view .LVU2582
	movq	192(%rsp), %rax
.LVL825:
	.loc 10 187 28 view .LVU2583
.LBE8685:
.LBE8684:
.LBE8683:
.LBB8686:
.LBI8686:
	.loc 40 318 3 is_stmt 1 view .LVU2584
.LBB8687:
.LBI8687:
	.loc 40 238 3 view .LVU2585
	.loc 40 238 3 is_stmt 0 view .LVU2586
.LBE8687:
.LBE8686:
.LBE8681:
.LBE8680:
	.loc 8 115 51 view .LVU2587
	movq	%rax, 960(%rsp)
	movq	200(%rsp), %rax
	movq	%rax, 968(%rsp)
.LVL826:
.LBB8688:
.LBI8688:
	.loc 28 1200 7 is_stmt 1 view .LVU2588
.LBB8689:
	.loc 28 1201 9 is_stmt 0 view .LVU2589
	leaq	960(%rsp), %rsi
.LVL827:
	.loc 28 1201 9 view .LVU2590
	movq	%rbx, %rdi
.LEHB48:
	call	_ZNSt6vectorIN5boost4asio12const_bufferESaIS2_EE12emplace_backIJS2_EEERS2_DpOT_
.LVL828:
.LEHE48:
	.loc 28 1201 9 view .LVU2591
	jmp	.L440
.LVL829:
.L427:
	.loc 28 1201 9 view .LVU2592
	movq	%rax, %rbp
.LVL830:
	.loc 28 1201 9 view .LVU2593
.LBE8689:
.LBE8688:
.LBB8690:
.LBB8679:
.LBB8678:
.LBB8664:
.LBI8664:
	.loc 10 657 7 is_stmt 1 view .LVU2594
.LBB8665:
.LBI8665:
	.loc 10 229 7 view .LVU2595
.LBB8666:
.LBB8667:
.LBI8667:
	.loc 10 221 7 view .LVU2596
.LBB8668:
.LBI8668:
	.loc 10 186 7 view .LVU2597
.LBB8669:
	.loc 10 187 28 is_stmt 0 view .LVU2598
	movq	192(%rsp), %rdi
.LVL831:
	.loc 10 187 28 view .LVU2599
.LBE8669:
.LBE8668:
.LBE8667:
	.loc 10 231 2 view .LVU2600
	leaq	208(%rsp), %rax
	cmpq	%rax, %rdi
	je	.L320
.LVL832:
.LBB8670:
.LBI8670:
	.loc 10 236 7 is_stmt 1 view .LVU2601
.LBB8671:
.LBB8672:
.LBI8672:
	.loc 11 469 7 view .LVU2602
.LBB8673:
.LBI8673:
	.loc 12 119 7 view .LVU2603
.LBB8674:
	.loc 12 128 19 is_stmt 0 view .LVU2604
	call	_ZdlPv
.LVL833:
	.loc 12 128 19 view .LVU2605
.LBE8674:
.LBE8673:
.LBE8672:
.LBE8671:
.LBE8670:
.LBE8666:
.LBE8665:
.LBB8675:
.LBI8675:
	.loc 10 150 14 is_stmt 1 view .LVU2606
.LBB8676:
.LBI8676:
	.loc 13 153 7 view .LVU2607
.LBB8677:
.LBI8677:
	.loc 12 89 7 view .LVU2608
.L320:
	.loc 12 89 7 is_stmt 0 view .LVU2609
.LBE8677:
.LBE8676:
.LBE8675:
.LBE8664:
.LBE8678:
.LBE8679:
.LBE8690:
	.loc 8 112 21 view .LVU2610
	leaq	576(%rsp), %rdi
	call	_ZNSt7__cxx1119basic_ostringstreamIcSt11char_traitsIcESaIcEED1Ev
.LVL834:
	jmp	.L309
.LVL835:
.L440:
.LBB8691:
.LBI8691:
	.loc 10 657 7 is_stmt 1 discriminator 3 view .LVU2611
.LBB8692:
.LBI8692:
	.loc 10 229 7 discriminator 3 view .LVU2612
.LBB8693:
.LBB8694:
.LBI8694:
	.loc 10 221 7 discriminator 3 view .LVU2613
.LBB8695:
.LBI8695:
	.loc 10 186 7 discriminator 3 view .LVU2614
.LBB8696:
	.loc 10 187 28 is_stmt 0 discriminator 3 view .LVU2615
	movq	192(%rsp), %rdi
.LVL836:
	.loc 10 187 28 discriminator 3 view .LVU2616
.LBE8696:
.LBE8695:
.LBB8697:
.LBI8697:
	.loc 10 200 7 is_stmt 1 discriminator 3 view .LVU2617
	.loc 10 200 7 is_stmt 0 discriminator 3 view .LVU2618
.LBE8697:
.LBE8694:
	.loc 10 231 2 discriminator 3 view .LVU2619
	leaq	208(%rsp), %rax
	cmpq	%rax, %rdi
	je	.L321
.LVL837:
.LBB8698:
.LBI8698:
	.loc 10 236 7 is_stmt 1 view .LVU2620
.LBB8699:
.LBB8700:
.LBI8700:
	.loc 11 469 7 view .LVU2621
.LBB8701:
.LBI8701:
	.loc 12 119 7 view .LVU2622
.LBB8702:
	.loc 12 128 19 is_stmt 0 view .LVU2623
	call	_ZdlPv
.LVL838:
.L321:
	.loc 12 128 19 view .LVU2624
.LBE8702:
.LBE8701:
.LBE8700:
.LBE8699:
.LBE8698:
.LBE8693:
.LBE8692:
.LBB8703:
.LBI8703:
	.loc 10 150 14 is_stmt 1 view .LVU2625
.LBB8704:
.LBI8704:
	.loc 13 153 7 view .LVU2626
.LBB8705:
.LBI8705:
	.loc 12 89 7 view .LVU2627
	.loc 12 89 7 is_stmt 0 view .LVU2628
.LBE8705:
.LBE8704:
.LBE8703:
.LBE8691:
	.loc 8 116 2 is_stmt 1 view .LVU2629
.LBB8706:
.LBI8706:
	.loc 40 1277 24 view .LVU2630
.LBB8707:
.LBB8708:
.LBI8708:
	.file 41 "/usr/include/c++/9/array"
	.loc 41 238 7 view .LVU2631
.LBB8709:
	.loc 41 239 33 is_stmt 0 view .LVU2632
	leaq	96(%rbp), %r14
.LVL839:
	.loc 41 239 33 view .LVU2633
.LBE8709:
.LBE8708:
.LBB8710:
.LBI8710:
	.loc 40 318 3 is_stmt 1 view .LVU2634
.LBB8711:
.LBI8711:
	.loc 40 238 3 view .LVU2635
	.loc 40 238 3 is_stmt 0 view .LVU2636
.LBE8711:
.LBE8710:
.LBE8707:
.LBE8706:
	.loc 8 116 45 view .LVU2637
	movq	%r14, 976(%rsp)
	movq	$2, 984(%rsp)
.LVL840:
.LBB8712:
.LBI8712:
	.loc 28 1200 7 is_stmt 1 view .LVU2638
.LBB8713:
	.loc 28 1201 9 is_stmt 0 view .LVU2639
	leaq	976(%rsp), %rsi
.LVL841:
	.loc 28 1201 9 view .LVU2640
	movq	%rbx, %rdi
.LEHB49:
	call	_ZNSt6vectorIN5boost4asio12const_bufferESaIS2_EE12emplace_backIJS2_EEERS2_DpOT_
.LVL842:
.LEHE49:
	.loc 28 1201 9 view .LVU2641
.LBE8713:
.LBE8712:
	.loc 8 118 2 is_stmt 1 discriminator 2 view .LVU2642
.LBB8714:
.LBB8715:
.LBI8715:
	.loc 23 725 7 discriminator 2 view .LVU2643
.LBB8716:
.LBB8717:
.LBI8717:
	.loc 23 225 7 discriminator 2 view .LVU2644
	.loc 23 225 7 is_stmt 0 discriminator 2 view .LVU2645
.LBE8717:
.LBE8716:
.LBE8715:
	.loc 8 118 23 discriminator 2 view .LVU2646
	movq	8(%rbp), %rsi
.LVL843:
.LBB8718:
.LBI8718:
	.loc 23 743 7 is_stmt 1 discriminator 2 view .LVU2647
.LBB8719:
.LBI8719:
	.loc 23 225 7 discriminator 2 view .LVU2648
	.loc 23 225 7 is_stmt 0 discriminator 2 view .LVU2649
	jmp	.L367
.L450:
.LBE8719:
.LBE8718:
.LBB8720:
	.loc 8 120 3 is_stmt 1 view .LVU2650
	.loc 8 120 51 is_stmt 0 view .LVU2651
	leaq	144(%rsp), %rsi
	leaq	192(%rsp), %rdi
.LEHB50:
	call	_ZNK3mpp6Header7getNameB5cxx11Ev
.LVL844:
.LEHE50:
.LBB8721:
.LBI8721:
	.loc 40 1456 24 is_stmt 1 view .LVU2652
.LBB8722:
.LBB8723:
.LBI8723:
	.loc 10 930 7 view .LVU2653
	.loc 10 930 7 is_stmt 0 view .LVU2654
.LBE8723:
.LBB8724:
.LBI8724:
	.loc 10 2312 7 is_stmt 1 view .LVU2655
.LBB8725:
.LBI8725:
	.loc 10 186 7 view .LVU2656
.LBB8726:
	.loc 10 187 28 is_stmt 0 view .LVU2657
	movq	192(%rsp), %rax
.LVL845:
	.loc 10 187 28 view .LVU2658
.LBE8726:
.LBE8725:
.LBE8724:
.LBB8727:
.LBI8727:
	.loc 40 318 3 is_stmt 1 view .LVU2659
.LBB8728:
.LBI8728:
	.loc 40 238 3 view .LVU2660
	.loc 40 238 3 is_stmt 0 view .LVU2661
.LBE8728:
.LBE8727:
.LBE8722:
.LBE8721:
	.loc 8 120 53 view .LVU2662
	movq	%rax, 992(%rsp)
	movq	200(%rsp), %rax
	movq	%rax, 1000(%rsp)
.LVL846:
.LBB8729:
.LBI8729:
	.loc 28 1200 7 is_stmt 1 view .LVU2663
.LBB8730:
	.loc 28 1201 9 is_stmt 0 view .LVU2664
	leaq	992(%rsp), %rsi
.LVL847:
	.loc 28 1201 9 view .LVU2665
	movq	%rbx, %rdi
.LEHB51:
	call	_ZNSt6vectorIN5boost4asio12const_bufferESaIS2_EE12emplace_backIJS2_EEERS2_DpOT_
.LVL848:
.LEHE51:
	.loc 28 1201 9 view .LVU2666
.LBE8730:
.LBE8729:
.LBB8731:
.LBI8731:
	.loc 10 657 7 is_stmt 1 discriminator 3 view .LVU2667
.LBB8732:
.LBI8732:
	.loc 10 229 7 discriminator 3 view .LVU2668
.LBB8733:
.LBB8734:
.LBI8734:
	.loc 10 221 7 discriminator 3 view .LVU2669
.LBB8735:
.LBI8735:
	.loc 10 186 7 discriminator 3 view .LVU2670
.LBB8736:
	.loc 10 187 28 is_stmt 0 discriminator 3 view .LVU2671
	movq	192(%rsp), %rdi
.LVL849:
	.loc 10 187 28 discriminator 3 view .LVU2672
.LBE8736:
.LBE8735:
.LBB8737:
.LBI8737:
	.loc 10 200 7 is_stmt 1 discriminator 3 view .LVU2673
	.loc 10 200 7 is_stmt 0 discriminator 3 view .LVU2674
.LBE8737:
.LBE8734:
	.loc 10 231 2 discriminator 3 view .LVU2675
	leaq	208(%rsp), %rax
	cmpq	%rax, %rdi
	je	.L323
.LVL850:
.LBB8738:
.LBI8738:
	.loc 10 236 7 is_stmt 1 view .LVU2676
.LBB8739:
.LBB8740:
.LBI8740:
	.loc 11 469 7 view .LVU2677
.LBB8741:
.LBI8741:
	.loc 12 119 7 view .LVU2678
.LBB8742:
	.loc 12 128 19 is_stmt 0 view .LVU2679
	call	_ZdlPv
.LVL851:
.L323:
	.loc 12 128 19 view .LVU2680
.LBE8742:
.LBE8741:
.LBE8740:
.LBE8739:
.LBE8738:
.LBE8733:
.LBE8732:
.LBB8743:
.LBI8743:
	.loc 10 150 14 is_stmt 1 view .LVU2681
.LBB8744:
.LBI8744:
	.loc 13 153 7 view .LVU2682
.LBB8745:
.LBI8745:
	.loc 12 89 7 view .LVU2683
	.loc 12 89 7 is_stmt 0 view .LVU2684
.LBE8745:
.LBE8744:
.LBE8743:
.LBE8731:
	.loc 8 121 3 is_stmt 1 view .LVU2685
.LBB8746:
.LBI8746:
	.loc 40 1277 24 view .LVU2686
.LBB8747:
.LBB8748:
.LBI8748:
	.loc 41 238 7 view .LVU2687
.LBB8749:
	.loc 41 239 33 is_stmt 0 view .LVU2688
	leaq	98(%rbp), %rax
.LVL852:
	.loc 41 239 33 view .LVU2689
.LBE8749:
.LBE8748:
.LBB8750:
.LBI8750:
	.loc 40 318 3 is_stmt 1 view .LVU2690
.LBB8751:
.LBI8751:
	.loc 40 238 3 view .LVU2691
	.loc 40 238 3 is_stmt 0 view .LVU2692
.LBE8751:
.LBE8750:
.LBE8747:
.LBE8746:
	.loc 8 121 52 view .LVU2693
	movq	%rax, 1008(%rsp)
	movq	$2, 1016(%rsp)
.LVL853:
.LBB8752:
.LBI8752:
	.loc 28 1200 7 is_stmt 1 view .LVU2694
.LBB8753:
	.loc 28 1201 9 is_stmt 0 view .LVU2695
	leaq	1008(%rsp), %rsi
.LVL854:
	.loc 28 1201 9 view .LVU2696
	movq	%rbx, %rdi
.LEHB52:
	call	_ZNSt6vectorIN5boost4asio12const_bufferESaIS2_EE12emplace_backIJS2_EEERS2_DpOT_
.LVL855:
.LEHE52:
	.loc 28 1201 9 view .LVU2697
.LBE8753:
.LBE8752:
	.loc 8 122 3 is_stmt 1 discriminator 2 view .LVU2698
.LBB8754:
.LBI8754:
	.loc 10 431 7 discriminator 2 view .LVU2699
.LBB8755:
.LBB8756:
.LBI8756:
	.loc 13 138 7 discriminator 2 view .LVU2700
.LBB8757:
.LBI8757:
	.loc 12 80 7 discriminator 2 view .LVU2701
	.loc 12 80 7 is_stmt 0 discriminator 2 view .LVU2702
.LBE8757:
.LBE8756:
.LBB8758:
.LBI8758:
	.loc 10 190 7 is_stmt 1 discriminator 2 view .LVU2703
	.loc 10 190 7 is_stmt 0 discriminator 2 view .LVU2704
.LBE8758:
.LBB8759:
.LBI8759:
	.loc 10 159 2 is_stmt 1 discriminator 2 view .LVU2705
.LBB8760:
.LBB8761:
.LBB8762:
.LBI8762:
	.loc 19 99 5 discriminator 2 view .LVU2706
	.loc 19 99 5 is_stmt 0 discriminator 2 view .LVU2707
.LBE8762:
.LBB8763:
.LBI8763:
	.loc 13 141 7 is_stmt 1 discriminator 2 view .LVU2708
.LBB8764:
.LBI8764:
	.loc 12 83 7 discriminator 2 view .LVU2709
	.loc 12 83 7 is_stmt 0 discriminator 2 view .LVU2710
.LBE8764:
.LBE8763:
	.loc 10 160 46 discriminator 2 view .LVU2711
	leaq	64(%rsp), %rax
.LVL856:
	.loc 10 160 46 discriminator 2 view .LVU2712
	movq	%rax, 48(%rsp)
.LVL857:
	.loc 10 160 46 discriminator 2 view .LVU2713
.LBE8761:
.LBE8760:
.LBE8759:
.LBB8765:
.LBI8765:
	.loc 13 153 7 is_stmt 1 discriminator 2 view .LVU2714
.LBB8766:
.LBI8766:
	.loc 12 89 7 discriminator 2 view .LVU2715
	.loc 12 89 7 is_stmt 0 discriminator 2 view .LVU2716
.LBE8766:
.LBE8765:
.LBB8767:
.LBI8767:
	.loc 10 214 7 is_stmt 1 discriminator 2 view .LVU2717
.LBB8768:
.LBI8768:
	.loc 10 182 7 discriminator 2 view .LVU2718
.LBB8769:
	.loc 10 183 9 is_stmt 0 discriminator 2 view .LVU2719
	movq	$0, 56(%rsp)
.LVL858:
	.loc 10 183 9 discriminator 2 view .LVU2720
.LBE8769:
.LBE8768:
.LBB8770:
.LBI8770:
	.loc 20 299 7 is_stmt 1 discriminator 2 view .LVU2721
.LBB8771:
	.loc 20 300 9 discriminator 2 view .LVU2722
	.loc 20 300 14 is_stmt 0 discriminator 2 view .LVU2723
	movb	$0, 64(%rsp)
.LVL859:
	.loc 20 300 14 discriminator 2 view .LVU2724
.LBE8771:
.LBE8770:
.LBE8767:
.LBE8755:
.LBE8754:
	.loc 8 125 3 is_stmt 1 discriminator 2 view .LVU2725
.LBB8772:
	.loc 8 125 16 is_stmt 0 discriminator 2 view .LVU2726
	leaq	144(%rsp), %rsi
	leaq	192(%rsp), %rdi
.LEHB53:
	call	_ZNK3mpp6Header7getNameB5cxx11Ev
.LVL860:
.LEHE53:
.LBB8773:
.LBI8773:
	.loc 10 6175 5 is_stmt 1 view .LVU2727
.LBB8774:
	.loc 10 6177 35 is_stmt 0 view .LVU2728
	movl	$.LC9, %esi
	leaq	192(%rsp), %rdi
.LVL861:
	.loc 10 6177 35 view .LVU2729
	call	_ZNKSt7__cxx1112basic_stringIcSt11char_traitsIcESaIcEE7compareEPKc
.LVL862:
	.loc 10 6177 35 view .LVU2730
	movl	%eax, %r13d
.LVL863:
	.loc 10 6177 35 view .LVU2731
.LBE8774:
.LBE8773:
.LBB8775:
.LBI8775:
	.loc 10 657 7 is_stmt 1 view .LVU2732
.LBB8776:
.LBI8776:
	.loc 10 229 7 view .LVU2733
.LBB8777:
.LBB8778:
.LBI8778:
	.loc 10 221 7 view .LVU2734
.LBB8779:
.LBI8779:
	.loc 10 186 7 view .LVU2735
.LBB8780:
	.loc 10 187 28 is_stmt 0 view .LVU2736
	movq	192(%rsp), %rdi
.LVL864:
	.loc 10 187 28 view .LVU2737
.LBE8780:
.LBE8779:
.LBB8781:
.LBI8781:
	.loc 10 200 7 is_stmt 1 view .LVU2738
	.loc 10 200 7 is_stmt 0 view .LVU2739
.LBE8781:
.LBE8778:
	.loc 10 231 2 view .LVU2740
	leaq	208(%rsp), %rax
	cmpq	%rax, %rdi
	je	.L324
.LVL865:
.LBB8782:
.LBI8782:
	.loc 10 236 7 is_stmt 1 view .LVU2741
.LBB8783:
.LBB8784:
.LBI8784:
	.loc 11 469 7 view .LVU2742
.LBB8785:
.LBI8785:
	.loc 12 119 7 view .LVU2743
.LBB8786:
	.loc 12 128 19 is_stmt 0 view .LVU2744
	call	_ZdlPv
.LVL866:
.L324:
	.loc 12 128 19 view .LVU2745
.LBE8786:
.LBE8785:
.LBE8784:
.LBE8783:
.LBE8782:
.LBE8777:
.LBE8776:
.LBB8787:
.LBI8787:
	.loc 10 150 14 is_stmt 1 view .LVU2746
.LBB8788:
.LBI8788:
	.loc 13 153 7 view .LVU2747
.LBB8789:
.LBI8789:
	.loc 12 89 7 view .LVU2748
	.loc 12 89 7 is_stmt 0 view .LVU2749
.LBE8789:
.LBE8788:
.LBE8787:
.LBE8775:
	.loc 8 125 3 view .LVU2750
	testl	%r13d, %r13d
	jne	.L325
.LBE8772:
.LBE8720:
.LBE8714:
	.loc 8 127 4 is_stmt 1 view .LVU2751
.LBB9541:
.LBB9519:
.LBB9393:
.LBB8790:
	.loc 8 129 5 view .LVU2752
	.loc 8 129 73 is_stmt 0 view .LVU2753
	leaq	144(%rsp), %rsi
	leaq	1024(%rsp), %rdi
.LEHB54:
	call	_ZNK3mpp6Header8getValueEv
.LVL867:
.LEHE54:
.LBB8791:
.LBI8791:
	.loc 1 492 23 is_stmt 1 view .LVU2754
.LBB8792:
.LBB8793:
.LBI8793:
	.loc 1 556 24 view .LVU2755
.LBB8794:
	.loc 1 560 60 is_stmt 0 view .LVU2756
	leaq	1024(%rsp), %rdi
.LVL868:
	.loc 1 560 60 view .LVU2757
	call	_ZSt12__any_casterImEPvPKSt3any
.LVL869:
	.loc 1 560 60 view .LVU2758
.LBE8794:
.LBE8793:
	.loc 1 500 7 view .LVU2759
	testq	%rax, %rax
	je	.L326
	.loc 1 501 48 view .LVU2760
	movq	(%rax), %r15
.LVL870:
	.loc 1 501 48 view .LVU2761
.LBE8792:
.LBE8791:
.LBB8796:
.LBI8796:
	.loc 1 230 5 is_stmt 1 view .LVU2762
.LBE8796:
.LBE8790:
.LBE9393:
.LBE9519:
.LBE9541:
	.loc 1 230 14 view .LVU2763
.LBB9542:
.LBB9520:
.LBB9394:
.LBB9030:
.LBB8801:
.LBB8797:
.LBI8797:
	.loc 1 300 10 view .LVU2764
.LBB8798:
	.loc 1 302 7 view .LVU2765
.LBB8799:
.LBI8799:
	.loc 1 342 10 view .LVU2766
.LBB8800:
	.loc 1 342 39 view .LVU2767
	.loc 1 342 46 is_stmt 0 view .LVU2768
	movq	1024(%rsp), %rax
.LVL871:
	.loc 1 342 46 view .LVU2769
.LBE8800:
.LBE8799:
	.loc 1 302 7 view .LVU2770
	testq	%rax, %rax
	je	.L328
	.loc 1 304 2 is_stmt 1 view .LVU2771
	.loc 1 304 12 is_stmt 0 view .LVU2772
	movl	$0, %edx
	leaq	1024(%rsp), %rsi
.LVL872:
	.loc 1 304 12 view .LVU2773
	movl	$3, %edi
	call	*%rax
.LVL873:
	.loc 1 305 2 is_stmt 1 view .LVU2774
.L328:
	.loc 1 305 2 is_stmt 0 view .LVU2775
.LBE8798:
.LBE8797:
.LBE8801:
	.loc 8 130 5 is_stmt 1 view .LVU2776
.LBB8802:
.LBI8802:
	.loc 14 583 7 view .LVU2777
.LBB8803:
.LBB8804:
.LBB8805:
.LBI8805:
	.loc 17 460 7 view .LVU2778
.LBB8806:
.LBB8807:
	.loc 17 462 59 is_stmt 0 view .LVU2779
	leaq	304(%rsp), %rdi
.LVL874:
	.loc 17 462 59 view .LVU2780
	call	_ZNSt8ios_baseC2Ev
.LVL875:
	.loc 17 462 59 view .LVU2781
	movq	$_ZTVSt9basic_iosIcSt11char_traitsIcEE+16, 304(%rsp)
	movq	$0, 520(%rsp)
	movb	$0, 528(%rsp)
	movb	$0, 529(%rsp)
	movq	$0, 536(%rsp)
	movq	$0, 544(%rsp)
	movq	$0, 552(%rsp)
	movq	$0, 560(%rsp)
.LVL876:
	.loc 17 462 59 view .LVU2782
.LBE8807:
.LBE8806:
.LBE8805:
.LBB8808:
.LBI8808:
	.loc 18 390 7 is_stmt 1 view .LVU2783
.LBB8809:
.LBB8810:
	.loc 18 391 7 is_stmt 0 view .LVU2784
	movq	_ZTTNSt7__cxx1119basic_ostringstreamIcSt11char_traitsIcESaIcEEE+8(%rip), %r13
	movq	%r13, 192(%rsp)
	movq	-24(%r13), %rax
	movq	_ZTTNSt7__cxx1119basic_ostringstreamIcSt11char_traitsIcESaIcEEE+16(%rip), %rcx
	movq	%rcx, 192(%rsp,%rax)
	.loc 18 391 9 view .LVU2785
	movq	192(%rsp), %rax
	leaq	192(%rsp), %rdi
.LVL877:
	.loc 18 391 9 view .LVU2786
	addq	-24(%rax), %rdi
.LVL878:
	.loc 18 391 9 view .LVU2787
	movl	$0, %esi
.LEHB55:
	call	_ZNSt9basic_iosIcSt11char_traitsIcEE4initEPSt15basic_streambufIcS1_E
.LVL879:
.LEHE55:
.LBE8810:
	.loc 18 391 24 view .LVU2788
	jmp	.L441
.LVL880:
.L326:
.LEHB56:
	.loc 18 391 24 view .LVU2789
.LBE8809:
.LBE8808:
.LBE8804:
.LBE8803:
.LBE8802:
.LBB8841:
.LBB8795:
	.loc 1 502 27 view .LVU2790
	call	_ZSt20__throw_bad_any_castv
.LVL881:
.LEHE56:
.L411:
	.loc 1 502 27 view .LVU2791
	movq	%rax, %rbp
.LVL882:
	.loc 1 502 27 view .LVU2792
	movq	%rdx, %r12
.LVL883:
	.loc 1 502 27 view .LVU2793
.LBE8795:
.LBE8841:
.LBB8842:
.LBI8842:
	.loc 1 230 5 is_stmt 1 view .LVU2794
.LBE8842:
.LBE9030:
.LBE9394:
.LBE9520:
.LBE9542:
	.loc 1 230 14 view .LVU2795
.LBB9543:
.LBB9521:
.LBB9395:
.LBB9031:
.LBB8847:
.LBB8843:
.LBI8843:
	.loc 1 300 10 view .LVU2796
.LBB8844:
	.loc 1 302 7 view .LVU2797
.LBB8845:
.LBI8845:
	.loc 1 342 10 view .LVU2798
.LBB8846:
	.loc 1 342 39 view .LVU2799
	.loc 1 342 46 is_stmt 0 view .LVU2800
	movq	1024(%rsp), %rax
.LVL884:
	.loc 1 342 46 view .LVU2801
.LBE8846:
.LBE8845:
	.loc 1 302 7 view .LVU2802
	testq	%rax, %rax
	je	.L375
	.loc 1 304 2 is_stmt 1 view .LVU2803
	.loc 1 304 12 is_stmt 0 view .LVU2804
	movl	$0, %edx
	leaq	1024(%rsp), %rsi
.LVL885:
	.loc 1 304 12 view .LVU2805
	movl	$3, %edi
	call	*%rax
.LVL886:
	.loc 1 305 2 is_stmt 1 view .LVU2806
.L375:
	.loc 1 305 2 is_stmt 0 view .LVU2807
	movq	%r12, %rax
	jmp	.L332
.LVL887:
.L441:
	.loc 1 305 2 view .LVU2808
.LBE8844:
.LBE8843:
.LBE8847:
.LBB8848:
.LBB8840:
.LBB8839:
	.loc 14 584 53 view .LVU2809
	movq	$_ZTVNSt7__cxx1119basic_ostringstreamIcSt11char_traitsIcESaIcEEE+24, 192(%rsp)
	movq	$_ZTVNSt7__cxx1119basic_ostringstreamIcSt11char_traitsIcESaIcEEE+64, 304(%rsp)
.LVL888:
.LBB8811:
.LBI8811:
	.loc 14 111 7 is_stmt 1 view .LVU2810
.LBB8812:
.LBB8813:
.LBB8814:
.LBI8814:
	.loc 15 470 7 view .LVU2811
.LBB8815:
.LBB8816:
	.loc 15 473 29 is_stmt 0 view .LVU2812
	movq	$_ZTVSt15basic_streambufIcSt11char_traitsIcEE+16, 200(%rsp)
	movq	$0, 208(%rsp)
	movq	$0, 216(%rsp)
	movq	$0, 224(%rsp)
	movq	$0, 232(%rsp)
	movq	$0, 240(%rsp)
	movq	$0, 248(%rsp)
	leaq	256(%rsp), %rdi
	call	_ZNSt6localeC1Ev
.LVL889:
	.loc 15 473 29 view .LVU2813
.LBE8816:
.LBE8815:
.LBE8814:
	.loc 14 112 56 view .LVU2814
	movq	$_ZTVNSt7__cxx1115basic_stringbufIcSt11char_traitsIcESaIcEEE+16, 200(%rsp)
	movl	$16, 264(%rsp)
.LVL890:
.LBB8817:
.LBI8817:
	.loc 10 431 7 is_stmt 1 view .LVU2815
.LBB8818:
.LBB8819:
.LBI8819:
	.loc 13 138 7 view .LVU2816
.LBB8820:
.LBI8820:
	.loc 12 80 7 view .LVU2817
	.loc 12 80 7 is_stmt 0 view .LVU2818
.LBE8820:
.LBE8819:
.LBB8821:
.LBI8821:
	.loc 10 190 7 is_stmt 1 view .LVU2819
	.loc 10 190 7 is_stmt 0 view .LVU2820
.LBE8821:
.LBB8822:
.LBI8822:
	.loc 10 159 2 is_stmt 1 view .LVU2821
.LBB8823:
.LBB8824:
.LBB8825:
.LBI8825:
	.loc 19 99 5 view .LVU2822
	.loc 19 99 5 is_stmt 0 view .LVU2823
.LBE8825:
.LBB8826:
.LBI8826:
	.loc 13 141 7 is_stmt 1 view .LVU2824
.LBB8827:
.LBI8827:
	.loc 12 83 7 view .LVU2825
	.loc 12 83 7 is_stmt 0 view .LVU2826
.LBE8827:
.LBE8826:
	.loc 10 160 46 view .LVU2827
	leaq	288(%rsp), %rax
.LVL891:
	.loc 10 160 46 view .LVU2828
	movq	%rax, 272(%rsp)
.LVL892:
	.loc 10 160 46 view .LVU2829
.LBE8824:
.LBE8823:
.LBE8822:
.LBB8828:
.LBI8828:
	.loc 13 153 7 is_stmt 1 view .LVU2830
.LBB8829:
.LBI8829:
	.loc 12 89 7 view .LVU2831
	.loc 12 89 7 is_stmt 0 view .LVU2832
.LBE8829:
.LBE8828:
.LBB8830:
.LBI8830:
	.loc 10 214 7 is_stmt 1 view .LVU2833
.LBB8831:
.LBI8831:
	.loc 10 182 7 view .LVU2834
.LBB8832:
	.loc 10 183 9 is_stmt 0 view .LVU2835
	movq	$0, 280(%rsp)
.LVL893:
	.loc 10 183 9 view .LVU2836
.LBE8832:
.LBE8831:
.LBB8833:
.LBI8833:
	.loc 20 299 7 is_stmt 1 view .LVU2837
.LBB8834:
	.loc 20 300 9 view .LVU2838
	.loc 20 300 14 is_stmt 0 view .LVU2839
	movb	$0, 288(%rsp)
.LVL894:
	.loc 20 300 14 view .LVU2840
.LBE8834:
.LBE8833:
.LBE8830:
.LBE8818:
.LBE8817:
.LBE8813:
.LBE8812:
.LBE8811:
	.loc 14 585 9 view .LVU2841
	leaq	200(%rsp), %rsi
	leaq	304(%rsp), %rdi
.LEHB57:
	call	_ZNSt9basic_iosIcSt11char_traitsIcEE4initEPSt15basic_streambufIcS1_E
.LVL895:
.LEHE57:
	jmp	.L442
.L429:
	movq	%rax, %rbp
.LVL896:
	.loc 14 585 9 view .LVU2842
	movq	%rdx, %r12
	.loc 14 584 53 view .LVU2843
	leaq	200(%rsp), %rdi
	call	_ZNSt7__cxx1115basic_stringbufIcSt11char_traitsIcESaIcEED1Ev
.LVL897:
.LBB8835:
.LBI8835:
	.loc 18 93 7 is_stmt 1 view .LVU2844
.LBB8836:
	.loc 18 93 26 is_stmt 0 view .LVU2845
	movq	%r13, 192(%rsp)
	movq	-24(%r13), %rax
	movq	_ZTTNSt7__cxx1119basic_ostringstreamIcSt11char_traitsIcESaIcEEE+16(%rip), %rcx
	movq	%rcx, 192(%rsp,%rax)
.LVL898:
.L331:
	.loc 18 93 26 view .LVU2846
.LBE8836:
.LBE8835:
.LBB8837:
.LBI8837:
	.loc 17 282 7 is_stmt 1 view .LVU2847
.LBB8838:
	.loc 17 282 22 is_stmt 0 view .LVU2848
	movq	$_ZTVSt9basic_iosIcSt11char_traitsIcEE+16, 304(%rsp)
	leaq	304(%rsp), %rdi
.LVL899:
	.loc 17 282 22 view .LVU2849
	call	_ZNSt8ios_baseD2Ev
.LVL900:
	.loc 17 282 22 view .LVU2850
	movq	%r12, %rax
.LVL901:
.L332:
	.loc 17 282 22 view .LVU2851
	cmpq	$1, %rax
	jne	.L377
.LBE8838:
.LBE8837:
.LBE8839:
.LBE8840:
.LBE8848:
.LBE9031:
.LBB9032:
	.loc 8 135 30 view .LVU2852
	movq	%rbp, %rdi
	call	__cxa_begin_catch
.LVL902:
	movq	%rax, %r12
.LVL903:
.LBB9033:
	.loc 8 137 5 is_stmt 1 view .LVU2853
	.loc 8 137 24 is_stmt 0 view .LVU2854
	leaq	192(%rsp), %rdi
.LEHB58:
	call	_ZNSt7__cxx1119basic_ostringstreamIcSt11char_traitsIcESaIcEEC1Ev
.LVL904:
.LEHE58:
	.loc 8 137 24 view .LVU2855
	jmp	.L443
.LVL905:
.L428:
	.loc 8 137 24 view .LVU2856
	movq	%rax, %rbp
.LVL906:
	.loc 8 137 24 view .LVU2857
	movq	%rdx, %r12
	jmp	.L331
.LVL907:
.L442:
	.loc 8 137 24 view .LVU2858
.LBE9033:
.LBE9032:
.LBB9139:
	.loc 8 131 5 is_stmt 1 view .LVU2859
	.loc 8 131 15 is_stmt 0 view .LVU2860
	movl	%r15d, %esi
	leaq	192(%rsp), %rdi
.LEHB59:
	call	_ZNSolsEi
.LVL908:
.LEHE59:
	.loc 8 132 5 is_stmt 1 view .LVU2861
.LBB8849:
.LBI8849:
	.loc 14 677 7 view .LVU2862
.LBB8850:
.LBI8850:
	.loc 14 178 7 view .LVU2863
.LBB8851:
.LBB8852:
.LBI8852:
	.loc 10 2331 7 view .LVU2864
.LBB8853:
.LBI8853:
	.loc 13 141 7 view .LVU2865
.LBB8854:
.LBI8854:
	.loc 12 83 7 view .LVU2866
	.loc 12 83 7 is_stmt 0 view .LVU2867
.LBE8854:
.LBE8853:
.LBE8852:
.LBB8855:
.LBI8855:
	.loc 10 440 7 is_stmt 1 view .LVU2868
.LBB8856:
.LBI8856:
	.loc 10 190 7 view .LVU2869
	.loc 10 190 7 is_stmt 0 view .LVU2870
.LBE8856:
.LBB8857:
.LBI8857:
	.loc 10 156 2 is_stmt 1 view .LVU2871
.LBB8858:
.LBB8859:
.LBI8859:
	.loc 13 141 7 view .LVU2872
.LBB8860:
.LBI8860:
	.loc 12 83 7 view .LVU2873
	.loc 12 83 7 is_stmt 0 view .LVU2874
.LBE8860:
.LBE8859:
	.loc 10 157 35 view .LVU2875
	leaq	96(%rsp), %rax
.LVL909:
	.loc 10 157 35 view .LVU2876
	movq	%rax, 80(%rsp)
.LVL910:
	.loc 10 157 35 view .LVU2877
.LBE8858:
.LBE8857:
.LBB8861:
.LBI8861:
	.loc 10 214 7 is_stmt 1 view .LVU2878
.LBB8862:
.LBI8862:
	.loc 10 182 7 view .LVU2879
.LBB8863:
	.loc 10 183 9 is_stmt 0 view .LVU2880
	movq	$0, 88(%rsp)
.LVL911:
	.loc 10 183 9 view .LVU2881
.LBE8863:
.LBE8862:
.LBB8864:
.LBI8864:
	.loc 20 299 7 is_stmt 1 view .LVU2882
.LBB8865:
	.loc 20 300 9 view .LVU2883
	.loc 20 300 14 is_stmt 0 view .LVU2884
	movb	$0, 96(%rsp)
.LVL912:
	.loc 20 300 14 view .LVU2885
.LBE8865:
.LBE8864:
.LBE8861:
.LBE8855:
.LBB8866:
.LBI8866:
	.loc 13 153 7 is_stmt 1 view .LVU2886
.LBB8867:
.LBI8867:
	.loc 12 89 7 view .LVU2887
	.loc 12 89 7 is_stmt 0 view .LVU2888
.LBE8867:
.LBE8866:
.LBB8868:
.LBI8868:
	.loc 15 539 7 is_stmt 1 view .LVU2889
.LBB8869:
	.loc 15 539 29 is_stmt 0 view .LVU2890
	movq	240(%rsp), %r8
.LVL913:
	.loc 15 539 29 view .LVU2891
.LBE8869:
.LBE8868:
	.loc 14 181 2 view .LVU2892
	testq	%r8, %r8
	je	.L333
.LVL914:
.LBB8870:
.LBI8870:
	.loc 15 495 7 is_stmt 1 view .LVU2893
.LBB8871:
	.loc 15 495 30 is_stmt 0 view .LVU2894
	movq	224(%rsp), %rax
.LVL915:
	.loc 15 495 30 view .LVU2895
.LBE8871:
.LBE8870:
	.loc 14 184 6 view .LVU2896
	cmpq	%rax, %r8
	jbe	.L334
.LVL916:
.LBB8872:
.LBI8872:
	.loc 15 536 7 is_stmt 1 view .LVU2897
.LBB8873:
	.loc 15 536 30 is_stmt 0 view .LVU2898
	movq	232(%rsp), %rcx
.LVL917:
	.loc 15 536 30 view .LVU2899
.LBE8873:
.LBE8872:
.LBB8874:
.LBI8874:
	.loc 10 1470 9 is_stmt 1 view .LVU2900
.LBB8875:
.LBI8875:
	.loc 10 842 7 view .LVU2901
.LBB8876:
.LBI8876:
	.loc 21 806 7 view .LVU2902
	.loc 21 806 7 is_stmt 0 view .LVU2903
.LBE8876:
.LBE8875:
.LBB8877:
.LBI8877:
	.loc 21 811 9 is_stmt 1 view .LVU2904
.LBB8878:
.LBI8878:
	.loc 21 871 7 view .LVU2905
	.loc 21 871 7 is_stmt 0 view .LVU2906
.LBE8878:
.LBE8877:
.LBB8879:
.LBI8879:
	.loc 10 826 7 is_stmt 1 view .LVU2907
.LBB8880:
.LBI8880:
	.loc 21 806 7 view .LVU2908
	.loc 21 806 7 is_stmt 0 view .LVU2909
.LBE8880:
.LBE8879:
.LBB8881:
.LBI8881:
	.loc 21 811 9 is_stmt 1 view .LVU2910
.LBB8882:
.LBI8882:
	.loc 21 871 7 view .LVU2911
	.loc 21 871 7 is_stmt 0 view .LVU2912
.LBE8882:
.LBE8881:
.LBB8883:
.LBI8883:
	.loc 10 2123 7 is_stmt 1 view .LVU2913
.LBB8884:
	.loc 10 2130 20 is_stmt 0 view .LVU2914
	subq	%rcx, %r8
.LVL918:
.LBB8885:
.LBI8885:
	.loc 10 826 7 is_stmt 1 view .LVU2915
.LBB8886:
.LBI8886:
	.loc 21 806 7 view .LVU2916
	.loc 21 806 7 is_stmt 0 view .LVU2917
.LBE8886:
.LBE8885:
.LBB8887:
.LBI8887:
	.loc 10 1936 7 is_stmt 1 view .LVU2918
.LBB8888:
.LBB8889:
.LBI8889:
	.loc 10 329 7 view .LVU2919
.LBB8890:
.LBB8891:
.LBI8891:
	.loc 10 930 7 view .LVU2920
.LBB8892:
	.loc 10 931 16 is_stmt 0 view .LVU2921
	movl	$0, %edx
.LVL919:
	.loc 10 931 16 view .LVU2922
.LBE8892:
.LBE8891:
.LBE8890:
.LBE8889:
	.loc 10 1941 38 view .LVU2923
	movl	$0, %esi
	leaq	80(%rsp), %rdi
.LVL920:
.LEHB60:
	.loc 10 1941 38 view .LVU2924
	call	_ZNSt7__cxx1112basic_stringIcSt11char_traitsIcESaIcEE10_M_replaceEmmPKcm
.LVL921:
	.loc 10 1941 38 view .LVU2925
	jmp	.L336
.LVL922:
.L334:
	.loc 10 1941 38 view .LVU2926
.LBE8888:
.LBE8887:
.LBE8884:
.LBE8883:
.LBE8874:
.LBB8893:
.LBI8893:
	.loc 15 536 7 is_stmt 1 view .LVU2927
.LBB8894:
	.loc 15 536 30 is_stmt 0 view .LVU2928
	movq	232(%rsp), %rcx
.LVL923:
	.loc 15 536 30 view .LVU2929
.LBE8894:
.LBE8893:
.LBB8895:
.LBI8895:
	.loc 10 1470 9 is_stmt 1 view .LVU2930
.LBB8896:
.LBI8896:
	.loc 10 842 7 view .LVU2931
.LBB8897:
.LBI8897:
	.loc 21 806 7 view .LVU2932
	.loc 21 806 7 is_stmt 0 view .LVU2933
.LBE8897:
.LBE8896:
.LBB8898:
.LBI8898:
	.loc 21 811 9 is_stmt 1 view .LVU2934
.LBB8899:
.LBI8899:
	.loc 21 871 7 view .LVU2935
	.loc 21 871 7 is_stmt 0 view .LVU2936
.LBE8899:
.LBE8898:
.LBB8900:
.LBI8900:
	.loc 10 826 7 is_stmt 1 view .LVU2937
.LBB8901:
.LBI8901:
	.loc 21 806 7 view .LVU2938
	.loc 21 806 7 is_stmt 0 view .LVU2939
.LBE8901:
.LBE8900:
.LBB8902:
.LBI8902:
	.loc 21 811 9 is_stmt 1 view .LVU2940
.LBB8903:
.LBI8903:
	.loc 21 871 7 view .LVU2941
	.loc 21 871 7 is_stmt 0 view .LVU2942
.LBE8903:
.LBE8902:
.LBB8904:
.LBI8904:
	.loc 10 2123 7 is_stmt 1 view .LVU2943
.LBB8905:
	.loc 10 2130 20 is_stmt 0 view .LVU2944
	subq	%rcx, %rax
.LVL924:
	.loc 10 2130 20 view .LVU2945
	movq	%rax, %r8
.LVL925:
.LBB8906:
.LBI8906:
	.loc 10 826 7 is_stmt 1 view .LVU2946
.LBB8907:
.LBI8907:
	.loc 21 806 7 view .LVU2947
	.loc 21 806 7 is_stmt 0 view .LVU2948
.LBE8907:
.LBE8906:
.LBB8908:
.LBI8908:
	.loc 10 1936 7 is_stmt 1 view .LVU2949
.LBB8909:
.LBB8910:
.LBI8910:
	.loc 10 329 7 view .LVU2950
.LBB8911:
.LBB8912:
.LBI8912:
	.loc 10 930 7 view .LVU2951
.LBB8913:
	.loc 10 931 16 is_stmt 0 view .LVU2952
	movq	88(%rsp), %rdx
.LVL926:
	.loc 10 931 16 view .LVU2953
.LBE8913:
.LBE8912:
	.loc 10 332 19 view .LVU2954
	testq	%rdx, %rdx
	je	.L337
	movl	$0, %edx
.LVL927:
.L337:
	.loc 10 332 19 view .LVU2955
.LBE8911:
.LBE8910:
	.loc 10 1941 38 view .LVU2956
	movl	$0, %esi
	leaq	80(%rsp), %rdi
.LVL928:
	.loc 10 1941 38 view .LVU2957
	call	_ZNSt7__cxx1112basic_stringIcSt11char_traitsIcESaIcEE10_M_replaceEmmPKcm
.LVL929:
	.loc 10 1941 38 view .LVU2958
	jmp	.L336
.LVL930:
.L333:
	.loc 10 1941 38 view .LVU2959
.LBE8909:
.LBE8908:
.LBE8905:
.LBE8904:
.LBE8895:
.LBB8914:
.LBI8914:
	.loc 10 665 7 is_stmt 1 view .LVU2960
.LBB8915:
.LBI8915:
	.loc 10 1364 7 view .LVU2961
.LBB8916:
	.loc 10 1366 2 is_stmt 0 view .LVU2962
	leaq	272(%rsp), %rsi
.LVL931:
	.loc 10 1366 2 view .LVU2963
	leaq	80(%rsp), %rdi
.LVL932:
	.loc 10 1366 2 view .LVU2964
	call	_ZNSt7__cxx1112basic_stringIcSt11char_traitsIcESaIcEE9_M_assignERKS4_
.LVL933:
.LEHE60:
.L336:
	.loc 10 1366 2 view .LVU2965
.LBE8916:
.LBE8915:
.LBE8914:
.LBE8851:
.LBE8850:
.LBE8849:
.LBB8933:
.LBI8933:
	.loc 10 732 7 is_stmt 1 view .LVU2966
.LBB8934:
.LBI8934:
	.loc 10 221 7 view .LVU2967
.LBB8935:
.LBI8935:
	.loc 10 186 7 view .LVU2968
.LBB8936:
	.loc 10 187 28 is_stmt 0 view .LVU2969
	movq	48(%rsp), %rdi
.LVL934:
	.loc 10 187 28 view .LVU2970
.LBE8936:
.LBE8935:
.LBB8937:
.LBI8937:
	.loc 10 200 7 is_stmt 1 view .LVU2971
	.loc 10 200 7 is_stmt 0 view .LVU2972
.LBE8937:
.LBE8934:
.LBB8938:
.LBB8939:
.LBI8939:
	.loc 10 221 7 is_stmt 1 view .LVU2973
.LBB8940:
.LBI8940:
	.loc 10 186 7 view .LVU2974
.LBB8941:
	.loc 10 187 28 is_stmt 0 view .LVU2975
	movq	80(%rsp), %rsi
.LVL935:
	.loc 10 187 28 view .LVU2976
.LBE8941:
.LBE8940:
.LBB8942:
.LBI8942:
	.loc 10 200 7 is_stmt 1 view .LVU2977
	.loc 10 200 7 is_stmt 0 view .LVU2978
.LBE8942:
.LBE8939:
	.loc 10 747 2 view .LVU2979
	leaq	96(%rsp), %rax
	cmpq	%rax, %rsi
	je	.L444
.LVL936:
.LBB8943:
	.loc 10 761 6 view .LVU2980
	leaq	64(%rsp), %rax
	cmpq	%rax, %rdi
	je	.L402
.LVL937:
	.loc 10 767 7 view .LVU2981
	movq	64(%rsp), %rax
	movq	%rax, (%rsp)
.LVL938:
.L346:
.LBB8944:
.LBI8944:
	.loc 10 178 7 is_stmt 1 view .LVU2982
.LBB8945:
	.loc 10 179 9 is_stmt 0 view .LVU2983
	movq	%rsi, 48(%rsp)
.LVL939:
	.loc 10 179 9 view .LVU2984
.LBE8945:
.LBE8944:
.LBB8946:
.LBI8946:
	.loc 10 936 7 is_stmt 1 view .LVU2985
.LBB8947:
	.loc 10 937 16 is_stmt 0 view .LVU2986
	movq	88(%rsp), %rax
.LVL940:
	.loc 10 937 16 view .LVU2987
.LBE8947:
.LBE8946:
.LBB8948:
.LBI8948:
	.loc 10 182 7 is_stmt 1 view .LVU2988
.LBB8949:
	.loc 10 183 9 is_stmt 0 view .LVU2989
	movq	%rax, 56(%rsp)
.LVL941:
	.loc 10 183 9 view .LVU2990
.LBE8949:
.LBE8948:
	.loc 10 775 6 view .LVU2991
	movq	96(%rsp), %rax
.LVL942:
.LBB8950:
.LBI8950:
	.loc 10 210 7 is_stmt 1 view .LVU2992
.LBB8951:
	.loc 10 211 9 is_stmt 0 view .LVU2993
	movq	%rax, 64(%rsp)
.LVL943:
	.loc 10 211 9 view .LVU2994
.LBE8951:
.LBE8950:
	.loc 10 776 6 view .LVU2995
	testq	%rdi, %rdi
	je	.L347
.LVL944:
.LBB8952:
.LBI8952:
	.loc 10 178 7 is_stmt 1 view .LVU2996
.LBB8953:
	.loc 10 179 9 is_stmt 0 view .LVU2997
	movq	%rdi, 80(%rsp)
.LVL945:
	.loc 10 179 9 view .LVU2998
.LBE8953:
.LBE8952:
.LBB8954:
.LBI8954:
	.loc 10 210 7 is_stmt 1 view .LVU2999
.LBB8955:
	.loc 10 211 9 is_stmt 0 view .LVU3000
	movq	(%rsp), %rax
	movq	%rax, 96(%rsp)
.LVL946:
.L345:
	.loc 10 211 9 view .LVU3001
.LBE8955:
.LBE8954:
.LBE8943:
.LBE8938:
.LBB8978:
.LBI8978:
	.loc 10 1023 7 is_stmt 1 view .LVU3002
.LBB8979:
.LBI8979:
	.loc 10 214 7 view .LVU3003
.LBB8980:
.LBI8980:
	.loc 10 182 7 view .LVU3004
.LBB8981:
	.loc 10 183 9 is_stmt 0 view .LVU3005
	movq	$0, 88(%rsp)
.LVL947:
	.loc 10 183 9 view .LVU3006
.LBE8981:
.LBE8980:
.LBB8982:
.LBI8982:
	.loc 10 186 7 is_stmt 1 view .LVU3007
.LBB8983:
	.loc 10 187 28 is_stmt 0 view .LVU3008
	movq	80(%rsp), %rax
.LVL948:
	.loc 10 187 28 view .LVU3009
.LBE8983:
.LBE8982:
.LBB8984:
.LBI8984:
	.loc 20 299 7 is_stmt 1 view .LVU3010
.LBB8985:
	.loc 20 300 9 view .LVU3011
	.loc 20 300 14 is_stmt 0 view .LVU3012
	movb	$0, (%rax)
.LVL949:
	.loc 20 300 14 view .LVU3013
.LBE8985:
.LBE8984:
.LBE8979:
.LBE8978:
.LBE8933:
.LBB8987:
.LBI8987:
	.loc 10 657 7 is_stmt 1 view .LVU3014
.LBB8988:
.LBI8988:
	.loc 10 229 7 view .LVU3015
.LBB8989:
.LBB8990:
.LBI8990:
	.loc 10 221 7 view .LVU3016
.LBB8991:
.LBI8991:
	.loc 10 186 7 view .LVU3017
.LBB8992:
	.loc 10 187 28 is_stmt 0 view .LVU3018
	movq	80(%rsp), %rdi
.LVL950:
	.loc 10 187 28 view .LVU3019
.LBE8992:
.LBE8991:
.LBB8993:
.LBI8993:
	.loc 10 200 7 is_stmt 1 view .LVU3020
	.loc 10 200 7 is_stmt 0 view .LVU3021
.LBE8993:
.LBE8990:
	.loc 10 231 2 view .LVU3022
	leaq	96(%rsp), %rax
	cmpq	%rax, %rdi
	je	.L348
.LVL951:
.LBB8994:
.LBI8994:
	.loc 10 236 7 is_stmt 1 view .LVU3023
.LBB8995:
.LBB8996:
.LBI8996:
	.loc 11 469 7 view .LVU3024
.LBB8997:
.LBI8997:
	.loc 12 119 7 view .LVU3025
.LBB8998:
	.loc 12 128 19 is_stmt 0 view .LVU3026
	call	_ZdlPv
.LVL952:
.L348:
	.loc 12 128 19 view .LVU3027
.LBE8998:
.LBE8997:
.LBE8996:
.LBE8995:
.LBE8994:
.LBE8989:
.LBE8988:
.LBB8999:
.LBI8999:
