	.file	"UnknownHeader.cpp"
	.text
.Ltext0:
	.section	.text._ZN3mpp10exceptions13UnknownHeaderD1Ev,"axG",@progbits,_ZN3mpp10exceptions13UnknownHeaderD1Ev,comdat
	.align 2
	.weak	_ZN3mpp10exceptions13UnknownHeaderD1Ev
	.type	_ZN3mpp10exceptions13UnknownHeaderD1Ev, @function
_ZN3mpp10exceptions13UnknownHeaderD1Ev:
.LVL0:
.LFB1706:
	.file 1 "./hpp/mpp/exceptions/UnknownHeader.hpp"
	.loc 1 17 9 view -0
	.cfi_startproc
	.loc 1 17 9 is_stmt 0 view .LVU1
	subq	$8, %rsp
	.cfi_def_cfa_offset 16
.LBB182:
	.loc 1 17 9 view .LVU2
	movq	$_ZTVN3mpp10exceptions13UnknownHeaderE+24, (%rdi)
	movq	$_ZTVN3mpp10exceptions13UnknownHeaderE+72, 8(%rdi)
.LVL1:
.LBB183:
.LBI183:
	.file 2 "./hpp/mpp/exceptions/Exception.hpp"
	.loc 2 33 13 is_stmt 1 view .LVU3
.LBB184:
	movq	$_ZTCN3mpp10exceptions13UnknownHeaderE0_NS0_9ExceptionE+24, (%rdi)
	leaq	8(%rdi), %rax
	movq	$_ZTCN3mpp10exceptions13UnknownHeaderE0_NS0_9ExceptionE+72, 8(%rdi)
.LVL2:
	.loc 2 33 13 is_stmt 0 view .LVU4
.LBE184:
.LBE183:
	.loc 1 17 9 view .LVU5
	movq	%rax, %rdi
.LVL3:
	.loc 1 17 9 view .LVU6
	call	_ZNSt11logic_errorD2Ev
.LVL4:
	.loc 1 17 9 view .LVU7
.LBE182:
	addq	$8, %rsp
	.cfi_def_cfa_offset 8
	ret
	.cfi_endproc
.LFE1706:
	.size	_ZN3mpp10exceptions13UnknownHeaderD1Ev, .-_ZN3mpp10exceptions13UnknownHeaderD1Ev
	.section	.text._ZN3mpp10exceptions13UnknownHeaderD0Ev,"axG",@progbits,_ZN3mpp10exceptions13UnknownHeaderD0Ev,comdat
	.align 2
	.weak	_ZN3mpp10exceptions13UnknownHeaderD0Ev
	.type	_ZN3mpp10exceptions13UnknownHeaderD0Ev, @function
_ZN3mpp10exceptions13UnknownHeaderD0Ev:
.LVL5:
.LFB1707:
	.loc 1 17 9 is_stmt 1 view -0
	.cfi_startproc
	.loc 1 17 9 is_stmt 0 view .LVU9
	pushq	%rbx
	.cfi_def_cfa_offset 16
	.cfi_offset 3, -16
	movq	%rdi, %rbx
.LVL6:
.LBB189:
.LBI189:
	.loc 1 17 9 is_stmt 1 view .LVU10
.LBB190:
	movq	$_ZTVN3mpp10exceptions13UnknownHeaderE+24, (%rdi)
	movq	$_ZTVN3mpp10exceptions13UnknownHeaderE+72, 8(%rdi)
.LVL7:
.LBB191:
.LBI191:
	.loc 2 33 13 view .LVU11
.LBB192:
	movq	$_ZTCN3mpp10exceptions13UnknownHeaderE0_NS0_9ExceptionE+24, (%rdi)
	leaq	8(%rdi), %rdi
.LVL8:
	.loc 2 33 13 is_stmt 0 view .LVU12
	movq	$_ZTCN3mpp10exceptions13UnknownHeaderE0_NS0_9ExceptionE+72, 8(%rbx)
.LVL9:
	.loc 2 33 13 view .LVU13
.LBE192:
.LBE191:
	.loc 1 17 9 view .LVU14
	call	_ZNSt11logic_errorD2Ev
.LVL10:
	.loc 1 17 9 view .LVU15
.LBE190:
.LBE189:
	movl	$24, %esi
	movq	%rbx, %rdi
	call	_ZdlPvm
.LVL11:
	popq	%rbx
	.cfi_def_cfa_offset 8
.LVL12:
	.loc 1 17 9 view .LVU16
	ret
	.cfi_endproc
.LFE1707:
	.size	_ZN3mpp10exceptions13UnknownHeaderD0Ev, .-_ZN3mpp10exceptions13UnknownHeaderD0Ev
	.section	.text._ZN3mpp10exceptions13UnknownHeaderD1Ev,"axG",@progbits,_ZN3mpp10exceptions13UnknownHeaderD1Ev,comdat
	.weak	_ZTv0_n24_N3mpp10exceptions13UnknownHeaderD1Ev
	.type	_ZTv0_n24_N3mpp10exceptions13UnknownHeaderD1Ev, @function
_ZTv0_n24_N3mpp10exceptions13UnknownHeaderD1Ev:
.LFB1708:
	.cfi_startproc
	subq	$8, %rsp
	.cfi_def_cfa_offset 16
	movq	(%rdi), %rax
	addq	-24(%rax), %rdi
	movq	$_ZTVN3mpp10exceptions13UnknownHeaderE+24, (%rdi)
	movq	$_ZTVN3mpp10exceptions13UnknownHeaderE+72, 8(%rdi)
	movq	$_ZTCN3mpp10exceptions13UnknownHeaderE0_NS0_9ExceptionE+24, (%rdi)
	leaq	8(%rdi), %rax
	movq	$_ZTCN3mpp10exceptions13UnknownHeaderE0_NS0_9ExceptionE+72, 8(%rdi)
	movq	%rax, %rdi
	call	_ZNSt11logic_errorD2Ev
	addq	$8, %rsp
	.cfi_def_cfa_offset 8
	ret
	.cfi_endproc
.LFE1708:
	.size	_ZTv0_n24_N3mpp10exceptions13UnknownHeaderD1Ev, .-_ZTv0_n24_N3mpp10exceptions13UnknownHeaderD1Ev
	.section	.text._ZN3mpp10exceptions13UnknownHeaderD0Ev,"axG",@progbits,_ZN3mpp10exceptions13UnknownHeaderD0Ev,comdat
	.weak	_ZTv0_n24_N3mpp10exceptions13UnknownHeaderD0Ev
	.type	_ZTv0_n24_N3mpp10exceptions13UnknownHeaderD0Ev, @function
_ZTv0_n24_N3mpp10exceptions13UnknownHeaderD0Ev:
.LFB1709:
	.cfi_startproc
	pushq	%rbx
	.cfi_def_cfa_offset 16
	.cfi_offset 3, -16
	movq	%rdi, %rbx
	movq	(%rdi), %rax
	addq	-24(%rax), %rbx
	movq	$_ZTVN3mpp10exceptions13UnknownHeaderE+24, (%rbx)
	movq	$_ZTVN3mpp10exceptions13UnknownHeaderE+72, 8(%rbx)
	movq	$_ZTCN3mpp10exceptions13UnknownHeaderE0_NS0_9ExceptionE+24, (%rbx)
	leaq	8(%rbx), %rdi
	movq	$_ZTCN3mpp10exceptions13UnknownHeaderE0_NS0_9ExceptionE+72, 8(%rbx)
	call	_ZNSt11logic_errorD2Ev
	movl	$24, %esi
	movq	%rbx, %rdi
	call	_ZdlPvm
	popq	%rbx
	.cfi_def_cfa_offset 8
	ret
	.cfi_endproc
.LFE1709:
	.size	_ZTv0_n24_N3mpp10exceptions13UnknownHeaderD0Ev, .-_ZTv0_n24_N3mpp10exceptions13UnknownHeaderD0Ev
	.text
	.align 2
	.globl	_ZN3mpp10exceptions13UnknownHeaderC2EPc
	.type	_ZN3mpp10exceptions13UnknownHeaderC2EPc, @function
_ZN3mpp10exceptions13UnknownHeaderC2EPc:
.LVL13:
.LFB1241:
	.file 3 "cpp/exceptions/UnknownHeader.cpp"
	.loc 3 21 1 is_stmt 1 view -0
	.cfi_startproc
	.loc 3 21 1 is_stmt 0 view .LVU18
	pushq	%rbp
	.cfi_def_cfa_offset 16
	.cfi_offset 6, -16
	pushq	%rbx
	.cfi_def_cfa_offset 24
	.cfi_offset 3, -24
	subq	$8, %rsp
	.cfi_def_cfa_offset 32
	movq	%rdi, %rbx
	movq	%rsi, %rbp
.LBB193:
	.loc 3 21 113 view .LVU19
	leaq	8(%rsi), %rsi
.LVL14:
	.loc 3 21 113 view .LVU20
	call	_ZN3mpp10exceptions9ExceptionC2EPc
.LVL15:
	.loc 3 21 113 view .LVU21
	movq	0(%rbp), %rax
	movq	%rax, (%rbx)
	movq	24(%rbp), %rax
	movq	%rax, 8(%rbx)
.LBE193:
	.loc 3 23 1 view .LVU22
	addq	$8, %rsp
	.cfi_def_cfa_offset 24
	popq	%rbx
	.cfi_def_cfa_offset 16
.LVL16:
	.loc 3 23 1 view .LVU23
	popq	%rbp
	.cfi_def_cfa_offset 8
.LVL17:
	.loc 3 23 1 view .LVU24
	ret
	.cfi_endproc
.LFE1241:
	.size	_ZN3mpp10exceptions13UnknownHeaderC2EPc, .-_ZN3mpp10exceptions13UnknownHeaderC2EPc
	.align 2
	.globl	_ZN3mpp10exceptions13UnknownHeaderC1EPc
	.type	_ZN3mpp10exceptions13UnknownHeaderC1EPc, @function
_ZN3mpp10exceptions13UnknownHeaderC1EPc:
.LVL18:
.LFB1242:
	.loc 3 21 1 is_stmt 1 view -0
	.cfi_startproc
	.cfi_personality 0x3,__gxx_personality_v0
	.cfi_lsda 0x3,.LLSDA1242
	.loc 3 21 1 is_stmt 0 view .LVU26
	pushq	%r12
	.cfi_def_cfa_offset 16
	.cfi_offset 12, -16
	pushq	%rbp
	.cfi_def_cfa_offset 24
	.cfi_offset 6, -24
	pushq	%rbx
	.cfi_def_cfa_offset 32
	.cfi_offset 3, -32
	movq	%rdi, %rbx
	movq	%rsi, %rbp
.LBB194:
	.loc 3 21 113 view .LVU27
	leaq	8(%rdi), %r12
	movq	%r12, %rdi
.LVL19:
.LEHB0:
	.loc 3 21 113 view .LVU28
	call	_ZNSt11logic_errorC2EPKc
.LVL20:
.LEHE0:
	.loc 3 21 113 view .LVU29
	movq	%rbp, %rdx
	movl	$_ZTTN3mpp10exceptions13UnknownHeaderE+8, %esi
	movq	%rbx, %rdi
.LEHB1:
	call	_ZN3mpp10exceptions9ExceptionC2EPc
.LVL21:
.LEHE1:
	.loc 3 21 113 discriminator 2 view .LVU30
	movq	$_ZTVN3mpp10exceptions13UnknownHeaderE+24, (%rbx)
	movq	$_ZTVN3mpp10exceptions13UnknownHeaderE+72, 8(%rbx)
.LBE194:
	.loc 3 23 1 discriminator 2 view .LVU31
	popq	%rbx
	.cfi_remember_state
	.cfi_def_cfa_offset 24
.LVL22:
	.loc 3 23 1 discriminator 2 view .LVU32
	popq	%rbp
	.cfi_def_cfa_offset 16
.LVL23:
	.loc 3 23 1 discriminator 2 view .LVU33
	popq	%r12
	.cfi_def_cfa_offset 8
.LVL24:
	.loc 3 23 1 discriminator 2 view .LVU34
	ret
.LVL25:
.L13:
	.cfi_restore_state
.LBB195:
	.loc 3 21 113 view .LVU35
	movq	%rax, %rbx
.LVL26:
	.loc 3 21 113 view .LVU36
	movq	%r12, %rdi
	call	_ZNSt11logic_errorD2Ev
.LVL27:
	movq	%rbx, %rdi
.LEHB2:
	call	_Unwind_Resume
.LVL28:
.LEHE2:
.LBE195:
	.cfi_endproc
.LFE1242:
	.globl	__gxx_personality_v0
	.section	.gcc_except_table,"a",@progbits
.LLSDA1242:
	.byte	0xff
	.byte	0xff
	.byte	0x1
	.uleb128 .LLSDACSE1242-.LLSDACSB1242
.LLSDACSB1242:
	.uleb128 .LEHB0-.LFB1242
	.uleb128 .LEHE0-.LEHB0
	.uleb128 0
	.uleb128 0
	.uleb128 .LEHB1-.LFB1242
	.uleb128 .LEHE1-.LEHB1
	.uleb128 .L13-.LFB1242
	.uleb128 0
	.uleb128 .LEHB2-.LFB1242
	.uleb128 .LEHE2-.LEHB2
	.uleb128 0
	.uleb128 0
.LLSDACSE1242:
	.text
	.size	_ZN3mpp10exceptions13UnknownHeaderC1EPc, .-_ZN3mpp10exceptions13UnknownHeaderC1EPc
	.section	.rodata._ZNSt7__cxx1112basic_stringIcSt11char_traitsIcESaIcEE12_M_constructIPcEEvT_S7_St20forward_iterator_tag.str1.8,"aMS",@progbits,1
	.align 8
.LC0:
	.string	"basic_string::_M_construct null not valid"
	.section	.text._ZNSt7__cxx1112basic_stringIcSt11char_traitsIcESaIcEE12_M_constructIPcEEvT_S7_St20forward_iterator_tag,"axG",@progbits,_ZNSt7__cxx1112basic_stringIcSt11char_traitsIcESaIcEE12_M_constructIPcEEvT_S7_St20forward_iterator_tag,comdat
	.align 2
	.weak	_ZNSt7__cxx1112basic_stringIcSt11char_traitsIcESaIcEE12_M_constructIPcEEvT_S7_St20forward_iterator_tag
	.type	_ZNSt7__cxx1112basic_stringIcSt11char_traitsIcESaIcEE12_M_constructIPcEEvT_S7_St20forward_iterator_tag, @function
_ZNSt7__cxx1112basic_stringIcSt11char_traitsIcESaIcEE12_M_constructIPcEEvT_S7_St20forward_iterator_tag:
.LVL29:
.LFB1639:
	.file 4 "/usr/include/c++/10/bits/basic_string.tcc"
	.loc 4 206 7 is_stmt 1 view -0
	.cfi_startproc
	.loc 4 206 7 is_stmt 0 view .LVU38
	pushq	%r12
	.cfi_def_cfa_offset 16
	.cfi_offset 12, -16
	pushq	%rbp
	.cfi_def_cfa_offset 24
	.cfi_offset 6, -24
	pushq	%rbx
	.cfi_def_cfa_offset 32
	.cfi_offset 3, -32
	subq	$16, %rsp
	.cfi_def_cfa_offset 48
	movq	%rdi, %rbp
	movq	%rsi, %r12
	movq	%rdx, %rbx
	.loc 4 211 42 view .LVU39
	testq	%rsi, %rsi
	je	.L22
.L17:
.LVL30:
.LBB222:
.LBI222:
	.file 5 "/usr/include/c++/10/bits/stl_iterator_base_funcs.h"
	.loc 5 138 5 is_stmt 1 view .LVU40
.LBB223:
.LBB224:
.LBI224:
	.loc 5 98 5 view .LVU41
.LBB225:
	.loc 5 104 23 is_stmt 0 view .LVU42
	subq	%r12, %rbx
.LVL31:
	.loc 5 104 23 view .LVU43
.LBE225:
.LBE224:
.LBE223:
.LBE222:
	.loc 4 215 12 view .LVU44
	movq	%rbx, 8(%rsp)
	.loc 4 217 2 view .LVU45
	cmpq	$15, %rbx
	ja	.L23
.LVL32:
.L18:
.LBB226:
.LBI226:
	.file 6 "/usr/include/c++/10/bits/basic_string.h"
	.loc 6 186 7 is_stmt 1 view .LVU46
.LBB227:
	.loc 6 187 28 is_stmt 0 view .LVU47
	movq	0(%rbp), %rdi
.LVL33:
	.loc 6 187 28 view .LVU48
.LBE227:
.LBE226:
.LBB228:
.LBI228:
	.loc 6 392 7 is_stmt 1 view .LVU49
.LBB229:
.LBI229:
	.loc 6 346 7 view .LVU50
.LBB230:
	.loc 6 348 2 is_stmt 0 view .LVU51
	cmpq	$1, %rbx
	je	.L24
.LVL34:
.LBB231:
.LBI231:
	.file 7 "/usr/include/c++/10/bits/char_traits.h"
	.loc 7 387 7 is_stmt 1 view .LVU52
.LBB232:
	.loc 7 389 2 view .LVU53
	testq	%rbx, %rbx
	je	.L20
	.loc 7 395 2 view .LVU54
	.loc 7 395 49 is_stmt 0 view .LVU55
	movq	%rbx, %rdx
	movq	%r12, %rsi
	call	memcpy
.LVL35:
	.loc 7 395 66 view .LVU56
	jmp	.L20
.LVL36:
.L22:
	.loc 7 395 66 view .LVU57
.LBE232:
.LBE231:
.LBE230:
.LBE229:
.LBE228:
	.loc 4 211 42 discriminator 1 view .LVU58
	cmpq	%rdx, %rsi
	je	.L17
	.loc 4 212 28 view .LVU59
	movl	$.LC0, %edi
.LVL37:
	.loc 4 212 28 view .LVU60
	call	_ZSt19__throw_logic_errorPKc
.LVL38:
.L23:
	.loc 4 219 13 view .LVU61
	movl	$0, %edx
.LVL39:
	.loc 4 219 13 view .LVU62
	leaq	8(%rsp), %rsi
	movq	%rbp, %rdi
.LVL40:
	.loc 4 219 13 view .LVU63
	call	_ZNSt7__cxx1112basic_stringIcSt11char_traitsIcESaIcEE9_M_createERmm
.LVL41:
.LBB237:
.LBI237:
	.loc 6 178 7 is_stmt 1 view .LVU64
.LBB238:
	.loc 6 179 26 is_stmt 0 view .LVU65
	movq	%rax, 0(%rbp)
.LVL42:
	.loc 6 179 26 view .LVU66
.LBE238:
.LBE237:
	.loc 4 220 17 view .LVU67
	movq	8(%rsp), %rax
.LVL43:
.LBB239:
.LBI239:
	.loc 6 210 7 is_stmt 1 view .LVU68
.LBB240:
	.loc 6 211 31 is_stmt 0 view .LVU69
	movq	%rax, 16(%rbp)
	.loc 6 211 45 view .LVU70
	jmp	.L18
.LVL44:
.L24:
	.loc 6 211 45 view .LVU71
.LBE240:
.LBE239:
.LBB241:
.LBB236:
.LBB235:
.LBB233:
.LBI233:
	.loc 7 321 7 is_stmt 1 view .LVU72
.LBB234:
	.loc 7 322 9 view .LVU73
	.loc 7 322 16 is_stmt 0 view .LVU74
	movzbl	(%r12), %eax
	.loc 7 322 14 view .LVU75
	movb	%al, (%rdi)
.LVL45:
.L20:
	.loc 7 322 14 view .LVU76
.LBE234:
.LBE233:
.LBE235:
.LBE236:
.LBE241:
	.loc 4 232 15 view .LVU77
	movq	8(%rsp), %rax
.LVL46:
.LBB242:
.LBI242:
	.loc 6 214 7 is_stmt 1 view .LVU78
.LBB243:
.LBB244:
.LBI244:
	.loc 6 182 7 view .LVU79
.LBB245:
	.loc 6 183 26 is_stmt 0 view .LVU80
	movq	%rax, 8(%rbp)
.LVL47:
	.loc 6 183 26 view .LVU81
.LBE245:
.LBE244:
.LBB246:
.LBI246:
	.loc 6 186 7 is_stmt 1 view .LVU82
	.loc 6 186 7 is_stmt 0 view .LVU83
.LBE246:
	.loc 6 217 31 view .LVU84
	addq	0(%rbp), %rax
.LVL48:
.LBB247:
.LBI247:
	.loc 7 321 7 is_stmt 1 view .LVU85
.LBB248:
	.loc 7 322 9 view .LVU86
	.loc 7 322 14 is_stmt 0 view .LVU87
	movb	$0, (%rax)
.LVL49:
	.loc 7 322 14 view .LVU88
.LBE248:
.LBE247:
.LBE243:
.LBE242:
	.loc 4 233 7 view .LVU89
	addq	$16, %rsp
	.cfi_def_cfa_offset 32
	popq	%rbx
	.cfi_def_cfa_offset 24
	popq	%rbp
	.cfi_def_cfa_offset 16
.LVL50:
	.loc 4 233 7 view .LVU90
	popq	%r12
	.cfi_def_cfa_offset 8
.LVL51:
	.loc 4 233 7 view .LVU91
	ret
	.cfi_endproc
.LFE1639:
	.size	_ZNSt7__cxx1112basic_stringIcSt11char_traitsIcESaIcEE12_M_constructIPcEEvT_S7_St20forward_iterator_tag, .-_ZNSt7__cxx1112basic_stringIcSt11char_traitsIcESaIcEE12_M_constructIPcEEvT_S7_St20forward_iterator_tag
	.text
	.align 2
	.globl	_ZN3mpp10exceptions13UnknownHeaderC1ENSt7__cxx1112basic_stringIcSt11char_traitsIcESaIcEEE
	.type	_ZN3mpp10exceptions13UnknownHeaderC1ENSt7__cxx1112basic_stringIcSt11char_traitsIcESaIcEEE, @function
_ZN3mpp10exceptions13UnknownHeaderC1ENSt7__cxx1112basic_stringIcSt11char_traitsIcESaIcEEE:
.LVL52:
.LFB1239:
	.loc 3 13 1 is_stmt 1 view -0
	.cfi_startproc
	.cfi_personality 0x3,__gxx_personality_v0
	.cfi_lsda 0x3,.LLSDA1239
	.loc 3 13 1 is_stmt 0 view .LVU93
	pushq	%r12
	.cfi_def_cfa_offset 16
	.cfi_offset 12, -16
	pushq	%rbp
	.cfi_def_cfa_offset 24
	.cfi_offset 6, -24
	pushq	%rbx
	.cfi_def_cfa_offset 32
	.cfi_offset 3, -32
	subq	$32, %rsp
	.cfi_def_cfa_offset 64
	movq	%rdi, %rbx
	movq	%rsi, %rbp
.LBB304:
	.loc 3 13 119 view .LVU94
	leaq	8(%rdi), %r12
	movq	%r12, %rdi
.LVL53:
.LEHB3:
	.loc 3 13 119 view .LVU95
	call	_ZNSt11logic_errorC2ERKNSt7__cxx1112basic_stringIcSt11char_traitsIcESaIcEEE
.LVL54:
.LEHE3:
.LBB305:
.LBI305:
	.loc 6 448 7 is_stmt 1 view .LVU96
.LBB306:
.LBB307:
.LBB308:
.LBI308:
	.loc 6 290 7 view .LVU97
	.loc 6 290 7 is_stmt 0 view .LVU98
.LBE308:
.LBB309:
.LBI309:
	.file 8 "/usr/include/c++/10/ext/alloc_traits.h"
	.loc 8 97 29 is_stmt 1 view .LVU99
.LBB310:
.LBI310:
	.file 9 "/usr/include/c++/10/bits/alloc_traits.h"
	.loc 9 558 7 view .LVU100
.LBB311:
.LBI311:
	.file 10 "/usr/include/c++/10/bits/allocator.h"
	.loc 10 147 7 view .LVU101
.LBB312:
.LBI312:
	.file 11 "/usr/include/c++/10/ext/new_allocator.h"
	.loc 11 82 7 view .LVU102
	.loc 11 82 7 is_stmt 0 view .LVU103
.LBE312:
.LBE311:
.LBE310:
.LBE309:
.LBB313:
.LBI313:
	.loc 6 190 7 is_stmt 1 view .LVU104
	.loc 6 190 7 is_stmt 0 view .LVU105
.LBE313:
.LBB314:
.LBI314:
	.loc 6 159 2 is_stmt 1 view .LVU106
.LBB315:
.LBB316:
.LBB317:
.LBI317:
	.file 12 "/usr/include/c++/10/bits/move.h"
	.loc 12 101 5 view .LVU107
	.loc 12 101 5 is_stmt 0 view .LVU108
.LBE317:
.LBB318:
.LBI318:
	.loc 10 147 7 is_stmt 1 view .LVU109
.LBB319:
.LBI319:
	.loc 11 82 7 view .LVU110
	.loc 11 82 7 is_stmt 0 view .LVU111
.LBE319:
.LBE318:
	.loc 6 160 46 view .LVU112
	leaq	16(%rsp), %rax
	movq	%rax, (%rsp)
.LVL55:
	.loc 6 160 46 view .LVU113
.LBE316:
.LBE315:
.LBE314:
.LBB320:
.LBI320:
	.loc 10 162 7 is_stmt 1 view .LVU114
.LBB321:
.LBI321:
	.loc 11 89 7 view .LVU115
	.loc 11 89 7 is_stmt 0 view .LVU116
.LBE321:
.LBE320:
.LBB322:
.LBI322:
	.loc 6 186 7 is_stmt 1 view .LVU117
.LBB323:
	.loc 6 187 28 is_stmt 0 view .LVU118
	movq	0(%rbp), %rsi
.LVL56:
	.loc 6 187 28 view .LVU119
.LBE323:
.LBE322:
.LBB324:
.LBI324:
	.loc 6 907 7 is_stmt 1 view .LVU120
	.loc 6 907 7 is_stmt 0 view .LVU121
.LBE324:
	.loc 6 451 21 view .LVU122
	movq	%rsi, %rdx
	addq	8(%rbp), %rdx
.LVL57:
.LBB325:
.LBI325:
	.loc 6 186 7 is_stmt 1 view .LVU123
	.loc 6 186 7 is_stmt 0 view .LVU124
.LBE325:
.LBB326:
.LBI326:
	.loc 6 263 9 is_stmt 1 view .LVU125
.LBB327:
.LBB328:
.LBI328:
	.loc 6 243 9 view .LVU126
.LBB329:
	.loc 6 247 23 is_stmt 0 view .LVU127
	movq	%rsp, %rdi
.LEHB4:
	call	_ZNSt7__cxx1112basic_stringIcSt11char_traitsIcESaIcEE12_M_constructIPcEEvT_S7_St20forward_iterator_tag
.LVL58:
.LEHE4:
	.loc 6 247 23 view .LVU128
.LBE329:
.LBE328:
.LBE327:
.LBE326:
.LBE307:
.LBE306:
.LBE305:
	.loc 3 13 119 view .LVU129
	movq	%rsp, %rdx
	movl	$_ZTTN3mpp10exceptions13UnknownHeaderE+8, %esi
	movq	%rbx, %rdi
.LEHB5:
	call	_ZN3mpp10exceptions9ExceptionC2ENSt7__cxx1112basic_stringIcSt11char_traitsIcESaIcEEE
.LVL59:
.LEHE5:
.LBB330:
.LBI330:
	.loc 6 657 7 is_stmt 1 view .LVU130
.LBB331:
.LBB332:
.LBI332:
	.loc 6 229 7 view .LVU131
.LBB333:
.LBB334:
.LBI334:
	.loc 6 221 7 view .LVU132
.LBB335:
.LBI335:
	.loc 6 186 7 view .LVU133
.LBB336:
	.loc 6 187 28 is_stmt 0 view .LVU134
	movq	(%rsp), %rdi
.LVL60:
	.loc 6 187 28 view .LVU135
.LBE336:
.LBE335:
.LBB337:
.LBI337:
	.loc 6 200 7 is_stmt 1 view .LVU136
	.loc 6 200 7 is_stmt 0 view .LVU137
.LBE337:
.LBE334:
	.loc 6 231 2 view .LVU138
	leaq	16(%rsp), %rax
	cmpq	%rax, %rdi
	je	.L26
.LVL61:
.LBB338:
.LBI338:
	.loc 6 236 7 is_stmt 1 view .LVU139
.LBB339:
	.loc 6 237 34 is_stmt 0 view .LVU140
	movq	16(%rsp), %rax
	leaq	1(%rax), %rsi
.LVL62:
.LBB340:
.LBI340:
	.loc 9 491 7 is_stmt 1 view .LVU141
.LBB341:
.LBI341:
	.loc 11 120 7 view .LVU142
.LBB342:
	.loc 11 133 19 is_stmt 0 view .LVU143
	call	_ZdlPvm
.LVL63:
.L26:
	.loc 11 133 19 view .LVU144
.LBE342:
.LBE341:
.LBE340:
.LBE339:
.LBE338:
.LBE333:
.LBE332:
.LBB343:
.LBI343:
	.loc 6 150 14 is_stmt 1 view .LVU145
.LBB344:
.LBB345:
.LBI345:
	.loc 10 162 7 view .LVU146
.LBB346:
.LBI346:
	.loc 11 89 7 view .LVU147
	.loc 11 89 7 is_stmt 0 view .LVU148
.LBE346:
.LBE345:
.LBE344:
.LBE343:
.LBE331:
.LBE330:
	.loc 3 13 119 view .LVU149
	movq	$_ZTVN3mpp10exceptions13UnknownHeaderE+24, (%rbx)
	movq	$_ZTVN3mpp10exceptions13UnknownHeaderE+72, 8(%rbx)
.LBE304:
	.loc 3 15 1 view .LVU150
	addq	$32, %rsp
	.cfi_remember_state
	.cfi_def_cfa_offset 32
	popq	%rbx
	.cfi_def_cfa_offset 24
.LVL64:
	.loc 3 15 1 view .LVU151
	popq	%rbp
	.cfi_def_cfa_offset 16
.LVL65:
	.loc 3 15 1 view .LVU152
	popq	%r12
	.cfi_def_cfa_offset 8
.LVL66:
	.loc 3 15 1 view .LVU153
	ret
.LVL67:
.L30:
	.cfi_restore_state
.LBB354:
.LBB347:
.LBB348:
	.loc 6 658 19 view .LVU154
	movq	%rax, %rbx
.LVL68:
	.loc 6 658 19 view .LVU155
.LBE348:
.LBI347:
	.loc 6 657 7 is_stmt 1 view .LVU156
.LBB353:
	.loc 6 658 19 is_stmt 0 view .LVU157
	movq	%rsp, %rdi
	call	_ZNSt7__cxx1112basic_stringIcSt11char_traitsIcESaIcEE10_M_disposeEv
.LVL69:
.LBB349:
.LBI349:
	.loc 6 150 14 is_stmt 1 view .LVU158
.LBB350:
.LBB351:
.LBI351:
	.loc 10 162 7 view .LVU159
.LBB352:
.LBI352:
	.loc 11 89 7 view .LVU160
.L28:
	.loc 11 89 7 is_stmt 0 view .LVU161
.LBE352:
.LBE351:
.LBE350:
.LBE349:
.LBE353:
.LBE347:
	.loc 3 13 119 discriminator 1 view .LVU162
	movq	%r12, %rdi
	call	_ZNSt11logic_errorD2Ev
.LVL70:
	movq	%rbx, %rdi
.LEHB6:
	call	_Unwind_Resume
.LVL71:
.LEHE6:
.L29:
	.loc 3 13 119 view .LVU163
	movq	%rax, %rbx
.LVL72:
	.loc 3 13 119 view .LVU164
	jmp	.L28
.LBE354:
	.cfi_endproc
.LFE1239:
	.section	.gcc_except_table
.LLSDA1239:
	.byte	0xff
	.byte	0xff
	.byte	0x1
	.uleb128 .LLSDACSE1239-.LLSDACSB1239
.LLSDACSB1239:
	.uleb128 .LEHB3-.LFB1239
	.uleb128 .LEHE3-.LEHB3
	.uleb128 0
	.uleb128 0
	.uleb128 .LEHB4-.LFB1239
	.uleb128 .LEHE4-.LEHB4
	.uleb128 .L29-.LFB1239
	.uleb128 0
	.uleb128 .LEHB5-.LFB1239
	.uleb128 .LEHE5-.LEHB5
	.uleb128 .L30-.LFB1239
	.uleb128 0
	.uleb128 .LEHB6-.LFB1239
	.uleb128 .LEHE6-.LEHB6
	.uleb128 0
	.uleb128 0
.LLSDACSE1239:
	.text
	.size	_ZN3mpp10exceptions13UnknownHeaderC1ENSt7__cxx1112basic_stringIcSt11char_traitsIcESaIcEEE, .-_ZN3mpp10exceptions13UnknownHeaderC1ENSt7__cxx1112basic_stringIcSt11char_traitsIcESaIcEEE
	.align 2
	.globl	_ZN3mpp10exceptions13UnknownHeaderC2ENSt7__cxx1112basic_stringIcSt11char_traitsIcESaIcEEE
	.type	_ZN3mpp10exceptions13UnknownHeaderC2ENSt7__cxx1112basic_stringIcSt11char_traitsIcESaIcEEE, @function
_ZN3mpp10exceptions13UnknownHeaderC2ENSt7__cxx1112basic_stringIcSt11char_traitsIcESaIcEEE:
.LVL73:
.LFB1238:
	.loc 3 13 1 is_stmt 1 view -0
	.cfi_startproc
	.cfi_personality 0x3,__gxx_personality_v0
	.cfi_lsda 0x3,.LLSDA1238
	.loc 3 13 1 is_stmt 0 view .LVU166
	pushq	%rbp
	.cfi_def_cfa_offset 16
	.cfi_offset 6, -16
	pushq	%rbx
	.cfi_def_cfa_offset 24
	.cfi_offset 3, -24
	subq	$40, %rsp
	.cfi_def_cfa_offset 64
	movq	%rdi, %rbx
	movq	%rsi, %rbp
.LVL74:
.LBB410:
.LBB411:
.LBI411:
	.loc 6 448 7 is_stmt 1 view .LVU167
.LBB412:
.LBB413:
.LBB414:
.LBI414:
	.loc 6 290 7 view .LVU168
	.loc 6 290 7 is_stmt 0 view .LVU169
.LBE414:
.LBB415:
.LBI415:
	.loc 8 97 29 is_stmt 1 view .LVU170
.LBB416:
.LBI416:
	.loc 9 558 7 view .LVU171
.LBB417:
.LBI417:
	.loc 10 147 7 view .LVU172
.LBB418:
.LBI418:
	.loc 11 82 7 view .LVU173
	.loc 11 82 7 is_stmt 0 view .LVU174
.LBE418:
.LBE417:
.LBE416:
.LBE415:
.LBB419:
.LBI419:
	.loc 6 190 7 is_stmt 1 view .LVU175
	.loc 6 190 7 is_stmt 0 view .LVU176
.LBE419:
.LBB420:
.LBI420:
	.loc 6 159 2 is_stmt 1 view .LVU177
.LBB421:
.LBB422:
.LBB423:
.LBI423:
	.loc 12 101 5 view .LVU178
	.loc 12 101 5 is_stmt 0 view .LVU179
.LBE423:
.LBB424:
.LBI424:
	.loc 10 147 7 is_stmt 1 view .LVU180
.LBB425:
.LBI425:
	.loc 11 82 7 view .LVU181
	.loc 11 82 7 is_stmt 0 view .LVU182
.LBE425:
.LBE424:
	.loc 6 160 46 view .LVU183
	leaq	16(%rsp), %rax
	movq	%rax, (%rsp)
.LVL75:
	.loc 6 160 46 view .LVU184
.LBE422:
.LBE421:
.LBE420:
.LBB426:
.LBI426:
	.loc 10 162 7 is_stmt 1 view .LVU185
.LBB427:
.LBI427:
	.loc 11 89 7 view .LVU186
	.loc 11 89 7 is_stmt 0 view .LVU187
.LBE427:
.LBE426:
.LBB428:
.LBI428:
	.loc 6 186 7 is_stmt 1 view .LVU188
.LBB429:
	.loc 6 187 28 is_stmt 0 view .LVU189
	movq	(%rdx), %rsi
.LVL76:
	.loc 6 187 28 view .LVU190
.LBE429:
.LBE428:
.LBB430:
.LBI430:
	.loc 6 907 7 is_stmt 1 view .LVU191
	.loc 6 907 7 is_stmt 0 view .LVU192
.LBE430:
	.loc 6 451 21 view .LVU193
	movq	%rsi, %rax
	addq	8(%rdx), %rax
	movq	%rax, %rdx
.LVL77:
.LBB431:
.LBI431:
	.loc 6 186 7 is_stmt 1 view .LVU194
	.loc 6 186 7 is_stmt 0 view .LVU195
.LBE431:
.LBB432:
.LBI432:
	.loc 6 263 9 is_stmt 1 view .LVU196
.LBB433:
.LBB434:
.LBI434:
	.loc 6 243 9 view .LVU197
.LBB435:
	.loc 6 247 23 is_stmt 0 view .LVU198
	movq	%rsp, %rdi
.LEHB7:
	call	_ZNSt7__cxx1112basic_stringIcSt11char_traitsIcESaIcEE12_M_constructIPcEEvT_S7_St20forward_iterator_tag
.LVL78:
.LEHE7:
	.loc 6 247 23 view .LVU199
.LBE435:
.LBE434:
.LBE433:
.LBE432:
.LBE413:
.LBE412:
.LBE411:
	.loc 3 13 119 view .LVU200
	leaq	8(%rbp), %rsi
	movq	%rsp, %rdx
	movq	%rbx, %rdi
.LEHB8:
	call	_ZN3mpp10exceptions9ExceptionC2ENSt7__cxx1112basic_stringIcSt11char_traitsIcESaIcEEE
.LVL79:
.LEHE8:
.LBB436:
.LBI436:
	.loc 6 657 7 is_stmt 1 view .LVU201
.LBB437:
.LBB438:
.LBI438:
	.loc 6 229 7 view .LVU202
.LBB439:
.LBB440:
.LBI440:
	.loc 6 221 7 view .LVU203
.LBB441:
.LBI441:
	.loc 6 186 7 view .LVU204
.LBB442:
	.loc 6 187 28 is_stmt 0 view .LVU205
	movq	(%rsp), %rdi
.LVL80:
	.loc 6 187 28 view .LVU206
.LBE442:
.LBE441:
.LBB443:
.LBI443:
	.loc 6 200 7 is_stmt 1 view .LVU207
	.loc 6 200 7 is_stmt 0 view .LVU208
.LBE443:
.LBE440:
	.loc 6 231 2 view .LVU209
	leaq	16(%rsp), %rax
	cmpq	%rax, %rdi
	je	.L34
.LVL81:
.LBB444:
.LBI444:
	.loc 6 236 7 is_stmt 1 view .LVU210
.LBB445:
	.loc 6 237 34 is_stmt 0 view .LVU211
	movq	16(%rsp), %rax
	leaq	1(%rax), %rsi
.LVL82:
.LBB446:
.LBI446:
	.loc 9 491 7 is_stmt 1 view .LVU212
.LBB447:
.LBI447:
	.loc 11 120 7 view .LVU213
.LBB448:
	.loc 11 133 19 is_stmt 0 view .LVU214
	call	_ZdlPvm
.LVL83:
.L34:
	.loc 11 133 19 view .LVU215
.LBE448:
.LBE447:
.LBE446:
.LBE445:
.LBE444:
.LBE439:
.LBE438:
.LBB449:
.LBI449:
	.loc 6 150 14 is_stmt 1 view .LVU216
.LBB450:
.LBB451:
.LBI451:
	.loc 10 162 7 view .LVU217
.LBB452:
.LBI452:
	.loc 11 89 7 view .LVU218
	.loc 11 89 7 is_stmt 0 view .LVU219
.LBE452:
.LBE451:
.LBE450:
.LBE449:
.LBE437:
.LBE436:
	.loc 3 13 119 view .LVU220
	movq	0(%rbp), %rax
	movq	%rax, (%rbx)
	movq	24(%rbp), %rax
	movq	%rax, 8(%rbx)
.LBE410:
	.loc 3 15 1 view .LVU221
	addq	$40, %rsp
	.cfi_remember_state
	.cfi_def_cfa_offset 24
	popq	%rbx
	.cfi_def_cfa_offset 16
.LVL84:
	.loc 3 15 1 view .LVU222
	popq	%rbp
	.cfi_def_cfa_offset 8
.LVL85:
	.loc 3 15 1 view .LVU223
	ret
.LVL86:
.L36:
	.cfi_restore_state
.LBB460:
.LBB453:
.LBB454:
	.loc 6 658 19 view .LVU224
	movq	%rax, %rbx
.LVL87:
	.loc 6 658 19 view .LVU225
.LBE454:
.LBI453:
	.loc 6 657 7 is_stmt 1 view .LVU226
.LBB459:
	.loc 6 658 19 is_stmt 0 view .LVU227
	movq	%rsp, %rdi
	call	_ZNSt7__cxx1112basic_stringIcSt11char_traitsIcESaIcEE10_M_disposeEv
.LVL88:
.LBB455:
.LBI455:
	.loc 6 150 14 is_stmt 1 view .LVU228
.LBB456:
.LBB457:
.LBI457:
	.loc 10 162 7 view .LVU229
.LBB458:
.LBI458:
	.loc 11 89 7 view .LVU230
	.loc 11 89 7 is_stmt 0 view .LVU231
	movq	%rbx, %rdi
.LEHB9:
	call	_Unwind_Resume
.LVL89:
.LEHE9:
.LBE458:
.LBE457:
.LBE456:
.LBE455:
.LBE459:
.LBE453:
.LBE460:
	.cfi_endproc
.LFE1238:
	.section	.gcc_except_table
.LLSDA1238:
	.byte	0xff
	.byte	0xff
	.byte	0x1
	.uleb128 .LLSDACSE1238-.LLSDACSB1238
.LLSDACSB1238:
	.uleb128 .LEHB7-.LFB1238
	.uleb128 .LEHE7-.LEHB7
	.uleb128 0
	.uleb128 0
	.uleb128 .LEHB8-.LFB1238
	.uleb128 .LEHE8-.LEHB8
	.uleb128 .L36-.LFB1238
	.uleb128 0
	.uleb128 .LEHB9-.LFB1238
	.uleb128 .LEHE9-.LEHB9
	.uleb128 0
	.uleb128 0
.LLSDACSE1238:
	.text
	.size	_ZN3mpp10exceptions13UnknownHeaderC2ENSt7__cxx1112basic_stringIcSt11char_traitsIcESaIcEEE, .-_ZN3mpp10exceptions13UnknownHeaderC2ENSt7__cxx1112basic_stringIcSt11char_traitsIcESaIcEEE
	.weak	_ZTSN3mpp10exceptions9ExceptionE
	.section	.rodata._ZTSN3mpp10exceptions9ExceptionE,"aG",@progbits,_ZTSN3mpp10exceptions9ExceptionE,comdat
	.align 16
	.type	_ZTSN3mpp10exceptions9ExceptionE, @object
	.size	_ZTSN3mpp10exceptions9ExceptionE, 29
_ZTSN3mpp10exceptions9ExceptionE:
	.string	"N3mpp10exceptions9ExceptionE"
	.weak	_ZTIN3mpp10exceptions9ExceptionE
	.section	.rodata._ZTIN3mpp10exceptions9ExceptionE,"aG",@progbits,_ZTIN3mpp10exceptions9ExceptionE,comdat
	.align 8
	.type	_ZTIN3mpp10exceptions9ExceptionE, @object
	.size	_ZTIN3mpp10exceptions9ExceptionE, 40
_ZTIN3mpp10exceptions9ExceptionE:
	.quad	_ZTVN10__cxxabiv121__vmi_class_type_infoE+16
	.quad	_ZTSN3mpp10exceptions9ExceptionE
	.long	0
	.long	1
	.quad	_ZTISt11logic_error
	.quad	-6141
	.weak	_ZTSN3mpp10exceptions13UnknownHeaderE
	.section	.rodata._ZTSN3mpp10exceptions13UnknownHeaderE,"aG",@progbits,_ZTSN3mpp10exceptions13UnknownHeaderE,comdat
	.align 32
	.type	_ZTSN3mpp10exceptions13UnknownHeaderE, @object
	.size	_ZTSN3mpp10exceptions13UnknownHeaderE, 34
_ZTSN3mpp10exceptions13UnknownHeaderE:
	.string	"N3mpp10exceptions13UnknownHeaderE"
	.weak	_ZTIN3mpp10exceptions13UnknownHeaderE
	.section	.rodata._ZTIN3mpp10exceptions13UnknownHeaderE,"aG",@progbits,_ZTIN3mpp10exceptions13UnknownHeaderE,comdat
	.align 8
	.type	_ZTIN3mpp10exceptions13UnknownHeaderE, @object
	.size	_ZTIN3mpp10exceptions13UnknownHeaderE, 24
_ZTIN3mpp10exceptions13UnknownHeaderE:
	.quad	_ZTVN10__cxxabiv120__si_class_type_infoE+16
	.quad	_ZTSN3mpp10exceptions13UnknownHeaderE
	.quad	_ZTIN3mpp10exceptions9ExceptionE
	.hidden	_ZTCN3mpp10exceptions13UnknownHeaderE0_NS0_9ExceptionE
	.weak	_ZTCN3mpp10exceptions13UnknownHeaderE0_NS0_9ExceptionE
	.section	.rodata._ZTCN3mpp10exceptions13UnknownHeaderE0_NS0_9ExceptionE,"aG",@progbits,_ZTVN3mpp10exceptions13UnknownHeaderE,comdat
	.align 8
	.type	_ZTCN3mpp10exceptions13UnknownHeaderE0_NS0_9ExceptionE, @object
	.size	_ZTCN3mpp10exceptions13UnknownHeaderE0_NS0_9ExceptionE, 96
_ZTCN3mpp10exceptions13UnknownHeaderE0_NS0_9ExceptionE:
	.quad	8
	.quad	0
	.quad	_ZTIN3mpp10exceptions9ExceptionE
	.quad	0
	.quad	0
	.quad	0
	.quad	-8
	.quad	-8
	.quad	_ZTIN3mpp10exceptions9ExceptionE
	.quad	0
	.quad	0
	.quad	_ZNKSt11logic_error4whatEv
	.weak	_ZTTN3mpp10exceptions13UnknownHeaderE
	.section	.rodata._ZTTN3mpp10exceptions13UnknownHeaderE,"aG",@progbits,_ZTVN3mpp10exceptions13UnknownHeaderE,comdat
	.align 8
	.type	_ZTTN3mpp10exceptions13UnknownHeaderE, @object
	.size	_ZTTN3mpp10exceptions13UnknownHeaderE, 32
_ZTTN3mpp10exceptions13UnknownHeaderE:
	.quad	_ZTVN3mpp10exceptions13UnknownHeaderE+24
	.quad	_ZTCN3mpp10exceptions13UnknownHeaderE0_NS0_9ExceptionE+24
	.quad	_ZTCN3mpp10exceptions13UnknownHeaderE0_NS0_9ExceptionE+72
	.quad	_ZTVN3mpp10exceptions13UnknownHeaderE+72
	.weak	_ZTVN3mpp10exceptions13UnknownHeaderE
	.section	.rodata._ZTVN3mpp10exceptions13UnknownHeaderE,"aG",@progbits,_ZTVN3mpp10exceptions13UnknownHeaderE,comdat
	.align 8
	.type	_ZTVN3mpp10exceptions13UnknownHeaderE, @object
	.size	_ZTVN3mpp10exceptions13UnknownHeaderE, 96
_ZTVN3mpp10exceptions13UnknownHeaderE:
	.quad	8
	.quad	0
	.quad	_ZTIN3mpp10exceptions13UnknownHeaderE
	.quad	_ZN3mpp10exceptions13UnknownHeaderD1Ev
	.quad	_ZN3mpp10exceptions13UnknownHeaderD0Ev
	.quad	0
	.quad	-8
	.quad	-8
	.quad	_ZTIN3mpp10exceptions13UnknownHeaderE
	.quad	_ZTv0_n24_N3mpp10exceptions13UnknownHeaderD1Ev
	.quad	_ZTv0_n24_N3mpp10exceptions13UnknownHeaderD0Ev
	.quad	_ZNKSt11logic_error4whatEv
	.text
.Letext0:
	.file 13 "/usr/include/c++/10/type_traits"
	.file 14 "/usr/include/c++/10/x86_64-suse-linux/bits/c++config.h"
	.file 15 "/usr/include/c++/10/bits/stl_pair.h"
	.file 16 "/usr/include/c++/10/bits/cpp_type_traits.h"
	.file 17 "/usr/include/c++/10/bits/stl_iterator_base_types.h"
	.file 18 "/usr/include/c++/10/debug/debug.h"
	.file 19 "/usr/include/c++/10/cwchar"
	.file 20 "/usr/include/c++/10/cstdint"
	.file 21 "/usr/include/c++/10/bits/exception_ptr.h"
	.file 22 "/usr/include/c++/10/clocale"
	.file 23 "/usr/include/c++/10/bits/int_limits.h"
	.file 24 "/usr/include/c++/10/string_view"
	.file 25 "/usr/include/c++/10/cstdlib"
	.file 26 "/usr/include/c++/10/cstdio"
	.file 27 "/usr/include/c++/10/initializer_list"
	.file 28 "/usr/include/c++/10/bits/stringfwd.h"
	.file 29 "/usr/include/c++/10/bits/ptr_traits.h"
	.file 30 "/usr/include/c++/10/bits/predefined_ops.h"
	.file 31 "/usr/include/c++/10/ext/numeric_traits.h"
	.file 32 "/usr/include/c++/10/bits/stl_iterator.h"
	.file 33 "/usr/include/c++/10/ext/type_traits.h"
	.file 34 "/usr/lib64/gcc/x86_64-suse-linux/10/include/stddef.h"
	.file 35 "<built-in>"
	.file 36 "/usr/include/bits/types/wint_t.h"
	.file 37 "/usr/include/bits/types/__mbstate_t.h"
	.file 38 "/usr/include/bits/types/mbstate_t.h"
	.file 39 "/usr/include/bits/types/__FILE.h"
	.file 40 "/usr/include/libio.h"
	.file 41 "/usr/include/bits/types/FILE.h"
	.file 42 "/usr/include/wchar.h"
	.file 43 "/usr/include/bits/types/struct_tm.h"
	.file 44 "/usr/include/bits/types.h"
	.file 45 "/usr/include/bits/stdint-intn.h"
	.file 46 "/usr/include/bits/stdint-uintn.h"
	.file 47 "/usr/include/stdint.h"
	.file 48 "/usr/include/locale.h"
	.file 49 "/usr/include/stdlib.h"
	.file 50 "/usr/include/bits/stdlib-float.h"
	.file 51 "/usr/include/bits/stdlib-bsearch.h"
	.file 52 "/usr/include/_G_config.h"
	.file 53 "/usr/include/stdio.h"
	.file 54 "/usr/include/bits/stdio.h"
	.file 55 "/usr/include/c++/10/bits/functexcept.h"
	.file 56 "/usr/include/c++/10/new"
	.section	.note.GNU-stack,"",@progbits
