	.file	"UnknownNoun.cpp"
	.text
.Ltext0:
	.section	.text._ZN3mpp10exceptions11UnknownNounD1Ev,"axG",@progbits,_ZN3mpp10exceptions11UnknownNounD1Ev,comdat
	.align 2
	.weak	_ZN3mpp10exceptions11UnknownNounD1Ev
	.type	_ZN3mpp10exceptions11UnknownNounD1Ev, @function
_ZN3mpp10exceptions11UnknownNounD1Ev:
.LVL0:
.LFB1831:
	.file 1 "./hpp/mpp/exceptions/UnknownNoun.hpp"
	.loc 1 14 9 view -0
	.cfi_startproc
	.loc 1 14 9 is_stmt 0 view .LVU1
	subq	$8, %rsp
	.cfi_def_cfa_offset 16
.LVL1:
.LBB243:
.LBB244:
.LBI244:
	.file 2 "./hpp/mpp/exceptions/Exception.hpp"
	.loc 2 33 13 is_stmt 1 view .LVU2
.LBB245:
	leaq	24+_ZTCN3mpp10exceptions11UnknownNounE0_NS0_9ExceptionE(%rip), %rax
	movq	%rax, (%rdi)
	leaq	8(%rdi), %rax
	leaq	72+_ZTCN3mpp10exceptions11UnknownNounE0_NS0_9ExceptionE(%rip), %rdx
	movq	%rdx, 8(%rdi)
.LVL2:
	.loc 2 33 13 is_stmt 0 view .LVU3
.LBE245:
.LBE244:
	.loc 1 14 9 view .LVU4
	movq	%rax, %rdi
.LVL3:
	.loc 1 14 9 view .LVU5
	call	_ZNSt11logic_errorD2Ev@PLT
.LVL4:
	.loc 1 14 9 view .LVU6
.LBE243:
	addq	$8, %rsp
	.cfi_def_cfa_offset 8
	ret
	.cfi_endproc
.LFE1831:
	.size	_ZN3mpp10exceptions11UnknownNounD1Ev, .-_ZN3mpp10exceptions11UnknownNounD1Ev
	.section	.text._ZN3mpp10exceptions11UnknownNounD0Ev,"axG",@progbits,_ZN3mpp10exceptions11UnknownNounD0Ev,comdat
	.align 2
	.weak	_ZN3mpp10exceptions11UnknownNounD0Ev
	.type	_ZN3mpp10exceptions11UnknownNounD0Ev, @function
_ZN3mpp10exceptions11UnknownNounD0Ev:
.LVL5:
.LFB1832:
	.loc 1 14 9 is_stmt 1 view -0
	.cfi_startproc
	.loc 1 14 9 is_stmt 0 view .LVU8
	pushq	%rbx
	.cfi_def_cfa_offset 16
	.cfi_offset 3, -16
	movq	%rdi, %rbx
.LVL6:
.LBB250:
.LBI250:
	.loc 1 14 9 is_stmt 1 view .LVU9
.LBB251:
.LBB252:
.LBI252:
	.loc 2 33 13 view .LVU10
.LBB253:
	leaq	24+_ZTCN3mpp10exceptions11UnknownNounE0_NS0_9ExceptionE(%rip), %rax
	movq	%rax, (%rdi)
	leaq	8(%rdi), %rdi
.LVL7:
	.loc 2 33 13 is_stmt 0 view .LVU11
	leaq	48(%rax), %rax
	movq	%rax, 8(%rbx)
.LVL8:
	.loc 2 33 13 view .LVU12
.LBE253:
.LBE252:
	.loc 1 14 9 view .LVU13
	call	_ZNSt11logic_errorD2Ev@PLT
.LVL9:
	.loc 1 14 9 view .LVU14
.LBE251:
.LBE250:
	movl	$24, %esi
	movq	%rbx, %rdi
	call	_ZdlPvm@PLT
.LVL10:
	popq	%rbx
	.cfi_def_cfa_offset 8
.LVL11:
	.loc 1 14 9 view .LVU15
	ret
	.cfi_endproc
.LFE1832:
	.size	_ZN3mpp10exceptions11UnknownNounD0Ev, .-_ZN3mpp10exceptions11UnknownNounD0Ev
	.section	.text._ZN3mpp10exceptions11UnknownNounD1Ev,"axG",@progbits,_ZN3mpp10exceptions11UnknownNounD1Ev,comdat
	.weak	_ZTv0_n24_N3mpp10exceptions11UnknownNounD1Ev
	.type	_ZTv0_n24_N3mpp10exceptions11UnknownNounD1Ev, @function
_ZTv0_n24_N3mpp10exceptions11UnknownNounD1Ev:
.LFB1834:
	.cfi_startproc
	subq	$8, %rsp
	.cfi_def_cfa_offset 16
	movq	(%rdi), %rax
	addq	-24(%rax), %rdi
	leaq	24+_ZTCN3mpp10exceptions11UnknownNounE0_NS0_9ExceptionE(%rip), %rax
	movq	%rax, (%rdi)
	leaq	8(%rdi), %rax
	leaq	72+_ZTCN3mpp10exceptions11UnknownNounE0_NS0_9ExceptionE(%rip), %rdx
	movq	%rdx, 8(%rdi)
	movq	%rax, %rdi
	call	_ZNSt11logic_errorD2Ev@PLT
	addq	$8, %rsp
	.cfi_def_cfa_offset 8
	ret
	.cfi_endproc
.LFE1834:
	.size	_ZTv0_n24_N3mpp10exceptions11UnknownNounD1Ev, .-_ZTv0_n24_N3mpp10exceptions11UnknownNounD1Ev
	.section	.text._ZN3mpp10exceptions11UnknownNounD0Ev,"axG",@progbits,_ZN3mpp10exceptions11UnknownNounD0Ev,comdat
	.weak	_ZTv0_n24_N3mpp10exceptions11UnknownNounD0Ev
	.type	_ZTv0_n24_N3mpp10exceptions11UnknownNounD0Ev, @function
_ZTv0_n24_N3mpp10exceptions11UnknownNounD0Ev:
.LFB1835:
	.cfi_startproc
	pushq	%rbx
	.cfi_def_cfa_offset 16
	.cfi_offset 3, -16
	movq	(%rdi), %rax
	movq	%rdi, %rbx
	addq	-24(%rax), %rbx
	leaq	24+_ZTCN3mpp10exceptions11UnknownNounE0_NS0_9ExceptionE(%rip), %rax
	movq	%rax, (%rbx)
	leaq	8(%rbx), %rdi
	leaq	48(%rax), %rax
	movq	%rax, 8(%rbx)
	call	_ZNSt11logic_errorD2Ev@PLT
	movl	$24, %esi
	movq	%rbx, %rdi
	call	_ZdlPvm@PLT
	popq	%rbx
	.cfi_def_cfa_offset 8
	ret
	.cfi_endproc
.LFE1835:
	.size	_ZTv0_n24_N3mpp10exceptions11UnknownNounD0Ev, .-_ZTv0_n24_N3mpp10exceptions11UnknownNounD0Ev
	.text
	.align 2
	.globl	_ZN3mpp10exceptions11UnknownNounC2EPc
	.type	_ZN3mpp10exceptions11UnknownNounC2EPc, @function
_ZN3mpp10exceptions11UnknownNounC2EPc:
.LVL12:
.LFB1376:
	.file 3 "cpp/exceptions/UnknownNoun.cpp"
	.loc 3 13 1 is_stmt 1 view -0
	.cfi_startproc
.LBB254:
	.loc 3 13 112 is_stmt 0 view .LVU17
	movq	(%rsi), %rax
	movq	%rax, (%rdi)
	movq	8(%rsi), %rdx
.LVL13:
	.loc 3 13 112 view .LVU18
	movq	-40(%rax), %rax
	movq	%rdx, (%rdi,%rax)
	movq	16(%rsi), %rdx
	movq	(%rdi), %rax
	movq	-24(%rax), %rax
	movq	%rdx, (%rdi,%rax)
.LBE254:
	.loc 3 15 1 view .LVU19
	ret
	.cfi_endproc
.LFE1376:
	.size	_ZN3mpp10exceptions11UnknownNounC2EPc, .-_ZN3mpp10exceptions11UnknownNounC2EPc
	.align 2
	.globl	_ZN3mpp10exceptions11UnknownNounC1EPc
	.type	_ZN3mpp10exceptions11UnknownNounC1EPc, @function
_ZN3mpp10exceptions11UnknownNounC1EPc:
.LVL14:
.LFB1377:
	.loc 3 13 1 is_stmt 1 view -0
	.cfi_startproc
	.cfi_personality 0x9b,DW.ref.__gxx_personality_v0
	.cfi_lsda 0x1b,.LLSDA1377
	.loc 3 13 1 is_stmt 0 view .LVU21
	pushq	%r12
	.cfi_def_cfa_offset 16
	.cfi_offset 12, -16
	pushq	%rbp
	.cfi_def_cfa_offset 24
	.cfi_offset 6, -24
	pushq	%rbx
	.cfi_def_cfa_offset 32
	.cfi_offset 3, -32
	movq	%rdi, %rbx
	movq	%rsi, %rbp
.LBB255:
	.loc 3 13 112 view .LVU22
	leaq	8(%rdi), %r12
	movq	%r12, %rdi
.LVL15:
.LEHB0:
	.loc 3 13 112 view .LVU23
	call	_ZNSt11logic_errorC2EPKc@PLT
.LVL16:
.LEHE0:
	.loc 3 13 112 view .LVU24
	movq	%rbp, %rdx
	movq	_ZTTN3mpp10exceptions11UnknownNounE@GOTPCREL(%rip), %rax
	leaq	24(%rax), %rsi
	movq	%rbx, %rdi
.LEHB1:
	call	_ZN3mpp10exceptions9ExceptionC2EPc@PLT
.LVL17:
.LEHE1:
	.loc 3 13 112 discriminator 2 view .LVU25
	movq	_ZTVN3mpp10exceptions11UnknownNounE@GOTPCREL(%rip), %rax
	leaq	40(%rax), %rdx
	movq	%rdx, (%rbx)
	leaq	88(%rax), %rax
	movq	%rax, 8(%rbx)
.LBE255:
	.loc 3 15 1 discriminator 2 view .LVU26
	popq	%rbx
	.cfi_remember_state
	.cfi_def_cfa_offset 24
.LVL18:
	.loc 3 15 1 discriminator 2 view .LVU27
	popq	%rbp
	.cfi_def_cfa_offset 16
.LVL19:
	.loc 3 15 1 discriminator 2 view .LVU28
	popq	%r12
	.cfi_def_cfa_offset 8
.LVL20:
	.loc 3 15 1 discriminator 2 view .LVU29
	ret
.LVL21:
.L12:
	.cfi_restore_state
	.loc 3 15 1 discriminator 2 view .LVU30
	movq	%rax, %rbx
.LVL22:
.LBB256:
	.loc 3 13 112 view .LVU31
	movq	%r12, %rdi
	call	_ZNSt11logic_errorD2Ev@PLT
.LVL23:
	movq	%rbx, %rdi
.LEHB2:
	call	_Unwind_Resume@PLT
.LVL24:
.LEHE2:
.LBE256:
	.cfi_endproc
.LFE1377:
	.globl	__gxx_personality_v0
	.section	.gcc_except_table,"a",@progbits
.LLSDA1377:
	.byte	0xff
	.byte	0xff
	.byte	0x1
	.uleb128 .LLSDACSE1377-.LLSDACSB1377
.LLSDACSB1377:
	.uleb128 .LEHB0-.LFB1377
	.uleb128 .LEHE0-.LEHB0
	.uleb128 0
	.uleb128 0
	.uleb128 .LEHB1-.LFB1377
	.uleb128 .LEHE1-.LEHB1
	.uleb128 .L12-.LFB1377
	.uleb128 0
	.uleb128 .LEHB2-.LFB1377
	.uleb128 .LEHE2-.LEHB2
	.uleb128 0
	.uleb128 0
.LLSDACSE1377:
	.text
	.size	_ZN3mpp10exceptions11UnknownNounC1EPc, .-_ZN3mpp10exceptions11UnknownNounC1EPc
	.align 2
	.globl	_ZN3mpp10exceptions11UnknownNounC2ENSt7__cxx1112basic_stringIcSt11char_traitsIcESaIcEEE
	.type	_ZN3mpp10exceptions11UnknownNounC2ENSt7__cxx1112basic_stringIcSt11char_traitsIcESaIcEEE, @function
_ZN3mpp10exceptions11UnknownNounC2ENSt7__cxx1112basic_stringIcSt11char_traitsIcESaIcEEE:
.LVL25:
.LFB1379:
	.loc 3 21 1 is_stmt 1 view -0
	.cfi_startproc
.LBB257:
	.loc 3 21 118 is_stmt 0 view .LVU33
	movq	(%rsi), %rax
	movq	%rax, (%rdi)
	movq	8(%rsi), %rdx
.LVL26:
	.loc 3 21 118 view .LVU34
	movq	-40(%rax), %rax
	movq	%rdx, (%rdi,%rax)
	movq	16(%rsi), %rdx
	movq	(%rdi), %rax
	movq	-24(%rax), %rax
	movq	%rdx, (%rdi,%rax)
.LBE257:
	.loc 3 23 1 view .LVU35
	ret
	.cfi_endproc
.LFE1379:
	.size	_ZN3mpp10exceptions11UnknownNounC2ENSt7__cxx1112basic_stringIcSt11char_traitsIcESaIcEEE, .-_ZN3mpp10exceptions11UnknownNounC2ENSt7__cxx1112basic_stringIcSt11char_traitsIcESaIcEEE
	.section	.rodata._ZNSt7__cxx1112basic_stringIcSt11char_traitsIcESaIcEE12_M_constructIPcEEvT_S7_St20forward_iterator_tag.str1.8,"aMS",@progbits,1
	.align 8
.LC0:
	.string	"basic_string::_M_construct null not valid"
	.section	.text._ZNSt7__cxx1112basic_stringIcSt11char_traitsIcESaIcEE12_M_constructIPcEEvT_S7_St20forward_iterator_tag,"axG",@progbits,_ZNSt7__cxx1112basic_stringIcSt11char_traitsIcESaIcEE12_M_constructIPcEEvT_S7_St20forward_iterator_tag,comdat
	.align 2
	.weak	_ZNSt7__cxx1112basic_stringIcSt11char_traitsIcESaIcEE12_M_constructIPcEEvT_S7_St20forward_iterator_tag
	.type	_ZNSt7__cxx1112basic_stringIcSt11char_traitsIcESaIcEE12_M_constructIPcEEvT_S7_St20forward_iterator_tag, @function
_ZNSt7__cxx1112basic_stringIcSt11char_traitsIcESaIcEE12_M_constructIPcEEvT_S7_St20forward_iterator_tag:
.LVL27:
.LFB1759:
	.file 4 "/usr/include/c++/9/bits/basic_string.tcc"
	.loc 4 206 7 is_stmt 1 view -0
	.cfi_startproc
	.loc 4 206 7 is_stmt 0 view .LVU37
	pushq	%r12
	.cfi_def_cfa_offset 16
	.cfi_offset 12, -16
	pushq	%rbp
	.cfi_def_cfa_offset 24
	.cfi_offset 6, -24
	pushq	%rbx
	.cfi_def_cfa_offset 32
	.cfi_offset 3, -32
	subq	$16, %rsp
	.cfi_def_cfa_offset 48
	movq	%rdi, %rbp
	movq	%rsi, %r12
	movq	%rdx, %rbx
	.loc 4 211 42 view .LVU38
	testq	%rsi, %rsi
	je	.L22
.L17:
.LVL28:
.LBB258:
.LBI258:
	.file 5 "/usr/include/c++/9/bits/stl_iterator_base_funcs.h"
	.loc 5 138 5 is_stmt 1 view .LVU39
.LBB259:
.LBI259:
	.loc 5 98 5 view .LVU40
.LBB260:
	.loc 5 104 23 is_stmt 0 view .LVU41
	subq	%r12, %rbx
.LVL29:
	.loc 5 104 23 view .LVU42
.LBE260:
.LBE259:
.LBE258:
	.loc 4 215 12 view .LVU43
	movq	%rbx, 8(%rsp)
	.loc 4 217 2 view .LVU44
	cmpq	$15, %rbx
	ja	.L23
.LVL30:
.L18:
.LBB261:
.LBI261:
	.file 6 "/usr/include/c++/9/bits/basic_string.h"
	.loc 6 186 7 is_stmt 1 view .LVU45
.LBB262:
	.loc 6 187 28 is_stmt 0 view .LVU46
	movq	0(%rbp), %rdi
.LVL31:
	.loc 6 187 28 view .LVU47
.LBE262:
.LBE261:
.LBB263:
.LBI263:
	.loc 6 392 7 is_stmt 1 view .LVU48
.LBB264:
.LBI264:
	.loc 6 346 7 view .LVU49
.LBB265:
	.loc 6 348 2 is_stmt 0 view .LVU50
	cmpq	$1, %rbx
	je	.L24
.LVL32:
.LBB266:
.LBI266:
	.file 7 "/usr/include/c++/9/bits/char_traits.h"
	.loc 7 361 7 is_stmt 1 view .LVU51
.LBB267:
	.loc 7 363 2 view .LVU52
	testq	%rbx, %rbx
	je	.L20
	.loc 7 365 2 view .LVU53
	.loc 7 365 49 is_stmt 0 view .LVU54
	movq	%rbx, %rdx
	movq	%r12, %rsi
	call	memcpy@PLT
.LVL33:
	.loc 7 365 66 view .LVU55
	jmp	.L20
.LVL34:
.L22:
	.loc 7 365 66 view .LVU56
.LBE267:
.LBE266:
.LBE265:
.LBE264:
.LBE263:
	.loc 4 211 42 discriminator 1 view .LVU57
	cmpq	%rdx, %rsi
	je	.L17
	.loc 4 212 28 view .LVU58
	leaq	.LC0(%rip), %rdi
.LVL35:
	.loc 4 212 28 view .LVU59
	call	_ZSt19__throw_logic_errorPKc@PLT
.LVL36:
.L23:
	.loc 4 219 6 view .LVU60
	leaq	8(%rsp), %rsi
.LVL37:
	.loc 4 219 6 view .LVU61
	movl	$0, %edx
.LVL38:
	.loc 4 219 6 view .LVU62
	movq	%rbp, %rdi
.LVL39:
	.loc 4 219 6 view .LVU63
	call	_ZNSt7__cxx1112basic_stringIcSt11char_traitsIcESaIcEE9_M_createERmm@PLT
.LVL40:
.LBB272:
.LBI272:
	.loc 6 178 7 is_stmt 1 view .LVU64
.LBB273:
	.loc 6 179 9 is_stmt 0 view .LVU65
	movq	%rax, 0(%rbp)
.LVL41:
	.loc 6 179 9 view .LVU66
.LBE273:
.LBE272:
	.loc 4 220 6 view .LVU67
	movq	8(%rsp), %rax
.LVL42:
.LBB274:
.LBI274:
	.loc 6 210 7 is_stmt 1 view .LVU68
.LBB275:
	.loc 6 211 9 is_stmt 0 view .LVU69
	movq	%rax, 16(%rbp)
	.loc 6 211 45 view .LVU70
	jmp	.L18
.LVL43:
.L24:
	.loc 6 211 45 view .LVU71
.LBE275:
.LBE274:
.LBB276:
.LBB271:
.LBB270:
.LBB268:
.LBI268:
	.loc 7 299 7 is_stmt 1 view .LVU72
.LBB269:
	.loc 7 300 9 view .LVU73
	.loc 7 300 16 is_stmt 0 view .LVU74
	movzbl	(%r12), %eax
	.loc 7 300 14 view .LVU75
	movb	%al, (%rdi)
.LVL44:
.L20:
	.loc 7 300 14 view .LVU76
.LBE269:
.LBE268:
.LBE270:
.LBE271:
.LBE276:
	.loc 4 232 2 view .LVU77
	movq	8(%rsp), %rax
.LVL45:
.LBB277:
.LBI277:
	.loc 6 214 7 is_stmt 1 view .LVU78
.LBB278:
.LBB279:
.LBI279:
	.loc 6 182 7 view .LVU79
.LBB280:
	.loc 6 183 9 is_stmt 0 view .LVU80
	movq	%rax, 8(%rbp)
.LVL46:
	.loc 6 183 9 view .LVU81
.LBE280:
.LBE279:
.LBB281:
.LBI281:
	.loc 6 186 7 is_stmt 1 view .LVU82
	.loc 6 186 7 is_stmt 0 view .LVU83
.LBE281:
	.loc 6 217 31 view .LVU84
	addq	0(%rbp), %rax
.LVL47:
.LBB282:
.LBI282:
	.loc 7 299 7 is_stmt 1 view .LVU85
.LBB283:
	.loc 7 300 9 view .LVU86
	.loc 7 300 14 is_stmt 0 view .LVU87
	movb	$0, (%rax)
.LVL48:
	.loc 7 300 14 view .LVU88
.LBE283:
.LBE282:
.LBE278:
.LBE277:
	.loc 4 233 7 view .LVU89
	addq	$16, %rsp
	.cfi_def_cfa_offset 32
	popq	%rbx
	.cfi_def_cfa_offset 24
	popq	%rbp
	.cfi_def_cfa_offset 16
.LVL49:
	.loc 4 233 7 view .LVU90
	popq	%r12
	.cfi_def_cfa_offset 8
.LVL50:
	.loc 4 233 7 view .LVU91
	ret
	.cfi_endproc
.LFE1759:
	.size	_ZNSt7__cxx1112basic_stringIcSt11char_traitsIcESaIcEE12_M_constructIPcEEvT_S7_St20forward_iterator_tag, .-_ZNSt7__cxx1112basic_stringIcSt11char_traitsIcESaIcEE12_M_constructIPcEEvT_S7_St20forward_iterator_tag
	.text
	.align 2
	.globl	_ZN3mpp10exceptions11UnknownNounC1ENSt7__cxx1112basic_stringIcSt11char_traitsIcESaIcEEE
	.type	_ZN3mpp10exceptions11UnknownNounC1ENSt7__cxx1112basic_stringIcSt11char_traitsIcESaIcEEE, @function
_ZN3mpp10exceptions11UnknownNounC1ENSt7__cxx1112basic_stringIcSt11char_traitsIcESaIcEEE:
.LVL51:
.LFB1380:
	.loc 3 21 1 is_stmt 1 view -0
	.cfi_startproc
	.cfi_personality 0x9b,DW.ref.__gxx_personality_v0
	.cfi_lsda 0x1b,.LLSDA1380
	.loc 3 21 1 is_stmt 0 view .LVU93
	pushq	%r12
	.cfi_def_cfa_offset 16
	.cfi_offset 12, -16
	pushq	%rbp
	.cfi_def_cfa_offset 24
	.cfi_offset 6, -24
	pushq	%rbx
	.cfi_def_cfa_offset 32
	.cfi_offset 3, -32
	subq	$32, %rsp
	.cfi_def_cfa_offset 64
	movq	%rdi, %rbx
	movq	%rsi, %rbp
.LBB284:
	.loc 3 21 118 view .LVU94
	leaq	8(%rdi), %r12
	movq	%r12, %rdi
.LVL52:
.LEHB3:
	.loc 3 21 118 view .LVU95
	call	_ZNSt11logic_errorC2ERKNSt7__cxx1112basic_stringIcSt11char_traitsIcESaIcEEE@PLT
.LVL53:
.LEHE3:
.LBB285:
.LBI285:
	.loc 6 448 7 is_stmt 1 view .LVU96
.LBB286:
.LBB287:
.LBB288:
.LBI288:
	.loc 6 290 7 view .LVU97
	.loc 6 290 7 is_stmt 0 view .LVU98
.LBE288:
.LBB289:
.LBI289:
	.file 8 "/usr/include/c++/9/ext/alloc_traits.h"
	.loc 8 97 19 is_stmt 1 view .LVU99
.LBB290:
.LBI290:
	.file 9 "/usr/include/c++/9/bits/alloc_traits.h"
	.loc 9 514 7 view .LVU100
.LBB291:
.LBI291:
	.file 10 "/usr/include/c++/9/bits/allocator.h"
	.loc 10 141 7 view .LVU101
.LBB292:
.LBI292:
	.file 11 "/usr/include/c++/9/ext/new_allocator.h"
	.loc 11 83 7 view .LVU102
	.loc 11 83 7 is_stmt 0 view .LVU103
.LBE292:
.LBE291:
.LBE290:
.LBE289:
.LBB293:
.LBI293:
	.loc 6 190 7 is_stmt 1 view .LVU104
	.loc 6 190 7 is_stmt 0 view .LVU105
.LBE293:
.LBB294:
.LBI294:
	.loc 6 159 2 is_stmt 1 view .LVU106
.LBB295:
.LBB296:
.LBB297:
.LBI297:
	.file 12 "/usr/include/c++/9/bits/move.h"
	.loc 12 99 5 view .LVU107
	.loc 12 99 5 is_stmt 0 view .LVU108
.LBE297:
.LBB298:
.LBI298:
	.loc 10 141 7 is_stmt 1 view .LVU109
.LBB299:
.LBI299:
	.loc 11 83 7 view .LVU110
	.loc 11 83 7 is_stmt 0 view .LVU111
.LBE299:
.LBE298:
	.loc 6 160 46 view .LVU112
	movq	%rsp, %rdi
	leaq	16(%rsp), %rax
.LVL54:
	.loc 6 160 46 view .LVU113
	movq	%rax, (%rsp)
.LVL55:
	.loc 6 160 46 view .LVU114
.LBE296:
.LBE295:
.LBE294:
.LBB300:
.LBI300:
	.loc 10 153 7 is_stmt 1 view .LVU115
.LBB301:
.LBI301:
	.loc 11 89 7 view .LVU116
	.loc 11 89 7 is_stmt 0 view .LVU117
.LBE301:
.LBE300:
.LBB302:
.LBI302:
	.loc 6 186 7 is_stmt 1 view .LVU118
.LBB303:
	.loc 6 187 28 is_stmt 0 view .LVU119
	movq	0(%rbp), %rsi
.LVL56:
	.loc 6 187 28 view .LVU120
.LBE303:
.LBE302:
.LBB304:
.LBI304:
	.loc 6 936 7 is_stmt 1 view .LVU121
	.loc 6 936 7 is_stmt 0 view .LVU122
.LBE304:
	.loc 6 451 9 view .LVU123
	movq	%rsi, %rdx
	addq	8(%rbp), %rdx
.LVL57:
.LBB305:
.LBI305:
	.loc 6 186 7 is_stmt 1 view .LVU124
	.loc 6 186 7 is_stmt 0 view .LVU125
.LBE305:
.LBB306:
.LBI306:
	.loc 6 263 9 is_stmt 1 view .LVU126
.LBB307:
.LBB308:
.LBI308:
	.loc 6 243 9 view .LVU127
.LEHB4:
.LBB309:
	.loc 6 247 11 is_stmt 0 view .LVU128
	call	_ZNSt7__cxx1112basic_stringIcSt11char_traitsIcESaIcEE12_M_constructIPcEEvT_S7_St20forward_iterator_tag@PLT
.LVL58:
.LEHE4:
	.loc 6 247 11 view .LVU129
.LBE309:
.LBE308:
.LBE307:
.LBE306:
.LBE287:
.LBE286:
.LBE285:
	.loc 3 21 118 discriminator 2 view .LVU130
	movq	%rsp, %rdx
	movq	_ZTTN3mpp10exceptions11UnknownNounE@GOTPCREL(%rip), %rax
	leaq	24(%rax), %rsi
	movq	%rbx, %rdi
.LEHB5:
	call	_ZN3mpp10exceptions9ExceptionC2ENSt7__cxx1112basic_stringIcSt11char_traitsIcESaIcEEE@PLT
.LVL59:
.LEHE5:
.LBB310:
.LBI310:
	.loc 6 657 7 is_stmt 1 view .LVU131
.LBB311:
.LBI311:
	.loc 6 229 7 view .LVU132
.LBB312:
.LBB313:
.LBI313:
	.loc 6 221 7 view .LVU133
.LBB314:
.LBI314:
	.loc 6 186 7 view .LVU134
.LBB315:
	.loc 6 187 28 is_stmt 0 view .LVU135
	movq	(%rsp), %rdi
.LVL60:
	.loc 6 187 28 view .LVU136
.LBE315:
.LBE314:
.LBB316:
.LBI316:
	.loc 6 200 7 is_stmt 1 view .LVU137
	.loc 6 200 7 is_stmt 0 view .LVU138
.LBE316:
.LBE313:
	.loc 6 231 2 view .LVU139
	leaq	16(%rsp), %rax
	cmpq	%rax, %rdi
	je	.L26
.LVL61:
.LBB317:
.LBI317:
	.loc 6 236 7 is_stmt 1 view .LVU140
.LBB318:
.LBB319:
.LBI319:
	.loc 9 469 7 view .LVU141
.LBB320:
.LBI320:
	.loc 11 119 7 view .LVU142
.LBB321:
	.loc 11 128 19 is_stmt 0 view .LVU143
	call	_ZdlPv@PLT
.LVL62:
.L26:
	.loc 11 128 19 view .LVU144
.LBE321:
.LBE320:
.LBE319:
.LBE318:
.LBE317:
.LBE312:
.LBE311:
.LBB322:
.LBI322:
	.loc 6 150 14 is_stmt 1 view .LVU145
.LBB323:
.LBI323:
	.loc 10 153 7 view .LVU146
.LBB324:
.LBI324:
	.loc 11 89 7 view .LVU147
	.loc 11 89 7 is_stmt 0 view .LVU148
.LBE324:
.LBE323:
.LBE322:
.LBE310:
	.loc 3 21 118 view .LVU149
	movq	_ZTVN3mpp10exceptions11UnknownNounE@GOTPCREL(%rip), %rax
	leaq	40(%rax), %rdx
	movq	%rdx, (%rbx)
	leaq	88(%rax), %rax
	movq	%rax, 8(%rbx)
.LBE284:
	.loc 3 23 1 view .LVU150
	addq	$32, %rsp
	.cfi_remember_state
	.cfi_def_cfa_offset 32
	popq	%rbx
	.cfi_def_cfa_offset 24
.LVL63:
	.loc 3 23 1 view .LVU151
	popq	%rbp
	.cfi_def_cfa_offset 16
.LVL64:
	.loc 3 23 1 view .LVU152
	popq	%r12
	.cfi_def_cfa_offset 8
.LVL65:
	.loc 3 23 1 view .LVU153
	ret
.LVL66:
.L31:
	.cfi_restore_state
	.loc 3 23 1 view .LVU154
	movq	%rax, %rbx
.LVL67:
.LBB340:
.LBB325:
.LBI325:
	.loc 6 657 7 is_stmt 1 view .LVU155
.LBB326:
.LBI326:
	.loc 6 229 7 view .LVU156
.LBB327:
.LBB328:
.LBI328:
	.loc 6 221 7 view .LVU157
.LBB329:
.LBI329:
	.loc 6 186 7 view .LVU158
.LBB330:
	.loc 6 187 28 is_stmt 0 view .LVU159
	movq	(%rsp), %rdi
.LVL68:
	.loc 6 187 28 view .LVU160
.LBE330:
.LBE329:
.LBB331:
.LBI331:
	.loc 6 200 7 is_stmt 1 view .LVU161
	.loc 6 200 7 is_stmt 0 view .LVU162
.LBE331:
.LBE328:
	.loc 6 231 2 view .LVU163
	leaq	16(%rsp), %rax
	cmpq	%rax, %rdi
	je	.L29
.LVL69:
.LBB332:
.LBI332:
	.loc 6 236 7 is_stmt 1 view .LVU164
.LBB333:
.LBB334:
.LBI334:
	.loc 9 469 7 view .LVU165
.LBB335:
.LBI335:
	.loc 11 119 7 view .LVU166
.LBB336:
	.loc 11 128 19 is_stmt 0 view .LVU167
	call	_ZdlPv@PLT
.LVL70:
	.loc 11 128 19 view .LVU168
.LBE336:
.LBE335:
.LBE334:
.LBE333:
.LBE332:
.LBE327:
.LBE326:
.LBB337:
.LBI337:
	.loc 6 150 14 is_stmt 1 view .LVU169
.LBB338:
.LBI338:
	.loc 10 153 7 view .LVU170
.LBB339:
.LBI339:
	.loc 11 89 7 view .LVU171
.L29:
	.loc 11 89 7 is_stmt 0 view .LVU172
.LBE339:
.LBE338:
.LBE337:
.LBE325:
	.loc 3 21 118 discriminator 1 view .LVU173
	movq	%r12, %rdi
	call	_ZNSt11logic_errorD2Ev@PLT
.LVL71:
	movq	%rbx, %rdi
.LEHB6:
	call	_Unwind_Resume@PLT
.LVL72:
.LEHE6:
.L30:
	.loc 3 21 118 discriminator 1 view .LVU174
	movq	%rax, %rbx
.LVL73:
	.loc 3 21 118 discriminator 1 view .LVU175
	jmp	.L29
.LBE340:
	.cfi_endproc
.LFE1380:
	.section	.gcc_except_table
.LLSDA1380:
	.byte	0xff
	.byte	0xff
	.byte	0x1
	.uleb128 .LLSDACSE1380-.LLSDACSB1380
.LLSDACSB1380:
	.uleb128 .LEHB3-.LFB1380
	.uleb128 .LEHE3-.LEHB3
	.uleb128 0
	.uleb128 0
	.uleb128 .LEHB4-.LFB1380
	.uleb128 .LEHE4-.LEHB4
	.uleb128 .L30-.LFB1380
	.uleb128 0
	.uleb128 .LEHB5-.LFB1380
	.uleb128 .LEHE5-.LEHB5
	.uleb128 .L31-.LFB1380
	.uleb128 0
	.uleb128 .LEHB6-.LFB1380
	.uleb128 .LEHE6-.LEHB6
	.uleb128 0
	.uleb128 0
.LLSDACSE1380:
	.text
	.size	_ZN3mpp10exceptions11UnknownNounC1ENSt7__cxx1112basic_stringIcSt11char_traitsIcESaIcEEE, .-_ZN3mpp10exceptions11UnknownNounC1ENSt7__cxx1112basic_stringIcSt11char_traitsIcESaIcEEE
	.section	.text._ZN3mpp10exceptions11UnknownNounD1Ev,"axG",@progbits,_ZN3mpp10exceptions11UnknownNounD1Ev,comdat
	.weak	_ZTv0_n32_N3mpp10exceptions11UnknownNounD1Ev
	.type	_ZTv0_n32_N3mpp10exceptions11UnknownNounD1Ev, @function
_ZTv0_n32_N3mpp10exceptions11UnknownNounD1Ev:
.LFB1833:
	.cfi_startproc
	subq	$8, %rsp
	.cfi_def_cfa_offset 16
	movq	(%rdi), %rax
	addq	-32(%rax), %rdi
	leaq	24+_ZTCN3mpp10exceptions11UnknownNounE0_NS0_9ExceptionE(%rip), %rax
	movq	%rax, (%rdi)
	leaq	8(%rdi), %rax
	leaq	72+_ZTCN3mpp10exceptions11UnknownNounE0_NS0_9ExceptionE(%rip), %rdx
	movq	%rdx, 8(%rdi)
	movq	%rax, %rdi
	call	_ZNSt11logic_errorD2Ev@PLT
	addq	$8, %rsp
	.cfi_def_cfa_offset 8
	ret
	.cfi_endproc
.LFE1833:
	.size	_ZTv0_n32_N3mpp10exceptions11UnknownNounD1Ev, .-_ZTv0_n32_N3mpp10exceptions11UnknownNounD1Ev
	.section	.text._ZN3mpp10exceptions11UnknownNounD0Ev,"axG",@progbits,_ZN3mpp10exceptions11UnknownNounD0Ev,comdat
	.weak	_ZTv0_n32_N3mpp10exceptions11UnknownNounD0Ev
	.type	_ZTv0_n32_N3mpp10exceptions11UnknownNounD0Ev, @function
_ZTv0_n32_N3mpp10exceptions11UnknownNounD0Ev:
.LFB1836:
	.cfi_startproc
	pushq	%rbx
	.cfi_def_cfa_offset 16
	.cfi_offset 3, -16
	movq	(%rdi), %rax
	movq	%rdi, %rbx
	addq	-32(%rax), %rbx
	leaq	24+_ZTCN3mpp10exceptions11UnknownNounE0_NS0_9ExceptionE(%rip), %rax
	movq	%rax, (%rbx)
	leaq	8(%rbx), %rdi
	leaq	48(%rax), %rax
	movq	%rax, 8(%rbx)
	call	_ZNSt11logic_errorD2Ev@PLT
	movl	$24, %esi
	movq	%rbx, %rdi
	call	_ZdlPvm@PLT
	popq	%rbx
	.cfi_def_cfa_offset 8
	ret
	.cfi_endproc
.LFE1836:
	.size	_ZTv0_n32_N3mpp10exceptions11UnknownNounD0Ev, .-_ZTv0_n32_N3mpp10exceptions11UnknownNounD0Ev
	.weak	_ZTSN3mpp10exceptions9ExceptionE
	.section	.rodata._ZTSN3mpp10exceptions9ExceptionE,"aG",@progbits,_ZTSN3mpp10exceptions9ExceptionE,comdat
	.align 16
	.type	_ZTSN3mpp10exceptions9ExceptionE, @object
	.size	_ZTSN3mpp10exceptions9ExceptionE, 29
_ZTSN3mpp10exceptions9ExceptionE:
	.string	"N3mpp10exceptions9ExceptionE"
	.weak	_ZTIN3mpp10exceptions9ExceptionE
	.section	.data.rel.ro._ZTIN3mpp10exceptions9ExceptionE,"awG",@progbits,_ZTIN3mpp10exceptions9ExceptionE,comdat
	.align 8
	.type	_ZTIN3mpp10exceptions9ExceptionE, @object
	.size	_ZTIN3mpp10exceptions9ExceptionE, 40
_ZTIN3mpp10exceptions9ExceptionE:
	.quad	_ZTVN10__cxxabiv121__vmi_class_type_infoE+16
	.quad	_ZTSN3mpp10exceptions9ExceptionE
	.long	0
	.long	1
	.quad	_ZTISt11logic_error
	.quad	-6141
	.weak	_ZTSN3mpp10exceptions11UnknownNounE
	.section	.rodata._ZTSN3mpp10exceptions11UnknownNounE,"aG",@progbits,_ZTSN3mpp10exceptions11UnknownNounE,comdat
	.align 32
	.type	_ZTSN3mpp10exceptions11UnknownNounE, @object
	.size	_ZTSN3mpp10exceptions11UnknownNounE, 32
_ZTSN3mpp10exceptions11UnknownNounE:
	.string	"N3mpp10exceptions11UnknownNounE"
	.weak	_ZTIN3mpp10exceptions11UnknownNounE
	.section	.data.rel.ro._ZTIN3mpp10exceptions11UnknownNounE,"awG",@progbits,_ZTIN3mpp10exceptions11UnknownNounE,comdat
	.align 8
	.type	_ZTIN3mpp10exceptions11UnknownNounE, @object
	.size	_ZTIN3mpp10exceptions11UnknownNounE, 40
_ZTIN3mpp10exceptions11UnknownNounE:
	.quad	_ZTVN10__cxxabiv121__vmi_class_type_infoE+16
	.quad	_ZTSN3mpp10exceptions11UnknownNounE
	.long	0
	.long	1
	.quad	_ZTIN3mpp10exceptions9ExceptionE
	.quad	-10237
	.hidden	_ZTCN3mpp10exceptions11UnknownNounE0_NS0_9ExceptionE
	.weak	_ZTCN3mpp10exceptions11UnknownNounE0_NS0_9ExceptionE
	.section	.data.rel.ro._ZTCN3mpp10exceptions11UnknownNounE0_NS0_9ExceptionE,"awG",@progbits,_ZTVN3mpp10exceptions11UnknownNounE,comdat
	.align 8
	.type	_ZTCN3mpp10exceptions11UnknownNounE0_NS0_9ExceptionE, @object
	.size	_ZTCN3mpp10exceptions11UnknownNounE0_NS0_9ExceptionE, 96
_ZTCN3mpp10exceptions11UnknownNounE0_NS0_9ExceptionE:
	.quad	8
	.quad	0
	.quad	_ZTIN3mpp10exceptions9ExceptionE
	.quad	0
	.quad	0
	.quad	0
	.quad	-8
	.quad	-8
	.quad	_ZTIN3mpp10exceptions9ExceptionE
	.quad	0
	.quad	0
	.quad	_ZNKSt11logic_error4whatEv
	.weak	_ZTTN3mpp10exceptions11UnknownNounE
	.section	.data.rel.ro._ZTTN3mpp10exceptions11UnknownNounE,"awG",@progbits,_ZTVN3mpp10exceptions11UnknownNounE,comdat
	.align 8
	.type	_ZTTN3mpp10exceptions11UnknownNounE, @object
	.size	_ZTTN3mpp10exceptions11UnknownNounE, 40
_ZTTN3mpp10exceptions11UnknownNounE:
	.quad	_ZTVN3mpp10exceptions11UnknownNounE+40
	.quad	_ZTVN3mpp10exceptions11UnknownNounE+40
	.quad	_ZTVN3mpp10exceptions11UnknownNounE+88
	.quad	_ZTCN3mpp10exceptions11UnknownNounE0_NS0_9ExceptionE+24
	.quad	_ZTCN3mpp10exceptions11UnknownNounE0_NS0_9ExceptionE+72
	.weak	_ZTVN3mpp10exceptions11UnknownNounE
	.section	.data.rel.ro._ZTVN3mpp10exceptions11UnknownNounE,"awG",@progbits,_ZTVN3mpp10exceptions11UnknownNounE,comdat
	.align 8
	.type	_ZTVN3mpp10exceptions11UnknownNounE, @object
	.size	_ZTVN3mpp10exceptions11UnknownNounE, 112
_ZTVN3mpp10exceptions11UnknownNounE:
	.quad	0
	.quad	0
	.quad	8
	.quad	0
	.quad	_ZTIN3mpp10exceptions11UnknownNounE
	.quad	_ZN3mpp10exceptions11UnknownNounD1Ev
	.quad	_ZN3mpp10exceptions11UnknownNounD0Ev
	.quad	0
	.quad	-8
	.quad	-8
	.quad	_ZTIN3mpp10exceptions11UnknownNounE
	.quad	_ZTv0_n24_N3mpp10exceptions11UnknownNounD1Ev
	.quad	_ZTv0_n24_N3mpp10exceptions11UnknownNounD0Ev
	.quad	_ZNKSt11logic_error4whatEv
	.text
.Letext0:
	.file 13 "/usr/include/c++/9/type_traits"
	.file 14 "/usr/include/c++/9/x86_64-suse-linux/bits/c++config.h"
	.file 15 "/usr/include/c++/9/bits/stl_pair.h"
	.file 16 "/usr/include/c++/9/bits/cpp_type_traits.h"
	.file 17 "/usr/include/c++/9/bits/stl_iterator_base_types.h"
	.file 18 "/usr/include/c++/9/debug/debug.h"
	.file 19 "/usr/include/c++/9/cwchar"
	.file 20 "/usr/include/c++/9/cstdint"
	.file 21 "/usr/include/c++/9/bits/exception_ptr.h"
	.file 22 "/usr/include/c++/9/new"
	.file 23 "/usr/include/c++/9/clocale"
	.file 24 "/usr/include/c++/9/limits"
	.file 25 "/usr/include/c++/9/string_view"
	.file 26 "/usr/include/c++/9/cstdlib"
	.file 27 "/usr/include/c++/9/cstdio"
	.file 28 "/usr/include/c++/9/initializer_list"
	.file 29 "/usr/include/c++/9/bits/stringfwd.h"
	.file 30 "/usr/include/c++/9/bits/ptr_traits.h"
	.file 31 "/usr/include/c++/9/bits/predefined_ops.h"
	.file 32 "/usr/include/c++/9/ext/numeric_traits.h"
	.file 33 "/usr/include/c++/9/bits/stl_iterator.h"
	.file 34 "/usr/include/c++/9/ext/type_traits.h"
	.file 35 "/usr/lib64/gcc/x86_64-suse-linux/9/include/stddef.h"
	.file 36 "<built-in>"
	.file 37 "/usr/include/bits/types/wint_t.h"
	.file 38 "/usr/include/bits/types/__mbstate_t.h"
	.file 39 "/usr/include/bits/types/mbstate_t.h"
	.file 40 "/usr/include/bits/types/__FILE.h"
	.file 41 "/usr/include/libio.h"
	.file 42 "/usr/include/bits/types/FILE.h"
	.file 43 "/usr/include/wchar.h"
	.file 44 "/usr/include/bits/types/struct_tm.h"
	.file 45 "/usr/include/bits/types.h"
	.file 46 "/usr/include/bits/stdint-intn.h"
	.file 47 "/usr/include/bits/stdint-uintn.h"
	.file 48 "/usr/include/stdint.h"
	.file 49 "/usr/include/locale.h"
	.file 50 "/usr/include/time.h"
	.file 51 "/usr/include/stdlib.h"
	.file 52 "/usr/include/bits/stdlib-float.h"
	.file 53 "/usr/include/bits/stdlib-bsearch.h"
	.file 54 "/usr/include/_G_config.h"
	.file 55 "/usr/include/stdio.h"
	.file 56 "/usr/include/bits/sys_errlist.h"
	.file 57 "/usr/include/bits/stdio.h"
	.file 58 "/usr/include/errno.h"
	.file 59 "/usr/include/c++/9/bits/functexcept.h"
	.section	.data.rel.local.DW.ref.__gxx_personality_v0,"awG",@progbits,DW.ref.__gxx_personality_v0,comdat
	.align 8
	.type	DW.ref.__gxx_personality_v0, @object
	.size	DW.ref.__gxx_personality_v0, 8
DW.ref.__gxx_personality_v0:
	.quad	__gxx_personality_v0
	.ident	"GCC: (SUSE Linux) 9.3.1 20200406 [revision 6db837a5288ee3ca5ec504fbd5a765817e556ac2]"
	.section	.note.GNU-stack,"",@progbits
