	.file	"main.cpp"
	.text
	.section	.rodata
	.type	_ZStL19piecewise_construct, @object
	.size	_ZStL19piecewise_construct, 1
_ZStL19piecewise_construct:
	.zero	1
	.section	.text._ZNSt11char_traitsIcE6lengthEPKc,"axG",@progbits,_ZNSt11char_traitsIcE6lengthEPKc,comdat
	.weak	_ZNSt11char_traitsIcE6lengthEPKc
	.type	_ZNSt11char_traitsIcE6lengthEPKc, @function
_ZNSt11char_traitsIcE6lengthEPKc:
.LFB340:
	.cfi_startproc
	pushq	%rbp
	.cfi_def_cfa_offset 16
	.cfi_offset 6, -16
	movq	%rsp, %rbp
	.cfi_def_cfa_register 6
	movq	%rdi, -8(%rbp)
	movq	-8(%rbp), %rax
	movq	$-1, %rcx
	movq	%rax, %rdx
	movl	$0, %eax
	movq	%rdx, %rdi
	repnz scasb
	movq	%rcx, %rax
	notq	%rax
	subq	$1, %rax
	popq	%rbp
	.cfi_def_cfa 7, 8
	ret
	.cfi_endproc
.LFE340:
	.size	_ZNSt11char_traitsIcE6lengthEPKc, .-_ZNSt11char_traitsIcE6lengthEPKc
	.section	.text._ZNSt11char_traitsIcE3eofEv,"axG",@progbits,_ZNSt11char_traitsIcE3eofEv,comdat
	.weak	_ZNSt11char_traitsIcE3eofEv
	.type	_ZNSt11char_traitsIcE3eofEv, @function
_ZNSt11char_traitsIcE3eofEv:
.LFB348:
	.cfi_startproc
	pushq	%rbp
	.cfi_def_cfa_offset 16
	.cfi_offset 6, -16
	movq	%rsp, %rbp
	.cfi_def_cfa_register 6
	movl	$-1, %eax
	popq	%rbp
	.cfi_def_cfa 7, 8
	ret
	.cfi_endproc
.LFE348:
	.size	_ZNSt11char_traitsIcE3eofEv, .-_ZNSt11char_traitsIcE3eofEv
	.section	.text._ZNSt9exceptionC2Ev,"axG",@progbits,_ZNSt9exceptionC5Ev,comdat
	.align 2
	.weak	_ZNSt9exceptionC2Ev
	.type	_ZNSt9exceptionC2Ev, @function
_ZNSt9exceptionC2Ev:
.LFB393:
	.cfi_startproc
	pushq	%rbp
	.cfi_def_cfa_offset 16
	.cfi_offset 6, -16
	movq	%rsp, %rbp
	.cfi_def_cfa_register 6
	movq	%rdi, -8(%rbp)
	movl	$_ZTVSt9exception+16, %edx
	movq	-8(%rbp), %rax
	movq	%rdx, (%rax)
	nop
	popq	%rbp
	.cfi_def_cfa 7, 8
	ret
	.cfi_endproc
.LFE393:
	.size	_ZNSt9exceptionC2Ev, .-_ZNSt9exceptionC2Ev
	.weak	_ZNSt9exceptionC1Ev
	.set	_ZNSt9exceptionC1Ev,_ZNSt9exceptionC2Ev
	.section	.text._ZNKSt9type_infoeqERKS_,"axG",@progbits,_ZNKSt9type_infoeqERKS_,comdat
	.align 2
	.weak	_ZNKSt9type_infoeqERKS_
	.type	_ZNKSt9type_infoeqERKS_, @function
_ZNKSt9type_infoeqERKS_:
.LFB400:
	.cfi_startproc
	pushq	%rbp
	.cfi_def_cfa_offset 16
	.cfi_offset 6, -16
	movq	%rsp, %rbp
	.cfi_def_cfa_register 6
	subq	$16, %rsp
	movq	%rdi, -8(%rbp)
	movq	%rsi, -16(%rbp)
	movq	-8(%rbp), %rax
	movq	8(%rax), %rdx
	movq	-16(%rbp), %rax
	movq	8(%rax), %rax
	cmpq	%rax, %rdx
	je	.L7
	movq	-8(%rbp), %rax
	movq	8(%rax), %rax
	movzbl	(%rax), %eax
	cmpb	$42, %al
	je	.L8
	movq	-16(%rbp), %rax
	movq	8(%rax), %rdx
	movq	-8(%rbp), %rax
	movq	8(%rax), %rax
	movq	%rdx, %rsi
	movq	%rax, %rdi
	call	strcmp
	testl	%eax, %eax
	jne	.L8
.L7:
	movl	$1, %eax
	jmp	.L9
.L8:
	movl	$0, %eax
.L9:
	leave
	.cfi_def_cfa 7, 8
	ret
	.cfi_endproc
.LFE400:
	.size	_ZNKSt9type_infoeqERKS_, .-_ZNKSt9type_infoeqERKS_
	.section	.text._ZNSt8bad_castC2Ev,"axG",@progbits,_ZNSt8bad_castC5Ev,comdat
	.align 2
	.weak	_ZNSt8bad_castC2Ev
	.type	_ZNSt8bad_castC2Ev, @function
_ZNSt8bad_castC2Ev:
.LFB407:
	.cfi_startproc
	pushq	%rbp
	.cfi_def_cfa_offset 16
	.cfi_offset 6, -16
	movq	%rsp, %rbp
	.cfi_def_cfa_register 6
	subq	$16, %rsp
	movq	%rdi, -8(%rbp)
	movq	-8(%rbp), %rax
	movq	%rax, %rdi
	call	_ZNSt9exceptionC2Ev
	movl	$_ZTVSt8bad_cast+16, %edx
	movq	-8(%rbp), %rax
	movq	%rdx, (%rax)
	nop
	leave
	.cfi_def_cfa 7, 8
	ret
	.cfi_endproc
.LFE407:
	.size	_ZNSt8bad_castC2Ev, .-_ZNSt8bad_castC2Ev
	.weak	_ZNSt8bad_castC1Ev
	.set	_ZNSt8bad_castC1Ev,_ZNSt8bad_castC2Ev
	.section	.text._ZnwmPv,"axG",@progbits,_ZnwmPv,comdat
	.weak	_ZnwmPv
	.type	_ZnwmPv, @function
_ZnwmPv:
.LFB442:
	.cfi_startproc
	pushq	%rbp
	.cfi_def_cfa_offset 16
	.cfi_offset 6, -16
	movq	%rsp, %rbp
	.cfi_def_cfa_register 6
	movq	%rdi, -8(%rbp)
	movq	%rsi, -16(%rbp)
	movq	-16(%rbp), %rax
	popq	%rbp
	.cfi_def_cfa 7, 8
	ret
	.cfi_endproc
.LFE442:
	.size	_ZnwmPv, .-_ZnwmPv
	.section	.text._ZdlPvS_,"axG",@progbits,_ZdlPvS_,comdat
	.weak	_ZdlPvS_
	.type	_ZdlPvS_, @function
_ZdlPvS_:
.LFB444:
	.cfi_startproc
	pushq	%rbp
	.cfi_def_cfa_offset 16
	.cfi_offset 6, -16
	movq	%rsp, %rbp
	.cfi_def_cfa_register 6
	movq	%rdi, -8(%rbp)
	movq	%rsi, -16(%rbp)
	nop
	popq	%rbp
	.cfi_def_cfa 7, 8
	ret
	.cfi_endproc
.LFE444:
	.size	_ZdlPvS_, .-_ZdlPvS_
	.data
	.align 8
	.type	_ZZL18__gthread_active_pvE20__gthread_active_ptr, @object
	.size	_ZZL18__gthread_active_pvE20__gthread_active_ptr, 8
_ZZL18__gthread_active_pvE20__gthread_active_ptr:
	.quad	_ZL28__gthrw___pthread_key_createPjPFvPvE
	.text
	.type	_ZL18__gthread_active_pv, @function
_ZL18__gthread_active_pv:
.LFB629:
	.cfi_startproc
	pushq	%rbp
	.cfi_def_cfa_offset 16
	.cfi_offset 6, -16
	movq	%rsp, %rbp
	.cfi_def_cfa_register 6
	movq	_ZZL18__gthread_active_pvE20__gthread_active_ptr(%rip), %rax
	testq	%rax, %rax
	setne	%al
	movzbl	%al, %eax
	popq	%rbp
	.cfi_def_cfa 7, 8
	ret
	.cfi_endproc
.LFE629:
	.size	_ZL18__gthread_active_pv, .-_ZL18__gthread_active_pv
	.section	.text._ZL20__gthread_mutex_lockP15pthread_mutex_t,"axG",@progbits,_ZNSt5mutex4lockEv,comdat
	.type	_ZL20__gthread_mutex_lockP15pthread_mutex_t, @function
_ZL20__gthread_mutex_lockP15pthread_mutex_t:
.LFB643:
	.cfi_startproc
	pushq	%rbp
	.cfi_def_cfa_offset 16
	.cfi_offset 6, -16
	movq	%rsp, %rbp
	.cfi_def_cfa_register 6
	subq	$16, %rsp
	movq	%rdi, -8(%rbp)
	call	_ZL18__gthread_active_pv
	testl	%eax, %eax
	setne	%al
	testb	%al, %al
	je	.L18
	movq	-8(%rbp), %rax
	movq	%rax, %rdi
	call	_ZL26__gthrw_pthread_mutex_lockP15pthread_mutex_t
	jmp	.L19
.L18:
	movl	$0, %eax
.L19:
	leave
	.cfi_def_cfa 7, 8
	ret
	.cfi_endproc
.LFE643:
	.size	_ZL20__gthread_mutex_lockP15pthread_mutex_t, .-_ZL20__gthread_mutex_lockP15pthread_mutex_t
	.section	.text._ZL22__gthread_mutex_unlockP15pthread_mutex_t,"axG",@progbits,_ZNSt5mutex6unlockEv,comdat
	.type	_ZL22__gthread_mutex_unlockP15pthread_mutex_t, @function
_ZL22__gthread_mutex_unlockP15pthread_mutex_t:
.LFB646:
	.cfi_startproc
	pushq	%rbp
	.cfi_def_cfa_offset 16
	.cfi_offset 6, -16
	movq	%rsp, %rbp
	.cfi_def_cfa_register 6
	subq	$16, %rsp
	movq	%rdi, -8(%rbp)
	call	_ZL18__gthread_active_pv
	testl	%eax, %eax
	setne	%al
	testb	%al, %al
	je	.L21
	movq	-8(%rbp), %rax
	movq	%rax, %rdi
	call	_ZL28__gthrw_pthread_mutex_unlockP15pthread_mutex_t
	jmp	.L22
.L21:
	movl	$0, %eax
.L22:
	leave
	.cfi_def_cfa 7, 8
	ret
	.cfi_endproc
.LFE646:
	.size	_ZL22__gthread_mutex_unlockP15pthread_mutex_t, .-_ZL22__gthread_mutex_unlockP15pthread_mutex_t
	.section	.text._ZNSt6locale2idC2Ev,"axG",@progbits,_ZNSt6locale2idC5Ev,comdat
	.align 2
	.weak	_ZNSt6locale2idC2Ev
	.type	_ZNSt6locale2idC2Ev, @function
_ZNSt6locale2idC2Ev:
.LFB1019:
	.cfi_startproc
	pushq	%rbp
	.cfi_def_cfa_offset 16
	.cfi_offset 6, -16
	movq	%rsp, %rbp
	.cfi_def_cfa_register 6
	movq	%rdi, -8(%rbp)
	nop
	popq	%rbp
	.cfi_def_cfa 7, 8
	ret
	.cfi_endproc
.LFE1019:
	.size	_ZNSt6locale2idC2Ev, .-_ZNSt6locale2idC2Ev
	.weak	_ZNSt6locale2idC1Ev
	.set	_ZNSt6locale2idC1Ev,_ZNSt6locale2idC2Ev
	.section	.text._ZNKSt3_V214error_categoryeqERKS0_,"axG",@progbits,_ZNKSt3_V214error_categoryeqERKS0_,comdat
	.align 2
	.weak	_ZNKSt3_V214error_categoryeqERKS0_
	.type	_ZNKSt3_V214error_categoryeqERKS0_, @function
_ZNKSt3_V214error_categoryeqERKS0_:
.LFB1046:
	.cfi_startproc
	pushq	%rbp
	.cfi_def_cfa_offset 16
	.cfi_offset 6, -16
	movq	%rsp, %rbp
	.cfi_def_cfa_register 6
	movq	%rdi, -8(%rbp)
	movq	%rsi, -16(%rbp)
	movq	-8(%rbp), %rax
	cmpq	-16(%rbp), %rax
	sete	%al
	popq	%rbp
	.cfi_def_cfa 7, 8
	ret
	.cfi_endproc
.LFE1046:
	.size	_ZNKSt3_V214error_categoryeqERKS0_, .-_ZNKSt3_V214error_categoryeqERKS0_
	.section	.text._ZNKSt10error_code5valueEv,"axG",@progbits,_ZNKSt10error_code5valueEv,comdat
	.align 2
	.weak	_ZNKSt10error_code5valueEv
	.type	_ZNKSt10error_code5valueEv, @function
_ZNKSt10error_code5valueEv:
.LFB1058:
	.cfi_startproc
	pushq	%rbp
	.cfi_def_cfa_offset 16
	.cfi_offset 6, -16
	movq	%rsp, %rbp
	.cfi_def_cfa_register 6
	movq	%rdi, -8(%rbp)
	movq	-8(%rbp), %rax
	movl	(%rax), %eax
	popq	%rbp
	.cfi_def_cfa 7, 8
	ret
	.cfi_endproc
.LFE1058:
	.size	_ZNKSt10error_code5valueEv, .-_ZNKSt10error_code5valueEv
	.section	.text._ZNKSt10error_code8categoryEv,"axG",@progbits,_ZNKSt10error_code8categoryEv,comdat
	.align 2
	.weak	_ZNKSt10error_code8categoryEv
	.type	_ZNKSt10error_code8categoryEv, @function
_ZNKSt10error_code8categoryEv:
.LFB1059:
	.cfi_startproc
	pushq	%rbp
	.cfi_def_cfa_offset 16
	.cfi_offset 6, -16
	movq	%rsp, %rbp
	.cfi_def_cfa_register 6
	movq	%rdi, -8(%rbp)
	movq	-8(%rbp), %rax
	movq	8(%rax), %rax
	popq	%rbp
	.cfi_def_cfa 7, 8
	ret
	.cfi_endproc
.LFE1059:
	.size	_ZNKSt10error_code8categoryEv, .-_ZNKSt10error_code8categoryEv
	.section	.text._ZNSt15error_conditionC2EiRKNSt3_V214error_categoryE,"axG",@progbits,_ZNSt15error_conditionC5EiRKNSt3_V214error_categoryE,comdat
	.align 2
	.weak	_ZNSt15error_conditionC2EiRKNSt3_V214error_categoryE
	.type	_ZNSt15error_conditionC2EiRKNSt3_V214error_categoryE, @function
_ZNSt15error_conditionC2EiRKNSt3_V214error_categoryE:
.LFB1069:
	.cfi_startproc
	pushq	%rbp
	.cfi_def_cfa_offset 16
	.cfi_offset 6, -16
	movq	%rsp, %rbp
	.cfi_def_cfa_register 6
	movq	%rdi, -8(%rbp)
	movl	%esi, -12(%rbp)
	movq	%rdx, -24(%rbp)
	movq	-8(%rbp), %rax
	movl	-12(%rbp), %edx
	movl	%edx, (%rax)
	movq	-8(%rbp), %rax
	movq	-24(%rbp), %rdx
	movq	%rdx, 8(%rax)
	nop
	popq	%rbp
	.cfi_def_cfa 7, 8
	ret
	.cfi_endproc
.LFE1069:
	.size	_ZNSt15error_conditionC2EiRKNSt3_V214error_categoryE, .-_ZNSt15error_conditionC2EiRKNSt3_V214error_categoryE
	.weak	_ZNSt15error_conditionC1EiRKNSt3_V214error_categoryE
	.set	_ZNSt15error_conditionC1EiRKNSt3_V214error_categoryE,_ZNSt15error_conditionC2EiRKNSt3_V214error_categoryE
	.section	.text._ZNKSt15error_condition5valueEv,"axG",@progbits,_ZNKSt15error_condition5valueEv,comdat
	.align 2
	.weak	_ZNKSt15error_condition5valueEv
	.type	_ZNKSt15error_condition5valueEv, @function
_ZNKSt15error_condition5valueEv:
.LFB1075:
	.cfi_startproc
	pushq	%rbp
	.cfi_def_cfa_offset 16
	.cfi_offset 6, -16
	movq	%rsp, %rbp
	.cfi_def_cfa_register 6
	movq	%rdi, -8(%rbp)
	movq	-8(%rbp), %rax
	movl	(%rax), %eax
	popq	%rbp
	.cfi_def_cfa 7, 8
	ret
	.cfi_endproc
.LFE1075:
	.size	_ZNKSt15error_condition5valueEv, .-_ZNKSt15error_condition5valueEv
	.section	.text._ZNKSt15error_condition8categoryEv,"axG",@progbits,_ZNKSt15error_condition8categoryEv,comdat
	.align 2
	.weak	_ZNKSt15error_condition8categoryEv
	.type	_ZNKSt15error_condition8categoryEv, @function
_ZNKSt15error_condition8categoryEv:
.LFB1076:
	.cfi_startproc
	pushq	%rbp
	.cfi_def_cfa_offset 16
	.cfi_offset 6, -16
	movq	%rsp, %rbp
	.cfi_def_cfa_register 6
	movq	%rdi, -8(%rbp)
	movq	-8(%rbp), %rax
	movq	8(%rax), %rax
	popq	%rbp
	.cfi_def_cfa 7, 8
	ret
	.cfi_endproc
.LFE1076:
	.size	_ZNKSt15error_condition8categoryEv, .-_ZNKSt15error_condition8categoryEv
	.section	.text._ZSteqRKSt15error_conditionS1_,"axG",@progbits,_ZSteqRKSt15error_conditionS1_,comdat
	.weak	_ZSteqRKSt15error_conditionS1_
	.type	_ZSteqRKSt15error_conditionS1_, @function
_ZSteqRKSt15error_conditionS1_:
.LFB1084:
	.cfi_startproc
	pushq	%rbp
	.cfi_def_cfa_offset 16
	.cfi_offset 6, -16
	movq	%rsp, %rbp
	.cfi_def_cfa_register 6
	pushq	%rbx
	subq	$24, %rsp
	.cfi_offset 3, -24
	movq	%rdi, -24(%rbp)
	movq	%rsi, -32(%rbp)
	movq	-32(%rbp), %rax
	movq	%rax, %rdi
	call	_ZNKSt15error_condition8categoryEv
	movq	%rax, %rbx
	movq	-24(%rbp), %rax
	movq	%rax, %rdi
	call	_ZNKSt15error_condition8categoryEv
	movq	%rbx, %rsi
	movq	%rax, %rdi
	call	_ZNKSt3_V214error_categoryeqERKS0_
	testb	%al, %al
	je	.L36
	movq	-24(%rbp), %rax
	movq	%rax, %rdi
	call	_ZNKSt15error_condition5valueEv
	movl	%eax, %ebx
	movq	-32(%rbp), %rax
	movq	%rax, %rdi
	call	_ZNKSt15error_condition5valueEv
	cmpl	%eax, %ebx
	jne	.L36
	movl	$1, %eax
	jmp	.L37
.L36:
	movl	$0, %eax
.L37:
	addq	$24, %rsp
	popq	%rbx
	popq	%rbp
	.cfi_def_cfa 7, 8
	ret
	.cfi_endproc
.LFE1084:
	.size	_ZSteqRKSt15error_conditionS1_, .-_ZSteqRKSt15error_conditionS1_
	.section	.text._ZStanSt13_Ios_FmtflagsS_,"axG",@progbits,_ZStanSt13_Ios_FmtflagsS_,comdat
	.weak	_ZStanSt13_Ios_FmtflagsS_
	.type	_ZStanSt13_Ios_FmtflagsS_, @function
_ZStanSt13_Ios_FmtflagsS_:
.LFB1109:
	.cfi_startproc
	pushq	%rbp
	.cfi_def_cfa_offset 16
	.cfi_offset 6, -16
	movq	%rsp, %rbp
	.cfi_def_cfa_register 6
	movl	%edi, -4(%rbp)
	movl	%esi, -8(%rbp)
	movl	-4(%rbp), %eax
	andl	-8(%rbp), %eax
	popq	%rbp
	.cfi_def_cfa 7, 8
	ret
	.cfi_endproc
.LFE1109:
	.size	_ZStanSt13_Ios_FmtflagsS_, .-_ZStanSt13_Ios_FmtflagsS_
	.section	.text._ZStorSt13_Ios_FmtflagsS_,"axG",@progbits,_ZStorSt13_Ios_FmtflagsS_,comdat
	.weak	_ZStorSt13_Ios_FmtflagsS_
	.type	_ZStorSt13_Ios_FmtflagsS_, @function
_ZStorSt13_Ios_FmtflagsS_:
.LFB1110:
	.cfi_startproc
	pushq	%rbp
	.cfi_def_cfa_offset 16
	.cfi_offset 6, -16
	movq	%rsp, %rbp
	.cfi_def_cfa_register 6
	movl	%edi, -4(%rbp)
	movl	%esi, -8(%rbp)
	movl	-4(%rbp), %eax
	orl	-8(%rbp), %eax
	popq	%rbp
	.cfi_def_cfa 7, 8
	ret
	.cfi_endproc
.LFE1110:
	.size	_ZStorSt13_Ios_FmtflagsS_, .-_ZStorSt13_Ios_FmtflagsS_
	.section	.text._ZStcoSt13_Ios_Fmtflags,"axG",@progbits,_ZStcoSt13_Ios_Fmtflags,comdat
	.weak	_ZStcoSt13_Ios_Fmtflags
	.type	_ZStcoSt13_Ios_Fmtflags, @function
_ZStcoSt13_Ios_Fmtflags:
.LFB1112:
	.cfi_startproc
	pushq	%rbp
	.cfi_def_cfa_offset 16
	.cfi_offset 6, -16
	movq	%rsp, %rbp
	.cfi_def_cfa_register 6
	movl	%edi, -4(%rbp)
	movl	-4(%rbp), %eax
	notl	%eax
	popq	%rbp
	.cfi_def_cfa 7, 8
	ret
	.cfi_endproc
.LFE1112:
	.size	_ZStcoSt13_Ios_Fmtflags, .-_ZStcoSt13_Ios_Fmtflags
	.section	.text._ZStoRRSt13_Ios_FmtflagsS_,"axG",@progbits,_ZStoRRSt13_Ios_FmtflagsS_,comdat
	.weak	_ZStoRRSt13_Ios_FmtflagsS_
	.type	_ZStoRRSt13_Ios_FmtflagsS_, @function
_ZStoRRSt13_Ios_FmtflagsS_:
.LFB1113:
	.cfi_startproc
	pushq	%rbp
	.cfi_def_cfa_offset 16
	.cfi_offset 6, -16
	movq	%rsp, %rbp
	.cfi_def_cfa_register 6
	subq	$16, %rsp
	movq	%rdi, -8(%rbp)
	movl	%esi, -12(%rbp)
	movq	-8(%rbp), %rax
	movl	(%rax), %eax
	movl	-12(%rbp), %edx
	movl	%edx, %esi
	movl	%eax, %edi
	call	_ZStorSt13_Ios_FmtflagsS_
	movl	%eax, %edx
	movq	-8(%rbp), %rax
	movl	%edx, (%rax)
	movq	-8(%rbp), %rax
	leave
	.cfi_def_cfa 7, 8
	ret
	.cfi_endproc
.LFE1113:
	.size	_ZStoRRSt13_Ios_FmtflagsS_, .-_ZStoRRSt13_Ios_FmtflagsS_
	.section	.text._ZStaNRSt13_Ios_FmtflagsS_,"axG",@progbits,_ZStaNRSt13_Ios_FmtflagsS_,comdat
	.weak	_ZStaNRSt13_Ios_FmtflagsS_
	.type	_ZStaNRSt13_Ios_FmtflagsS_, @function
_ZStaNRSt13_Ios_FmtflagsS_:
.LFB1114:
	.cfi_startproc
	pushq	%rbp
	.cfi_def_cfa_offset 16
	.cfi_offset 6, -16
	movq	%rsp, %rbp
	.cfi_def_cfa_register 6
	subq	$16, %rsp
	movq	%rdi, -8(%rbp)
	movl	%esi, -12(%rbp)
	movq	-8(%rbp), %rax
	movl	(%rax), %eax
	movl	-12(%rbp), %edx
	movl	%edx, %esi
	movl	%eax, %edi
	call	_ZStanSt13_Ios_FmtflagsS_
	movl	%eax, %edx
	movq	-8(%rbp), %rax
	movl	%edx, (%rax)
	movq	-8(%rbp), %rax
	leave
	.cfi_def_cfa 7, 8
	ret
	.cfi_endproc
.LFE1114:
	.size	_ZStaNRSt13_Ios_FmtflagsS_, .-_ZStaNRSt13_Ios_FmtflagsS_
	.section	.text._ZStanSt13_Ios_OpenmodeS_,"axG",@progbits,_ZStanSt13_Ios_OpenmodeS_,comdat
	.weak	_ZStanSt13_Ios_OpenmodeS_
	.type	_ZStanSt13_Ios_OpenmodeS_, @function
_ZStanSt13_Ios_OpenmodeS_:
.LFB1116:
	.cfi_startproc
	pushq	%rbp
	.cfi_def_cfa_offset 16
	.cfi_offset 6, -16
	movq	%rsp, %rbp
	.cfi_def_cfa_register 6
	movl	%edi, -4(%rbp)
	movl	%esi, -8(%rbp)
	movl	-4(%rbp), %eax
	andl	-8(%rbp), %eax
	popq	%rbp
	.cfi_def_cfa 7, 8
	ret
	.cfi_endproc
.LFE1116:
	.size	_ZStanSt13_Ios_OpenmodeS_, .-_ZStanSt13_Ios_OpenmodeS_
	.section	.text._ZStorSt13_Ios_OpenmodeS_,"axG",@progbits,_ZStorSt13_Ios_OpenmodeS_,comdat
	.weak	_ZStorSt13_Ios_OpenmodeS_
	.type	_ZStorSt13_Ios_OpenmodeS_, @function
_ZStorSt13_Ios_OpenmodeS_:
.LFB1117:
	.cfi_startproc
	pushq	%rbp
	.cfi_def_cfa_offset 16
	.cfi_offset 6, -16
	movq	%rsp, %rbp
	.cfi_def_cfa_register 6
	movl	%edi, -4(%rbp)
	movl	%esi, -8(%rbp)
	movl	-4(%rbp), %eax
	orl	-8(%rbp), %eax
	popq	%rbp
	.cfi_def_cfa 7, 8
	ret
	.cfi_endproc
.LFE1117:
	.size	_ZStorSt13_Ios_OpenmodeS_, .-_ZStorSt13_Ios_OpenmodeS_
	.section	.text._ZNKSt8ios_base5flagsEv,"axG",@progbits,_ZNKSt8ios_base5flagsEv,comdat
	.align 2
	.weak	_ZNKSt8ios_base5flagsEv
	.type	_ZNKSt8ios_base5flagsEv, @function
_ZNKSt8ios_base5flagsEv:
.LFB1140:
	.cfi_startproc
	pushq	%rbp
	.cfi_def_cfa_offset 16
	.cfi_offset 6, -16
	movq	%rsp, %rbp
	.cfi_def_cfa_register 6
	movq	%rdi, -8(%rbp)
	movq	-8(%rbp), %rax
	movl	24(%rax), %eax
	popq	%rbp
	.cfi_def_cfa 7, 8
	ret
	.cfi_endproc
.LFE1140:
	.size	_ZNKSt8ios_base5flagsEv, .-_ZNKSt8ios_base5flagsEv
	.section	.text._ZNSt8ios_base5flagsESt13_Ios_Fmtflags,"axG",@progbits,_ZNSt8ios_base5flagsESt13_Ios_Fmtflags,comdat
	.align 2
	.weak	_ZNSt8ios_base5flagsESt13_Ios_Fmtflags
	.type	_ZNSt8ios_base5flagsESt13_Ios_Fmtflags, @function
_ZNSt8ios_base5flagsESt13_Ios_Fmtflags:
.LFB1141:
	.cfi_startproc
	pushq	%rbp
	.cfi_def_cfa_offset 16
	.cfi_offset 6, -16
	movq	%rsp, %rbp
	.cfi_def_cfa_register 6
	movq	%rdi, -24(%rbp)
	movl	%esi, -28(%rbp)
	movq	-24(%rbp), %rax
	movl	24(%rax), %eax
	movl	%eax, -4(%rbp)
	movq	-24(%rbp), %rax
	movl	-28(%rbp), %edx
	movl	%edx, 24(%rax)
	movl	-4(%rbp), %eax
	popq	%rbp
	.cfi_def_cfa 7, 8
	ret
	.cfi_endproc
.LFE1141:
	.size	_ZNSt8ios_base5flagsESt13_Ios_Fmtflags, .-_ZNSt8ios_base5flagsESt13_Ios_Fmtflags
	.section	.text._ZNSt8ios_base4setfESt13_Ios_Fmtflags,"axG",@progbits,_ZNSt8ios_base4setfESt13_Ios_Fmtflags,comdat
	.align 2
	.weak	_ZNSt8ios_base4setfESt13_Ios_Fmtflags
	.type	_ZNSt8ios_base4setfESt13_Ios_Fmtflags, @function
_ZNSt8ios_base4setfESt13_Ios_Fmtflags:
.LFB1142:
	.cfi_startproc
	pushq	%rbp
	.cfi_def_cfa_offset 16
	.cfi_offset 6, -16
	movq	%rsp, %rbp
	.cfi_def_cfa_register 6
	subq	$32, %rsp
	movq	%rdi, -24(%rbp)
	movl	%esi, -28(%rbp)
	movq	-24(%rbp), %rax
	movl	24(%rax), %eax
	movl	%eax, -4(%rbp)
	movq	-24(%rbp), %rax
	leaq	24(%rax), %rdx
	movl	-28(%rbp), %eax
	movl	%eax, %esi
	movq	%rdx, %rdi
	call	_ZStoRRSt13_Ios_FmtflagsS_
	movl	-4(%rbp), %eax
	leave
	.cfi_def_cfa 7, 8
	ret
	.cfi_endproc
.LFE1142:
	.size	_ZNSt8ios_base4setfESt13_Ios_Fmtflags, .-_ZNSt8ios_base4setfESt13_Ios_Fmtflags
	.section	.text._ZNSt8ios_base6unsetfESt13_Ios_Fmtflags,"axG",@progbits,_ZNSt8ios_base6unsetfESt13_Ios_Fmtflags,comdat
	.align 2
	.weak	_ZNSt8ios_base6unsetfESt13_Ios_Fmtflags
	.type	_ZNSt8ios_base6unsetfESt13_Ios_Fmtflags, @function
_ZNSt8ios_base6unsetfESt13_Ios_Fmtflags:
.LFB1144:
	.cfi_startproc
	pushq	%rbp
	.cfi_def_cfa_offset 16
	.cfi_offset 6, -16
	movq	%rsp, %rbp
	.cfi_def_cfa_register 6
	subq	$16, %rsp
	movq	%rdi, -8(%rbp)
	movl	%esi, -12(%rbp)
	movl	-12(%rbp), %eax
	movl	%eax, %edi
	call	_ZStcoSt13_Ios_Fmtflags
	movl	%eax, %edx
	movq	-8(%rbp), %rax
	addq	$24, %rax
	movl	%edx, %esi
	movq	%rax, %rdi
	call	_ZStaNRSt13_Ios_FmtflagsS_
	nop
	leave
	.cfi_def_cfa 7, 8
	ret
	.cfi_endproc
.LFE1144:
	.size	_ZNSt8ios_base6unsetfESt13_Ios_Fmtflags, .-_ZNSt8ios_base6unsetfESt13_Ios_Fmtflags
	.section	.text._ZNSt8ios_base9precisionEl,"axG",@progbits,_ZNSt8ios_base9precisionEl,comdat
	.align 2
	.weak	_ZNSt8ios_base9precisionEl
	.type	_ZNSt8ios_base9precisionEl, @function
_ZNSt8ios_base9precisionEl:
.LFB1146:
	.cfi_startproc
	pushq	%rbp
	.cfi_def_cfa_offset 16
	.cfi_offset 6, -16
	movq	%rsp, %rbp
	.cfi_def_cfa_register 6
	movq	%rdi, -24(%rbp)
	movq	%rsi, -32(%rbp)
	movq	-24(%rbp), %rax
	movq	8(%rax), %rax
	movq	%rax, -8(%rbp)
	movq	-24(%rbp), %rax
	movq	-32(%rbp), %rdx
	movq	%rdx, 8(%rax)
	movq	-8(%rbp), %rax
	popq	%rbp
	.cfi_def_cfa 7, 8
	ret
	.cfi_endproc
.LFE1146:
	.size	_ZNSt8ios_base9precisionEl, .-_ZNSt8ios_base9precisionEl
	.section	.text._ZNKSt8ios_base6getlocEv,"axG",@progbits,_ZNKSt8ios_base6getlocEv,comdat
	.align 2
	.weak	_ZNKSt8ios_base6getlocEv
	.type	_ZNKSt8ios_base6getlocEv, @function
_ZNKSt8ios_base6getlocEv:
.LFB1149:
	.cfi_startproc
	pushq	%rbp
	.cfi_def_cfa_offset 16
	.cfi_offset 6, -16
	movq	%rsp, %rbp
	.cfi_def_cfa_register 6
	subq	$16, %rsp
	movq	%rdi, -8(%rbp)
	movq	%rsi, -16(%rbp)
	movq	-16(%rbp), %rax
	leaq	208(%rax), %rdx
	movq	-8(%rbp), %rax
	movq	%rdx, %rsi
	movq	%rax, %rdi
	call	_ZNSt6localeC1ERKS_
	movq	-8(%rbp), %rax
	leave
	.cfi_def_cfa 7, 8
	ret
	.cfi_endproc
.LFE1149:
	.size	_ZNKSt8ios_base6getlocEv, .-_ZNKSt8ios_base6getlocEv
	.section	.text._ZSt9boolalphaRSt8ios_base,"axG",@progbits,_ZSt9boolalphaRSt8ios_base,comdat
	.weak	_ZSt9boolalphaRSt8ios_base
	.type	_ZSt9boolalphaRSt8ios_base, @function
_ZSt9boolalphaRSt8ios_base:
.LFB1153:
	.cfi_startproc
	pushq	%rbp
	.cfi_def_cfa_offset 16
	.cfi_offset 6, -16
	movq	%rsp, %rbp
	.cfi_def_cfa_register 6
	subq	$16, %rsp
	movq	%rdi, -8(%rbp)
	movq	-8(%rbp), %rax
	movl	$1, %esi
	movq	%rax, %rdi
	call	_ZNSt8ios_base4setfESt13_Ios_Fmtflags
	movq	-8(%rbp), %rax
	leave
	.cfi_def_cfa 7, 8
	ret
	.cfi_endproc
.LFE1153:
	.size	_ZSt9boolalphaRSt8ios_base, .-_ZSt9boolalphaRSt8ios_base
	.section	.text._ZSt8noskipwsRSt8ios_base,"axG",@progbits,_ZSt8noskipwsRSt8ios_base,comdat
	.weak	_ZSt8noskipwsRSt8ios_base
	.type	_ZSt8noskipwsRSt8ios_base, @function
_ZSt8noskipwsRSt8ios_base:
.LFB1162:
	.cfi_startproc
	pushq	%rbp
	.cfi_def_cfa_offset 16
	.cfi_offset 6, -16
	movq	%rsp, %rbp
	.cfi_def_cfa_register 6
	subq	$16, %rsp
	movq	%rdi, -8(%rbp)
	movq	-8(%rbp), %rax
	movl	$4096, %esi
	movq	%rax, %rdi
	call	_ZNSt8ios_base6unsetfESt13_Ios_Fmtflags
	movq	-8(%rbp), %rax
	leave
	.cfi_def_cfa 7, 8
	ret
	.cfi_endproc
.LFE1162:
	.size	_ZSt8noskipwsRSt8ios_base, .-_ZSt8noskipwsRSt8ios_base
	.local	_ZStL8__ioinit
	.comm	_ZStL8__ioinit,1,1
	.section	.text._ZNSt18_Bit_iterator_baseC2EPmj,"axG",@progbits,_ZNSt18_Bit_iterator_baseC5EPmj,comdat
	.align 2
	.weak	_ZNSt18_Bit_iterator_baseC2EPmj
	.type	_ZNSt18_Bit_iterator_baseC2EPmj, @function
_ZNSt18_Bit_iterator_baseC2EPmj:
.LFB1744:
	.cfi_startproc
	pushq	%rbp
	.cfi_def_cfa_offset 16
	.cfi_offset 6, -16
	movq	%rsp, %rbp
	.cfi_def_cfa_register 6
	movq	%rdi, -8(%rbp)
	movq	%rsi, -16(%rbp)
	movl	%edx, -20(%rbp)
	movq	-8(%rbp), %rax
	movq	-16(%rbp), %rdx
	movq	%rdx, (%rax)
	movq	-8(%rbp), %rax
	movl	-20(%rbp), %edx
	movl	%edx, 8(%rax)
	nop
	popq	%rbp
	.cfi_def_cfa 7, 8
	ret
	.cfi_endproc
.LFE1744:
	.size	_ZNSt18_Bit_iterator_baseC2EPmj, .-_ZNSt18_Bit_iterator_baseC2EPmj
	.weak	_ZNSt18_Bit_iterator_baseC1EPmj
	.set	_ZNSt18_Bit_iterator_baseC1EPmj,_ZNSt18_Bit_iterator_baseC2EPmj
	.section	.text._ZNSt13_Bit_iteratorC2Ev,"axG",@progbits,_ZNSt13_Bit_iteratorC5Ev,comdat
	.align 2
	.weak	_ZNSt13_Bit_iteratorC2Ev
	.type	_ZNSt13_Bit_iteratorC2Ev, @function
_ZNSt13_Bit_iteratorC2Ev:
.LFB1757:
	.cfi_startproc
	pushq	%rbp
	.cfi_def_cfa_offset 16
	.cfi_offset 6, -16
	movq	%rsp, %rbp
	.cfi_def_cfa_register 6
	subq	$16, %rsp
	movq	%rdi, -8(%rbp)
	movq	-8(%rbp), %rax
	movl	$0, %edx
	movl	$0, %esi
	movq	%rax, %rdi
	call	_ZNSt18_Bit_iterator_baseC2EPmj
	nop
	leave
	.cfi_def_cfa 7, 8
	ret
	.cfi_endproc
.LFE1757:
	.size	_ZNSt13_Bit_iteratorC2Ev, .-_ZNSt13_Bit_iteratorC2Ev
	.weak	_ZNSt13_Bit_iteratorC1Ev
	.set	_ZNSt13_Bit_iteratorC1Ev,_ZNSt13_Bit_iteratorC2Ev
	.section	.text._ZNSt18_Rb_tree_node_base10_S_minimumEPS_,"axG",@progbits,_ZNSt18_Rb_tree_node_base10_S_minimumEPS_,comdat
	.weak	_ZNSt18_Rb_tree_node_base10_S_minimumEPS_
	.type	_ZNSt18_Rb_tree_node_base10_S_minimumEPS_, @function
_ZNSt18_Rb_tree_node_base10_S_minimumEPS_:
.LFB1923:
	.cfi_startproc
	pushq	%rbp
	.cfi_def_cfa_offset 16
	.cfi_offset 6, -16
	movq	%rsp, %rbp
	.cfi_def_cfa_register 6
	movq	%rdi, -8(%rbp)
.L72:
	movq	-8(%rbp), %rax
	movq	16(%rax), %rax
	testq	%rax, %rax
	je	.L71
	movq	-8(%rbp), %rax
	movq	16(%rax), %rax
	movq	%rax, -8(%rbp)
	jmp	.L72
.L71:
	movq	-8(%rbp), %rax
	popq	%rbp
	.cfi_def_cfa 7, 8
	ret
	.cfi_endproc
.LFE1923:
	.size	_ZNSt18_Rb_tree_node_base10_S_minimumEPS_, .-_ZNSt18_Rb_tree_node_base10_S_minimumEPS_
	.section	.text._ZNSt18_Rb_tree_node_base10_S_maximumEPS_,"axG",@progbits,_ZNSt18_Rb_tree_node_base10_S_maximumEPS_,comdat
	.weak	_ZNSt18_Rb_tree_node_base10_S_maximumEPS_
	.type	_ZNSt18_Rb_tree_node_base10_S_maximumEPS_, @function
_ZNSt18_Rb_tree_node_base10_S_maximumEPS_:
.LFB1925:
	.cfi_startproc
	pushq	%rbp
	.cfi_def_cfa_offset 16
	.cfi_offset 6, -16
	movq	%rsp, %rbp
	.cfi_def_cfa_register 6
	movq	%rdi, -8(%rbp)
.L76:
	movq	-8(%rbp), %rax
	movq	24(%rax), %rax
	testq	%rax, %rax
	je	.L75
	movq	-8(%rbp), %rax
	movq	24(%rax), %rax
	movq	%rax, -8(%rbp)
	jmp	.L76
.L75:
	movq	-8(%rbp), %rax
	popq	%rbp
	.cfi_def_cfa 7, 8
	ret
	.cfi_endproc
.LFE1925:
	.size	_ZNSt18_Rb_tree_node_base10_S_maximumEPS_, .-_ZNSt18_Rb_tree_node_base10_S_maximumEPS_
	.section	.text._ZNSt15_Rb_tree_headerC2Ev,"axG",@progbits,_ZNSt15_Rb_tree_headerC5Ev,comdat
	.align 2
	.weak	_ZNSt15_Rb_tree_headerC2Ev
	.type	_ZNSt15_Rb_tree_headerC2Ev, @function
_ZNSt15_Rb_tree_headerC2Ev:
.LFB1931:
	.cfi_startproc
	pushq	%rbp
	.cfi_def_cfa_offset 16
	.cfi_offset 6, -16
	movq	%rsp, %rbp
	.cfi_def_cfa_register 6
	subq	$16, %rsp
	movq	%rdi, -8(%rbp)
	movq	-8(%rbp), %rax
	movl	$0, (%rax)
	movq	-8(%rbp), %rax
	movq	%rax, %rdi
	call	_ZNSt15_Rb_tree_header8_M_resetEv
	nop
	leave
	.cfi_def_cfa 7, 8
	ret
	.cfi_endproc
.LFE1931:
	.size	_ZNSt15_Rb_tree_headerC2Ev, .-_ZNSt15_Rb_tree_headerC2Ev
	.weak	_ZNSt15_Rb_tree_headerC1Ev
	.set	_ZNSt15_Rb_tree_headerC1Ev,_ZNSt15_Rb_tree_headerC2Ev
	.section	.text._ZNSt15_Rb_tree_header8_M_resetEv,"axG",@progbits,_ZNSt15_Rb_tree_header8_M_resetEv,comdat
	.align 2
	.weak	_ZNSt15_Rb_tree_header8_M_resetEv
	.type	_ZNSt15_Rb_tree_header8_M_resetEv, @function
_ZNSt15_Rb_tree_header8_M_resetEv:
.LFB1937:
	.cfi_startproc
	pushq	%rbp
	.cfi_def_cfa_offset 16
	.cfi_offset 6, -16
	movq	%rsp, %rbp
	.cfi_def_cfa_register 6
	movq	%rdi, -8(%rbp)
	movq	-8(%rbp), %rax
	movq	$0, 8(%rax)
	movq	-8(%rbp), %rdx
	movq	-8(%rbp), %rax
	movq	%rdx, 16(%rax)
	movq	-8(%rbp), %rdx
	movq	-8(%rbp), %rax
	movq	%rdx, 24(%rax)
	movq	-8(%rbp), %rax
	movq	$0, 32(%rax)
	nop
	popq	%rbp
	.cfi_def_cfa 7, 8
	ret
	.cfi_endproc
.LFE1937:
	.size	_ZNSt15_Rb_tree_header8_M_resetEv, .-_ZNSt15_Rb_tree_header8_M_resetEv
	.section	.rodata
	.type	_ZStL13allocator_arg, @object
	.size	_ZStL13allocator_arg, 1
_ZStL13allocator_arg:
	.zero	1
	.type	_ZStL6ignore, @object
	.size	_ZStL6ignore, 1
_ZStL6ignore:
	.zero	1
	.section	.text._ZN5boost15program_options5errorD2Ev,"axG",@progbits,_ZN5boost15program_options5errorD5Ev,comdat
	.align 2
	.weak	_ZN5boost15program_options5errorD2Ev
	.type	_ZN5boost15program_options5errorD2Ev, @function
_ZN5boost15program_options5errorD2Ev:
.LFB2507:
	.cfi_startproc
	pushq	%rbp
	.cfi_def_cfa_offset 16
	.cfi_offset 6, -16
	movq	%rsp, %rbp
	.cfi_def_cfa_register 6
	subq	$16, %rsp
	movq	%rdi, -8(%rbp)
	movl	$_ZTVN5boost15program_options5errorE+16, %edx
	movq	-8(%rbp), %rax
	movq	%rdx, (%rax)
	movq	-8(%rbp), %rax
	movq	%rax, %rdi
	call	_ZNSt11logic_errorD2Ev
	nop
	leave
	.cfi_def_cfa 7, 8
	ret
	.cfi_endproc
.LFE2507:
	.size	_ZN5boost15program_options5errorD2Ev, .-_ZN5boost15program_options5errorD2Ev
	.weak	_ZN5boost15program_options5errorD1Ev
	.set	_ZN5boost15program_options5errorD1Ev,_ZN5boost15program_options5errorD2Ev
	.section	.text._ZN5boost15program_options5errorD0Ev,"axG",@progbits,_ZN5boost15program_options5errorD5Ev,comdat
	.align 2
	.weak	_ZN5boost15program_options5errorD0Ev
	.type	_ZN5boost15program_options5errorD0Ev, @function
_ZN5boost15program_options5errorD0Ev:
.LFB2509:
	.cfi_startproc
	pushq	%rbp
	.cfi_def_cfa_offset 16
	.cfi_offset 6, -16
	movq	%rsp, %rbp
	.cfi_def_cfa_register 6
	subq	$16, %rsp
	movq	%rdi, -8(%rbp)
	movq	-8(%rbp), %rax
	movq	%rax, %rdi
	call	_ZN5boost15program_options5errorD1Ev
	movq	-8(%rbp), %rax
	movl	$16, %esi
	movq	%rax, %rdi
	call	_ZdlPvm
	leave
	.cfi_def_cfa 7, 8
	ret
	.cfi_endproc
.LFE2509:
	.size	_ZN5boost15program_options5errorD0Ev, .-_ZN5boost15program_options5errorD0Ev
	.section	.text._ZNSt3mapINSt7__cxx1112basic_stringIcSt11char_traitsIcESaIcEEES5_St4lessIS5_ESaISt4pairIKS5_S5_EEED2Ev,"axG",@progbits,_ZNSt3mapINSt7__cxx1112basic_stringIcSt11char_traitsIcESaIcEEES5_St4lessIS5_ESaISt4pairIKS5_S5_EEED5Ev,comdat
	.align 2
	.weak	_ZNSt3mapINSt7__cxx1112basic_stringIcSt11char_traitsIcESaIcEEES5_St4lessIS5_ESaISt4pairIKS5_S5_EEED2Ev
	.type	_ZNSt3mapINSt7__cxx1112basic_stringIcSt11char_traitsIcESaIcEEES5_St4lessIS5_ESaISt4pairIKS5_S5_EEED2Ev, @function
_ZNSt3mapINSt7__cxx1112basic_stringIcSt11char_traitsIcESaIcEEES5_St4lessIS5_ESaISt4pairIKS5_S5_EEED2Ev:
.LFB2521:
	.cfi_startproc
	pushq	%rbp
	.cfi_def_cfa_offset 16
	.cfi_offset 6, -16
	movq	%rsp, %rbp
	.cfi_def_cfa_register 6
	subq	$16, %rsp
	movq	%rdi, -8(%rbp)
	movq	-8(%rbp), %rax
	movq	%rax, %rdi
	call	_ZNSt8_Rb_treeINSt7__cxx1112basic_stringIcSt11char_traitsIcESaIcEEESt4pairIKS5_S5_ESt10_Select1stIS8_ESt4lessIS5_ESaIS8_EED1Ev
	nop
	leave
	.cfi_def_cfa 7, 8
	ret
	.cfi_endproc
.LFE2521:
	.size	_ZNSt3mapINSt7__cxx1112basic_stringIcSt11char_traitsIcESaIcEEES5_St4lessIS5_ESaISt4pairIKS5_S5_EEED2Ev, .-_ZNSt3mapINSt7__cxx1112basic_stringIcSt11char_traitsIcESaIcEEES5_St4lessIS5_ESaISt4pairIKS5_S5_EEED2Ev
	.weak	_ZNSt3mapINSt7__cxx1112basic_stringIcSt11char_traitsIcESaIcEEES5_St4lessIS5_ESaISt4pairIKS5_S5_EEED1Ev
	.set	_ZNSt3mapINSt7__cxx1112basic_stringIcSt11char_traitsIcESaIcEEES5_St4lessIS5_ESaISt4pairIKS5_S5_EEED1Ev,_ZNSt3mapINSt7__cxx1112basic_stringIcSt11char_traitsIcESaIcEEES5_St4lessIS5_ESaISt4pairIKS5_S5_EEED2Ev
	.section	.text._ZNSt3mapINSt7__cxx1112basic_stringIcSt11char_traitsIcESaIcEEESt4pairIS5_S5_ESt4lessIS5_ESaIS6_IKS5_S7_EEED2Ev,"axG",@progbits,_ZNSt3mapINSt7__cxx1112basic_stringIcSt11char_traitsIcESaIcEEESt4pairIS5_S5_ESt4lessIS5_ESaIS6_IKS5_S7_EEED5Ev,comdat
	.align 2
	.weak	_ZNSt3mapINSt7__cxx1112basic_stringIcSt11char_traitsIcESaIcEEESt4pairIS5_S5_ESt4lessIS5_ESaIS6_IKS5_S7_EEED2Ev
	.type	_ZNSt3mapINSt7__cxx1112basic_stringIcSt11char_traitsIcESaIcEEESt4pairIS5_S5_ESt4lessIS5_ESaIS6_IKS5_S7_EEED2Ev, @function
_ZNSt3mapINSt7__cxx1112basic_stringIcSt11char_traitsIcESaIcEEESt4pairIS5_S5_ESt4lessIS5_ESaIS6_IKS5_S7_EEED2Ev:
.LFB2524:
	.cfi_startproc
	pushq	%rbp
	.cfi_def_cfa_offset 16
	.cfi_offset 6, -16
	movq	%rsp, %rbp
	.cfi_def_cfa_register 6
	subq	$16, %rsp
	movq	%rdi, -8(%rbp)
	movq	-8(%rbp), %rax
	movq	%rax, %rdi
	call	_ZNSt8_Rb_treeINSt7__cxx1112basic_stringIcSt11char_traitsIcESaIcEEESt4pairIKS5_S6_IS5_S5_EESt10_Select1stIS9_ESt4lessIS5_ESaIS9_EED1Ev
	nop
	leave
	.cfi_def_cfa 7, 8
	ret
	.cfi_endproc
.LFE2524:
	.size	_ZNSt3mapINSt7__cxx1112basic_stringIcSt11char_traitsIcESaIcEEESt4pairIS5_S5_ESt4lessIS5_ESaIS6_IKS5_S7_EEED2Ev, .-_ZNSt3mapINSt7__cxx1112basic_stringIcSt11char_traitsIcESaIcEEESt4pairIS5_S5_ESt4lessIS5_ESaIS6_IKS5_S7_EEED2Ev
	.weak	_ZNSt3mapINSt7__cxx1112basic_stringIcSt11char_traitsIcESaIcEEESt4pairIS5_S5_ESt4lessIS5_ESaIS6_IKS5_S7_EEED1Ev
	.set	_ZNSt3mapINSt7__cxx1112basic_stringIcSt11char_traitsIcESaIcEEESt4pairIS5_S5_ESt4lessIS5_ESaIS6_IKS5_S7_EEED1Ev,_ZNSt3mapINSt7__cxx1112basic_stringIcSt11char_traitsIcESaIcEEESt4pairIS5_S5_ESt4lessIS5_ESaIS6_IKS5_S7_EEED2Ev
	.section	.text._ZN5boost15program_options22error_with_option_nameD2Ev,"axG",@progbits,_ZN5boost15program_options22error_with_option_nameD5Ev,comdat
	.align 2
	.weak	_ZN5boost15program_options22error_with_option_nameD2Ev
	.type	_ZN5boost15program_options22error_with_option_nameD2Ev, @function
_ZN5boost15program_options22error_with_option_nameD2Ev:
.LFB2526:
	.cfi_startproc
	pushq	%rbp
	.cfi_def_cfa_offset 16
	.cfi_offset 6, -16
	movq	%rsp, %rbp
	.cfi_def_cfa_register 6
	subq	$16, %rsp
	movq	%rdi, -8(%rbp)
	movl	$_ZTVN5boost15program_options22error_with_option_nameE+16, %edx
	movq	-8(%rbp), %rax
	movq	%rdx, (%rax)
	movq	-8(%rbp), %rax
	addq	$152, %rax
	movq	%rax, %rdi
	call	_ZNSt7__cxx1112basic_stringIcSt11char_traitsIcESaIcEED1Ev
	movq	-8(%rbp), %rax
	addq	$120, %rax
	movq	%rax, %rdi
	call	_ZNSt7__cxx1112basic_stringIcSt11char_traitsIcESaIcEED1Ev
	movq	-8(%rbp), %rax
	addq	$72, %rax
	movq	%rax, %rdi
	call	_ZNSt3mapINSt7__cxx1112basic_stringIcSt11char_traitsIcESaIcEEESt4pairIS5_S5_ESt4lessIS5_ESaIS6_IKS5_S7_EEED1Ev
	movq	-8(%rbp), %rax
	addq	$24, %rax
	movq	%rax, %rdi
	call	_ZNSt3mapINSt7__cxx1112basic_stringIcSt11char_traitsIcESaIcEEES5_St4lessIS5_ESaISt4pairIKS5_S5_EEED1Ev
	movq	-8(%rbp), %rax
	movq	%rax, %rdi
	call	_ZN5boost15program_options5errorD2Ev
	nop
	leave
	.cfi_def_cfa 7, 8
	ret
	.cfi_endproc
.LFE2526:
	.size	_ZN5boost15program_options22error_with_option_nameD2Ev, .-_ZN5boost15program_options22error_with_option_nameD2Ev
	.weak	_ZN5boost15program_options22error_with_option_nameD1Ev
	.set	_ZN5boost15program_options22error_with_option_nameD1Ev,_ZN5boost15program_options22error_with_option_nameD2Ev
	.section	.text._ZN5boost15program_options22error_with_option_nameD0Ev,"axG",@progbits,_ZN5boost15program_options22error_with_option_nameD5Ev,comdat
	.align 2
	.weak	_ZN5boost15program_options22error_with_option_nameD0Ev
	.type	_ZN5boost15program_options22error_with_option_nameD0Ev, @function
_ZN5boost15program_options22error_with_option_nameD0Ev:
.LFB2528:
	.cfi_startproc
	pushq	%rbp
	.cfi_def_cfa_offset 16
	.cfi_offset 6, -16
	movq	%rsp, %rbp
	.cfi_def_cfa_register 6
	subq	$16, %rsp
	movq	%rdi, -8(%rbp)
	movq	-8(%rbp), %rax
	movq	%rax, %rdi
	call	_ZN5boost15program_options22error_with_option_nameD1Ev
	movq	-8(%rbp), %rax
	movl	$184, %esi
	movq	%rax, %rdi
	call	_ZdlPvm
	leave
	.cfi_def_cfa 7, 8
	ret
	.cfi_endproc
.LFE2528:
	.size	_ZN5boost15program_options22error_with_option_nameD0Ev, .-_ZN5boost15program_options22error_with_option_nameD0Ev
	.section	.text._ZN5boost15program_options22error_with_option_name14set_substituteERKNSt7__cxx1112basic_stringIcSt11char_traitsIcESaIcEEES9_,"axG",@progbits,_ZN5boost15program_options22error_with_option_name14set_substituteERKNSt7__cxx1112basic_stringIcSt11char_traitsIcESaIcEEES9_,comdat
	.align 2
	.weak	_ZN5boost15program_options22error_with_option_name14set_substituteERKNSt7__cxx1112basic_stringIcSt11char_traitsIcESaIcEEES9_
	.type	_ZN5boost15program_options22error_with_option_name14set_substituteERKNSt7__cxx1112basic_stringIcSt11char_traitsIcESaIcEEES9_, @function
_ZN5boost15program_options22error_with_option_name14set_substituteERKNSt7__cxx1112basic_stringIcSt11char_traitsIcESaIcEEES9_:
.LFB2529:
	.cfi_startproc
	pushq	%rbp
	.cfi_def_cfa_offset 16
	.cfi_offset 6, -16
	movq	%rsp, %rbp
	.cfi_def_cfa_register 6
	subq	$32, %rsp
	movq	%rdi, -8(%rbp)
	movq	%rsi, -16(%rbp)
	movq	%rdx, -24(%rbp)
	movq	-8(%rbp), %rax
	leaq	24(%rax), %rdx
	movq	-16(%rbp), %rax
	movq	%rax, %rsi
	movq	%rdx, %rdi
	call	_ZNSt3mapINSt7__cxx1112basic_stringIcSt11char_traitsIcESaIcEEES5_St4lessIS5_ESaISt4pairIKS5_S5_EEEixERS9_
	movq	%rax, %rdx
	movq	-24(%rbp), %rax
	movq	%rax, %rsi
	movq	%rdx, %rdi
	call	_ZNSt7__cxx1112basic_stringIcSt11char_traitsIcESaIcEEaSERKS4_
	nop
	leave
	.cfi_def_cfa 7, 8
	ret
	.cfi_endproc
.LFE2529:
	.size	_ZN5boost15program_options22error_with_option_name14set_substituteERKNSt7__cxx1112basic_stringIcSt11char_traitsIcESaIcEEES9_, .-_ZN5boost15program_options22error_with_option_name14set_substituteERKNSt7__cxx1112basic_stringIcSt11char_traitsIcESaIcEEES9_
	.section	.text._ZNSt4pairINSt7__cxx1112basic_stringIcSt11char_traitsIcESaIcEEES5_ED2Ev,"axG",@progbits,_ZNSt4pairINSt7__cxx1112basic_stringIcSt11char_traitsIcESaIcEEES5_ED5Ev,comdat
	.align 2
	.weak	_ZNSt4pairINSt7__cxx1112basic_stringIcSt11char_traitsIcESaIcEEES5_ED2Ev
	.type	_ZNSt4pairINSt7__cxx1112basic_stringIcSt11char_traitsIcESaIcEEES5_ED2Ev, @function
_ZNSt4pairINSt7__cxx1112basic_stringIcSt11char_traitsIcESaIcEEES5_ED2Ev:
.LFB2535:
	.cfi_startproc
	pushq	%rbp
	.cfi_def_cfa_offset 16
	.cfi_offset 6, -16
	movq	%rsp, %rbp
	.cfi_def_cfa_register 6
	subq	$16, %rsp
	movq	%rdi, -8(%rbp)
	movq	-8(%rbp), %rax
	addq	$32, %rax
	movq	%rax, %rdi
	call	_ZNSt7__cxx1112basic_stringIcSt11char_traitsIcESaIcEED1Ev
	movq	-8(%rbp), %rax
	movq	%rax, %rdi
	call	_ZNSt7__cxx1112basic_stringIcSt11char_traitsIcESaIcEED1Ev
	nop
	leave
	.cfi_def_cfa 7, 8
	ret
	.cfi_endproc
.LFE2535:
	.size	_ZNSt4pairINSt7__cxx1112basic_stringIcSt11char_traitsIcESaIcEEES5_ED2Ev, .-_ZNSt4pairINSt7__cxx1112basic_stringIcSt11char_traitsIcESaIcEEES5_ED2Ev
	.weak	_ZNSt4pairINSt7__cxx1112basic_stringIcSt11char_traitsIcESaIcEEES5_ED1Ev
	.set	_ZNSt4pairINSt7__cxx1112basic_stringIcSt11char_traitsIcESaIcEEES5_ED1Ev,_ZNSt4pairINSt7__cxx1112basic_stringIcSt11char_traitsIcESaIcEEES5_ED2Ev
	.section	.rodata
.LC0:
	.string	"option"
	.section	.text._ZN5boost15program_options22error_with_option_name15set_option_nameERKNSt7__cxx1112basic_stringIcSt11char_traitsIcESaIcEEE,"axG",@progbits,_ZN5boost15program_options22error_with_option_name15set_option_nameERKNSt7__cxx1112basic_stringIcSt11char_traitsIcESaIcEEE,comdat
	.align 2
	.weak	_ZN5boost15program_options22error_with_option_name15set_option_nameERKNSt7__cxx1112basic_stringIcSt11char_traitsIcESaIcEEE
	.type	_ZN5boost15program_options22error_with_option_name15set_option_nameERKNSt7__cxx1112basic_stringIcSt11char_traitsIcESaIcEEE, @function
_ZN5boost15program_options22error_with_option_name15set_option_nameERKNSt7__cxx1112basic_stringIcSt11char_traitsIcESaIcEEE:
.LFB2539:
	.cfi_startproc
	.cfi_personality 0x3,__gxx_personality_v0
	.cfi_lsda 0x3,.LLSDA2539
	pushq	%rbp
	.cfi_def_cfa_offset 16
	.cfi_offset 6, -16
	movq	%rsp, %rbp
	.cfi_def_cfa_register 6
	pushq	%rbx
	subq	$72, %rsp
	.cfi_offset 3, -24
	movq	%rdi, -72(%rbp)
	movq	%rsi, -80(%rbp)
	leaq	-17(%rbp), %rax
	movq	%rax, %rdi
	call	_ZNSaIcEC1Ev
	leaq	-17(%rbp), %rdx
	leaq	-64(%rbp), %rax
	movl	$.LC0, %esi
	movq	%rax, %rdi
.LEHB0:
	call	_ZNSt7__cxx1112basic_stringIcSt11char_traitsIcESaIcEEC1EPKcRKS3_
.LEHE0:
	movq	-80(%rbp), %rdx
	leaq	-64(%rbp), %rcx
	movq	-72(%rbp), %rax
	movq	%rcx, %rsi
	movq	%rax, %rdi
.LEHB1:
	call	_ZN5boost15program_options22error_with_option_name14set_substituteERKNSt7__cxx1112basic_stringIcSt11char_traitsIcESaIcEEES9_
.LEHE1:
	leaq	-64(%rbp), %rax
	movq	%rax, %rdi
	call	_ZNSt7__cxx1112basic_stringIcSt11char_traitsIcESaIcEED1Ev
	leaq	-17(%rbp), %rax
	movq	%rax, %rdi
	call	_ZNSaIcED1Ev
	jmp	.L93
.L92:
	movq	%rax, %rbx
	leaq	-64(%rbp), %rax
	movq	%rax, %rdi
	call	_ZNSt7__cxx1112basic_stringIcSt11char_traitsIcESaIcEED1Ev
	jmp	.L90
.L91:
	movq	%rax, %rbx
.L90:
	leaq	-17(%rbp), %rax
	movq	%rax, %rdi
	call	_ZNSaIcED1Ev
	movq	%rbx, %rax
	movq	%rax, %rdi
.LEHB2:
	call	_Unwind_Resume
.LEHE2:
.L93:
	addq	$72, %rsp
	popq	%rbx
	popq	%rbp
	.cfi_def_cfa 7, 8
	ret
	.cfi_endproc
.LFE2539:
	.globl	__gxx_personality_v0
	.section	.gcc_except_table._ZN5boost15program_options22error_with_option_name15set_option_nameERKNSt7__cxx1112basic_stringIcSt11char_traitsIcESaIcEEE,"aG",@progbits,_ZN5boost15program_options22error_with_option_name15set_option_nameERKNSt7__cxx1112basic_stringIcSt11char_traitsIcESaIcEEE,comdat
.LLSDA2539:
	.byte	0xff
	.byte	0xff
	.byte	0x1
	.uleb128 .LLSDACSE2539-.LLSDACSB2539
.LLSDACSB2539:
	.uleb128 .LEHB0-.LFB2539
	.uleb128 .LEHE0-.LEHB0
	.uleb128 .L91-.LFB2539
	.uleb128 0
	.uleb128 .LEHB1-.LFB2539
	.uleb128 .LEHE1-.LEHB1
	.uleb128 .L92-.LFB2539
	.uleb128 0
	.uleb128 .LEHB2-.LFB2539
	.uleb128 .LEHE2-.LEHB2
	.uleb128 0
	.uleb128 0
.LLSDACSE2539:
	.section	.text._ZN5boost15program_options22error_with_option_name15set_option_nameERKNSt7__cxx1112basic_stringIcSt11char_traitsIcESaIcEEE,"axG",@progbits,_ZN5boost15program_options22error_with_option_name15set_option_nameERKNSt7__cxx1112basic_stringIcSt11char_traitsIcESaIcEEE,comdat
	.size	_ZN5boost15program_options22error_with_option_name15set_option_nameERKNSt7__cxx1112basic_stringIcSt11char_traitsIcESaIcEEE, .-_ZN5boost15program_options22error_with_option_name15set_option_nameERKNSt7__cxx1112basic_stringIcSt11char_traitsIcESaIcEEE
	.section	.text._ZN5boost15program_options16validation_errorC2ENS1_6kind_tERKNSt7__cxx1112basic_stringIcSt11char_traitsIcESaIcEEESA_i,"axG",@progbits,_ZN5boost15program_options16validation_errorC5ENS1_6kind_tERKNSt7__cxx1112basic_stringIcSt11char_traitsIcESaIcEEESA_i,comdat
	.align 2
	.weak	_ZN5boost15program_options16validation_errorC2ENS1_6kind_tERKNSt7__cxx1112basic_stringIcSt11char_traitsIcESaIcEEESA_i
	.type	_ZN5boost15program_options16validation_errorC2ENS1_6kind_tERKNSt7__cxx1112basic_stringIcSt11char_traitsIcESaIcEEESA_i, @function
_ZN5boost15program_options16validation_errorC2ENS1_6kind_tERKNSt7__cxx1112basic_stringIcSt11char_traitsIcESaIcEEESA_i:
.LFB2611:
	.cfi_startproc
	.cfi_personality 0x3,__gxx_personality_v0
	.cfi_lsda 0x3,.LLSDA2611
	pushq	%rbp
	.cfi_def_cfa_offset 16
	.cfi_offset 6, -16
	movq	%rsp, %rbp
	.cfi_def_cfa_register 6
	pushq	%rbx
	subq	$72, %rsp
	.cfi_offset 3, -24
	movq	%rdi, -56(%rbp)
	movl	%esi, -60(%rbp)
	movq	%rdx, -72(%rbp)
	movq	%rcx, -80(%rbp)
	movl	%r8d, -64(%rbp)
	movq	-56(%rbp), %rbx
	leaq	-48(%rbp), %rax
	movl	-60(%rbp), %edx
	movq	-56(%rbp), %rcx
	movq	%rcx, %rsi
	movq	%rax, %rdi
.LEHB3:
	call	_ZN5boost15program_options16validation_error12get_templateB5cxx11ENS1_6kind_tE
.LEHE3:
	movl	-64(%rbp), %esi
	movq	-80(%rbp), %rcx
	movq	-72(%rbp), %rdx
	leaq	-48(%rbp), %rax
	movl	%esi, %r8d
	movq	%rax, %rsi
	movq	%rbx, %rdi
.LEHB4:
	call	_ZN5boost15program_options22error_with_option_nameC2ERKNSt7__cxx1112basic_stringIcSt11char_traitsIcESaIcEEES9_S9_i
.LEHE4:
	leaq	-48(%rbp), %rax
	movq	%rax, %rdi
	call	_ZNSt7__cxx1112basic_stringIcSt11char_traitsIcESaIcEED1Ev
	movl	$_ZTVN5boost15program_options16validation_errorE+16, %edx
	movq	-56(%rbp), %rax
	movq	%rdx, (%rax)
	movq	-56(%rbp), %rax
	movl	-60(%rbp), %edx
	movl	%edx, 184(%rax)
	jmp	.L97
.L96:
	movq	%rax, %rbx
	leaq	-48(%rbp), %rax
	movq	%rax, %rdi
	call	_ZNSt7__cxx1112basic_stringIcSt11char_traitsIcESaIcEED1Ev
	movq	%rbx, %rax
	movq	%rax, %rdi
.LEHB5:
	call	_Unwind_Resume
.LEHE5:
.L97:
	addq	$72, %rsp
	popq	%rbx
	popq	%rbp
	.cfi_def_cfa 7, 8
	ret
	.cfi_endproc
.LFE2611:
	.section	.gcc_except_table._ZN5boost15program_options16validation_errorC2ENS1_6kind_tERKNSt7__cxx1112basic_stringIcSt11char_traitsIcESaIcEEESA_i,"aG",@progbits,_ZN5boost15program_options16validation_errorC5ENS1_6kind_tERKNSt7__cxx1112basic_stringIcSt11char_traitsIcESaIcEEESA_i,comdat
.LLSDA2611:
	.byte	0xff
	.byte	0xff
	.byte	0x1
	.uleb128 .LLSDACSE2611-.LLSDACSB2611
.LLSDACSB2611:
	.uleb128 .LEHB3-.LFB2611
	.uleb128 .LEHE3-.LEHB3
	.uleb128 0
	.uleb128 0
	.uleb128 .LEHB4-.LFB2611
	.uleb128 .LEHE4-.LEHB4
	.uleb128 .L96-.LFB2611
	.uleb128 0
	.uleb128 .LEHB5-.LFB2611
	.uleb128 .LEHE5-.LEHB5
	.uleb128 0
	.uleb128 0
.LLSDACSE2611:
	.section	.text._ZN5boost15program_options16validation_errorC2ENS1_6kind_tERKNSt7__cxx1112basic_stringIcSt11char_traitsIcESaIcEEESA_i,"axG",@progbits,_ZN5boost15program_options16validation_errorC5ENS1_6kind_tERKNSt7__cxx1112basic_stringIcSt11char_traitsIcESaIcEEESA_i,comdat
	.size	_ZN5boost15program_options16validation_errorC2ENS1_6kind_tERKNSt7__cxx1112basic_stringIcSt11char_traitsIcESaIcEEESA_i, .-_ZN5boost15program_options16validation_errorC2ENS1_6kind_tERKNSt7__cxx1112basic_stringIcSt11char_traitsIcESaIcEEESA_i
	.weak	_ZN5boost15program_options16validation_errorC1ENS1_6kind_tERKNSt7__cxx1112basic_stringIcSt11char_traitsIcESaIcEEESA_i
	.set	_ZN5boost15program_options16validation_errorC1ENS1_6kind_tERKNSt7__cxx1112basic_stringIcSt11char_traitsIcESaIcEEESA_i,_ZN5boost15program_options16validation_errorC2ENS1_6kind_tERKNSt7__cxx1112basic_stringIcSt11char_traitsIcESaIcEEESA_i
	.section	.text._ZN5boost15program_options16validation_errorD2Ev,"axG",@progbits,_ZN5boost15program_options16validation_errorD5Ev,comdat
	.align 2
	.weak	_ZN5boost15program_options16validation_errorD2Ev
	.type	_ZN5boost15program_options16validation_errorD2Ev, @function
_ZN5boost15program_options16validation_errorD2Ev:
.LFB2614:
	.cfi_startproc
	pushq	%rbp
	.cfi_def_cfa_offset 16
	.cfi_offset 6, -16
	movq	%rsp, %rbp
	.cfi_def_cfa_register 6
	subq	$16, %rsp
	movq	%rdi, -8(%rbp)
	movl	$_ZTVN5boost15program_options16validation_errorE+16, %edx
	movq	-8(%rbp), %rax
	movq	%rdx, (%rax)
	movq	-8(%rbp), %rax
	movq	%rax, %rdi
	call	_ZN5boost15program_options22error_with_option_nameD2Ev
	nop
	leave
	.cfi_def_cfa 7, 8
	ret
	.cfi_endproc
.LFE2614:
	.size	_ZN5boost15program_options16validation_errorD2Ev, .-_ZN5boost15program_options16validation_errorD2Ev
	.weak	_ZN5boost15program_options16validation_errorD1Ev
	.set	_ZN5boost15program_options16validation_errorD1Ev,_ZN5boost15program_options16validation_errorD2Ev
	.section	.text._ZN5boost15program_options16validation_errorD0Ev,"axG",@progbits,_ZN5boost15program_options16validation_errorD5Ev,comdat
	.align 2
	.weak	_ZN5boost15program_options16validation_errorD0Ev
	.type	_ZN5boost15program_options16validation_errorD0Ev, @function
_ZN5boost15program_options16validation_errorD0Ev:
.LFB2616:
	.cfi_startproc
	pushq	%rbp
	.cfi_def_cfa_offset 16
	.cfi_offset 6, -16
	movq	%rsp, %rbp
	.cfi_def_cfa_register 6
	subq	$16, %rsp
	movq	%rdi, -8(%rbp)
	movq	-8(%rbp), %rax
	movq	%rax, %rdi
	call	_ZN5boost15program_options16validation_errorD1Ev
	movq	-8(%rbp), %rax
	movl	$192, %esi
	movq	%rax, %rdi
	call	_ZdlPvm
	leave
	.cfi_def_cfa 7, 8
	ret
	.cfi_endproc
.LFE2616:
	.size	_ZN5boost15program_options16validation_errorD0Ev, .-_ZN5boost15program_options16validation_errorD0Ev
	.section	.text._ZNSt14numeric_limitsIjE3maxEv,"axG",@progbits,_ZNSt14numeric_limitsIjE3maxEv,comdat
	.weak	_ZNSt14numeric_limitsIjE3maxEv
	.type	_ZNSt14numeric_limitsIjE3maxEv, @function
_ZNSt14numeric_limitsIjE3maxEv:
.LFB2751:
	.cfi_startproc
	pushq	%rbp
	.cfi_def_cfa_offset 16
	.cfi_offset 6, -16
	movq	%rsp, %rbp
	.cfi_def_cfa_register 6
	movl	$-1, %eax
	popq	%rbp
	.cfi_def_cfa 7, 8
	ret
	.cfi_endproc
.LFE2751:
	.size	_ZNSt14numeric_limitsIjE3maxEv, .-_ZNSt14numeric_limitsIjE3maxEv
	.section	.text._ZN5boost9exceptionC2Ev,"axG",@progbits,_ZN5boost9exceptionC5Ev,comdat
	.align 2
	.weak	_ZN5boost9exceptionC2Ev
	.type	_ZN5boost9exceptionC2Ev, @function
_ZN5boost9exceptionC2Ev:
.LFB3092:
	.cfi_startproc
	pushq	%rbp
	.cfi_def_cfa_offset 16
	.cfi_offset 6, -16
	movq	%rsp, %rbp
	.cfi_def_cfa_register 6
	subq	$16, %rsp
	movq	%rdi, -8(%rbp)
	movl	$_ZTVN5boost9exceptionE+16, %edx
	movq	-8(%rbp), %rax
	movq	%rdx, (%rax)
	movq	-8(%rbp), %rax
	addq	$8, %rax
	movq	%rax, %rdi
	call	_ZN5boost16exception_detail12refcount_ptrINS0_20error_info_containerEEC1Ev
	movq	-8(%rbp), %rax
	movq	$0, 16(%rax)
	movq	-8(%rbp), %rax
	movq	$0, 24(%rax)
	movq	-8(%rbp), %rax
	movl	$-1, 32(%rax)
	nop
	leave
	.cfi_def_cfa 7, 8
	ret
	.cfi_endproc
.LFE3092:
	.size	_ZN5boost9exceptionC2Ev, .-_ZN5boost9exceptionC2Ev
	.weak	_ZN5boost9exceptionC1Ev
	.set	_ZN5boost9exceptionC1Ev,_ZN5boost9exceptionC2Ev
	.section	.text._ZN5boost9exceptionD2Ev,"axG",@progbits,_ZN5boost9exceptionD5Ev,comdat
	.align 2
	.weak	_ZN5boost9exceptionD2Ev
	.type	_ZN5boost9exceptionD2Ev, @function
_ZN5boost9exceptionD2Ev:
.LFB3095:
	.cfi_startproc
	pushq	%rbp
	.cfi_def_cfa_offset 16
	.cfi_offset 6, -16
	movq	%rsp, %rbp
	.cfi_def_cfa_register 6
	subq	$16, %rsp
	movq	%rdi, -8(%rbp)
	movl	$_ZTVN5boost9exceptionE+16, %edx
	movq	-8(%rbp), %rax
	movq	%rdx, (%rax)
	movq	-8(%rbp), %rax
	addq	$8, %rax
	movq	%rax, %rdi
	call	_ZN5boost16exception_detail12refcount_ptrINS0_20error_info_containerEED1Ev
	nop
	leave
	.cfi_def_cfa 7, 8
	ret
	.cfi_endproc
.LFE3095:
	.size	_ZN5boost9exceptionD2Ev, .-_ZN5boost9exceptionD2Ev
	.weak	_ZN5boost9exceptionD1Ev
	.set	_ZN5boost9exceptionD1Ev,_ZN5boost9exceptionD2Ev
	.section	.text._ZN5boost9exceptionD0Ev,"axG",@progbits,_ZN5boost9exceptionD5Ev,comdat
	.align 2
	.weak	_ZN5boost9exceptionD0Ev
	.type	_ZN5boost9exceptionD0Ev, @function
_ZN5boost9exceptionD0Ev:
.LFB3097:
	.cfi_startproc
	pushq	%rbp
	.cfi_def_cfa_offset 16
	.cfi_offset 6, -16
	movq	%rsp, %rbp
	.cfi_def_cfa_register 6
	subq	$16, %rsp
	movq	%rdi, -8(%rbp)
	movq	-8(%rbp), %rax
	movq	%rax, %rdi
	call	_ZN5boost9exceptionD1Ev
	movq	-8(%rbp), %rax
	movl	$40, %esi
	movq	%rax, %rdi
	call	_ZdlPvm
	leave
	.cfi_def_cfa 7, 8
	ret
	.cfi_endproc
.LFE3097:
	.size	_ZN5boost9exceptionD0Ev, .-_ZN5boost9exceptionD0Ev
	.section	.text._ZN5boost16exception_detail10clone_baseD2Ev,"axG",@progbits,_ZN5boost16exception_detail10clone_baseD5Ev,comdat
	.align 2
	.weak	_ZN5boost16exception_detail10clone_baseD2Ev
	.type	_ZN5boost16exception_detail10clone_baseD2Ev, @function
_ZN5boost16exception_detail10clone_baseD2Ev:
.LFB3105:
	.cfi_startproc
	pushq	%rbp
	.cfi_def_cfa_offset 16
	.cfi_offset 6, -16
	movq	%rsp, %rbp
	.cfi_def_cfa_register 6
	movq	%rdi, -8(%rbp)
	movl	$_ZTVN5boost16exception_detail10clone_baseE+16, %edx
	movq	-8(%rbp), %rax
	movq	%rdx, (%rax)
	nop
	popq	%rbp
	.cfi_def_cfa 7, 8
	ret
	.cfi_endproc
.LFE3105:
	.size	_ZN5boost16exception_detail10clone_baseD2Ev, .-_ZN5boost16exception_detail10clone_baseD2Ev
	.weak	_ZN5boost16exception_detail10clone_baseD1Ev
	.set	_ZN5boost16exception_detail10clone_baseD1Ev,_ZN5boost16exception_detail10clone_baseD2Ev
	.section	.text._ZN5boost16exception_detail10clone_baseD0Ev,"axG",@progbits,_ZN5boost16exception_detail10clone_baseD5Ev,comdat
	.align 2
	.weak	_ZN5boost16exception_detail10clone_baseD0Ev
	.type	_ZN5boost16exception_detail10clone_baseD0Ev, @function
_ZN5boost16exception_detail10clone_baseD0Ev:
.LFB3107:
	.cfi_startproc
	pushq	%rbp
	.cfi_def_cfa_offset 16
	.cfi_offset 6, -16
	movq	%rsp, %rbp
	.cfi_def_cfa_register 6
	subq	$16, %rsp
	movq	%rdi, -8(%rbp)
	movq	-8(%rbp), %rax
	movq	%rax, %rdi
	call	_ZN5boost16exception_detail10clone_baseD1Ev
	movq	-8(%rbp), %rax
	movl	$8, %esi
	movq	%rax, %rdi
	call	_ZdlPvm
	leave
	.cfi_def_cfa 7, 8
	ret
	.cfi_endproc
.LFE3107:
	.size	_ZN5boost16exception_detail10clone_baseD0Ev, .-_ZN5boost16exception_detail10clone_baseD0Ev
	.section	.text._ZN5boost16exception_detail20copy_boost_exceptionEPNS_9exceptionEPKS1_,"axG",@progbits,_ZN5boost16exception_detail20copy_boost_exceptionEPNS_9exceptionEPKS1_,comdat
	.weak	_ZN5boost16exception_detail20copy_boost_exceptionEPNS_9exceptionEPKS1_
	.type	_ZN5boost16exception_detail20copy_boost_exceptionEPNS_9exceptionEPKS1_, @function
_ZN5boost16exception_detail20copy_boost_exceptionEPNS_9exceptionEPKS1_:
.LFB3108:
	.cfi_startproc
	.cfi_personality 0x3,__gxx_personality_v0
	.cfi_lsda 0x3,.LLSDA3108
	pushq	%rbp
	.cfi_def_cfa_offset 16
	.cfi_offset 6, -16
	movq	%rsp, %rbp
	.cfi_def_cfa_register 6
	pushq	%rbx
	subq	$56, %rsp
	.cfi_offset 3, -24
	movq	%rdi, -56(%rbp)
	movq	%rsi, -64(%rbp)
	leaq	-40(%rbp), %rax
	movq	%rax, %rdi
	call	_ZN5boost16exception_detail12refcount_ptrINS0_20error_info_containerEEC1Ev
	movq	-64(%rbp), %rax
	addq	$8, %rax
	movq	%rax, %rdi
	call	_ZNK5boost16exception_detail12refcount_ptrINS0_20error_info_containerEE3getEv
	movq	%rax, -24(%rbp)
	cmpq	$0, -24(%rbp)
	je	.L108
	movq	-24(%rbp), %rax
	movq	(%rax), %rax
	addq	$40, %rax
	movq	(%rax), %rax
	leaq	-32(%rbp), %rdx
	movq	-24(%rbp), %rcx
	movq	%rcx, %rsi
	movq	%rdx, %rdi
.LEHB6:
	call	*%rax
.LEHE6:
	leaq	-32(%rbp), %rdx
	leaq	-40(%rbp), %rax
	movq	%rdx, %rsi
	movq	%rax, %rdi
.LEHB7:
	call	_ZN5boost16exception_detail12refcount_ptrINS0_20error_info_containerEEaSERKS3_
.LEHE7:
	leaq	-32(%rbp), %rax
	movq	%rax, %rdi
	call	_ZN5boost16exception_detail12refcount_ptrINS0_20error_info_containerEED1Ev
.L108:
	movq	-64(%rbp), %rax
	movq	24(%rax), %rdx
	movq	-56(%rbp), %rax
	movq	%rdx, 24(%rax)
	movq	-64(%rbp), %rax
	movl	32(%rax), %edx
	movq	-56(%rbp), %rax
	movl	%edx, 32(%rax)
	movq	-64(%rbp), %rax
	movq	16(%rax), %rdx
	movq	-56(%rbp), %rax
	movq	%rdx, 16(%rax)
	movq	-56(%rbp), %rax
	leaq	8(%rax), %rdx
	leaq	-40(%rbp), %rax
	movq	%rax, %rsi
	movq	%rdx, %rdi
.LEHB8:
	call	_ZN5boost16exception_detail12refcount_ptrINS0_20error_info_containerEEaSERKS3_
.LEHE8:
	leaq	-40(%rbp), %rax
	movq	%rax, %rdi
	call	_ZN5boost16exception_detail12refcount_ptrINS0_20error_info_containerEED1Ev
	jmp	.L113
.L112:
	movq	%rax, %rbx
	leaq	-32(%rbp), %rax
	movq	%rax, %rdi
	call	_ZN5boost16exception_detail12refcount_ptrINS0_20error_info_containerEED1Ev
	jmp	.L110
.L111:
	movq	%rax, %rbx
.L110:
	leaq	-40(%rbp), %rax
	movq	%rax, %rdi
	call	_ZN5boost16exception_detail12refcount_ptrINS0_20error_info_containerEED1Ev
	movq	%rbx, %rax
	movq	%rax, %rdi
.LEHB9:
	call	_Unwind_Resume
.LEHE9:
.L113:
	addq	$56, %rsp
	popq	%rbx
	popq	%rbp
	.cfi_def_cfa 7, 8
	ret
	.cfi_endproc
.LFE3108:
	.section	.gcc_except_table._ZN5boost16exception_detail20copy_boost_exceptionEPNS_9exceptionEPKS1_,"aG",@progbits,_ZN5boost16exception_detail20copy_boost_exceptionEPNS_9exceptionEPKS1_,comdat
.LLSDA3108:
	.byte	0xff
	.byte	0xff
	.byte	0x1
	.uleb128 .LLSDACSE3108-.LLSDACSB3108
.LLSDACSB3108:
	.uleb128 .LEHB6-.LFB3108
	.uleb128 .LEHE6-.LEHB6
	.uleb128 .L111-.LFB3108
	.uleb128 0
	.uleb128 .LEHB7-.LFB3108
	.uleb128 .LEHE7-.LEHB7
	.uleb128 .L112-.LFB3108
	.uleb128 0
	.uleb128 .LEHB8-.LFB3108
	.uleb128 .LEHE8-.LEHB8
	.uleb128 .L111-.LFB3108
	.uleb128 0
	.uleb128 .LEHB9-.LFB3108
	.uleb128 .LEHE9-.LEHB9
	.uleb128 0
	.uleb128 0
.LLSDACSE3108:
	.section	.text._ZN5boost16exception_detail20copy_boost_exceptionEPNS_9exceptionEPKS1_,"axG",@progbits,_ZN5boost16exception_detail20copy_boost_exceptionEPNS_9exceptionEPKS1_,comdat
	.size	_ZN5boost16exception_detail20copy_boost_exceptionEPNS_9exceptionEPKS1_, .-_ZN5boost16exception_detail20copy_boost_exceptionEPNS_9exceptionEPKS1_
	.section	.text._ZN5boost36throw_exception_assert_compatibilityERKSt9exception,"axG",@progbits,_ZN5boost36throw_exception_assert_compatibilityERKSt9exception,comdat
	.weak	_ZN5boost36throw_exception_assert_compatibilityERKSt9exception
	.type	_ZN5boost36throw_exception_assert_compatibilityERKSt9exception, @function
_ZN5boost36throw_exception_assert_compatibilityERKSt9exception:
.LFB3120:
	.cfi_startproc
	pushq	%rbp
	.cfi_def_cfa_offset 16
	.cfi_offset 6, -16
	movq	%rsp, %rbp
	.cfi_def_cfa_register 6
	movq	%rdi, -8(%rbp)
	nop
	popq	%rbp
	.cfi_def_cfa 7, 8
	ret
	.cfi_endproc
.LFE3120:
	.size	_ZN5boost36throw_exception_assert_compatibilityERKSt9exception, .-_ZN5boost36throw_exception_assert_compatibilityERKSt9exception
	.section	.text._ZN5boost9typeindex14stl_type_indexC2ERKSt9type_info,"axG",@progbits,_ZN5boost9typeindex14stl_type_indexC5ERKSt9type_info,comdat
	.align 2
	.weak	_ZN5boost9typeindex14stl_type_indexC2ERKSt9type_info
	.type	_ZN5boost9typeindex14stl_type_indexC2ERKSt9type_info, @function
_ZN5boost9typeindex14stl_type_indexC2ERKSt9type_info:
.LFB3178:
	.cfi_startproc
	pushq	%rbp
	.cfi_def_cfa_offset 16
	.cfi_offset 6, -16
	movq	%rsp, %rbp
	.cfi_def_cfa_register 6
	movq	%rdi, -8(%rbp)
	movq	%rsi, -16(%rbp)
	movq	-8(%rbp), %rax
	movq	-16(%rbp), %rdx
	movq	%rdx, (%rax)
	nop
	popq	%rbp
	.cfi_def_cfa 7, 8
	ret
	.cfi_endproc
.LFE3178:
	.size	_ZN5boost9typeindex14stl_type_indexC2ERKSt9type_info, .-_ZN5boost9typeindex14stl_type_indexC2ERKSt9type_info
	.weak	_ZN5boost9typeindex14stl_type_indexC1ERKSt9type_info
	.set	_ZN5boost9typeindex14stl_type_indexC1ERKSt9type_info,_ZN5boost9typeindex14stl_type_indexC2ERKSt9type_info
	.section	.text._ZNK5boost9typeindex14stl_type_index9type_infoEv,"axG",@progbits,_ZNK5boost9typeindex14stl_type_index9type_infoEv,comdat
	.align 2
	.weak	_ZNK5boost9typeindex14stl_type_index9type_infoEv
	.type	_ZNK5boost9typeindex14stl_type_index9type_infoEv, @function
_ZNK5boost9typeindex14stl_type_index9type_infoEv:
.LFB3180:
	.cfi_startproc
	pushq	%rbp
	.cfi_def_cfa_offset 16
	.cfi_offset 6, -16
	movq	%rsp, %rbp
	.cfi_def_cfa_register 6
	movq	%rdi, -8(%rbp)
	movq	-8(%rbp), %rax
	movq	(%rax), %rax
	popq	%rbp
	.cfi_def_cfa 7, 8
	ret
	.cfi_endproc
.LFE3180:
	.size	_ZNK5boost9typeindex14stl_type_index9type_infoEv, .-_ZNK5boost9typeindex14stl_type_index9type_infoEv
	.section	.text._ZNK5boost9typeindex14stl_type_index5equalERKS1_,"axG",@progbits,_ZNK5boost9typeindex14stl_type_index5equalERKS1_,comdat
	.align 2
	.weak	_ZNK5boost9typeindex14stl_type_index5equalERKS1_
	.type	_ZNK5boost9typeindex14stl_type_index5equalERKS1_, @function
_ZNK5boost9typeindex14stl_type_index5equalERKS1_:
.LFB3185:
	.cfi_startproc
	pushq	%rbp
	.cfi_def_cfa_offset 16
	.cfi_offset 6, -16
	movq	%rsp, %rbp
	.cfi_def_cfa_register 6
	subq	$16, %rsp
	movq	%rdi, -8(%rbp)
	movq	%rsi, -16(%rbp)
	movq	-16(%rbp), %rax
	movq	(%rax), %rdx
	movq	-8(%rbp), %rax
	movq	(%rax), %rax
	movq	%rdx, %rsi
	movq	%rax, %rdi
	call	_ZNKSt9type_infoeqERKS_
	leave
	.cfi_def_cfa 7, 8
	ret
	.cfi_endproc
.LFE3185:
	.size	_ZNK5boost9typeindex14stl_type_index5equalERKS1_, .-_ZNK5boost9typeindex14stl_type_index5equalERKS1_
	.section	.text._ZN5boost3anyC2Ev,"axG",@progbits,_ZN5boost3anyC5Ev,comdat
	.align 2
	.weak	_ZN5boost3anyC2Ev
	.type	_ZN5boost3anyC2Ev, @function
_ZN5boost3anyC2Ev:
.LFB3195:
	.cfi_startproc
	pushq	%rbp
	.cfi_def_cfa_offset 16
	.cfi_offset 6, -16
	movq	%rsp, %rbp
	.cfi_def_cfa_register 6
	movq	%rdi, -8(%rbp)
	movq	-8(%rbp), %rax
	movq	$0, (%rax)
	nop
	popq	%rbp
	.cfi_def_cfa 7, 8
	ret
	.cfi_endproc
.LFE3195:
	.size	_ZN5boost3anyC2Ev, .-_ZN5boost3anyC2Ev
	.weak	_ZN5boost3anyC1Ev
	.set	_ZN5boost3anyC1Ev,_ZN5boost3anyC2Ev
	.section	.text._ZN5boost3anyC2ERKS0_,"axG",@progbits,_ZN5boost3anyC5ERKS0_,comdat
	.align 2
	.weak	_ZN5boost3anyC2ERKS0_
	.type	_ZN5boost3anyC2ERKS0_, @function
_ZN5boost3anyC2ERKS0_:
.LFB3199:
	.cfi_startproc
	pushq	%rbp
	.cfi_def_cfa_offset 16
	.cfi_offset 6, -16
	movq	%rsp, %rbp
	.cfi_def_cfa_register 6
	subq	$16, %rsp
	movq	%rdi, -8(%rbp)
	movq	%rsi, -16(%rbp)
	movq	-16(%rbp), %rax
	movq	(%rax), %rax
	testq	%rax, %rax
	je	.L122
	movq	-16(%rbp), %rax
	movq	(%rax), %rdx
	movq	-16(%rbp), %rax
	movq	(%rax), %rax
	movq	(%rax), %rax
	addq	$24, %rax
	movq	(%rax), %rax
	movq	%rdx, %rdi
	call	*%rax
	movq	%rax, %rdx
	jmp	.L123
.L122:
	movl	$0, %edx
.L123:
	movq	-8(%rbp), %rax
	movq	%rdx, (%rax)
	nop
	leave
	.cfi_def_cfa 7, 8
	ret
	.cfi_endproc
.LFE3199:
	.size	_ZN5boost3anyC2ERKS0_, .-_ZN5boost3anyC2ERKS0_
	.weak	_ZN5boost3anyC1ERKS0_
	.set	_ZN5boost3anyC1ERKS0_,_ZN5boost3anyC2ERKS0_
	.section	.text._ZN5boost3anyD2Ev,"axG",@progbits,_ZN5boost3anyD5Ev,comdat
	.align 2
	.weak	_ZN5boost3anyD2Ev
	.type	_ZN5boost3anyD2Ev, @function
_ZN5boost3anyD2Ev:
.LFB3206:
	.cfi_startproc
	pushq	%rbp
	.cfi_def_cfa_offset 16
	.cfi_offset 6, -16
	movq	%rsp, %rbp
	.cfi_def_cfa_register 6
	subq	$16, %rsp
	movq	%rdi, -8(%rbp)
	movq	-8(%rbp), %rax
	movq	(%rax), %rax
	testq	%rax, %rax
	je	.L126
	movq	-8(%rbp), %rax
	movq	(%rax), %rdx
	movq	-8(%rbp), %rax
	movq	(%rax), %rax
	movq	(%rax), %rax
	addq	$8, %rax
	movq	(%rax), %rax
	movq	%rdx, %rdi
	call	*%rax
.L126:
	nop
	leave
	.cfi_def_cfa 7, 8
	ret
	.cfi_endproc
.LFE3206:
	.size	_ZN5boost3anyD2Ev, .-_ZN5boost3anyD2Ev
	.weak	_ZN5boost3anyD1Ev
	.set	_ZN5boost3anyD1Ev,_ZN5boost3anyD2Ev
	.section	.text._ZN5boost3any4swapERS0_,"axG",@progbits,_ZN5boost3any4swapERS0_,comdat
	.align 2
	.weak	_ZN5boost3any4swapERS0_
	.type	_ZN5boost3any4swapERS0_, @function
_ZN5boost3any4swapERS0_:
.LFB3208:
	.cfi_startproc
	pushq	%rbp
	.cfi_def_cfa_offset 16
	.cfi_offset 6, -16
	movq	%rsp, %rbp
	.cfi_def_cfa_register 6
	subq	$16, %rsp
	movq	%rdi, -8(%rbp)
	movq	%rsi, -16(%rbp)
	movq	-16(%rbp), %rdx
	movq	-8(%rbp), %rax
	movq	%rdx, %rsi
	movq	%rax, %rdi
	call	_ZSt4swapIPN5boost3any11placeholderEENSt9enable_ifIXsrSt6__and_IJSt6__not_ISt15__is_tuple_likeIT_EESt21is_move_constructibleIS8_ESt18is_move_assignableIS8_EEE5valueEvE4typeERS8_SI_
	movq	-8(%rbp), %rax
	leave
	.cfi_def_cfa 7, 8
	ret
	.cfi_endproc
.LFE3208:
	.size	_ZN5boost3any4swapERS0_, .-_ZN5boost3any4swapERS0_
	.section	.text._ZN5boost3anyaSERKS0_,"axG",@progbits,_ZN5boost3anyaSERKS0_,comdat
	.align 2
	.weak	_ZN5boost3anyaSERKS0_
	.type	_ZN5boost3anyaSERKS0_, @function
_ZN5boost3anyaSERKS0_:
.LFB3209:
	.cfi_startproc
	pushq	%rbp
	.cfi_def_cfa_offset 16
	.cfi_offset 6, -16
	movq	%rsp, %rbp
	.cfi_def_cfa_register 6
	subq	$32, %rsp
	movq	%rdi, -24(%rbp)
	movq	%rsi, -32(%rbp)
	movq	-32(%rbp), %rdx
	leaq	-8(%rbp), %rax
	movq	%rdx, %rsi
	movq	%rax, %rdi
	call	_ZN5boost3anyC1ERKS0_
	movq	-24(%rbp), %rdx
	leaq	-8(%rbp), %rax
	movq	%rdx, %rsi
	movq	%rax, %rdi
	call	_ZN5boost3any4swapERS0_
	leaq	-8(%rbp), %rax
	movq	%rax, %rdi
	call	_ZN5boost3anyD1Ev
	movq	-24(%rbp), %rax
	leave
	.cfi_def_cfa 7, 8
	ret
	.cfi_endproc
.LFE3209:
	.size	_ZN5boost3anyaSERKS0_, .-_ZN5boost3anyaSERKS0_
	.section	.text._ZN5boost3anyaSEOS0_,"axG",@progbits,_ZN5boost3anyaSEOS0_,comdat
	.align 2
	.weak	_ZN5boost3anyaSEOS0_
	.type	_ZN5boost3anyaSEOS0_, @function
_ZN5boost3anyaSEOS0_:
.LFB3210:
	.cfi_startproc
	pushq	%rbp
	.cfi_def_cfa_offset 16
	.cfi_offset 6, -16
	movq	%rsp, %rbp
	.cfi_def_cfa_register 6
	subq	$32, %rsp
	movq	%rdi, -24(%rbp)
	movq	%rsi, -32(%rbp)
	movq	-24(%rbp), %rdx
	movq	-32(%rbp), %rax
	movq	%rdx, %rsi
	movq	%rax, %rdi
	call	_ZN5boost3any4swapERS0_
	leaq	-8(%rbp), %rax
	movq	%rax, %rdi
	call	_ZN5boost3anyC1Ev
	movq	-32(%rbp), %rdx
	leaq	-8(%rbp), %rax
	movq	%rdx, %rsi
	movq	%rax, %rdi
	call	_ZN5boost3any4swapERS0_
	leaq	-8(%rbp), %rax
	movq	%rax, %rdi
	call	_ZN5boost3anyD1Ev
	movq	-24(%rbp), %rax
	leave
	.cfi_def_cfa 7, 8
	ret
	.cfi_endproc
.LFE3210:
	.size	_ZN5boost3anyaSEOS0_, .-_ZN5boost3anyaSEOS0_
	.section	.text._ZNK5boost3any5emptyEv,"axG",@progbits,_ZNK5boost3any5emptyEv,comdat
	.align 2
	.weak	_ZNK5boost3any5emptyEv
	.type	_ZNK5boost3any5emptyEv, @function
_ZNK5boost3any5emptyEv:
.LFB3212:
	.cfi_startproc
	pushq	%rbp
	.cfi_def_cfa_offset 16
	.cfi_offset 6, -16
	movq	%rsp, %rbp
	.cfi_def_cfa_register 6
	movq	%rdi, -8(%rbp)
	movq	-8(%rbp), %rax
	movq	(%rax), %rax
	testq	%rax, %rax
	sete	%al
	popq	%rbp
	.cfi_def_cfa 7, 8
	ret
	.cfi_endproc
.LFE3212:
	.size	_ZNK5boost3any5emptyEv, .-_ZNK5boost3any5emptyEv
	.section	.text._ZNK5boost3any4typeEv,"axG",@progbits,_ZNK5boost3any4typeEv,comdat
	.align 2
	.weak	_ZNK5boost3any4typeEv
	.type	_ZNK5boost3any4typeEv, @function
_ZNK5boost3any4typeEv:
.LFB3214:
	.cfi_startproc
	pushq	%rbp
	.cfi_def_cfa_offset 16
	.cfi_offset 6, -16
	movq	%rsp, %rbp
	.cfi_def_cfa_register 6
	subq	$32, %rsp
	movq	%rdi, -24(%rbp)
	movq	-24(%rbp), %rax
	movq	(%rax), %rax
	testq	%rax, %rax
	je	.L136
	movq	-24(%rbp), %rax
	movq	(%rax), %rdx
	movq	-24(%rbp), %rax
	movq	(%rax), %rax
	movq	(%rax), %rax
	addq	$16, %rax
	movq	(%rax), %rax
	movq	%rdx, %rdi
	call	*%rax
	jmp	.L138
.L136:
	call	_ZN5boost9typeindex7type_idIvEENS0_14stl_type_indexEv
	movq	%rax, -8(%rbp)
	leaq	-8(%rbp), %rax
	movq	%rax, %rdi
	call	_ZNK5boost9typeindex14stl_type_index9type_infoEv
.L138:
	leave
	.cfi_def_cfa 7, 8
	ret
	.cfi_endproc
.LFE3214:
	.size	_ZNK5boost3any4typeEv, .-_ZNK5boost3any4typeEv
	.section	.text._ZN5boost3any11placeholderD2Ev,"axG",@progbits,_ZN5boost3any11placeholderD5Ev,comdat
	.align 2
	.weak	_ZN5boost3any11placeholderD2Ev
	.type	_ZN5boost3any11placeholderD2Ev, @function
_ZN5boost3any11placeholderD2Ev:
.LFB3216:
	.cfi_startproc
	pushq	%rbp
	.cfi_def_cfa_offset 16
	.cfi_offset 6, -16
	movq	%rsp, %rbp
	.cfi_def_cfa_register 6
	movq	%rdi, -8(%rbp)
	movl	$_ZTVN5boost3any11placeholderE+16, %edx
	movq	-8(%rbp), %rax
	movq	%rdx, (%rax)
	nop
	popq	%rbp
	.cfi_def_cfa 7, 8
	ret
	.cfi_endproc
.LFE3216:
	.size	_ZN5boost3any11placeholderD2Ev, .-_ZN5boost3any11placeholderD2Ev
	.weak	_ZN5boost3any11placeholderD1Ev
	.set	_ZN5boost3any11placeholderD1Ev,_ZN5boost3any11placeholderD2Ev
	.section	.text._ZN5boost3any11placeholderD0Ev,"axG",@progbits,_ZN5boost3any11placeholderD5Ev,comdat
	.align 2
	.weak	_ZN5boost3any11placeholderD0Ev
	.type	_ZN5boost3any11placeholderD0Ev, @function
_ZN5boost3any11placeholderD0Ev:
.LFB3218:
	.cfi_startproc
	pushq	%rbp
	.cfi_def_cfa_offset 16
	.cfi_offset 6, -16
	movq	%rsp, %rbp
	.cfi_def_cfa_register 6
	subq	$16, %rsp
	movq	%rdi, -8(%rbp)
	movq	-8(%rbp), %rax
	movq	%rax, %rdi
	call	_ZN5boost3any11placeholderD1Ev
	movq	-8(%rbp), %rax
	movl	$8, %esi
	movq	%rax, %rdi
	call	_ZdlPvm
	leave
	.cfi_def_cfa 7, 8
	ret
	.cfi_endproc
.LFE3218:
	.size	_ZN5boost3any11placeholderD0Ev, .-_ZN5boost3any11placeholderD0Ev
	.section	.rodata
	.align 8
.LC1:
	.string	"boost::bad_any_cast: failed conversion using boost::any_cast"
	.section	.text._ZNK5boost12bad_any_cast4whatEv,"axG",@progbits,_ZNK5boost12bad_any_cast4whatEv,comdat
	.align 2
	.weak	_ZNK5boost12bad_any_cast4whatEv
	.type	_ZNK5boost12bad_any_cast4whatEv, @function
_ZNK5boost12bad_any_cast4whatEv:
.LFB3224:
	.cfi_startproc
	pushq	%rbp
	.cfi_def_cfa_offset 16
	.cfi_offset 6, -16
	movq	%rsp, %rbp
	.cfi_def_cfa_register 6
	movq	%rdi, -8(%rbp)
	movl	$.LC1, %eax
	popq	%rbp
	.cfi_def_cfa 7, 8
	ret
	.cfi_endproc
.LFE3224:
	.size	_ZNK5boost12bad_any_cast4whatEv, .-_ZNK5boost12bad_any_cast4whatEv
	.section	.rodata
	.align 4
	.type	_ZN9__gnu_cxxL21__default_lock_policyE, @object
	.size	_ZN9__gnu_cxxL21__default_lock_policyE, 4
_ZN9__gnu_cxxL21__default_lock_policyE:
	.long	2
	.section	.text._ZNSt9exceptionC2ERKS_,"axG",@progbits,_ZNSt9exceptionC5ERKS_,comdat
	.align 2
	.weak	_ZNSt9exceptionC2ERKS_
	.type	_ZNSt9exceptionC2ERKS_, @function
_ZNSt9exceptionC2ERKS_:
.LFB3353:
	.cfi_startproc
	pushq	%rbp
	.cfi_def_cfa_offset 16
	.cfi_offset 6, -16
	movq	%rsp, %rbp
	.cfi_def_cfa_register 6
	movq	%rdi, -8(%rbp)
	movq	%rsi, -16(%rbp)
	movl	$_ZTVSt9exception+16, %edx
	movq	-8(%rbp), %rax
	movq	%rdx, (%rax)
	nop
	popq	%rbp
	.cfi_def_cfa 7, 8
	ret
	.cfi_endproc
.LFE3353:
	.size	_ZNSt9exceptionC2ERKS_, .-_ZNSt9exceptionC2ERKS_
	.weak	_ZNSt9exceptionC1ERKS_
	.set	_ZNSt9exceptionC1ERKS_,_ZNSt9exceptionC2ERKS_
	.section	.text._ZN5boost13function_baseC2Ev,"axG",@progbits,_ZN5boost13function_baseC5Ev,comdat
	.align 2
	.weak	_ZN5boost13function_baseC2Ev
	.type	_ZN5boost13function_baseC2Ev, @function
_ZN5boost13function_baseC2Ev:
.LFB3916:
	.cfi_startproc
	pushq	%rbp
	.cfi_def_cfa_offset 16
	.cfi_offset 6, -16
	movq	%rsp, %rbp
	.cfi_def_cfa_register 6
	movq	%rdi, -8(%rbp)
	movq	-8(%rbp), %rax
	movq	$0, (%rax)
	nop
	popq	%rbp
	.cfi_def_cfa 7, 8
	ret
	.cfi_endproc
.LFE3916:
	.size	_ZN5boost13function_baseC2Ev, .-_ZN5boost13function_baseC2Ev
	.weak	_ZN5boost13function_baseC1Ev
	.set	_ZN5boost13function_baseC1Ev,_ZN5boost13function_baseC2Ev
	.section	.text._ZNK5boost13function_base5emptyEv,"axG",@progbits,_ZNK5boost13function_base5emptyEv,comdat
	.align 2
	.weak	_ZNK5boost13function_base5emptyEv
	.type	_ZNK5boost13function_base5emptyEv, @function
_ZNK5boost13function_base5emptyEv:
.LFB3918:
	.cfi_startproc
	pushq	%rbp
	.cfi_def_cfa_offset 16
	.cfi_offset 6, -16
	movq	%rsp, %rbp
	.cfi_def_cfa_register 6
	movq	%rdi, -8(%rbp)
	movq	-8(%rbp), %rax
	movq	(%rax), %rax
	testq	%rax, %rax
	sete	%al
	popq	%rbp
	.cfi_def_cfa 7, 8
	ret
	.cfi_endproc
.LFE3918:
	.size	_ZNK5boost13function_base5emptyEv, .-_ZNK5boost13function_base5emptyEv
	.section	.text._ZNK5boost13function_base28has_trivial_copy_and_destroyEv,"axG",@progbits,_ZNK5boost13function_base28has_trivial_copy_and_destroyEv,comdat
	.align 2
	.weak	_ZNK5boost13function_base28has_trivial_copy_and_destroyEv
	.type	_ZNK5boost13function_base28has_trivial_copy_and_destroyEv, @function
_ZNK5boost13function_base28has_trivial_copy_and_destroyEv:
.LFB3924:
	.cfi_startproc
	pushq	%rbp
	.cfi_def_cfa_offset 16
	.cfi_offset 6, -16
	movq	%rsp, %rbp
	.cfi_def_cfa_register 6
	movq	%rdi, -8(%rbp)
	movq	-8(%rbp), %rax
	movq	(%rax), %rax
	andl	$1, %eax
	testq	%rax, %rax
	setne	%al
	popq	%rbp
	.cfi_def_cfa 7, 8
	ret
	.cfi_endproc
.LFE3924:
	.size	_ZNK5boost13function_base28has_trivial_copy_and_destroyEv, .-_ZNK5boost13function_base28has_trivial_copy_and_destroyEv
	.section	.rodata
.LC2:
	.string	"call to empty boost::function"
	.section	.text._ZN5boost17bad_function_callC2Ev,"axG",@progbits,_ZN5boost17bad_function_callC5Ev,comdat
	.align 2
	.weak	_ZN5boost17bad_function_callC2Ev
	.type	_ZN5boost17bad_function_callC2Ev, @function
_ZN5boost17bad_function_callC2Ev:
.LFB3926:
	.cfi_startproc
	pushq	%rbp
	.cfi_def_cfa_offset 16
	.cfi_offset 6, -16
	movq	%rsp, %rbp
	.cfi_def_cfa_register 6
	subq	$16, %rsp
	movq	%rdi, -8(%rbp)
	movq	-8(%rbp), %rax
	movl	$.LC2, %esi
	movq	%rax, %rdi
	call	_ZNSt13runtime_errorC2EPKc
	movl	$_ZTVN5boost17bad_function_callE+16, %edx
	movq	-8(%rbp), %rax
	movq	%rdx, (%rax)
	nop
	leave
	.cfi_def_cfa 7, 8
	ret
	.cfi_endproc
.LFE3926:
	.size	_ZN5boost17bad_function_callC2Ev, .-_ZN5boost17bad_function_callC2Ev
	.weak	_ZN5boost17bad_function_callC1Ev
	.set	_ZN5boost17bad_function_callC1Ev,_ZN5boost17bad_function_callC2Ev
	.section	.rodata
	.align 8
.LC3:
	.string	"bad lexical cast: source type value could not be interpreted as target"
	.section	.text._ZNK5boost16bad_lexical_cast4whatEv,"axG",@progbits,_ZNK5boost16bad_lexical_cast4whatEv,comdat
	.align 2
	.weak	_ZNK5boost16bad_lexical_cast4whatEv
	.type	_ZNK5boost16bad_lexical_cast4whatEv, @function
_ZNK5boost16bad_lexical_cast4whatEv:
.LFB4528:
	.cfi_startproc
	pushq	%rbp
	.cfi_def_cfa_offset 16
	.cfi_offset 6, -16
	movq	%rsp, %rbp
	.cfi_def_cfa_register 6
	movq	%rdi, -8(%rbp)
	movl	$.LC3, %eax
	popq	%rbp
	.cfi_def_cfa 7, 8
	ret
	.cfi_endproc
.LFE4528:
	.size	_ZNK5boost16bad_lexical_cast4whatEv, .-_ZNK5boost16bad_lexical_cast4whatEv
	.section	.text._ZN5boost16bad_lexical_castD2Ev,"axG",@progbits,_ZN5boost16bad_lexical_castD5Ev,comdat
	.align 2
	.weak	_ZN5boost16bad_lexical_castD2Ev
	.type	_ZN5boost16bad_lexical_castD2Ev, @function
_ZN5boost16bad_lexical_castD2Ev:
.LFB4530:
	.cfi_startproc
	pushq	%rbp
	.cfi_def_cfa_offset 16
	.cfi_offset 6, -16
	movq	%rsp, %rbp
	.cfi_def_cfa_register 6
	subq	$16, %rsp
	movq	%rdi, -8(%rbp)
	movl	$_ZTVN5boost16bad_lexical_castE+16, %edx
	movq	-8(%rbp), %rax
	movq	%rdx, (%rax)
	movq	-8(%rbp), %rax
	movq	%rax, %rdi
	call	_ZNSt8bad_castD2Ev
	nop
	leave
	.cfi_def_cfa 7, 8
	ret
	.cfi_endproc
.LFE4530:
	.size	_ZN5boost16bad_lexical_castD2Ev, .-_ZN5boost16bad_lexical_castD2Ev
	.weak	_ZN5boost16bad_lexical_castD1Ev
	.set	_ZN5boost16bad_lexical_castD1Ev,_ZN5boost16bad_lexical_castD2Ev
	.section	.text._ZN5boost16bad_lexical_castD0Ev,"axG",@progbits,_ZN5boost16bad_lexical_castD5Ev,comdat
	.align 2
	.weak	_ZN5boost16bad_lexical_castD0Ev
	.type	_ZN5boost16bad_lexical_castD0Ev, @function
_ZN5boost16bad_lexical_castD0Ev:
.LFB4532:
	.cfi_startproc
	pushq	%rbp
	.cfi_def_cfa_offset 16
	.cfi_offset 6, -16
	movq	%rsp, %rbp
	.cfi_def_cfa_register 6
	subq	$16, %rsp
	movq	%rdi, -8(%rbp)
	movq	-8(%rbp), %rax
	movq	%rax, %rdi
	call	_ZN5boost16bad_lexical_castD1Ev
	movq	-8(%rbp), %rax
	movl	$24, %esi
	movq	%rax, %rdi
	call	_ZdlPvm
	leave
	.cfi_def_cfa 7, 8
	ret
	.cfi_endproc
.LFE4532:
	.size	_ZN5boost16bad_lexical_castD0Ev, .-_ZN5boost16bad_lexical_castD0Ev
	.section	.text._ZN5boost16bad_lexical_castC2ERKSt9type_infoS3_,"axG",@progbits,_ZN5boost16bad_lexical_castC5ERKSt9type_infoS3_,comdat
	.align 2
	.weak	_ZN5boost16bad_lexical_castC2ERKSt9type_infoS3_
	.type	_ZN5boost16bad_lexical_castC2ERKSt9type_infoS3_, @function
_ZN5boost16bad_lexical_castC2ERKSt9type_infoS3_:
.LFB4534:
	.cfi_startproc
	pushq	%rbp
	.cfi_def_cfa_offset 16
	.cfi_offset 6, -16
	movq	%rsp, %rbp
	.cfi_def_cfa_register 6
	subq	$32, %rsp
	movq	%rdi, -8(%rbp)
	movq	%rsi, -16(%rbp)
	movq	%rdx, -24(%rbp)
	movq	-8(%rbp), %rax
	movq	%rax, %rdi
	call	_ZNSt8bad_castC2Ev
	movl	$_ZTVN5boost16bad_lexical_castE+16, %edx
	movq	-8(%rbp), %rax
	movq	%rdx, (%rax)
	movq	-8(%rbp), %rax
	movq	-16(%rbp), %rdx
	movq	%rdx, 8(%rax)
	movq	-8(%rbp), %rax
	movq	-24(%rbp), %rdx
	movq	%rdx, 16(%rax)
	nop
	leave
	.cfi_def_cfa 7, 8
	ret
	.cfi_endproc
.LFE4534:
	.size	_ZN5boost16bad_lexical_castC2ERKSt9type_infoS3_, .-_ZN5boost16bad_lexical_castC2ERKSt9type_infoS3_
	.weak	_ZN5boost16bad_lexical_castC1ERKSt9type_infoS3_
	.set	_ZN5boost16bad_lexical_castC1ERKSt9type_infoS3_,_ZN5boost16bad_lexical_castC2ERKSt9type_infoS3_
	.section	.text._ZNSt8bad_castC2ERKS_,"axG",@progbits,_ZNSt8bad_castC5ERKS_,comdat
	.align 2
	.weak	_ZNSt8bad_castC2ERKS_
	.type	_ZNSt8bad_castC2ERKS_, @function
_ZNSt8bad_castC2ERKS_:
.LFB4786:
	.cfi_startproc
	pushq	%rbp
	.cfi_def_cfa_offset 16
	.cfi_offset 6, -16
	movq	%rsp, %rbp
	.cfi_def_cfa_register 6
	subq	$16, %rsp
	movq	%rdi, -8(%rbp)
	movq	%rsi, -16(%rbp)
	movq	-8(%rbp), %rax
	movq	-16(%rbp), %rdx
	movq	%rdx, %rsi
	movq	%rax, %rdi
	call	_ZNSt9exceptionC2ERKS_
	movl	$_ZTVSt8bad_cast+16, %edx
	movq	-8(%rbp), %rax
	movq	%rdx, (%rax)
	nop
	leave
	.cfi_def_cfa 7, 8
	ret
	.cfi_endproc
.LFE4786:
	.size	_ZNSt8bad_castC2ERKS_, .-_ZNSt8bad_castC2ERKS_
	.weak	_ZNSt8bad_castC1ERKS_
	.set	_ZNSt8bad_castC1ERKS_,_ZNSt8bad_castC2ERKS_
	.section	.rodata
	.align 8
	.type	_ZN5boost9containerL19ADP_nodes_per_blockE, @object
	.size	_ZN5boost9containerL19ADP_nodes_per_blockE, 8
_ZN5boost9containerL19ADP_nodes_per_blockE:
	.quad	256
	.align 8
	.type	_ZN5boost9containerL19ADP_max_free_blocksE, @object
	.size	_ZN5boost9containerL19ADP_max_free_blocksE, 8
_ZN5boost9containerL19ADP_max_free_blocksE:
	.quad	2
	.align 8
	.type	_ZN5boost9containerL20ADP_overhead_percentE, @object
	.size	_ZN5boost9containerL20ADP_overhead_percentE, 8
_ZN5boost9containerL20ADP_overhead_percentE:
	.quad	1
	.align 8
	.type	_ZN5boost9containerL18ADP_only_alignmentE, @object
	.size	_ZN5boost9containerL18ADP_only_alignmentE, 8
_ZN5boost9containerL18ADP_only_alignmentE:
	.zero	8
	.align 8
	.type	_ZN5boost9containerL25NodeAlloc_nodes_per_blockE, @object
	.size	_ZN5boost9containerL25NodeAlloc_nodes_per_blockE, 8
_ZN5boost9containerL25NodeAlloc_nodes_per_blockE:
	.quad	256
	.type	_ZN5boost9containerL13ordered_rangeE, @object
	.size	_ZN5boost9containerL13ordered_rangeE, 1
_ZN5boost9containerL13ordered_rangeE:
	.zero	1
	.type	_ZN5boost9containerL20ordered_unique_rangeE, @object
	.size	_ZN5boost9containerL20ordered_unique_rangeE, 1
_ZN5boost9containerL20ordered_unique_rangeE:
	.zero	1
	.type	_ZN5boost9containerL12default_initE, @object
	.size	_ZN5boost9containerL12default_initE, 1
_ZN5boost9containerL12default_initE:
	.zero	1
	.type	_ZN5boost9containerL10value_initE, @object
	.size	_ZN5boost9containerL10value_initE, 1
_ZN5boost9containerL10value_initE:
	.zero	1
	.section	.text._ZN5boost6detail29do_not_construct_out_stream_tC2EPNS0_29do_not_construct_out_buffer_tE,"axG",@progbits,_ZN5boost6detail29do_not_construct_out_stream_tC5EPNS0_29do_not_construct_out_buffer_tE,comdat
	.align 2
	.weak	_ZN5boost6detail29do_not_construct_out_stream_tC2EPNS0_29do_not_construct_out_buffer_tE
	.type	_ZN5boost6detail29do_not_construct_out_stream_tC2EPNS0_29do_not_construct_out_buffer_tE, @function
_ZN5boost6detail29do_not_construct_out_stream_tC2EPNS0_29do_not_construct_out_buffer_tE:
.LFB5445:
	.cfi_startproc
	pushq	%rbp
	.cfi_def_cfa_offset 16
	.cfi_offset 6, -16
	movq	%rsp, %rbp
	.cfi_def_cfa_register 6
	movq	%rdi, -8(%rbp)
	movq	%rsi, -16(%rbp)
	nop
	popq	%rbp
	.cfi_def_cfa 7, 8
	ret
	.cfi_endproc
.LFE5445:
	.size	_ZN5boost6detail29do_not_construct_out_stream_tC2EPNS0_29do_not_construct_out_buffer_tE, .-_ZN5boost6detail29do_not_construct_out_stream_tC2EPNS0_29do_not_construct_out_buffer_tE
	.weak	_ZN5boost6detail29do_not_construct_out_stream_tC1EPNS0_29do_not_construct_out_buffer_tE
	.set	_ZN5boost6detail29do_not_construct_out_stream_tC1EPNS0_29do_not_construct_out_buffer_tE,_ZN5boost6detail29do_not_construct_out_stream_tC2EPNS0_29do_not_construct_out_buffer_tE
	.section	.text._ZN5boost15program_options14value_semanticD2Ev,"axG",@progbits,_ZN5boost15program_options14value_semanticD5Ev,comdat
	.align 2
	.weak	_ZN5boost15program_options14value_semanticD2Ev
	.type	_ZN5boost15program_options14value_semanticD2Ev, @function
_ZN5boost15program_options14value_semanticD2Ev:
.LFB5556:
	.cfi_startproc
	pushq	%rbp
	.cfi_def_cfa_offset 16
	.cfi_offset 6, -16
	movq	%rsp, %rbp
	.cfi_def_cfa_register 6
	movq	%rdi, -8(%rbp)
	movl	$_ZTVN5boost15program_options14value_semanticE+16, %edx
	movq	-8(%rbp), %rax
	movq	%rdx, (%rax)
	nop
	popq	%rbp
	.cfi_def_cfa 7, 8
	ret
	.cfi_endproc
.LFE5556:
	.size	_ZN5boost15program_options14value_semanticD2Ev, .-_ZN5boost15program_options14value_semanticD2Ev
	.weak	_ZN5boost15program_options14value_semanticD1Ev
	.set	_ZN5boost15program_options14value_semanticD1Ev,_ZN5boost15program_options14value_semanticD2Ev
	.section	.text._ZN5boost15program_options14value_semanticD0Ev,"axG",@progbits,_ZN5boost15program_options14value_semanticD5Ev,comdat
	.align 2
	.weak	_ZN5boost15program_options14value_semanticD0Ev
	.type	_ZN5boost15program_options14value_semanticD0Ev, @function
_ZN5boost15program_options14value_semanticD0Ev:
.LFB5558:
	.cfi_startproc
	pushq	%rbp
	.cfi_def_cfa_offset 16
	.cfi_offset 6, -16
	movq	%rsp, %rbp
	.cfi_def_cfa_register 6
	subq	$16, %rsp
	movq	%rdi, -8(%rbp)
	movq	-8(%rbp), %rax
	movq	%rax, %rdi
	call	_ZN5boost15program_options14value_semanticD1Ev
	movq	-8(%rbp), %rax
	movl	$8, %esi
	movq	%rax, %rdi
	call	_ZdlPvm
	leave
	.cfi_def_cfa 7, 8
	ret
	.cfi_endproc
.LFE5558:
	.size	_ZN5boost15program_options14value_semanticD0Ev, .-_ZN5boost15program_options14value_semanticD0Ev
	.section	.text._ZN5boost15program_options14value_semanticC2Ev,"axG",@progbits,_ZN5boost15program_options14value_semanticC5Ev,comdat
	.align 2
	.weak	_ZN5boost15program_options14value_semanticC2Ev
	.type	_ZN5boost15program_options14value_semanticC2Ev, @function
_ZN5boost15program_options14value_semanticC2Ev:
.LFB5562:
	.cfi_startproc
	pushq	%rbp
	.cfi_def_cfa_offset 16
	.cfi_offset 6, -16
	movq	%rsp, %rbp
	.cfi_def_cfa_register 6
	movq	%rdi, -8(%rbp)
	movl	$_ZTVN5boost15program_options14value_semanticE+16, %edx
	movq	-8(%rbp), %rax
	movq	%rdx, (%rax)
	nop
	popq	%rbp
	.cfi_def_cfa 7, 8
	ret
	.cfi_endproc
.LFE5562:
	.size	_ZN5boost15program_options14value_semanticC2Ev, .-_ZN5boost15program_options14value_semanticC2Ev
	.weak	_ZN5boost15program_options14value_semanticC1Ev
	.set	_ZN5boost15program_options14value_semanticC1Ev,_ZN5boost15program_options14value_semanticC2Ev
	.section	.text._ZN5boost15program_options29value_semantic_codecvt_helperIcEC2Ev,"axG",@progbits,_ZN5boost15program_options29value_semantic_codecvt_helperIcEC5Ev,comdat
	.align 2
	.weak	_ZN5boost15program_options29value_semantic_codecvt_helperIcEC2Ev
	.type	_ZN5boost15program_options29value_semantic_codecvt_helperIcEC2Ev, @function
_ZN5boost15program_options29value_semantic_codecvt_helperIcEC2Ev:
.LFB5564:
	.cfi_startproc
	pushq	%rbp
	.cfi_def_cfa_offset 16
	.cfi_offset 6, -16
	movq	%rsp, %rbp
	.cfi_def_cfa_register 6
	subq	$16, %rsp
	movq	%rdi, -8(%rbp)
	movq	-8(%rbp), %rax
	movq	%rax, %rdi
	call	_ZN5boost15program_options14value_semanticC2Ev
	movl	$_ZTVN5boost15program_options29value_semantic_codecvt_helperIcEE+16, %edx
	movq	-8(%rbp), %rax
	movq	%rdx, (%rax)
	nop
	leave
	.cfi_def_cfa 7, 8
	ret
	.cfi_endproc
.LFE5564:
	.size	_ZN5boost15program_options29value_semantic_codecvt_helperIcEC2Ev, .-_ZN5boost15program_options29value_semantic_codecvt_helperIcEC2Ev
	.weak	_ZN5boost15program_options29value_semantic_codecvt_helperIcEC1Ev
	.set	_ZN5boost15program_options29value_semantic_codecvt_helperIcEC1Ev,_ZN5boost15program_options29value_semantic_codecvt_helperIcEC2Ev
	.section	.text._ZN5boost15program_options29value_semantic_codecvt_helperIcED2Ev,"axG",@progbits,_ZN5boost15program_options29value_semantic_codecvt_helperIcED5Ev,comdat
	.align 2
	.weak	_ZN5boost15program_options29value_semantic_codecvt_helperIcED2Ev
	.type	_ZN5boost15program_options29value_semantic_codecvt_helperIcED2Ev, @function
_ZN5boost15program_options29value_semantic_codecvt_helperIcED2Ev:
.LFB5567:
	.cfi_startproc
	pushq	%rbp
	.cfi_def_cfa_offset 16
	.cfi_offset 6, -16
	movq	%rsp, %rbp
	.cfi_def_cfa_register 6
	subq	$16, %rsp
	movq	%rdi, -8(%rbp)
	movl	$_ZTVN5boost15program_options29value_semantic_codecvt_helperIcEE+16, %edx
	movq	-8(%rbp), %rax
	movq	%rdx, (%rax)
	movq	-8(%rbp), %rax
	movq	%rax, %rdi
	call	_ZN5boost15program_options14value_semanticD2Ev
	nop
	leave
	.cfi_def_cfa 7, 8
	ret
	.cfi_endproc
.LFE5567:
	.size	_ZN5boost15program_options29value_semantic_codecvt_helperIcED2Ev, .-_ZN5boost15program_options29value_semantic_codecvt_helperIcED2Ev
	.weak	_ZN5boost15program_options29value_semantic_codecvt_helperIcED1Ev
	.set	_ZN5boost15program_options29value_semantic_codecvt_helperIcED1Ev,_ZN5boost15program_options29value_semantic_codecvt_helperIcED2Ev
	.section	.text._ZN5boost15program_options29value_semantic_codecvt_helperIcED0Ev,"axG",@progbits,_ZN5boost15program_options29value_semantic_codecvt_helperIcED5Ev,comdat
	.align 2
	.weak	_ZN5boost15program_options29value_semantic_codecvt_helperIcED0Ev
	.type	_ZN5boost15program_options29value_semantic_codecvt_helperIcED0Ev, @function
_ZN5boost15program_options29value_semantic_codecvt_helperIcED0Ev:
.LFB5569:
	.cfi_startproc
	pushq	%rbp
	.cfi_def_cfa_offset 16
	.cfi_offset 6, -16
	movq	%rsp, %rbp
	.cfi_def_cfa_register 6
	subq	$16, %rsp
	movq	%rdi, -8(%rbp)
	movq	-8(%rbp), %rax
	movq	%rax, %rdi
	call	_ZN5boost15program_options29value_semantic_codecvt_helperIcED1Ev
	movq	-8(%rbp), %rax
	movl	$8, %esi
	movq	%rax, %rdi
	call	_ZdlPvm
	leave
	.cfi_def_cfa 7, 8
	ret
	.cfi_endproc
.LFE5569:
	.size	_ZN5boost15program_options29value_semantic_codecvt_helperIcED0Ev, .-_ZN5boost15program_options29value_semantic_codecvt_helperIcED0Ev
	.section	.text._ZN5boost15program_options16typed_value_baseD2Ev,"axG",@progbits,_ZN5boost15program_options16typed_value_baseD5Ev,comdat
	.align 2
	.weak	_ZN5boost15program_options16typed_value_baseD2Ev
	.type	_ZN5boost15program_options16typed_value_baseD2Ev, @function
_ZN5boost15program_options16typed_value_baseD2Ev:
.LFB5577:
	.cfi_startproc
	pushq	%rbp
	.cfi_def_cfa_offset 16
	.cfi_offset 6, -16
	movq	%rsp, %rbp
	.cfi_def_cfa_register 6
	movq	%rdi, -8(%rbp)
	movl	$_ZTVN5boost15program_options16typed_value_baseE+16, %edx
	movq	-8(%rbp), %rax
	movq	%rdx, (%rax)
	nop
	popq	%rbp
	.cfi_def_cfa 7, 8
	ret
	.cfi_endproc
.LFE5577:
	.size	_ZN5boost15program_options16typed_value_baseD2Ev, .-_ZN5boost15program_options16typed_value_baseD2Ev
	.weak	_ZN5boost15program_options16typed_value_baseD1Ev
	.set	_ZN5boost15program_options16typed_value_baseD1Ev,_ZN5boost15program_options16typed_value_baseD2Ev
	.section	.text._ZN5boost15program_options16typed_value_baseD0Ev,"axG",@progbits,_ZN5boost15program_options16typed_value_baseD5Ev,comdat
	.align 2
	.weak	_ZN5boost15program_options16typed_value_baseD0Ev
	.type	_ZN5boost15program_options16typed_value_baseD0Ev, @function
_ZN5boost15program_options16typed_value_baseD0Ev:
.LFB5579:
	.cfi_startproc
	pushq	%rbp
	.cfi_def_cfa_offset 16
	.cfi_offset 6, -16
	movq	%rsp, %rbp
	.cfi_def_cfa_register 6
	subq	$16, %rsp
	movq	%rdi, -8(%rbp)
	movq	-8(%rbp), %rax
	movq	%rax, %rdi
	call	_ZN5boost15program_options16typed_value_baseD1Ev
	movq	-8(%rbp), %rax
	movl	$8, %esi
	movq	%rax, %rdi
	call	_ZdlPvm
	leave
	.cfi_def_cfa 7, 8
	ret
	.cfi_endproc
.LFE5579:
	.size	_ZN5boost15program_options16typed_value_baseD0Ev, .-_ZN5boost15program_options16typed_value_baseD0Ev
	.section	.text._ZN5boost6detail16atomic_decrementEPSt6atomicIiE,"axG",@progbits,_ZN5boost6detail16atomic_decrementEPSt6atomicIiE,comdat
	.weak	_ZN5boost6detail16atomic_decrementEPSt6atomicIiE
	.type	_ZN5boost6detail16atomic_decrementEPSt6atomicIiE, @function
_ZN5boost6detail16atomic_decrementEPSt6atomicIiE:
.LFB6382:
	.cfi_startproc
	pushq	%rbp
	.cfi_def_cfa_offset 16
	.cfi_offset 6, -16
	movq	%rsp, %rbp
	.cfi_def_cfa_register 6
	movq	%rdi, -24(%rbp)
	movq	-24(%rbp), %rax
	movq	%rax, -8(%rbp)
	movl	$1, -12(%rbp)
	movl	$4, -16(%rbp)
	movl	-12(%rbp), %edx
	movq	-8(%rbp), %rax
	negl	%edx
	lock xaddl	%edx, (%rax)
	movl	%edx, %eax
	nop
	popq	%rbp
	.cfi_def_cfa 7, 8
	ret
	.cfi_endproc
.LFE6382:
	.size	_ZN5boost6detail16atomic_decrementEPSt6atomicIiE, .-_ZN5boost6detail16atomic_decrementEPSt6atomicIiE
	.section	.text._ZN5boost6detail15sp_counted_base7releaseEv,"axG",@progbits,_ZN5boost6detail15sp_counted_base7releaseEv,comdat
	.align 2
	.weak	_ZN5boost6detail15sp_counted_base7releaseEv
	.type	_ZN5boost6detail15sp_counted_base7releaseEv, @function
_ZN5boost6detail15sp_counted_base7releaseEv:
.LFB6394:
	.cfi_startproc
	pushq	%rbp
	.cfi_def_cfa_offset 16
	.cfi_offset 6, -16
	movq	%rsp, %rbp
	.cfi_def_cfa_register 6
	subq	$16, %rsp
	movq	%rdi, -8(%rbp)
	movq	-8(%rbp), %rax
	addq	$8, %rax
	movq	%rax, %rdi
	call	_ZN5boost6detail16atomic_decrementEPSt6atomicIiE
	cmpl	$1, %eax
	sete	%al
	testb	%al, %al
	je	.L170
	movq	-8(%rbp), %rax
	movq	(%rax), %rax
	addq	$16, %rax
	movq	(%rax), %rax
	movq	-8(%rbp), %rdx
	movq	%rdx, %rdi
	call	*%rax
	movq	-8(%rbp), %rax
	movq	%rax, %rdi
	call	_ZN5boost6detail15sp_counted_base12weak_releaseEv
.L170:
	nop
	leave
	.cfi_def_cfa 7, 8
	ret
	.cfi_endproc
.LFE6394:
	.size	_ZN5boost6detail15sp_counted_base7releaseEv, .-_ZN5boost6detail15sp_counted_base7releaseEv
	.section	.text._ZN5boost6detail15sp_counted_base12weak_releaseEv,"axG",@progbits,_ZN5boost6detail15sp_counted_base12weak_releaseEv,comdat
	.align 2
	.weak	_ZN5boost6detail15sp_counted_base12weak_releaseEv
	.type	_ZN5boost6detail15sp_counted_base12weak_releaseEv, @function
_ZN5boost6detail15sp_counted_base12weak_releaseEv:
.LFB6396:
	.cfi_startproc
	pushq	%rbp
	.cfi_def_cfa_offset 16
	.cfi_offset 6, -16
	movq	%rsp, %rbp
	.cfi_def_cfa_register 6
	subq	$16, %rsp
	movq	%rdi, -8(%rbp)
	movq	-8(%rbp), %rax
	addq	$12, %rax
	movq	%rax, %rdi
	call	_ZN5boost6detail16atomic_decrementEPSt6atomicIiE
	cmpl	$1, %eax
	sete	%al
	testb	%al, %al
	je	.L173
	movq	-8(%rbp), %rax
	movq	(%rax), %rax
	addq	$24, %rax
	movq	(%rax), %rax
	movq	-8(%rbp), %rdx
	movq	%rdx, %rdi
	call	*%rax
.L173:
	nop
	leave
	.cfi_def_cfa 7, 8
	ret
	.cfi_endproc
.LFE6396:
	.size	_ZN5boost6detail15sp_counted_base12weak_releaseEv, .-_ZN5boost6detail15sp_counted_base12weak_releaseEv
	.section	.text._ZN5boost6detail12shared_countD2Ev,"axG",@progbits,_ZN5boost6detail12shared_countD5Ev,comdat
	.align 2
	.weak	_ZN5boost6detail12shared_countD2Ev
	.type	_ZN5boost6detail12shared_countD2Ev, @function
_ZN5boost6detail12shared_countD2Ev:
.LFB6434:
	.cfi_startproc
	pushq	%rbp
	.cfi_def_cfa_offset 16
	.cfi_offset 6, -16
	movq	%rsp, %rbp
	.cfi_def_cfa_register 6
	subq	$16, %rsp
	movq	%rdi, -8(%rbp)
	movq	-8(%rbp), %rax
	movq	(%rax), %rax
	testq	%rax, %rax
	je	.L176
	movq	-8(%rbp), %rax
	movq	(%rax), %rax
	movq	%rax, %rdi
	call	_ZN5boost6detail15sp_counted_base7releaseEv
.L176:
	nop
	leave
	.cfi_def_cfa 7, 8
	ret
	.cfi_endproc
.LFE6434:
	.size	_ZN5boost6detail12shared_countD2Ev, .-_ZN5boost6detail12shared_countD2Ev
	.weak	_ZN5boost6detail12shared_countD1Ev
	.set	_ZN5boost6detail12shared_countD1Ev,_ZN5boost6detail12shared_countD2Ev
	.section	.text._ZN5boost10shared_ptrIKNS_15program_options14value_semanticEED2Ev,"axG",@progbits,_ZN5boost10shared_ptrIKNS_15program_options14value_semanticEED5Ev,comdat
	.align 2
	.weak	_ZN5boost10shared_ptrIKNS_15program_options14value_semanticEED2Ev
	.type	_ZN5boost10shared_ptrIKNS_15program_options14value_semanticEED2Ev, @function
_ZN5boost10shared_ptrIKNS_15program_options14value_semanticEED2Ev:
.LFB6773:
	.cfi_startproc
	pushq	%rbp
	.cfi_def_cfa_offset 16
	.cfi_offset 6, -16
	movq	%rsp, %rbp
	.cfi_def_cfa_register 6
	subq	$16, %rsp
	movq	%rdi, -8(%rbp)
	movq	-8(%rbp), %rax
	addq	$8, %rax
	movq	%rax, %rdi
	call	_ZN5boost6detail12shared_countD1Ev
	nop
	leave
	.cfi_def_cfa 7, 8
	ret
	.cfi_endproc
.LFE6773:
	.size	_ZN5boost10shared_ptrIKNS_15program_options14value_semanticEED2Ev, .-_ZN5boost10shared_ptrIKNS_15program_options14value_semanticEED2Ev
	.weak	_ZN5boost10shared_ptrIKNS_15program_options14value_semanticEED1Ev
	.set	_ZN5boost10shared_ptrIKNS_15program_options14value_semanticEED1Ev,_ZN5boost10shared_ptrIKNS_15program_options14value_semanticEED2Ev
	.section	.text._ZN5boost15program_options22abstract_variables_mapD2Ev,"axG",@progbits,_ZN5boost15program_options22abstract_variables_mapD5Ev,comdat
	.align 2
	.weak	_ZN5boost15program_options22abstract_variables_mapD2Ev
	.type	_ZN5boost15program_options22abstract_variables_mapD2Ev, @function
_ZN5boost15program_options22abstract_variables_mapD2Ev:
.LFB6783:
	.cfi_startproc
	pushq	%rbp
	.cfi_def_cfa_offset 16
	.cfi_offset 6, -16
	movq	%rsp, %rbp
	.cfi_def_cfa_register 6
	movq	%rdi, -8(%rbp)
	movl	$_ZTVN5boost15program_options22abstract_variables_mapE+16, %edx
	movq	-8(%rbp), %rax
	movq	%rdx, (%rax)
	nop
	popq	%rbp
	.cfi_def_cfa 7, 8
	ret
	.cfi_endproc
.LFE6783:
	.size	_ZN5boost15program_options22abstract_variables_mapD2Ev, .-_ZN5boost15program_options22abstract_variables_mapD2Ev
	.weak	_ZN5boost15program_options22abstract_variables_mapD1Ev
	.set	_ZN5boost15program_options22abstract_variables_mapD1Ev,_ZN5boost15program_options22abstract_variables_mapD2Ev
	.section	.text._ZN5boost15program_options22abstract_variables_mapD0Ev,"axG",@progbits,_ZN5boost15program_options22abstract_variables_mapD5Ev,comdat
	.align 2
	.weak	_ZN5boost15program_options22abstract_variables_mapD0Ev
	.type	_ZN5boost15program_options22abstract_variables_mapD0Ev, @function
_ZN5boost15program_options22abstract_variables_mapD0Ev:
.LFB6785:
	.cfi_startproc
	pushq	%rbp
	.cfi_def_cfa_offset 16
	.cfi_offset 6, -16
	movq	%rsp, %rbp
	.cfi_def_cfa_register 6
	subq	$16, %rsp
	movq	%rdi, -8(%rbp)
	movq	-8(%rbp), %rax
	movq	%rax, %rdi
	call	_ZN5boost15program_options22abstract_variables_mapD1Ev
	movq	-8(%rbp), %rax
	movl	$16, %esi
	movq	%rax, %rdi
	call	_ZdlPvm
	leave
	.cfi_def_cfa 7, 8
	ret
	.cfi_endproc
.LFE6785:
	.size	_ZN5boost15program_options22abstract_variables_mapD0Ev, .-_ZN5boost15program_options22abstract_variables_mapD0Ev
	.section	.text._ZNK5boost15program_options13variables_mapixERKNSt7__cxx1112basic_stringIcSt11char_traitsIcESaIcEEE,"axG",@progbits,_ZNK5boost15program_options13variables_mapixERKNSt7__cxx1112basic_stringIcSt11char_traitsIcESaIcEEE,comdat
	.align 2
	.weak	_ZNK5boost15program_options13variables_mapixERKNSt7__cxx1112basic_stringIcSt11char_traitsIcESaIcEEE
	.type	_ZNK5boost15program_options13variables_mapixERKNSt7__cxx1112basic_stringIcSt11char_traitsIcESaIcEEE, @function
_ZNK5boost15program_options13variables_mapixERKNSt7__cxx1112basic_stringIcSt11char_traitsIcESaIcEEE:
.LFB6786:
	.cfi_startproc
	pushq	%rbp
	.cfi_def_cfa_offset 16
	.cfi_offset 6, -16
	movq	%rsp, %rbp
	.cfi_def_cfa_register 6
	subq	$16, %rsp
	movq	%rdi, -8(%rbp)
	movq	%rsi, -16(%rbp)
	movq	-8(%rbp), %rax
	movq	-16(%rbp), %rdx
	movq	%rdx, %rsi
	movq	%rax, %rdi
	call	_ZNK5boost15program_options22abstract_variables_mapixERKNSt7__cxx1112basic_stringIcSt11char_traitsIcESaIcEEE
	leave
	.cfi_def_cfa 7, 8
	ret
	.cfi_endproc
.LFE6786:
	.size	_ZNK5boost15program_options13variables_mapixERKNSt7__cxx1112basic_stringIcSt11char_traitsIcESaIcEEE, .-_ZNK5boost15program_options13variables_mapixERKNSt7__cxx1112basic_stringIcSt11char_traitsIcESaIcEEE
	.section	.text._ZNK5boost6system14error_categoryeqERKS1_,"axG",@progbits,_ZNK5boost6system14error_categoryeqERKS1_,comdat
	.align 2
	.weak	_ZNK5boost6system14error_categoryeqERKS1_
	.type	_ZNK5boost6system14error_categoryeqERKS1_, @function
_ZNK5boost6system14error_categoryeqERKS1_:
.LFB6797:
	.cfi_startproc
	pushq	%rbp
	.cfi_def_cfa_offset 16
	.cfi_offset 6, -16
	movq	%rsp, %rbp
	.cfi_def_cfa_register 6
	movq	%rdi, -8(%rbp)
	movq	%rsi, -16(%rbp)
	movq	-16(%rbp), %rax
	movq	8(%rax), %rax
	testq	%rax, %rax
	jne	.L183
	movq	-8(%rbp), %rax
	cmpq	-16(%rbp), %rax
	sete	%al
	jmp	.L185
.L183:
	movq	-8(%rbp), %rax
	movq	8(%rax), %rdx
	movq	-16(%rbp), %rax
	movq	8(%rax), %rax
	cmpq	%rax, %rdx
	sete	%al
.L185:
	popq	%rbp
	.cfi_def_cfa 7, 8
	ret
	.cfi_endproc
.LFE6797:
	.size	_ZNK5boost6system14error_categoryeqERKS1_, .-_ZNK5boost6system14error_categoryeqERKS1_
	.section	.text._ZNK5boost6system14error_categoryltERKS1_,"axG",@progbits,_ZNK5boost6system14error_categoryltERKS1_,comdat
	.align 2
	.weak	_ZNK5boost6system14error_categoryltERKS1_
	.type	_ZNK5boost6system14error_categoryltERKS1_, @function
_ZNK5boost6system14error_categoryltERKS1_:
.LFB6799:
	.cfi_startproc
	pushq	%rbp
	.cfi_def_cfa_offset 16
	.cfi_offset 6, -16
	movq	%rsp, %rbp
	.cfi_def_cfa_register 6
	subq	$32, %rsp
	movq	%rdi, -24(%rbp)
	movq	%rsi, -32(%rbp)
	movq	-24(%rbp), %rax
	movq	8(%rax), %rdx
	movq	-32(%rbp), %rax
	movq	8(%rax), %rax
	cmpq	%rax, %rdx
	jnb	.L187
	movl	$1, %eax
	jmp	.L188
.L187:
	movq	-24(%rbp), %rax
	movq	8(%rax), %rdx
	movq	-32(%rbp), %rax
	movq	8(%rax), %rax
	cmpq	%rax, %rdx
	jbe	.L189
	movl	$0, %eax
	jmp	.L188
.L189:
	movq	-32(%rbp), %rax
	movq	8(%rax), %rax
	testq	%rax, %rax
	je	.L190
	movl	$0, %eax
	jmp	.L188
.L190:
	movq	-32(%rbp), %rdx
	movq	-24(%rbp), %rcx
	leaq	-1(%rbp), %rax
	movq	%rcx, %rsi
	movq	%rax, %rdi
	call	_ZNKSt4lessIPKN5boost6system14error_categoryEEclES4_S4_
	nop
.L188:
	leave
	.cfi_def_cfa 7, 8
	ret
	.cfi_endproc
.LFE6799:
	.size	_ZNK5boost6system14error_categoryltERKS1_, .-_ZNK5boost6system14error_categoryltERKS1_
	.section	.rodata
.LC4:
	.string	"generic"
	.section	.text._ZNK5boost6system6detail22generic_error_category4nameEv,"axG",@progbits,_ZNK5boost6system6detail22generic_error_category4nameEv,comdat
	.align 2
	.weak	_ZNK5boost6system6detail22generic_error_category4nameEv
	.type	_ZNK5boost6system6detail22generic_error_category4nameEv, @function
_ZNK5boost6system6detail22generic_error_category4nameEv:
.LFB6803:
	.cfi_startproc
	pushq	%rbp
	.cfi_def_cfa_offset 16
	.cfi_offset 6, -16
	movq	%rsp, %rbp
	.cfi_def_cfa_register 6
	movq	%rdi, -8(%rbp)
	movl	$.LC4, %eax
	popq	%rbp
	.cfi_def_cfa 7, 8
	ret
	.cfi_endproc
.LFE6803:
	.size	_ZNK5boost6system6detail22generic_error_category4nameEv, .-_ZNK5boost6system6detail22generic_error_category4nameEv
	.section	.rodata
.LC5:
	.string	"system"
	.section	.text._ZNK5boost6system6detail21system_error_category4nameEv,"axG",@progbits,_ZNK5boost6system6detail21system_error_category4nameEv,comdat
	.align 2
	.weak	_ZNK5boost6system6detail21system_error_category4nameEv
	.type	_ZNK5boost6system6detail21system_error_category4nameEv, @function
_ZNK5boost6system6detail21system_error_category4nameEv:
.LFB6807:
	.cfi_startproc
	pushq	%rbp
	.cfi_def_cfa_offset 16
	.cfi_offset 6, -16
	movq	%rsp, %rbp
	.cfi_def_cfa_register 6
	movq	%rdi, -8(%rbp)
	movl	$.LC5, %eax
	popq	%rbp
	.cfi_def_cfa 7, 8
	ret
	.cfi_endproc
.LFE6807:
	.size	_ZNK5boost6system6detail21system_error_category4nameEv, .-_ZNK5boost6system6detail21system_error_category4nameEv
	.section	.text._ZN5boost6system15system_categoryEv,"axG",@progbits,_ZN5boost6system15system_categoryEv,comdat
	.weak	_ZN5boost6system15system_categoryEv
	.type	_ZN5boost6system15system_categoryEv, @function
_ZN5boost6system15system_categoryEv:
.LFB6808:
	.cfi_startproc
	pushq	%rbp
	.cfi_def_cfa_offset 16
	.cfi_offset 6, -16
	movq	%rsp, %rbp
	.cfi_def_cfa_register 6
	movl	$_ZN5boost6system6detail10cat_holderIvE24system_category_instanceE, %eax
	popq	%rbp
	.cfi_def_cfa 7, 8
	ret
	.cfi_endproc
.LFE6808:
	.size	_ZN5boost6system15system_categoryEv, .-_ZN5boost6system15system_categoryEv
	.section	.text._ZN5boost6system16generic_categoryEv,"axG",@progbits,_ZN5boost6system16generic_categoryEv,comdat
	.weak	_ZN5boost6system16generic_categoryEv
	.type	_ZN5boost6system16generic_categoryEv, @function
_ZN5boost6system16generic_categoryEv:
.LFB6809:
	.cfi_startproc
	pushq	%rbp
	.cfi_def_cfa_offset 16
	.cfi_offset 6, -16
	movq	%rsp, %rbp
	.cfi_def_cfa_register 6
	movl	$_ZN5boost6system6detail10cat_holderIvE25generic_category_instanceE, %eax
	popq	%rbp
	.cfi_def_cfa 7, 8
	ret
	.cfi_endproc
.LFE6809:
	.size	_ZN5boost6system16generic_categoryEv, .-_ZN5boost6system16generic_categoryEv
	.section	.text._ZN5boost6system6detail11failed_implEiRKNS0_14error_categoryE,"axG",@progbits,_ZN5boost6system6detail11failed_implEiRKNS0_14error_categoryE,comdat
	.weak	_ZN5boost6system6detail11failed_implEiRKNS0_14error_categoryE
	.type	_ZN5boost6system6detail11failed_implEiRKNS0_14error_categoryE, @function
_ZN5boost6system6detail11failed_implEiRKNS0_14error_categoryE:
.LFB6810:
	.cfi_startproc
	pushq	%rbp
	.cfi_def_cfa_offset 16
	.cfi_offset 6, -16
	movq	%rsp, %rbp
	.cfi_def_cfa_register 6
	subq	$16, %rsp
	movl	%edi, -4(%rbp)
	movq	%rsi, -16(%rbp)
	call	_ZN5boost6system15system_categoryEv
	movq	%rax, %rdx
	movq	-16(%rbp), %rax
	movq	%rdx, %rsi
	movq	%rax, %rdi
	call	_ZNK5boost6system14error_categoryeqERKS1_
	testb	%al, %al
	jne	.L200
	call	_ZN5boost6system16generic_categoryEv
	movq	%rax, %rdx
	movq	-16(%rbp), %rax
	movq	%rdx, %rsi
	movq	%rax, %rdi
	call	_ZNK5boost6system14error_categoryeqERKS1_
	testb	%al, %al
	je	.L201
.L200:
	movl	$1, %eax
	jmp	.L202
.L201:
	movl	$0, %eax
.L202:
	testb	%al, %al
	je	.L203
	cmpl	$0, -4(%rbp)
	setne	%al
	jmp	.L204
.L203:
	movq	-16(%rbp), %rax
	movq	(%rax), %rax
	addq	$48, %rax
	movq	(%rax), %rax
	movl	-4(%rbp), %ecx
	movq	-16(%rbp), %rdx
	movl	%ecx, %esi
	movq	%rdx, %rdi
	call	*%rax
	nop
.L204:
	leave
	.cfi_def_cfa 7, 8
	ret
	.cfi_endproc
.LFE6810:
	.size	_ZN5boost6system6detail11failed_implEiRKNS0_14error_categoryE, .-_ZN5boost6system6detail11failed_implEiRKNS0_14error_categoryE
	.section	.text._ZN5boost6system15error_conditionC2EiRKNS0_14error_categoryE,"axG",@progbits,_ZN5boost6system15error_conditionC5EiRKNS0_14error_categoryE,comdat
	.align 2
	.weak	_ZN5boost6system15error_conditionC2EiRKNS0_14error_categoryE
	.type	_ZN5boost6system15error_conditionC2EiRKNS0_14error_categoryE, @function
_ZN5boost6system15error_conditionC2EiRKNS0_14error_categoryE:
.LFB6815:
	.cfi_startproc
	pushq	%rbp
	.cfi_def_cfa_offset 16
	.cfi_offset 6, -16
	movq	%rsp, %rbp
	.cfi_def_cfa_register 6
	subq	$32, %rsp
	movq	%rdi, -8(%rbp)
	movl	%esi, -12(%rbp)
	movq	%rdx, -24(%rbp)
	movq	-8(%rbp), %rax
	movl	-12(%rbp), %edx
	movl	%edx, (%rax)
	movq	-24(%rbp), %rdx
	movl	-12(%rbp), %eax
	movq	%rdx, %rsi
	movl	%eax, %edi
	call	_ZN5boost6system6detail11failed_implEiRKNS0_14error_categoryE
	movl	%eax, %edx
	movq	-8(%rbp), %rax
	movb	%dl, 4(%rax)
	movq	-8(%rbp), %rax
	movq	-24(%rbp), %rdx
	movq	%rdx, 8(%rax)
	nop
	leave
	.cfi_def_cfa 7, 8
	ret
	.cfi_endproc
.LFE6815:
	.size	_ZN5boost6system15error_conditionC2EiRKNS0_14error_categoryE, .-_ZN5boost6system15error_conditionC2EiRKNS0_14error_categoryE
	.weak	_ZN5boost6system15error_conditionC1EiRKNS0_14error_categoryE
	.set	_ZN5boost6system15error_conditionC1EiRKNS0_14error_categoryE,_ZN5boost6system15error_conditionC2EiRKNS0_14error_categoryE
	.section	.text._ZNK5boost6system15error_condition5valueEv,"axG",@progbits,_ZNK5boost6system15error_condition5valueEv,comdat
	.align 2
	.weak	_ZNK5boost6system15error_condition5valueEv
	.type	_ZNK5boost6system15error_condition5valueEv, @function
_ZNK5boost6system15error_condition5valueEv:
.LFB6821:
	.cfi_startproc
	pushq	%rbp
	.cfi_def_cfa_offset 16
	.cfi_offset 6, -16
	movq	%rsp, %rbp
	.cfi_def_cfa_register 6
	movq	%rdi, -8(%rbp)
	movq	-8(%rbp), %rax
	movl	(%rax), %eax
	popq	%rbp
	.cfi_def_cfa 7, 8
	ret
	.cfi_endproc
.LFE6821:
	.size	_ZNK5boost6system15error_condition5valueEv, .-_ZNK5boost6system15error_condition5valueEv
	.section	.text._ZNK5boost6system15error_condition8categoryEv,"axG",@progbits,_ZNK5boost6system15error_condition8categoryEv,comdat
	.align 2
	.weak	_ZNK5boost6system15error_condition8categoryEv
	.type	_ZNK5boost6system15error_condition8categoryEv, @function
_ZNK5boost6system15error_condition8categoryEv:
.LFB6822:
	.cfi_startproc
	pushq	%rbp
	.cfi_def_cfa_offset 16
	.cfi_offset 6, -16
	movq	%rsp, %rbp
	.cfi_def_cfa_register 6
	movq	%rdi, -8(%rbp)
	movq	-8(%rbp), %rax
	movq	8(%rax), %rax
	popq	%rbp
	.cfi_def_cfa 7, 8
	ret
	.cfi_endproc
.LFE6822:
	.size	_ZNK5boost6system15error_condition8categoryEv, .-_ZNK5boost6system15error_condition8categoryEv
	.section	.text._ZN5boost6systemeqERKNS0_15error_conditionES3_,"axG",@progbits,_ZN5boost6systemeqERKNS0_15error_conditionES3_,comdat
	.weak	_ZN5boost6systemeqERKNS0_15error_conditionES3_
	.type	_ZN5boost6systemeqERKNS0_15error_conditionES3_, @function
_ZN5boost6systemeqERKNS0_15error_conditionES3_:
.LFB6827:
	.cfi_startproc
	pushq	%rbp
	.cfi_def_cfa_offset 16
	.cfi_offset 6, -16
	movq	%rsp, %rbp
	.cfi_def_cfa_register 6
	subq	$16, %rsp
	movq	%rdi, -8(%rbp)
	movq	%rsi, -16(%rbp)
	movq	-8(%rbp), %rax
	movl	(%rax), %edx
	movq	-16(%rbp), %rax
	movl	(%rax), %eax
	cmpl	%eax, %edx
	jne	.L211
	movq	-16(%rbp), %rax
	movq	8(%rax), %rdx
	movq	-8(%rbp), %rax
	movq	8(%rax), %rax
	movq	%rdx, %rsi
	movq	%rax, %rdi
	call	_ZNK5boost6system14error_categoryeqERKS1_
	testb	%al, %al
	je	.L211
	movl	$1, %eax
	jmp	.L212
.L211:
	movl	$0, %eax
.L212:
	leave
	.cfi_def_cfa 7, 8
	ret
	.cfi_endproc
.LFE6827:
	.size	_ZN5boost6systemeqERKNS0_15error_conditionES3_, .-_ZN5boost6systemeqERKNS0_15error_conditionES3_
	.section	.text._ZNK5boost6system15error_conditioncvSt15error_conditionEv,"axG",@progbits,_ZNK5boost6system15error_conditioncvSt15error_conditionEv,comdat
	.align 2
	.weak	_ZNK5boost6system15error_conditioncvSt15error_conditionEv
	.type	_ZNK5boost6system15error_conditioncvSt15error_conditionEv, @function
_ZNK5boost6system15error_conditioncvSt15error_conditionEv:
.LFB6829:
	.cfi_startproc
	pushq	%rbp
	.cfi_def_cfa_offset 16
	.cfi_offset 6, -16
	movq	%rsp, %rbp
	.cfi_def_cfa_register 6
	pushq	%rbx
	subq	$40, %rsp
	.cfi_offset 3, -24
	movq	%rdi, -40(%rbp)
	movq	-40(%rbp), %rax
	movq	%rax, %rdi
	call	_ZNK5boost6system15error_condition8categoryEv
	movq	%rax, %rdi
	call	_ZNK5boost6system14error_categorycvRKNSt3_V214error_categoryEEv
	movq	%rax, %rbx
	movq	-40(%rbp), %rax
	movq	%rax, %rdi
	call	_ZNK5boost6system15error_condition5valueEv
	movl	%eax, %ecx
	leaq	-32(%rbp), %rax
	movq	%rbx, %rdx
	movl	%ecx, %esi
	movq	%rax, %rdi
	call	_ZNSt15error_conditionC1EiRKNSt3_V214error_categoryE
	movq	-32(%rbp), %rax
	movq	-24(%rbp), %rdx
	movq	%rax, %rcx
	movq	%rdx, %rbx
	movl	%ecx, %eax
	addq	$40, %rsp
	popq	%rbx
	popq	%rbp
	.cfi_def_cfa 7, 8
	ret
	.cfi_endproc
.LFE6829:
	.size	_ZNK5boost6system15error_conditioncvSt15error_conditionEv, .-_ZNK5boost6system15error_conditioncvSt15error_conditionEv
	.section	.text._ZN5boost6system10error_codeC2EiRKNS0_14error_categoryE,"axG",@progbits,_ZN5boost6system10error_codeC5EiRKNS0_14error_categoryE,comdat
	.align 2
	.weak	_ZN5boost6system10error_codeC2EiRKNS0_14error_categoryE
	.type	_ZN5boost6system10error_codeC2EiRKNS0_14error_categoryE, @function
_ZN5boost6system10error_codeC2EiRKNS0_14error_categoryE:
.LFB6834:
	.cfi_startproc
	pushq	%rbp
	.cfi_def_cfa_offset 16
	.cfi_offset 6, -16
	movq	%rsp, %rbp
	.cfi_def_cfa_register 6
	subq	$32, %rsp
	movq	%rdi, -8(%rbp)
	movl	%esi, -12(%rbp)
	movq	%rdx, -24(%rbp)
	movq	-8(%rbp), %rax
	movl	-12(%rbp), %edx
	movl	%edx, (%rax)
	movq	-24(%rbp), %rdx
	movl	-12(%rbp), %eax
	movq	%rdx, %rsi
	movl	%eax, %edi
	call	_ZN5boost6system6detail11failed_implEiRKNS0_14error_categoryE
	movl	%eax, %edx
	movq	-8(%rbp), %rax
	movb	%dl, 4(%rax)
	movq	-8(%rbp), %rax
	movq	-24(%rbp), %rdx
	movq	%rdx, 8(%rax)
	nop
	leave
	.cfi_def_cfa 7, 8
	ret
	.cfi_endproc
.LFE6834:
	.size	_ZN5boost6system10error_codeC2EiRKNS0_14error_categoryE, .-_ZN5boost6system10error_codeC2EiRKNS0_14error_categoryE
	.weak	_ZN5boost6system10error_codeC1EiRKNS0_14error_categoryE
	.set	_ZN5boost6system10error_codeC1EiRKNS0_14error_categoryE,_ZN5boost6system10error_codeC2EiRKNS0_14error_categoryE
	.section	.text._ZNK5boost6system10error_code5valueEv,"axG",@progbits,_ZNK5boost6system10error_code5valueEv,comdat
	.align 2
	.weak	_ZNK5boost6system10error_code5valueEv
	.type	_ZNK5boost6system10error_code5valueEv, @function
_ZNK5boost6system10error_code5valueEv:
.LFB6840:
	.cfi_startproc
	pushq	%rbp
	.cfi_def_cfa_offset 16
	.cfi_offset 6, -16
	movq	%rsp, %rbp
	.cfi_def_cfa_register 6
	movq	%rdi, -8(%rbp)
	movq	-8(%rbp), %rax
	movl	(%rax), %eax
	popq	%rbp
	.cfi_def_cfa 7, 8
	ret
	.cfi_endproc
.LFE6840:
	.size	_ZNK5boost6system10error_code5valueEv, .-_ZNK5boost6system10error_code5valueEv
	.section	.text._ZNK5boost6system10error_code8categoryEv,"axG",@progbits,_ZNK5boost6system10error_code8categoryEv,comdat
	.align 2
	.weak	_ZNK5boost6system10error_code8categoryEv
	.type	_ZNK5boost6system10error_code8categoryEv, @function
_ZNK5boost6system10error_code8categoryEv:
.LFB6841:
	.cfi_startproc
	pushq	%rbp
	.cfi_def_cfa_offset 16
	.cfi_offset 6, -16
	movq	%rsp, %rbp
	.cfi_def_cfa_register 6
	movq	%rdi, -8(%rbp)
	movq	-8(%rbp), %rax
	movq	8(%rax), %rax
	popq	%rbp
	.cfi_def_cfa 7, 8
	ret
	.cfi_endproc
.LFE6841:
	.size	_ZNK5boost6system10error_code8categoryEv, .-_ZNK5boost6system10error_code8categoryEv
	.section	.text._ZNK5boost6system10error_code7messageB5cxx11Ev,"axG",@progbits,_ZNK5boost6system10error_code7messageB5cxx11Ev,comdat
	.align 2
	.weak	_ZNK5boost6system10error_code7messageB5cxx11Ev
	.type	_ZNK5boost6system10error_code7messageB5cxx11Ev, @function
_ZNK5boost6system10error_code7messageB5cxx11Ev:
.LFB6843:
	.cfi_startproc
	pushq	%rbp
	.cfi_def_cfa_offset 16
	.cfi_offset 6, -16
	movq	%rsp, %rbp
	.cfi_def_cfa_register 6
	pushq	%r12
	pushq	%rbx
	subq	$16, %rsp
	.cfi_offset 12, -24
	.cfi_offset 3, -32
	movq	%rdi, -24(%rbp)
	movq	%rsi, -32(%rbp)
	movq	-32(%rbp), %rax
	movq	8(%rax), %r12
	movq	-32(%rbp), %rax
	movq	8(%rax), %rax
	movq	(%rax), %rax
	addq	$32, %rax
	movq	(%rax), %rbx
	movq	-32(%rbp), %rax
	movq	%rax, %rdi
	call	_ZNK5boost6system10error_code5valueEv
	movl	%eax, %edx
	movq	-24(%rbp), %rax
	movq	%r12, %rsi
	movq	%rax, %rdi
	call	*%rbx
	movq	-24(%rbp), %rax
	addq	$16, %rsp
	popq	%rbx
	popq	%r12
	popq	%rbp
	.cfi_def_cfa 7, 8
	ret
	.cfi_endproc
.LFE6843:
	.size	_ZNK5boost6system10error_code7messageB5cxx11Ev, .-_ZNK5boost6system10error_code7messageB5cxx11Ev
	.section	.text._ZNK5boost6system14error_category23default_error_conditionEi,"axG",@progbits,_ZNK5boost6system14error_category23default_error_conditionEi,comdat
	.align 2
	.weak	_ZNK5boost6system14error_category23default_error_conditionEi
	.type	_ZNK5boost6system14error_category23default_error_conditionEi, @function
_ZNK5boost6system14error_category23default_error_conditionEi:
.LFB6862:
	.cfi_startproc
	pushq	%rbp
	.cfi_def_cfa_offset 16
	.cfi_offset 6, -16
	movq	%rsp, %rbp
	.cfi_def_cfa_register 6
	subq	$32, %rsp
	movq	%rdi, -24(%rbp)
	movl	%esi, -28(%rbp)
	movq	-24(%rbp), %rdx
	movl	-28(%rbp), %ecx
	leaq	-16(%rbp), %rax
	movl	%ecx, %esi
	movq	%rax, %rdi
	call	_ZN5boost6system15error_conditionC1EiRKNS0_14error_categoryE
	movq	-16(%rbp), %rax
	movq	-8(%rbp), %rdx
	leave
	.cfi_def_cfa 7, 8
	ret
	.cfi_endproc
.LFE6862:
	.size	_ZNK5boost6system14error_category23default_error_conditionEi, .-_ZNK5boost6system14error_category23default_error_conditionEi
	.section	.text._ZNK5boost6system14error_category10equivalentEiRKNS0_15error_conditionE,"axG",@progbits,_ZNK5boost6system14error_category10equivalentEiRKNS0_15error_conditionE,comdat
	.align 2
	.weak	_ZNK5boost6system14error_category10equivalentEiRKNS0_15error_conditionE
	.type	_ZNK5boost6system14error_category10equivalentEiRKNS0_15error_conditionE, @function
_ZNK5boost6system14error_category10equivalentEiRKNS0_15error_conditionE:
.LFB6863:
	.cfi_startproc
	pushq	%rbp
	.cfi_def_cfa_offset 16
	.cfi_offset 6, -16
	movq	%rsp, %rbp
	.cfi_def_cfa_register 6
	subq	$48, %rsp
	movq	%rdi, -24(%rbp)
	movl	%esi, -28(%rbp)
	movq	%rdx, -40(%rbp)
	movq	-24(%rbp), %rax
	movq	(%rax), %rax
	addq	$8, %rax
	movq	(%rax), %rax
	movl	-28(%rbp), %ecx
	movq	-24(%rbp), %rdx
	movl	%ecx, %esi
	movq	%rdx, %rdi
	call	*%rax
	movq	%rax, -16(%rbp)
	movq	%rdx, -8(%rbp)
	movq	-40(%rbp), %rdx
	leaq	-16(%rbp), %rax
	movq	%rdx, %rsi
	movq	%rax, %rdi
	call	_ZN5boost6systemeqERKNS0_15error_conditionES3_
	nop
	leave
	.cfi_def_cfa 7, 8
	ret
	.cfi_endproc
.LFE6863:
	.size	_ZNK5boost6system14error_category10equivalentEiRKNS0_15error_conditionE, .-_ZNK5boost6system14error_category10equivalentEiRKNS0_15error_conditionE
	.section	.text._ZNK5boost6system14error_category10equivalentERKNS0_10error_codeEi,"axG",@progbits,_ZNK5boost6system14error_category10equivalentERKNS0_10error_codeEi,comdat
	.align 2
	.weak	_ZNK5boost6system14error_category10equivalentERKNS0_10error_codeEi
	.type	_ZNK5boost6system14error_category10equivalentERKNS0_10error_codeEi, @function
_ZNK5boost6system14error_category10equivalentERKNS0_10error_codeEi:
.LFB6864:
	.cfi_startproc
	pushq	%rbp
	.cfi_def_cfa_offset 16
	.cfi_offset 6, -16
	movq	%rsp, %rbp
	.cfi_def_cfa_register 6
	subq	$32, %rsp
	movq	%rdi, -8(%rbp)
	movq	%rsi, -16(%rbp)
	movl	%edx, -20(%rbp)
	movq	-16(%rbp), %rax
	movq	%rax, %rdi
	call	_ZNK5boost6system10error_code8categoryEv
	movq	%rax, %rdx
	movq	-8(%rbp), %rax
	movq	%rdx, %rsi
	movq	%rax, %rdi
	call	_ZNK5boost6system14error_categoryeqERKS1_
	testb	%al, %al
	je	.L228
	movq	-16(%rbp), %rax
	movq	%rax, %rdi
	call	_ZNK5boost6system10error_code5valueEv
	cmpl	%eax, -20(%rbp)
	jne	.L228
	movl	$1, %eax
	jmp	.L229
.L228:
	movl	$0, %eax
.L229:
	leave
	.cfi_def_cfa 7, 8
	ret
	.cfi_endproc
.LFE6864:
	.size	_ZNK5boost6system14error_category10equivalentERKNS0_10error_codeEi, .-_ZNK5boost6system14error_category10equivalentERKNS0_10error_codeEi
	.section	.rodata
.LC6:
	.string	"Message text unavailable"
	.section	.text._ZNK5boost6system14error_category7messageEiPcm,"axG",@progbits,_ZNK5boost6system14error_category7messageEiPcm,comdat
	.align 2
	.weak	_ZNK5boost6system14error_category7messageEiPcm
	.type	_ZNK5boost6system14error_category7messageEiPcm, @function
_ZNK5boost6system14error_category7messageEiPcm:
.LFB6865:
	.cfi_startproc
	.cfi_personality 0x3,__gxx_personality_v0
	.cfi_lsda 0x3,.LLSDA6865
	pushq	%rbp
	.cfi_def_cfa_offset 16
	.cfi_offset 6, -16
	movq	%rsp, %rbp
	.cfi_def_cfa_register 6
	pushq	%rbx
	subq	$72, %rsp
	.cfi_offset 3, -24
	movq	%rdi, -56(%rbp)
	movl	%esi, -60(%rbp)
	movq	%rdx, -72(%rbp)
	movq	%rcx, -80(%rbp)
	cmpq	$0, -80(%rbp)
	jne	.L232
	movq	-72(%rbp), %rbx
	jmp	.L233
.L232:
	cmpq	$1, -80(%rbp)
	jne	.L234
	movq	-72(%rbp), %rax
	movb	$0, (%rax)
	movq	-72(%rbp), %rbx
	jmp	.L233
.L234:
	movq	-56(%rbp), %rax
	movq	(%rax), %rax
	addq	$32, %rax
	movq	(%rax), %rax
	leaq	-48(%rbp), %rcx
	movl	-60(%rbp), %edx
	movq	-56(%rbp), %rsi
	movq	%rcx, %rdi
.LEHB10:
	call	*%rax
.LEHE10:
	movq	-80(%rbp), %rax
	leaq	-1(%rax), %rbx
	leaq	-48(%rbp), %rax
	movq	%rax, %rdi
	call	_ZNKSt7__cxx1112basic_stringIcSt11char_traitsIcESaIcEE5c_strEv
	movq	%rax, %rcx
	movq	-72(%rbp), %rax
	movq	%rbx, %rdx
	movq	%rcx, %rsi
	movq	%rax, %rdi
	call	strncpy
	movq	-80(%rbp), %rax
	leaq	-1(%rax), %rdx
	movq	-72(%rbp), %rax
	addq	%rdx, %rax
	movb	$0, (%rax)
	movq	-72(%rbp), %rbx
	leaq	-48(%rbp), %rax
	movq	%rax, %rdi
	call	_ZNSt7__cxx1112basic_stringIcSt11char_traitsIcESaIcEED1Ev
.L233:
	movq	%rbx, %rax
	jmp	.L237
.L236:
	movq	%rax, %rdi
	call	__cxa_begin_catch
	movl	$.LC6, %ebx
	call	__cxa_end_catch
	jmp	.L233
.L237:
	addq	$72, %rsp
	popq	%rbx
	popq	%rbp
	.cfi_def_cfa 7, 8
	ret
	.cfi_endproc
.LFE6865:
	.section	.gcc_except_table._ZNK5boost6system14error_category7messageEiPcm,"aG",@progbits,_ZNK5boost6system14error_category7messageEiPcm,comdat
	.align 4
.LLSDA6865:
	.byte	0xff
	.byte	0x3
	.uleb128 .LLSDATT6865-.LLSDATTD6865
.LLSDATTD6865:
	.byte	0x1
	.uleb128 .LLSDACSE6865-.LLSDACSB6865
.LLSDACSB6865:
	.uleb128 .LEHB10-.LFB6865
	.uleb128 .LEHE10-.LEHB10
	.uleb128 .L236-.LFB6865
	.uleb128 0x1
.LLSDACSE6865:
	.byte	0x1
	.byte	0
	.align 4
	.long	0

.LLSDATT6865:
	.section	.text._ZNK5boost6system14error_category7messageEiPcm,"axG",@progbits,_ZNK5boost6system14error_category7messageEiPcm,comdat
	.size	_ZNK5boost6system14error_category7messageEiPcm, .-_ZNK5boost6system14error_category7messageEiPcm
	.section	.text._ZNK5boost6system14error_category6failedEi,"axG",@progbits,_ZNK5boost6system14error_category6failedEi,comdat
	.align 2
	.weak	_ZNK5boost6system14error_category6failedEi
	.type	_ZNK5boost6system14error_category6failedEi, @function
_ZNK5boost6system14error_category6failedEi:
.LFB6866:
	.cfi_startproc
	pushq	%rbp
	.cfi_def_cfa_offset 16
	.cfi_offset 6, -16
	movq	%rsp, %rbp
	.cfi_def_cfa_register 6
	movq	%rdi, -8(%rbp)
	movl	%esi, -12(%rbp)
	cmpl	$0, -12(%rbp)
	setne	%al
	popq	%rbp
	.cfi_def_cfa 7, 8
	ret
	.cfi_endproc
.LFE6866:
	.size	_ZNK5boost6system14error_category6failedEi, .-_ZNK5boost6system14error_category6failedEi
	.section	.text._ZN5boost6system6detail17strerror_r_helperEPKcS3_,"axG",@progbits,_ZN5boost6system6detail17strerror_r_helperEPKcS3_,comdat
	.weak	_ZN5boost6system6detail17strerror_r_helperEPKcS3_
	.type	_ZN5boost6system6detail17strerror_r_helperEPKcS3_, @function
_ZN5boost6system6detail17strerror_r_helperEPKcS3_:
.LFB6867:
	.cfi_startproc
	pushq	%rbp
	.cfi_def_cfa_offset 16
	.cfi_offset 6, -16
	movq	%rsp, %rbp
	.cfi_def_cfa_register 6
	movq	%rdi, -8(%rbp)
	movq	%rsi, -16(%rbp)
	movq	-8(%rbp), %rax
	popq	%rbp
	.cfi_def_cfa 7, 8
	ret
	.cfi_endproc
.LFE6867:
	.size	_ZN5boost6system6detail17strerror_r_helperEPKcS3_, .-_ZN5boost6system6detail17strerror_r_helperEPKcS3_
	.section	.text._ZN5boost6system6detail30generic_error_category_messageEiPcm,"axG",@progbits,_ZN5boost6system6detail30generic_error_category_messageEiPcm,comdat
	.weak	_ZN5boost6system6detail30generic_error_category_messageEiPcm
	.type	_ZN5boost6system6detail30generic_error_category_messageEiPcm, @function
_ZN5boost6system6detail30generic_error_category_messageEiPcm:
.LFB6869:
	.cfi_startproc
	pushq	%rbp
	.cfi_def_cfa_offset 16
	.cfi_offset 6, -16
	movq	%rsp, %rbp
	.cfi_def_cfa_register 6
	subq	$32, %rsp
	movl	%edi, -4(%rbp)
	movq	%rsi, -16(%rbp)
	movq	%rdx, -24(%rbp)
	movq	-24(%rbp), %rdx
	movq	-16(%rbp), %rcx
	movl	-4(%rbp), %eax
	movq	%rcx, %rsi
	movl	%eax, %edi
	call	strerror_r
	movq	%rax, %rdx
	movq	-16(%rbp), %rax
	movq	%rax, %rsi
	movq	%rdx, %rdi
	call	_ZN5boost6system6detail17strerror_r_helperEPKcS3_
	leave
	.cfi_def_cfa 7, 8
	ret
	.cfi_endproc
.LFE6869:
	.size	_ZN5boost6system6detail30generic_error_category_messageEiPcm, .-_ZN5boost6system6detail30generic_error_category_messageEiPcm
	.section	.text._ZN5boost6system6detail30generic_error_category_messageB5cxx11Ei,"axG",@progbits,_ZN5boost6system6detail30generic_error_category_messageB5cxx11Ei,comdat
	.weak	_ZN5boost6system6detail30generic_error_category_messageB5cxx11Ei
	.type	_ZN5boost6system6detail30generic_error_category_messageB5cxx11Ei, @function
_ZN5boost6system6detail30generic_error_category_messageB5cxx11Ei:
.LFB6870:
	.cfi_startproc
	.cfi_personality 0x3,__gxx_personality_v0
	.cfi_lsda 0x3,.LLSDA6870
	pushq	%rbp
	.cfi_def_cfa_offset 16
	.cfi_offset 6, -16
	movq	%rsp, %rbp
	.cfi_def_cfa_register 6
	pushq	%rbx
	subq	$168, %rsp
	.cfi_offset 3, -24
	movq	%rdi, -168(%rbp)
	movl	%esi, -172(%rbp)
	leaq	-17(%rbp), %rax
	movq	%rax, %rdi
	call	_ZNSaIcEC1Ev
	leaq	-160(%rbp), %rcx
	movl	-172(%rbp), %eax
	movl	$128, %edx
	movq	%rcx, %rsi
	movl	%eax, %edi
	call	_ZN5boost6system6detail30generic_error_category_messageEiPcm
	movq	%rax, %rcx
	leaq	-17(%rbp), %rdx
	movq	-168(%rbp), %rax
	movq	%rcx, %rsi
	movq	%rax, %rdi
.LEHB11:
	call	_ZNSt7__cxx1112basic_stringIcSt11char_traitsIcESaIcEEC1EPKcRKS3_
.LEHE11:
	leaq	-17(%rbp), %rax
	movq	%rax, %rdi
	call	_ZNSaIcED1Ev
	jmp	.L248
.L247:
	movq	%rax, %rbx
	leaq	-17(%rbp), %rax
	movq	%rax, %rdi
	call	_ZNSaIcED1Ev
	movq	%rbx, %rax
	movq	%rax, %rdi
.LEHB12:
	call	_Unwind_Resume
.LEHE12:
.L248:
	movq	-168(%rbp), %rax
	addq	$168, %rsp
	popq	%rbx
	popq	%rbp
	.cfi_def_cfa 7, 8
	ret
	.cfi_endproc
.LFE6870:
	.section	.gcc_except_table._ZN5boost6system6detail30generic_error_category_messageB5cxx11Ei,"aG",@progbits,_ZN5boost6system6detail30generic_error_category_messageB5cxx11Ei,comdat
.LLSDA6870:
	.byte	0xff
	.byte	0xff
	.byte	0x1
	.uleb128 .LLSDACSE6870-.LLSDACSB6870
.LLSDACSB6870:
	.uleb128 .LEHB11-.LFB6870
	.uleb128 .LEHE11-.LEHB11
	.uleb128 .L247-.LFB6870
	.uleb128 0
	.uleb128 .LEHB12-.LFB6870
	.uleb128 .LEHE12-.LEHB12
	.uleb128 0
	.uleb128 0
.LLSDACSE6870:
	.section	.text._ZN5boost6system6detail30generic_error_category_messageB5cxx11Ei,"axG",@progbits,_ZN5boost6system6detail30generic_error_category_messageB5cxx11Ei,comdat
	.size	_ZN5boost6system6detail30generic_error_category_messageB5cxx11Ei, .-_ZN5boost6system6detail30generic_error_category_messageB5cxx11Ei
	.section	.text._ZNK5boost6system6detail22generic_error_category7messageB5cxx11Ei,"axG",@progbits,_ZNK5boost6system6detail22generic_error_category7messageB5cxx11Ei,comdat
	.align 2
	.weak	_ZNK5boost6system6detail22generic_error_category7messageB5cxx11Ei
	.type	_ZNK5boost6system6detail22generic_error_category7messageB5cxx11Ei, @function
_ZNK5boost6system6detail22generic_error_category7messageB5cxx11Ei:
.LFB6871:
	.cfi_startproc
	pushq	%rbp
	.cfi_def_cfa_offset 16
	.cfi_offset 6, -16
	movq	%rsp, %rbp
	.cfi_def_cfa_register 6
	subq	$32, %rsp
	movq	%rdi, -8(%rbp)
	movq	%rsi, -16(%rbp)
	movl	%edx, -20(%rbp)
	movq	-8(%rbp), %rax
	movl	-20(%rbp), %edx
	movl	%edx, %esi
	movq	%rax, %rdi
	call	_ZN5boost6system6detail30generic_error_category_messageB5cxx11Ei
	movq	-8(%rbp), %rax
	leave
	.cfi_def_cfa 7, 8
	ret
	.cfi_endproc
.LFE6871:
	.size	_ZNK5boost6system6detail22generic_error_category7messageB5cxx11Ei, .-_ZNK5boost6system6detail22generic_error_category7messageB5cxx11Ei
	.section	.text._ZNK5boost6system6detail22generic_error_category7messageEiPcm,"axG",@progbits,_ZNK5boost6system6detail22generic_error_category7messageEiPcm,comdat
	.align 2
	.weak	_ZNK5boost6system6detail22generic_error_category7messageEiPcm
	.type	_ZNK5boost6system6detail22generic_error_category7messageEiPcm, @function
_ZNK5boost6system6detail22generic_error_category7messageEiPcm:
.LFB6872:
	.cfi_startproc
	pushq	%rbp
	.cfi_def_cfa_offset 16
	.cfi_offset 6, -16
	movq	%rsp, %rbp
	.cfi_def_cfa_register 6
	subq	$32, %rsp
	movq	%rdi, -8(%rbp)
	movl	%esi, -12(%rbp)
	movq	%rdx, -24(%rbp)
	movq	%rcx, -32(%rbp)
	movq	-32(%rbp), %rdx
	movq	-24(%rbp), %rcx
	movl	-12(%rbp), %eax
	movq	%rcx, %rsi
	movl	%eax, %edi
	call	_ZN5boost6system6detail30generic_error_category_messageEiPcm
	leave
	.cfi_def_cfa 7, 8
	ret
	.cfi_endproc
.LFE6872:
	.size	_ZNK5boost6system6detail22generic_error_category7messageEiPcm, .-_ZNK5boost6system6detail22generic_error_category7messageEiPcm
	.weak	_ZZN5boost6system6detail16is_generic_valueEiE3gen
	.section	.rodata._ZZN5boost6system6detail16is_generic_valueEiE3gen,"aG",@progbits,_ZZN5boost6system6detail16is_generic_valueEiE3gen,comdat
	.align 32
	.type	_ZZN5boost6system6detail16is_generic_valueEiE3gen, @gnu_unique_object
	.size	_ZZN5boost6system6detail16is_generic_valueEiE3gen, 316
_ZZN5boost6system6detail16is_generic_valueEiE3gen:
	.long	0
	.long	97
	.long	98
	.long	99
	.long	106
	.long	7
	.long	33
	.long	14
	.long	9
	.long	74
	.long	32
	.long	103
	.long	114
	.long	111
	.long	104
	.long	18
	.long	89
	.long	16
	.long	39
	.long	8
	.long	17
	.long	27
	.long	36
	.long	38
	.long	113
	.long	43
	.long	84
	.long	25
	.long	4
	.long	22
	.long	29
	.long	5
	.long	21
	.long	90
	.long	100
	.long	102
	.long	101
	.long	105
	.long	10
	.long	67
	.long	37
	.long	61
	.long	42
	.long	92
	.long	28
	.long	63
	.long	6
	.long	19
	.long	2
	.long	3
	.long	20
	.long	88
	.long	60
	.long	107
	.long	12
	.long	95
	.long	125
	.long	115
	.long	1
	.long	95
	.long	11
	.long	130
	.long	13
	.long	71
	.long	93
	.long	30
	.long	35
	.long	11
	.long	34
	.long	131
	.long	62
	.long	26
	.long	110
	.long	23
	.long	24
	.long	31
	.long	40
	.long	75
	.long	91
	.section	.text._ZN5boost6system6detail16is_generic_valueEi,"axG",@progbits,_ZN5boost6system6detail16is_generic_valueEi,comdat
	.weak	_ZN5boost6system6detail16is_generic_valueEi
	.type	_ZN5boost6system6detail16is_generic_valueEi, @function
_ZN5boost6system6detail16is_generic_valueEi:
.LFB6873:
	.cfi_startproc
	pushq	%rbp
	.cfi_def_cfa_offset 16
	.cfi_offset 6, -16
	movq	%rsp, %rbp
	.cfi_def_cfa_register 6
	movl	%edi, -20(%rbp)
	movl	$79, -8(%rbp)
	movl	$0, -4(%rbp)
.L257:
	cmpl	$78, -4(%rbp)
	jg	.L254
	movl	-4(%rbp), %eax
	cltq
	movl	_ZZN5boost6system6detail16is_generic_valueEiE3gen(,%rax,4), %eax
	cmpl	%eax, -20(%rbp)
	jne	.L255
	movl	$1, %eax
	jmp	.L256
.L255:
	addl	$1, -4(%rbp)
	jmp	.L257
.L254:
	movl	$0, %eax
.L256:
	popq	%rbp
	.cfi_def_cfa 7, 8
	ret
	.cfi_endproc
.LFE6873:
	.size	_ZN5boost6system6detail16is_generic_valueEi, .-_ZN5boost6system6detail16is_generic_valueEi
	.section	.text._ZN5boost6system6detail45system_category_default_error_condition_posixEi,"axG",@progbits,_ZN5boost6system6detail45system_category_default_error_condition_posixEi,comdat
	.weak	_ZN5boost6system6detail45system_category_default_error_condition_posixEi
	.type	_ZN5boost6system6detail45system_category_default_error_condition_posixEi, @function
_ZN5boost6system6detail45system_category_default_error_condition_posixEi:
.LFB6874:
	.cfi_startproc
	pushq	%rbp
	.cfi_def_cfa_offset 16
	.cfi_offset 6, -16
	movq	%rsp, %rbp
	.cfi_def_cfa_register 6
	subq	$48, %rsp
	movl	%edi, -36(%rbp)
	movl	-36(%rbp), %eax
	movl	%eax, %edi
	call	_ZN5boost6system6detail16is_generic_valueEi
	testb	%al, %al
	je	.L259
	call	_ZN5boost6system16generic_categoryEv
	movq	%rax, %rdx
	movl	-36(%rbp), %ecx
	leaq	-32(%rbp), %rax
	movl	%ecx, %esi
	movq	%rax, %rdi
	call	_ZN5boost6system15error_conditionC1EiRKNS0_14error_categoryE
	movq	-32(%rbp), %rax
	movq	-24(%rbp), %rdx
	jmp	.L260
.L259:
	call	_ZN5boost6system15system_categoryEv
	movq	%rax, %rdx
	movl	-36(%rbp), %ecx
	leaq	-16(%rbp), %rax
	movl	%ecx, %esi
	movq	%rax, %rdi
	call	_ZN5boost6system15error_conditionC1EiRKNS0_14error_categoryE
	movq	-16(%rbp), %rax
	movq	-8(%rbp), %rdx
.L260:
	leave
	.cfi_def_cfa 7, 8
	ret
	.cfi_endproc
.LFE6874:
	.size	_ZN5boost6system6detail45system_category_default_error_condition_posixEi, .-_ZN5boost6system6detail45system_category_default_error_condition_posixEi
	.section	.text._ZNK5boost6system6detail21system_error_category23default_error_conditionEi,"axG",@progbits,_ZNK5boost6system6detail21system_error_category23default_error_conditionEi,comdat
	.align 2
	.weak	_ZNK5boost6system6detail21system_error_category23default_error_conditionEi
	.type	_ZNK5boost6system6detail21system_error_category23default_error_conditionEi, @function
_ZNK5boost6system6detail21system_error_category23default_error_conditionEi:
.LFB6875:
	.cfi_startproc
	pushq	%rbp
	.cfi_def_cfa_offset 16
	.cfi_offset 6, -16
	movq	%rsp, %rbp
	.cfi_def_cfa_register 6
	subq	$16, %rsp
	movq	%rdi, -8(%rbp)
	movl	%esi, -12(%rbp)
	movl	-12(%rbp), %eax
	movl	%eax, %edi
	call	_ZN5boost6system6detail45system_category_default_error_condition_posixEi
	leave
	.cfi_def_cfa 7, 8
	ret
	.cfi_endproc
.LFE6875:
	.size	_ZNK5boost6system6detail21system_error_category23default_error_conditionEi, .-_ZNK5boost6system6detail21system_error_category23default_error_conditionEi
	.section	.text._ZNK5boost6system6detail21system_error_category7messageB5cxx11Ei,"axG",@progbits,_ZNK5boost6system6detail21system_error_category7messageB5cxx11Ei,comdat
	.align 2
	.weak	_ZNK5boost6system6detail21system_error_category7messageB5cxx11Ei
	.type	_ZNK5boost6system6detail21system_error_category7messageB5cxx11Ei, @function
_ZNK5boost6system6detail21system_error_category7messageB5cxx11Ei:
.LFB6876:
	.cfi_startproc
	pushq	%rbp
	.cfi_def_cfa_offset 16
	.cfi_offset 6, -16
	movq	%rsp, %rbp
	.cfi_def_cfa_register 6
	subq	$32, %rsp
	movq	%rdi, -8(%rbp)
	movq	%rsi, -16(%rbp)
	movl	%edx, -20(%rbp)
	movq	-8(%rbp), %rax
	movl	-20(%rbp), %edx
	movl	%edx, %esi
	movq	%rax, %rdi
	call	_ZN5boost6system6detail30generic_error_category_messageB5cxx11Ei
	movq	-8(%rbp), %rax
	leave
	.cfi_def_cfa 7, 8
	ret
	.cfi_endproc
.LFE6876:
	.size	_ZNK5boost6system6detail21system_error_category7messageB5cxx11Ei, .-_ZNK5boost6system6detail21system_error_category7messageB5cxx11Ei
	.section	.text._ZNK5boost6system6detail21system_error_category7messageEiPcm,"axG",@progbits,_ZNK5boost6system6detail21system_error_category7messageEiPcm,comdat
	.align 2
	.weak	_ZNK5boost6system6detail21system_error_category7messageEiPcm
	.type	_ZNK5boost6system6detail21system_error_category7messageEiPcm, @function
_ZNK5boost6system6detail21system_error_category7messageEiPcm:
.LFB6877:
	.cfi_startproc
	pushq	%rbp
	.cfi_def_cfa_offset 16
	.cfi_offset 6, -16
	movq	%rsp, %rbp
	.cfi_def_cfa_register 6
	subq	$32, %rsp
	movq	%rdi, -8(%rbp)
	movl	%esi, -12(%rbp)
	movq	%rdx, -24(%rbp)
	movq	%rcx, -32(%rbp)
	movq	-32(%rbp), %rdx
	movq	-24(%rbp), %rcx
	movl	-12(%rbp), %eax
	movq	%rcx, %rsi
	movl	%eax, %edi
	call	_ZN5boost6system6detail30generic_error_category_messageEiPcm
	leave
	.cfi_def_cfa 7, 8
	ret
	.cfi_endproc
.LFE6877:
	.size	_ZNK5boost6system6detail21system_error_category7messageEiPcm, .-_ZNK5boost6system6detail21system_error_category7messageEiPcm
	.section	.text._ZNSt5mutex4lockEv,"axG",@progbits,_ZNSt5mutex4lockEv,comdat
	.align 2
	.weak	_ZNSt5mutex4lockEv
	.type	_ZNSt5mutex4lockEv, @function
_ZNSt5mutex4lockEv:
.LFB6961:
	.cfi_startproc
	pushq	%rbp
	.cfi_def_cfa_offset 16
	.cfi_offset 6, -16
	movq	%rsp, %rbp
	.cfi_def_cfa_register 6
	subq	$32, %rsp
	movq	%rdi, -24(%rbp)
	movq	-24(%rbp), %rax
	movq	%rax, %rdi
	call	_ZL20__gthread_mutex_lockP15pthread_mutex_t
	movl	%eax, -4(%rbp)
	cmpl	$0, -4(%rbp)
	je	.L269
	movl	-4(%rbp), %eax
	movl	%eax, %edi
	call	_ZSt20__throw_system_errori
.L269:
	nop
	leave
	.cfi_def_cfa 7, 8
	ret
	.cfi_endproc
.LFE6961:
	.size	_ZNSt5mutex4lockEv, .-_ZNSt5mutex4lockEv
	.section	.text._ZNSt5mutex6unlockEv,"axG",@progbits,_ZNSt5mutex6unlockEv,comdat
	.align 2
	.weak	_ZNSt5mutex6unlockEv
	.type	_ZNSt5mutex6unlockEv, @function
_ZNSt5mutex6unlockEv:
.LFB6963:
	.cfi_startproc
	pushq	%rbp
	.cfi_def_cfa_offset 16
	.cfi_offset 6, -16
	movq	%rsp, %rbp
	.cfi_def_cfa_register 6
	subq	$16, %rsp
	movq	%rdi, -8(%rbp)
	movq	-8(%rbp), %rax
	movq	%rax, %rdi
	call	_ZL22__gthread_mutex_unlockP15pthread_mutex_t
	nop
	leave
	.cfi_def_cfa 7, 8
	ret
	.cfi_endproc
.LFE6963:
	.size	_ZNSt5mutex6unlockEv, .-_ZNSt5mutex6unlockEv
	.section	.rodata
	.type	_ZStL10defer_lock, @object
	.size	_ZStL10defer_lock, 1
_ZStL10defer_lock:
	.zero	1
	.type	_ZStL11try_to_lock, @object
	.size	_ZStL11try_to_lock, 1
_ZStL11try_to_lock:
	.zero	1
	.type	_ZStL10adopt_lock, @object
	.size	_ZStL10adopt_lock, 1
_ZStL10adopt_lock:
	.zero	1
	.section	.text._ZNSt3_V214error_categoryC2Ev,"axG",@progbits,_ZNSt3_V214error_categoryC5Ev,comdat
	.align 2
	.weak	_ZNSt3_V214error_categoryC2Ev
	.type	_ZNSt3_V214error_categoryC2Ev, @function
_ZNSt3_V214error_categoryC2Ev:
.LFB7020:
	.cfi_startproc
	pushq	%rbp
	.cfi_def_cfa_offset 16
	.cfi_offset 6, -16
	movq	%rsp, %rbp
	.cfi_def_cfa_register 6
	movq	%rdi, -8(%rbp)
	movl	$_ZTVNSt3_V214error_categoryE+16, %edx
	movq	-8(%rbp), %rax
	movq	%rdx, (%rax)
	nop
	popq	%rbp
	.cfi_def_cfa 7, 8
	ret
	.cfi_endproc
.LFE7020:
	.size	_ZNSt3_V214error_categoryC2Ev, .-_ZNSt3_V214error_categoryC2Ev
	.weak	_ZNSt3_V214error_categoryC1Ev
	.set	_ZNSt3_V214error_categoryC1Ev,_ZNSt3_V214error_categoryC2Ev
	.section	.text._ZN5boost6system6detail12std_categoryC2EPKNS0_14error_categoryEj,"axG",@progbits,_ZN5boost6system6detail12std_categoryC5EPKNS0_14error_categoryEj,comdat
	.align 2
	.weak	_ZN5boost6system6detail12std_categoryC2EPKNS0_14error_categoryEj
	.type	_ZN5boost6system6detail12std_categoryC2EPKNS0_14error_categoryEj, @function
_ZN5boost6system6detail12std_categoryC2EPKNS0_14error_categoryEj:
.LFB7022:
	.cfi_startproc
	pushq	%rbp
	.cfi_def_cfa_offset 16
	.cfi_offset 6, -16
	movq	%rsp, %rbp
	.cfi_def_cfa_register 6
	subq	$32, %rsp
	movq	%rdi, -8(%rbp)
	movq	%rsi, -16(%rbp)
	movl	%edx, -20(%rbp)
	movq	-8(%rbp), %rax
	movq	%rax, %rdi
	call	_ZNSt3_V214error_categoryC2Ev
	movl	$_ZTVN5boost6system6detail12std_categoryE+16, %edx
	movq	-8(%rbp), %rax
	movq	%rdx, (%rax)
	movq	-8(%rbp), %rax
	movq	-16(%rbp), %rdx
	movq	%rdx, 8(%rax)
	nop
	leave
	.cfi_def_cfa 7, 8
	ret
	.cfi_endproc
.LFE7022:
	.size	_ZN5boost6system6detail12std_categoryC2EPKNS0_14error_categoryEj, .-_ZN5boost6system6detail12std_categoryC2EPKNS0_14error_categoryEj
	.weak	_ZN5boost6system6detail12std_categoryC1EPKNS0_14error_categoryEj
	.set	_ZN5boost6system6detail12std_categoryC1EPKNS0_14error_categoryEj,_ZN5boost6system6detail12std_categoryC2EPKNS0_14error_categoryEj
	.section	.text._ZNK5boost6system6detail12std_category4nameEv,"axG",@progbits,_ZNK5boost6system6detail12std_category4nameEv,comdat
	.align 2
	.weak	_ZNK5boost6system6detail12std_category4nameEv
	.type	_ZNK5boost6system6detail12std_category4nameEv, @function
_ZNK5boost6system6detail12std_category4nameEv:
.LFB7024:
	.cfi_startproc
	pushq	%rbp
	.cfi_def_cfa_offset 16
	.cfi_offset 6, -16
	movq	%rsp, %rbp
	.cfi_def_cfa_register 6
	subq	$16, %rsp
	movq	%rdi, -8(%rbp)
	movq	-8(%rbp), %rax
	movq	8(%rax), %rdx
	movq	-8(%rbp), %rax
	movq	8(%rax), %rax
	movq	(%rax), %rax
	movq	(%rax), %rax
	movq	%rdx, %rdi
	call	*%rax
	leave
	.cfi_def_cfa 7, 8
	ret
	.cfi_endproc
.LFE7024:
	.size	_ZNK5boost6system6detail12std_category4nameEv, .-_ZNK5boost6system6detail12std_category4nameEv
	.section	.text._ZNK5boost6system6detail12std_category7messageB5cxx11Ei,"axG",@progbits,_ZNK5boost6system6detail12std_category7messageB5cxx11Ei,comdat
	.align 2
	.weak	_ZNK5boost6system6detail12std_category7messageB5cxx11Ei
	.type	_ZNK5boost6system6detail12std_category7messageB5cxx11Ei, @function
_ZNK5boost6system6detail12std_category7messageB5cxx11Ei:
.LFB7025:
	.cfi_startproc
	pushq	%rbp
	.cfi_def_cfa_offset 16
	.cfi_offset 6, -16
	movq	%rsp, %rbp
	.cfi_def_cfa_register 6
	subq	$32, %rsp
	movq	%rdi, -8(%rbp)
	movq	%rsi, -16(%rbp)
	movl	%edx, -20(%rbp)
	movq	-16(%rbp), %rax
	movq	8(%rax), %rsi
	movq	-16(%rbp), %rax
	movq	8(%rax), %rax
	movq	(%rax), %rax
	addq	$32, %rax
	movq	(%rax), %rax
	movq	-8(%rbp), %rcx
	movl	-20(%rbp), %edx
	movq	%rcx, %rdi
	call	*%rax
	movq	-8(%rbp), %rax
	leave
	.cfi_def_cfa 7, 8
	ret
	.cfi_endproc
.LFE7025:
	.size	_ZNK5boost6system6detail12std_category7messageB5cxx11Ei, .-_ZNK5boost6system6detail12std_category7messageB5cxx11Ei
	.section	.text._ZNK5boost6system6detail12std_category23default_error_conditionEi,"axG",@progbits,_ZNK5boost6system6detail12std_category23default_error_conditionEi,comdat
	.align 2
	.weak	_ZNK5boost6system6detail12std_category23default_error_conditionEi
	.type	_ZNK5boost6system6detail12std_category23default_error_conditionEi, @function
_ZNK5boost6system6detail12std_category23default_error_conditionEi:
.LFB7026:
	.cfi_startproc
	.cfi_personality 0x3,__gxx_personality_v0
	.cfi_lsda 0x3,.LLSDA7026
	pushq	%rbp
	.cfi_def_cfa_offset 16
	.cfi_offset 6, -16
	movq	%rsp, %rbp
	.cfi_def_cfa_register 6
	pushq	%rbx
	subq	$40, %rsp
	.cfi_offset 3, -24
	movq	%rdi, -40(%rbp)
	movl	%esi, -44(%rbp)
	movq	-40(%rbp), %rax
	movq	8(%rax), %rdx
	movq	-40(%rbp), %rax
	movq	8(%rax), %rax
	movq	(%rax), %rax
	addq	$8, %rax
	movq	(%rax), %rax
	movl	-44(%rbp), %ecx
	movl	%ecx, %esi
	movq	%rdx, %rdi
	call	*%rax
	movq	%rax, -32(%rbp)
	movq	%rdx, -24(%rbp)
	leaq	-32(%rbp), %rax
	movq	%rax, %rdi
	call	_ZNK5boost6system15error_conditioncvSt15error_conditionEv
	movq	%rdx, %rcx
	movq	%rcx, %rdx
	movq	%rax, %rcx
	movq	%rdx, %rbx
	movl	%ecx, %eax
	addq	$40, %rsp
	popq	%rbx
	popq	%rbp
	.cfi_def_cfa 7, 8
	ret
	.cfi_endproc
.LFE7026:
	.section	.gcc_except_table._ZNK5boost6system6detail12std_category23default_error_conditionEi,"aG",@progbits,_ZNK5boost6system6detail12std_category23default_error_conditionEi,comdat
.LLSDA7026:
	.byte	0xff
	.byte	0xff
	.byte	0x1
	.uleb128 .LLSDACSE7026-.LLSDACSB7026
.LLSDACSB7026:
.LLSDACSE7026:
	.section	.text._ZNK5boost6system6detail12std_category23default_error_conditionEi,"axG",@progbits,_ZNK5boost6system6detail12std_category23default_error_conditionEi,comdat
	.size	_ZNK5boost6system6detail12std_category23default_error_conditionEi, .-_ZNK5boost6system6detail12std_category23default_error_conditionEi
	.section	.text._ZNK5boost6system6detail12cat_ptr_lessclEPKNS0_14error_categoryES5_,"axG",@progbits,_ZNK5boost6system6detail12cat_ptr_lessclEPKNS0_14error_categoryES5_,comdat
	.align 2
	.weak	_ZNK5boost6system6detail12cat_ptr_lessclEPKNS0_14error_categoryES5_
	.type	_ZNK5boost6system6detail12cat_ptr_lessclEPKNS0_14error_categoryES5_, @function
_ZNK5boost6system6detail12cat_ptr_lessclEPKNS0_14error_categoryES5_:
.LFB7027:
	.cfi_startproc
	pushq	%rbp
	.cfi_def_cfa_offset 16
	.cfi_offset 6, -16
	movq	%rsp, %rbp
	.cfi_def_cfa_register 6
	subq	$32, %rsp
	movq	%rdi, -8(%rbp)
	movq	%rsi, -16(%rbp)
	movq	%rdx, -24(%rbp)
	movq	-24(%rbp), %rdx
	movq	-16(%rbp), %rax
	movq	%rdx, %rsi
	movq	%rax, %rdi
	call	_ZNK5boost6system14error_categoryltERKS1_
	leave
	.cfi_def_cfa 7, 8
	ret
	.cfi_endproc
.LFE7027:
	.size	_ZNK5boost6system6detail12cat_ptr_lessclEPKNS0_14error_categoryES5_, .-_ZNK5boost6system6detail12cat_ptr_lessclEPKNS0_14error_categoryES5_
	.weak	_ZZN5boost6system6detail15to_std_categoryERKNS0_14error_categoryEE15system_instance
	.section	.bss._ZZN5boost6system6detail15to_std_categoryERKNS0_14error_categoryEE15system_instance,"awG",@nobits,_ZZN5boost6system6detail15to_std_categoryERKNS0_14error_categoryEE15system_instance,comdat
	.align 16
	.type	_ZZN5boost6system6detail15to_std_categoryERKNS0_14error_categoryEE15system_instance, @gnu_unique_object
	.size	_ZZN5boost6system6detail15to_std_categoryERKNS0_14error_categoryEE15system_instance, 16
_ZZN5boost6system6detail15to_std_categoryERKNS0_14error_categoryEE15system_instance:
	.zero	16
	.weak	_ZGVZN5boost6system6detail15to_std_categoryERKNS0_14error_categoryEE15system_instance
	.section	.bss._ZGVZN5boost6system6detail15to_std_categoryERKNS0_14error_categoryEE15system_instance,"awG",@nobits,_ZGVZN5boost6system6detail15to_std_categoryERKNS0_14error_categoryEE15system_instance,comdat
	.align 8
	.type	_ZGVZN5boost6system6detail15to_std_categoryERKNS0_14error_categoryEE15system_instance, @gnu_unique_object
	.size	_ZGVZN5boost6system6detail15to_std_categoryERKNS0_14error_categoryEE15system_instance, 8
_ZGVZN5boost6system6detail15to_std_categoryERKNS0_14error_categoryEE15system_instance:
	.zero	8
	.weak	_ZZN5boost6system6detail15to_std_categoryERKNS0_14error_categoryEE16generic_instance
	.section	.bss._ZZN5boost6system6detail15to_std_categoryERKNS0_14error_categoryEE16generic_instance,"awG",@nobits,_ZZN5boost6system6detail15to_std_categoryERKNS0_14error_categoryEE16generic_instance,comdat
	.align 16
	.type	_ZZN5boost6system6detail15to_std_categoryERKNS0_14error_categoryEE16generic_instance, @gnu_unique_object
	.size	_ZZN5boost6system6detail15to_std_categoryERKNS0_14error_categoryEE16generic_instance, 16
_ZZN5boost6system6detail15to_std_categoryERKNS0_14error_categoryEE16generic_instance:
	.zero	16
	.weak	_ZGVZN5boost6system6detail15to_std_categoryERKNS0_14error_categoryEE16generic_instance
	.section	.bss._ZGVZN5boost6system6detail15to_std_categoryERKNS0_14error_categoryEE16generic_instance,"awG",@nobits,_ZGVZN5boost6system6detail15to_std_categoryERKNS0_14error_categoryEE16generic_instance,comdat
	.align 8
	.type	_ZGVZN5boost6system6detail15to_std_categoryERKNS0_14error_categoryEE16generic_instance, @gnu_unique_object
	.size	_ZGVZN5boost6system6detail15to_std_categoryERKNS0_14error_categoryEE16generic_instance, 8
_ZGVZN5boost6system6detail15to_std_categoryERKNS0_14error_categoryEE16generic_instance:
	.zero	8
	.weak	_ZZN5boost6system6detail15to_std_categoryERKNS0_14error_categoryEE4map_
	.section	.bss._ZZN5boost6system6detail15to_std_categoryERKNS0_14error_categoryEE4map_,"awG",@nobits,_ZZN5boost6system6detail15to_std_categoryERKNS0_14error_categoryEE4map_,comdat
	.align 32
	.type	_ZZN5boost6system6detail15to_std_categoryERKNS0_14error_categoryEE4map_, @gnu_unique_object
	.size	_ZZN5boost6system6detail15to_std_categoryERKNS0_14error_categoryEE4map_, 48
_ZZN5boost6system6detail15to_std_categoryERKNS0_14error_categoryEE4map_:
	.zero	48
	.section	.text._ZNSt8_Rb_treeIPKN5boost6system14error_categoryESt4pairIKS4_St10unique_ptrINS1_6detail12std_categoryESt14default_deleteIS9_EEESt10_Select1stISD_ENS8_12cat_ptr_lessESaISD_EE13_Rb_tree_implISG_Lb1EED2Ev,"axG",@progbits,_ZNSt8_Rb_treeIPKN5boost6system14error_categoryESt4pairIKS4_St10unique_ptrINS1_6detail12std_categoryESt14default_deleteIS9_EEESt10_Select1stISD_ENS8_12cat_ptr_lessESaISD_EE13_Rb_tree_implISG_Lb1EED5Ev,comdat
	.align 2
	.weak	_ZNSt8_Rb_treeIPKN5boost6system14error_categoryESt4pairIKS4_St10unique_ptrINS1_6detail12std_categoryESt14default_deleteIS9_EEESt10_Select1stISD_ENS8_12cat_ptr_lessESaISD_EE13_Rb_tree_implISG_Lb1EED2Ev
	.type	_ZNSt8_Rb_treeIPKN5boost6system14error_categoryESt4pairIKS4_St10unique_ptrINS1_6detail12std_categoryESt14default_deleteIS9_EEESt10_Select1stISD_ENS8_12cat_ptr_lessESaISD_EE13_Rb_tree_implISG_Lb1EED2Ev, @function
_ZNSt8_Rb_treeIPKN5boost6system14error_categoryESt4pairIKS4_St10unique_ptrINS1_6detail12std_categoryESt14default_deleteIS9_EEESt10_Select1stISD_ENS8_12cat_ptr_lessESaISD_EE13_Rb_tree_implISG_Lb1EED2Ev:
.LFB7032:
	.cfi_startproc
	pushq	%rbp
	.cfi_def_cfa_offset 16
	.cfi_offset 6, -16
	movq	%rsp, %rbp
	.cfi_def_cfa_register 6
	subq	$16, %rsp
	movq	%rdi, -8(%rbp)
	movq	-8(%rbp), %rax
	movq	%rax, %rdi
	call	_ZNSaISt13_Rb_tree_nodeISt4pairIKPKN5boost6system14error_categoryESt10unique_ptrINS2_6detail12std_categoryESt14default_deleteIS9_EEEEED2Ev
	nop
	leave
	.cfi_def_cfa 7, 8
	ret
	.cfi_endproc
.LFE7032:
	.size	_ZNSt8_Rb_treeIPKN5boost6system14error_categoryESt4pairIKS4_St10unique_ptrINS1_6detail12std_categoryESt14default_deleteIS9_EEESt10_Select1stISD_ENS8_12cat_ptr_lessESaISD_EE13_Rb_tree_implISG_Lb1EED2Ev, .-_ZNSt8_Rb_treeIPKN5boost6system14error_categoryESt4pairIKS4_St10unique_ptrINS1_6detail12std_categoryESt14default_deleteIS9_EEESt10_Select1stISD_ENS8_12cat_ptr_lessESaISD_EE13_Rb_tree_implISG_Lb1EED2Ev
	.weak	_ZNSt8_Rb_treeIPKN5boost6system14error_categoryESt4pairIKS4_St10unique_ptrINS1_6detail12std_categoryESt14default_deleteIS9_EEESt10_Select1stISD_ENS8_12cat_ptr_lessESaISD_EE13_Rb_tree_implISG_Lb1EED1Ev
	.set	_ZNSt8_Rb_treeIPKN5boost6system14error_categoryESt4pairIKS4_St10unique_ptrINS1_6detail12std_categoryESt14default_deleteIS9_EEESt10_Select1stISD_ENS8_12cat_ptr_lessESaISD_EE13_Rb_tree_implISG_Lb1EED1Ev,_ZNSt8_Rb_treeIPKN5boost6system14error_categoryESt4pairIKS4_St10unique_ptrINS1_6detail12std_categoryESt14default_deleteIS9_EEESt10_Select1stISD_ENS8_12cat_ptr_lessESaISD_EE13_Rb_tree_implISG_Lb1EED2Ev
	.section	.text._ZNSt8_Rb_treeIPKN5boost6system14error_categoryESt4pairIKS4_St10unique_ptrINS1_6detail12std_categoryESt14default_deleteIS9_EEESt10_Select1stISD_ENS8_12cat_ptr_lessESaISD_EEC2Ev,"axG",@progbits,_ZNSt8_Rb_treeIPKN5boost6system14error_categoryESt4pairIKS4_St10unique_ptrINS1_6detail12std_categoryESt14default_deleteIS9_EEESt10_Select1stISD_ENS8_12cat_ptr_lessESaISD_EEC5Ev,comdat
	.align 2
	.weak	_ZNSt8_Rb_treeIPKN5boost6system14error_categoryESt4pairIKS4_St10unique_ptrINS1_6detail12std_categoryESt14default_deleteIS9_EEESt10_Select1stISD_ENS8_12cat_ptr_lessESaISD_EEC2Ev
	.type	_ZNSt8_Rb_treeIPKN5boost6system14error_categoryESt4pairIKS4_St10unique_ptrINS1_6detail12std_categoryESt14default_deleteIS9_EEESt10_Select1stISD_ENS8_12cat_ptr_lessESaISD_EEC2Ev, @function
_ZNSt8_Rb_treeIPKN5boost6system14error_categoryESt4pairIKS4_St10unique_ptrINS1_6detail12std_categoryESt14default_deleteIS9_EEESt10_Select1stISD_ENS8_12cat_ptr_lessESaISD_EEC2Ev:
.LFB7034:
	.cfi_startproc
	pushq	%rbp
	.cfi_def_cfa_offset 16
	.cfi_offset 6, -16
	movq	%rsp, %rbp
	.cfi_def_cfa_register 6
	subq	$16, %rsp
	movq	%rdi, -8(%rbp)
	movq	-8(%rbp), %rax
	movq	%rax, %rdi
	call	_ZNSt8_Rb_treeIPKN5boost6system14error_categoryESt4pairIKS4_St10unique_ptrINS1_6detail12std_categoryESt14default_deleteIS9_EEESt10_Select1stISD_ENS8_12cat_ptr_lessESaISD_EE13_Rb_tree_implISG_Lb1EEC1Ev
	nop
	leave
	.cfi_def_cfa 7, 8
	ret
	.cfi_endproc
.LFE7034:
	.size	_ZNSt8_Rb_treeIPKN5boost6system14error_categoryESt4pairIKS4_St10unique_ptrINS1_6detail12std_categoryESt14default_deleteIS9_EEESt10_Select1stISD_ENS8_12cat_ptr_lessESaISD_EEC2Ev, .-_ZNSt8_Rb_treeIPKN5boost6system14error_categoryESt4pairIKS4_St10unique_ptrINS1_6detail12std_categoryESt14default_deleteIS9_EEESt10_Select1stISD_ENS8_12cat_ptr_lessESaISD_EEC2Ev
	.weak	_ZNSt8_Rb_treeIPKN5boost6system14error_categoryESt4pairIKS4_St10unique_ptrINS1_6detail12std_categoryESt14default_deleteIS9_EEESt10_Select1stISD_ENS8_12cat_ptr_lessESaISD_EEC1Ev
	.set	_ZNSt8_Rb_treeIPKN5boost6system14error_categoryESt4pairIKS4_St10unique_ptrINS1_6detail12std_categoryESt14default_deleteIS9_EEESt10_Select1stISD_ENS8_12cat_ptr_lessESaISD_EEC1Ev,_ZNSt8_Rb_treeIPKN5boost6system14error_categoryESt4pairIKS4_St10unique_ptrINS1_6detail12std_categoryESt14default_deleteIS9_EEESt10_Select1stISD_ENS8_12cat_ptr_lessESaISD_EEC2Ev
	.section	.text._ZNSt3mapIPKN5boost6system14error_categoryESt10unique_ptrINS1_6detail12std_categoryESt14default_deleteIS7_EENS6_12cat_ptr_lessESaISt4pairIKS4_SA_EEEC2Ev,"axG",@progbits,_ZNSt3mapIPKN5boost6system14error_categoryESt10unique_ptrINS1_6detail12std_categoryESt14default_deleteIS7_EENS6_12cat_ptr_lessESaISt4pairIKS4_SA_EEEC5Ev,comdat
	.align 2
	.weak	_ZNSt3mapIPKN5boost6system14error_categoryESt10unique_ptrINS1_6detail12std_categoryESt14default_deleteIS7_EENS6_12cat_ptr_lessESaISt4pairIKS4_SA_EEEC2Ev
	.type	_ZNSt3mapIPKN5boost6system14error_categoryESt10unique_ptrINS1_6detail12std_categoryESt14default_deleteIS7_EENS6_12cat_ptr_lessESaISt4pairIKS4_SA_EEEC2Ev, @function
_ZNSt3mapIPKN5boost6system14error_categoryESt10unique_ptrINS1_6detail12std_categoryESt14default_deleteIS7_EENS6_12cat_ptr_lessESaISt4pairIKS4_SA_EEEC2Ev:
.LFB7036:
	.cfi_startproc
	pushq	%rbp
	.cfi_def_cfa_offset 16
	.cfi_offset 6, -16
	movq	%rsp, %rbp
	.cfi_def_cfa_register 6
	subq	$16, %rsp
	movq	%rdi, -8(%rbp)
	movq	-8(%rbp), %rax
	movq	%rax, %rdi
	call	_ZNSt8_Rb_treeIPKN5boost6system14error_categoryESt4pairIKS4_St10unique_ptrINS1_6detail12std_categoryESt14default_deleteIS9_EEESt10_Select1stISD_ENS8_12cat_ptr_lessESaISD_EEC1Ev
	nop
	leave
	.cfi_def_cfa 7, 8
	ret
	.cfi_endproc
.LFE7036:
	.size	_ZNSt3mapIPKN5boost6system14error_categoryESt10unique_ptrINS1_6detail12std_categoryESt14default_deleteIS7_EENS6_12cat_ptr_lessESaISt4pairIKS4_SA_EEEC2Ev, .-_ZNSt3mapIPKN5boost6system14error_categoryESt10unique_ptrINS1_6detail12std_categoryESt14default_deleteIS7_EENS6_12cat_ptr_lessESaISt4pairIKS4_SA_EEEC2Ev
	.weak	_ZNSt3mapIPKN5boost6system14error_categoryESt10unique_ptrINS1_6detail12std_categoryESt14default_deleteIS7_EENS6_12cat_ptr_lessESaISt4pairIKS4_SA_EEEC1Ev
	.set	_ZNSt3mapIPKN5boost6system14error_categoryESt10unique_ptrINS1_6detail12std_categoryESt14default_deleteIS7_EENS6_12cat_ptr_lessESaISt4pairIKS4_SA_EEEC1Ev,_ZNSt3mapIPKN5boost6system14error_categoryESt10unique_ptrINS1_6detail12std_categoryESt14default_deleteIS7_EENS6_12cat_ptr_lessESaISt4pairIKS4_SA_EEEC2Ev
	.weak	_ZGVZN5boost6system6detail15to_std_categoryERKNS0_14error_categoryEE4map_
	.section	.bss._ZGVZN5boost6system6detail15to_std_categoryERKNS0_14error_categoryEE4map_,"awG",@nobits,_ZGVZN5boost6system6detail15to_std_categoryERKNS0_14error_categoryEE4map_,comdat
	.align 8
	.type	_ZGVZN5boost6system6detail15to_std_categoryERKNS0_14error_categoryEE4map_, @gnu_unique_object
	.size	_ZGVZN5boost6system6detail15to_std_categoryERKNS0_14error_categoryEE4map_, 8
_ZGVZN5boost6system6detail15to_std_categoryERKNS0_14error_categoryEE4map_:
	.zero	8
	.section	.text._ZNSt3mapIPKN5boost6system14error_categoryESt10unique_ptrINS1_6detail12std_categoryESt14default_deleteIS7_EENS6_12cat_ptr_lessESaISt4pairIKS4_SA_EEED2Ev,"axG",@progbits,_ZNSt3mapIPKN5boost6system14error_categoryESt10unique_ptrINS1_6detail12std_categoryESt14default_deleteIS7_EENS6_12cat_ptr_lessESaISt4pairIKS4_SA_EEED5Ev,comdat
	.align 2
	.weak	_ZNSt3mapIPKN5boost6system14error_categoryESt10unique_ptrINS1_6detail12std_categoryESt14default_deleteIS7_EENS6_12cat_ptr_lessESaISt4pairIKS4_SA_EEED2Ev
	.type	_ZNSt3mapIPKN5boost6system14error_categoryESt10unique_ptrINS1_6detail12std_categoryESt14default_deleteIS7_EENS6_12cat_ptr_lessESaISt4pairIKS4_SA_EEED2Ev, @function
_ZNSt3mapIPKN5boost6system14error_categoryESt10unique_ptrINS1_6detail12std_categoryESt14default_deleteIS7_EENS6_12cat_ptr_lessESaISt4pairIKS4_SA_EEED2Ev:
.LFB7039:
	.cfi_startproc
	pushq	%rbp
	.cfi_def_cfa_offset 16
	.cfi_offset 6, -16
	movq	%rsp, %rbp
	.cfi_def_cfa_register 6
	subq	$16, %rsp
	movq	%rdi, -8(%rbp)
	movq	-8(%rbp), %rax
	movq	%rax, %rdi
	call	_ZNSt8_Rb_treeIPKN5boost6system14error_categoryESt4pairIKS4_St10unique_ptrINS1_6detail12std_categoryESt14default_deleteIS9_EEESt10_Select1stISD_ENS8_12cat_ptr_lessESaISD_EED1Ev
	nop
	leave
	.cfi_def_cfa 7, 8
	ret
	.cfi_endproc
.LFE7039:
	.size	_ZNSt3mapIPKN5boost6system14error_categoryESt10unique_ptrINS1_6detail12std_categoryESt14default_deleteIS7_EENS6_12cat_ptr_lessESaISt4pairIKS4_SA_EEED2Ev, .-_ZNSt3mapIPKN5boost6system14error_categoryESt10unique_ptrINS1_6detail12std_categoryESt14default_deleteIS7_EENS6_12cat_ptr_lessESaISt4pairIKS4_SA_EEED2Ev
	.weak	_ZNSt3mapIPKN5boost6system14error_categoryESt10unique_ptrINS1_6detail12std_categoryESt14default_deleteIS7_EENS6_12cat_ptr_lessESaISt4pairIKS4_SA_EEED1Ev
	.set	_ZNSt3mapIPKN5boost6system14error_categoryESt10unique_ptrINS1_6detail12std_categoryESt14default_deleteIS7_EENS6_12cat_ptr_lessESaISt4pairIKS4_SA_EEED1Ev,_ZNSt3mapIPKN5boost6system14error_categoryESt10unique_ptrINS1_6detail12std_categoryESt14default_deleteIS7_EENS6_12cat_ptr_lessESaISt4pairIKS4_SA_EEED2Ev
	.weak	_ZZN5boost6system6detail15to_std_categoryERKNS0_14error_categoryEE7map_mx_
	.section	.bss._ZZN5boost6system6detail15to_std_categoryERKNS0_14error_categoryEE7map_mx_,"awG",@nobits,_ZZN5boost6system6detail15to_std_categoryERKNS0_14error_categoryEE7map_mx_,comdat
	.align 32
	.type	_ZZN5boost6system6detail15to_std_categoryERKNS0_14error_categoryEE7map_mx_, @gnu_unique_object
	.size	_ZZN5boost6system6detail15to_std_categoryERKNS0_14error_categoryEE7map_mx_, 40
_ZZN5boost6system6detail15to_std_categoryERKNS0_14error_categoryEE7map_mx_:
	.zero	40
	.section	.text._ZNSt4pairIKPKN5boost6system14error_categoryESt10unique_ptrINS1_6detail12std_categoryESt14default_deleteIS8_EEED2Ev,"axG",@progbits,_ZNSt4pairIKPKN5boost6system14error_categoryESt10unique_ptrINS1_6detail12std_categoryESt14default_deleteIS8_EEED5Ev,comdat
	.align 2
	.weak	_ZNSt4pairIKPKN5boost6system14error_categoryESt10unique_ptrINS1_6detail12std_categoryESt14default_deleteIS8_EEED2Ev
	.type	_ZNSt4pairIKPKN5boost6system14error_categoryESt10unique_ptrINS1_6detail12std_categoryESt14default_deleteIS8_EEED2Ev, @function
_ZNSt4pairIKPKN5boost6system14error_categoryESt10unique_ptrINS1_6detail12std_categoryESt14default_deleteIS8_EEED2Ev:
.LFB7056:
	.cfi_startproc
	pushq	%rbp
	.cfi_def_cfa_offset 16
	.cfi_offset 6, -16
	movq	%rsp, %rbp
	.cfi_def_cfa_register 6
	subq	$16, %rsp
	movq	%rdi, -8(%rbp)
	movq	-8(%rbp), %rax
	addq	$8, %rax
	movq	%rax, %rdi
	call	_ZNSt10unique_ptrIN5boost6system6detail12std_categoryESt14default_deleteIS3_EED1Ev
	nop
	leave
	.cfi_def_cfa 7, 8
	ret
	.cfi_endproc
.LFE7056:
	.size	_ZNSt4pairIKPKN5boost6system14error_categoryESt10unique_ptrINS1_6detail12std_categoryESt14default_deleteIS8_EEED2Ev, .-_ZNSt4pairIKPKN5boost6system14error_categoryESt10unique_ptrINS1_6detail12std_categoryESt14default_deleteIS8_EEED2Ev
	.weak	_ZNSt4pairIKPKN5boost6system14error_categoryESt10unique_ptrINS1_6detail12std_categoryESt14default_deleteIS8_EEED1Ev
	.set	_ZNSt4pairIKPKN5boost6system14error_categoryESt10unique_ptrINS1_6detail12std_categoryESt14default_deleteIS8_EEED1Ev,_ZNSt4pairIKPKN5boost6system14error_categoryESt10unique_ptrINS1_6detail12std_categoryESt14default_deleteIS8_EEED2Ev
	.section	.text._ZN5boost6system6detail15to_std_categoryERKNS0_14error_categoryE,"axG",@progbits,_ZN5boost6system6detail15to_std_categoryERKNS0_14error_categoryE,comdat
	.weak	_ZN5boost6system6detail15to_std_categoryERKNS0_14error_categoryE
	.type	_ZN5boost6system6detail15to_std_categoryERKNS0_14error_categoryE, @function
_ZN5boost6system6detail15to_std_categoryERKNS0_14error_categoryE:
.LFB7028:
	.cfi_startproc
	.cfi_personality 0x3,__gxx_personality_v0
	.cfi_lsda 0x3,.LLSDA7028
	pushq	%rbp
	.cfi_def_cfa_offset 16
	.cfi_offset 6, -16
	movq	%rsp, %rbp
	.cfi_def_cfa_register 6
	pushq	%rbx
	subq	$120, %rsp
	.cfi_offset 3, -24
	movq	%rdi, -120(%rbp)
	call	_ZN5boost6system15system_categoryEv
	movq	%rax, %rdx
	movq	-120(%rbp), %rax
	movq	%rdx, %rsi
	movq	%rax, %rdi
	call	_ZNK5boost6system14error_categoryeqERKS1_
	testb	%al, %al
	je	.L287
	movzbl	_ZGVZN5boost6system6detail15to_std_categoryERKNS0_14error_categoryEE15system_instance(%rip), %eax
	testb	%al, %al
	sete	%al
	testb	%al, %al
	je	.L288
	movl	$_ZGVZN5boost6system6detail15to_std_categoryERKNS0_14error_categoryEE15system_instance, %edi
	call	__cxa_guard_acquire
	testl	%eax, %eax
	setne	%al
	testb	%al, %al
	je	.L288
	movq	-120(%rbp), %rax
	movl	$128215, %edx
	movq	%rax, %rsi
	movl	$_ZZN5boost6system6detail15to_std_categoryERKNS0_14error_categoryEE15system_instance, %edi
	call	_ZN5boost6system6detail12std_categoryC1EPKNS0_14error_categoryEj
	movl	$_ZGVZN5boost6system6detail15to_std_categoryERKNS0_14error_categoryEE15system_instance, %edi
	call	__cxa_guard_release
	movl	$__dso_handle, %edx
	movl	$_ZZN5boost6system6detail15to_std_categoryERKNS0_14error_categoryEE15system_instance, %esi
	movl	$_ZN5boost6system6detail12std_categoryD1Ev, %edi
	call	__cxa_atexit
.L288:
	movl	$_ZZN5boost6system6detail15to_std_categoryERKNS0_14error_categoryEE15system_instance, %ebx
	jmp	.L289
.L287:
	call	_ZN5boost6system16generic_categoryEv
	movq	%rax, %rdx
	movq	-120(%rbp), %rax
	movq	%rdx, %rsi
	movq	%rax, %rdi
	call	_ZNK5boost6system14error_categoryeqERKS1_
	testb	%al, %al
	je	.L290
	movzbl	_ZGVZN5boost6system6detail15to_std_categoryERKNS0_14error_categoryEE16generic_instance(%rip), %eax
	testb	%al, %al
	sete	%al
	testb	%al, %al
	je	.L291
	movl	$_ZGVZN5boost6system6detail15to_std_categoryERKNS0_14error_categoryEE16generic_instance, %edi
	call	__cxa_guard_acquire
	testl	%eax, %eax
	setne	%al
	testb	%al, %al
	je	.L291
	movq	-120(%rbp), %rax
	movl	$128211, %edx
	movq	%rax, %rsi
	movl	$_ZZN5boost6system6detail15to_std_categoryERKNS0_14error_categoryEE16generic_instance, %edi
	call	_ZN5boost6system6detail12std_categoryC1EPKNS0_14error_categoryEj
	movl	$_ZGVZN5boost6system6detail15to_std_categoryERKNS0_14error_categoryEE16generic_instance, %edi
	call	__cxa_guard_release
	movl	$__dso_handle, %edx
	movl	$_ZZN5boost6system6detail15to_std_categoryERKNS0_14error_categoryEE16generic_instance, %esi
	movl	$_ZN5boost6system6detail12std_categoryD1Ev, %edi
	call	__cxa_atexit
.L291:
	movl	$_ZZN5boost6system6detail15to_std_categoryERKNS0_14error_categoryEE16generic_instance, %ebx
	jmp	.L289
.L290:
	movzbl	_ZGVZN5boost6system6detail15to_std_categoryERKNS0_14error_categoryEE4map_(%rip), %eax
	testb	%al, %al
	sete	%al
	testb	%al, %al
	je	.L292
	movl	$_ZGVZN5boost6system6detail15to_std_categoryERKNS0_14error_categoryEE4map_, %edi
	call	__cxa_guard_acquire
	testl	%eax, %eax
	setne	%al
	testb	%al, %al
	je	.L292
	movl	$_ZZN5boost6system6detail15to_std_categoryERKNS0_14error_categoryEE4map_, %edi
	call	_ZNSt3mapIPKN5boost6system14error_categoryESt10unique_ptrINS1_6detail12std_categoryESt14default_deleteIS7_EENS6_12cat_ptr_lessESaISt4pairIKS4_SA_EEEC1Ev
	movl	$_ZGVZN5boost6system6detail15to_std_categoryERKNS0_14error_categoryEE4map_, %edi
	call	__cxa_guard_release
	movl	$__dso_handle, %edx
	movl	$_ZZN5boost6system6detail15to_std_categoryERKNS0_14error_categoryEE4map_, %esi
	movl	$_ZNSt3mapIPKN5boost6system14error_categoryESt10unique_ptrINS1_6detail12std_categoryESt14default_deleteIS7_EENS6_12cat_ptr_lessESaISt4pairIKS4_SA_EEED1Ev, %edi
	call	__cxa_atexit
.L292:
	leaq	-72(%rbp), %rax
	movl	$_ZZN5boost6system6detail15to_std_categoryERKNS0_14error_categoryEE7map_mx_, %esi
	movq	%rax, %rdi
.LEHB13:
	call	_ZNSt10lock_guardISt5mutexEC1ERS0_
.LEHE13:
	movq	-120(%rbp), %rax
	movq	%rax, -64(%rbp)
	leaq	-64(%rbp), %rax
	movq	%rax, %rsi
	movl	$_ZZN5boost6system6detail15to_std_categoryERKNS0_14error_categoryEE4map_, %edi
.LEHB14:
	call	_ZNSt3mapIPKN5boost6system14error_categoryESt10unique_ptrINS1_6detail12std_categoryESt14default_deleteIS7_EENS6_12cat_ptr_lessESaISt4pairIKS4_SA_EEE4findERSD_
	movq	%rax, -80(%rbp)
	movl	$_ZZN5boost6system6detail15to_std_categoryERKNS0_14error_categoryEE4map_, %edi
	call	_ZNSt3mapIPKN5boost6system14error_categoryESt10unique_ptrINS1_6detail12std_categoryESt14default_deleteIS7_EENS6_12cat_ptr_lessESaISt4pairIKS4_SA_EEE3endEv
	movq	%rax, -56(%rbp)
	leaq	-56(%rbp), %rdx
	leaq	-80(%rbp), %rax
	movq	%rdx, %rsi
	movq	%rax, %rdi
	call	_ZNKSt17_Rb_tree_iteratorISt4pairIKPKN5boost6system14error_categoryESt10unique_ptrINS2_6detail12std_categoryESt14default_deleteIS9_EEEEeqERKSE_
	testb	%al, %al
	je	.L293
	movl	$16, %edi
	call	_Znwm
.LEHE14:
	movq	%rax, %rbx
	movq	-120(%rbp), %rax
	movl	$0, %edx
	movq	%rax, %rsi
	movq	%rbx, %rdi
	call	_ZN5boost6system6detail12std_categoryC1EPKNS0_14error_categoryEj
	leaq	-88(%rbp), %rax
	movq	%rbx, %rsi
	movq	%rax, %rdi
	call	_ZNSt10unique_ptrIN5boost6system6detail12std_categoryESt14default_deleteIS3_EEC1IS5_vEEPS3_
	leaq	-88(%rbp), %rax
	movq	%rax, %rdi
	call	_ZSt4moveIRSt10unique_ptrIN5boost6system6detail12std_categoryESt14default_deleteIS4_EEEONSt16remove_referenceIT_E4typeEOSA_
	movq	%rax, %rdx
	movq	-120(%rbp), %rax
	movq	%rax, -24(%rbp)
	leaq	-24(%rbp), %rcx
	leaq	-48(%rbp), %rax
	movq	%rcx, %rsi
	movq	%rax, %rdi
	call	_ZNSt4pairIKPKN5boost6system14error_categoryESt10unique_ptrINS1_6detail12std_categoryESt14default_deleteIS8_EEEC1IS4_SB_Lb1EEEOT_OT0_
	leaq	-48(%rbp), %rax
	movq	%rax, %rsi
	movl	$_ZZN5boost6system6detail15to_std_categoryERKNS0_14error_categoryEE4map_, %edi
.LEHB15:
	call	_ZNSt3mapIPKN5boost6system14error_categoryESt10unique_ptrINS1_6detail12std_categoryESt14default_deleteIS7_EENS6_12cat_ptr_lessESaISt4pairIKS4_SA_EEE6insertEOSE_
.LEHE15:
	movq	%rax, -112(%rbp)
	movq	%rdx, -104(%rbp)
	leaq	-48(%rbp), %rax
	movq	%rax, %rdi
	call	_ZNSt4pairIKPKN5boost6system14error_categoryESt10unique_ptrINS1_6detail12std_categoryESt14default_deleteIS8_EEED1Ev
	movq	-112(%rbp), %rax
	movq	%rax, -80(%rbp)
	leaq	-88(%rbp), %rax
	movq	%rax, %rdi
	call	_ZNSt10unique_ptrIN5boost6system6detail12std_categoryESt14default_deleteIS3_EED1Ev
.L293:
	leaq	-80(%rbp), %rax
	movq	%rax, %rdi
	call	_ZNKSt17_Rb_tree_iteratorISt4pairIKPKN5boost6system14error_categoryESt10unique_ptrINS2_6detail12std_categoryESt14default_deleteIS9_EEEEptEv
	addq	$8, %rax
	movq	%rax, %rdi
	call	_ZNKSt10unique_ptrIN5boost6system6detail12std_categoryESt14default_deleteIS3_EEdeEv
	movq	%rax, %rbx
	leaq	-72(%rbp), %rax
	movq	%rax, %rdi
	call	_ZNSt10lock_guardISt5mutexED1Ev
.L289:
	movq	%rbx, %rax
	jmp	.L298
.L297:
	movq	%rax, %rbx
	leaq	-48(%rbp), %rax
	movq	%rax, %rdi
	call	_ZNSt4pairIKPKN5boost6system14error_categoryESt10unique_ptrINS1_6detail12std_categoryESt14default_deleteIS8_EEED1Ev
	leaq	-88(%rbp), %rax
	movq	%rax, %rdi
	call	_ZNSt10unique_ptrIN5boost6system6detail12std_categoryESt14default_deleteIS3_EED1Ev
	jmp	.L295
.L296:
	movq	%rax, %rbx
.L295:
	leaq	-72(%rbp), %rax
	movq	%rax, %rdi
	call	_ZNSt10lock_guardISt5mutexED1Ev
	movq	%rbx, %rax
	movq	%rax, %rdi
.LEHB16:
	call	_Unwind_Resume
.LEHE16:
.L298:
	addq	$120, %rsp
	popq	%rbx
	popq	%rbp
	.cfi_def_cfa 7, 8
	ret
	.cfi_endproc
.LFE7028:
	.section	.gcc_except_table._ZN5boost6system6detail15to_std_categoryERKNS0_14error_categoryE,"aG",@progbits,_ZN5boost6system6detail15to_std_categoryERKNS0_14error_categoryE,comdat
.LLSDA7028:
	.byte	0xff
	.byte	0xff
	.byte	0x1
	.uleb128 .LLSDACSE7028-.LLSDACSB7028
.LLSDACSB7028:
	.uleb128 .LEHB13-.LFB7028
	.uleb128 .LEHE13-.LEHB13
	.uleb128 0
	.uleb128 0
	.uleb128 .LEHB14-.LFB7028
	.uleb128 .LEHE14-.LEHB14
	.uleb128 .L296-.LFB7028
	.uleb128 0
	.uleb128 .LEHB15-.LFB7028
	.uleb128 .LEHE15-.LEHB15
	.uleb128 .L297-.LFB7028
	.uleb128 0
	.uleb128 .LEHB16-.LFB7028
	.uleb128 .LEHE16-.LEHB16
	.uleb128 0
	.uleb128 0
.LLSDACSE7028:
	.section	.text._ZN5boost6system6detail15to_std_categoryERKNS0_14error_categoryE,"axG",@progbits,_ZN5boost6system6detail15to_std_categoryERKNS0_14error_categoryE,comdat
	.size	_ZN5boost6system6detail15to_std_categoryERKNS0_14error_categoryE, .-_ZN5boost6system6detail15to_std_categoryERKNS0_14error_categoryE
	.section	.text._ZNK5boost6system6detail12std_category10equivalentEiRKSt15error_condition,"axG",@progbits,_ZNK5boost6system6detail12std_category10equivalentEiRKSt15error_condition,comdat
	.align 2
	.weak	_ZNK5boost6system6detail12std_category10equivalentEiRKSt15error_condition
	.type	_ZNK5boost6system6detail12std_category10equivalentEiRKSt15error_condition, @function
_ZNK5boost6system6detail12std_category10equivalentEiRKSt15error_condition:
.LFB7066:
	.cfi_startproc
	.cfi_personality 0x3,__gxx_personality_v0
	.cfi_lsda 0x3,.LLSDA7066
	pushq	%rbp
	.cfi_def_cfa_offset 16
	.cfi_offset 6, -16
	movq	%rsp, %rbp
	.cfi_def_cfa_register 6
	pushq	%rbx
	subq	$120, %rsp
	.cfi_offset 3, -24
	movq	%rdi, -104(%rbp)
	movl	%esi, -108(%rbp)
	movq	%rdx, -120(%rbp)
	movq	-104(%rbp), %rbx
	movq	-120(%rbp), %rax
	movq	%rax, %rdi
	call	_ZNKSt15error_condition8categoryEv
	movq	%rbx, %rsi
	movq	%rax, %rdi
	call	_ZNKSt3_V214error_categoryeqERKS0_
	testb	%al, %al
	je	.L300
	movq	-104(%rbp), %rax
	movq	8(%rax), %rbx
	movq	-120(%rbp), %rax
	movq	%rax, %rdi
	call	_ZNKSt15error_condition5valueEv
	movl	%eax, %ecx
	leaq	-64(%rbp), %rax
	movq	%rbx, %rdx
	movl	%ecx, %esi
	movq	%rax, %rdi
	call	_ZN5boost6system15error_conditionC1EiRKNS0_14error_categoryE
	movq	-104(%rbp), %rax
	movq	8(%rax), %rcx
	movq	-104(%rbp), %rax
	movq	8(%rax), %rax
	movq	(%rax), %rax
	addq	$16, %rax
	movq	(%rax), %rax
	leaq	-64(%rbp), %rdx
	movl	-108(%rbp), %esi
	movq	%rcx, %rdi
	call	*%rax
	nop
	jmp	.L301
.L300:
	call	_ZNSt3_V216generic_categoryEv
	movq	%rax, %rbx
	movq	-120(%rbp), %rax
	movq	%rax, %rdi
	call	_ZNKSt15error_condition8categoryEv
	movq	%rbx, %rsi
	movq	%rax, %rdi
	call	_ZNKSt3_V214error_categoryeqERKS0_
	testb	%al, %al
	jne	.L302
	call	_ZN5boost6system16generic_categoryEv
	movq	%rax, %rdi
	call	_ZNK5boost6system14error_categorycvRKNSt3_V214error_categoryEEv
	movq	%rax, %rbx
	movq	-120(%rbp), %rax
	movq	%rax, %rdi
	call	_ZNKSt15error_condition8categoryEv
	movq	%rbx, %rsi
	movq	%rax, %rdi
	call	_ZNKSt3_V214error_categoryeqERKS0_
	testb	%al, %al
	je	.L303
.L302:
	movl	$1, %eax
	jmp	.L304
.L303:
	movl	$0, %eax
.L304:
	testb	%al, %al
	je	.L305
	call	_ZN5boost6system16generic_categoryEv
	movq	%rax, %rbx
	movq	-120(%rbp), %rax
	movq	%rax, %rdi
	call	_ZNKSt15error_condition5valueEv
	movl	%eax, %ecx
	leaq	-80(%rbp), %rax
	movq	%rbx, %rdx
	movl	%ecx, %esi
	movq	%rax, %rdi
	call	_ZN5boost6system15error_conditionC1EiRKNS0_14error_categoryE
	movq	-104(%rbp), %rax
	movq	8(%rax), %rcx
	movq	-104(%rbp), %rax
	movq	8(%rax), %rax
	movq	(%rax), %rax
	addq	$16, %rax
	movq	(%rax), %rax
	leaq	-80(%rbp), %rdx
	movl	-108(%rbp), %esi
	movq	%rcx, %rdi
	call	*%rax
	nop
	jmp	.L301
.L305:
	movq	-120(%rbp), %rax
	movq	%rax, %rdi
	call	_ZNKSt15error_condition8categoryEv
	testq	%rax, %rax
	je	.L306
	movl	$0, %ecx
	movl	$_ZTIN5boost6system6detail12std_categoryE, %edx
	movl	$_ZTINSt3_V214error_categoryE, %esi
	movq	%rax, %rdi
	call	__dynamic_cast
	jmp	.L307
.L306:
	movl	$0, %eax
.L307:
	movq	%rax, -24(%rbp)
	cmpq	$0, -24(%rbp)
	je	.L308
	movq	-24(%rbp), %rax
	movq	8(%rax), %rbx
	movq	-120(%rbp), %rax
	movq	%rax, %rdi
	call	_ZNKSt15error_condition5valueEv
	movl	%eax, %ecx
	leaq	-96(%rbp), %rax
	movq	%rbx, %rdx
	movl	%ecx, %esi
	movq	%rax, %rdi
	call	_ZN5boost6system15error_conditionC1EiRKNS0_14error_categoryE
	movq	-104(%rbp), %rax
	movq	8(%rax), %rcx
	movq	-104(%rbp), %rax
	movq	8(%rax), %rax
	movq	(%rax), %rax
	addq	$16, %rax
	movq	(%rax), %rax
	leaq	-96(%rbp), %rdx
	movl	-108(%rbp), %esi
	movq	%rcx, %rdi
	call	*%rax
	nop
	jmp	.L301
.L308:
	movq	-104(%rbp), %rax
	movq	(%rax), %rax
	addq	$40, %rax
	movq	(%rax), %rax
	movl	-108(%rbp), %ecx
	movq	-104(%rbp), %rdx
	movl	%ecx, %esi
	movq	%rdx, %rdi
	call	*%rax
	movl	%eax, %ecx
	movq	%rdx, %rax
	movl	%ecx, -48(%rbp)
	movq	%rax, -40(%rbp)
	movq	-120(%rbp), %rdx
	leaq	-48(%rbp), %rax
	movq	%rdx, %rsi
	movq	%rax, %rdi
	call	_ZSteqRKSt15error_conditionS1_
	nop
.L301:
	addq	$120, %rsp
	popq	%rbx
	popq	%rbp
	.cfi_def_cfa 7, 8
	ret
	.cfi_endproc
.LFE7066:
	.section	.gcc_except_table._ZNK5boost6system6detail12std_category10equivalentEiRKSt15error_condition,"aG",@progbits,_ZNK5boost6system6detail12std_category10equivalentEiRKSt15error_condition,comdat
.LLSDA7066:
	.byte	0xff
	.byte	0xff
	.byte	0x1
	.uleb128 .LLSDACSE7066-.LLSDACSB7066
.LLSDACSB7066:
.LLSDACSE7066:
	.section	.text._ZNK5boost6system6detail12std_category10equivalentEiRKSt15error_condition,"axG",@progbits,_ZNK5boost6system6detail12std_category10equivalentEiRKSt15error_condition,comdat
	.size	_ZNK5boost6system6detail12std_category10equivalentEiRKSt15error_condition, .-_ZNK5boost6system6detail12std_category10equivalentEiRKSt15error_condition
	.section	.text._ZNK5boost6system6detail12std_category10equivalentERKSt10error_codei,"axG",@progbits,_ZNK5boost6system6detail12std_category10equivalentERKSt10error_codei,comdat
	.align 2
	.weak	_ZNK5boost6system6detail12std_category10equivalentERKSt10error_codei
	.type	_ZNK5boost6system6detail12std_category10equivalentERKSt10error_codei, @function
_ZNK5boost6system6detail12std_category10equivalentERKSt10error_codei:
.LFB7067:
	.cfi_startproc
	.cfi_personality 0x3,__gxx_personality_v0
	.cfi_lsda 0x3,.LLSDA7067
	pushq	%rbp
	.cfi_def_cfa_offset 16
	.cfi_offset 6, -16
	movq	%rsp, %rbp
	.cfi_def_cfa_register 6
	pushq	%rbx
	subq	$104, %rsp
	.cfi_offset 3, -24
	movq	%rdi, -88(%rbp)
	movq	%rsi, -96(%rbp)
	movl	%edx, -100(%rbp)
	movq	-88(%rbp), %rbx
	movq	-96(%rbp), %rax
	movq	%rax, %rdi
	call	_ZNKSt10error_code8categoryEv
	movq	%rbx, %rsi
	movq	%rax, %rdi
	call	_ZNKSt3_V214error_categoryeqERKS0_
	testb	%al, %al
	je	.L310
	movq	-88(%rbp), %rax
	movq	8(%rax), %rbx
	movq	-96(%rbp), %rax
	movq	%rax, %rdi
	call	_ZNKSt10error_code5valueEv
	movl	%eax, %ecx
	leaq	-48(%rbp), %rax
	movq	%rbx, %rdx
	movl	%ecx, %esi
	movq	%rax, %rdi
	call	_ZN5boost6system10error_codeC1EiRKNS0_14error_categoryE
	movq	-88(%rbp), %rax
	movq	8(%rax), %rcx
	movq	-88(%rbp), %rax
	movq	8(%rax), %rax
	movq	(%rax), %rax
	addq	$24, %rax
	movq	(%rax), %rax
	movl	-100(%rbp), %edx
	leaq	-48(%rbp), %rsi
	movq	%rcx, %rdi
	call	*%rax
	nop
	jmp	.L311
.L310:
	call	_ZNSt3_V216generic_categoryEv
	movq	%rax, %rbx
	movq	-96(%rbp), %rax
	movq	%rax, %rdi
	call	_ZNKSt10error_code8categoryEv
	movq	%rbx, %rsi
	movq	%rax, %rdi
	call	_ZNKSt3_V214error_categoryeqERKS0_
	testb	%al, %al
	jne	.L312
	call	_ZN5boost6system16generic_categoryEv
	movq	%rax, %rdi
	call	_ZNK5boost6system14error_categorycvRKNSt3_V214error_categoryEEv
	movq	%rax, %rbx
	movq	-96(%rbp), %rax
	movq	%rax, %rdi
	call	_ZNKSt10error_code8categoryEv
	movq	%rbx, %rsi
	movq	%rax, %rdi
	call	_ZNKSt3_V214error_categoryeqERKS0_
	testb	%al, %al
	je	.L313
.L312:
	movl	$1, %eax
	jmp	.L314
.L313:
	movl	$0, %eax
.L314:
	testb	%al, %al
	je	.L315
	call	_ZN5boost6system16generic_categoryEv
	movq	%rax, %rbx
	movq	-96(%rbp), %rax
	movq	%rax, %rdi
	call	_ZNKSt10error_code5valueEv
	movl	%eax, %ecx
	leaq	-64(%rbp), %rax
	movq	%rbx, %rdx
	movl	%ecx, %esi
	movq	%rax, %rdi
	call	_ZN5boost6system10error_codeC1EiRKNS0_14error_categoryE
	movq	-88(%rbp), %rax
	movq	8(%rax), %rcx
	movq	-88(%rbp), %rax
	movq	8(%rax), %rax
	movq	(%rax), %rax
	addq	$24, %rax
	movq	(%rax), %rax
	movl	-100(%rbp), %edx
	leaq	-64(%rbp), %rsi
	movq	%rcx, %rdi
	call	*%rax
	nop
	jmp	.L311
.L315:
	movq	-96(%rbp), %rax
	movq	%rax, %rdi
	call	_ZNKSt10error_code8categoryEv
	testq	%rax, %rax
	je	.L316
	movl	$0, %ecx
	movl	$_ZTIN5boost6system6detail12std_categoryE, %edx
	movl	$_ZTINSt3_V214error_categoryE, %esi
	movq	%rax, %rdi
	call	__dynamic_cast
	jmp	.L317
.L316:
	movl	$0, %eax
.L317:
	movq	%rax, -24(%rbp)
	cmpq	$0, -24(%rbp)
	je	.L318
	movq	-24(%rbp), %rax
	movq	8(%rax), %rbx
	movq	-96(%rbp), %rax
	movq	%rax, %rdi
	call	_ZNKSt10error_code5valueEv
	movl	%eax, %ecx
	leaq	-80(%rbp), %rax
	movq	%rbx, %rdx
	movl	%ecx, %esi
	movq	%rax, %rdi
	call	_ZN5boost6system10error_codeC1EiRKNS0_14error_categoryE
	movq	-88(%rbp), %rax
	movq	8(%rax), %rcx
	movq	-88(%rbp), %rax
	movq	8(%rax), %rax
	movq	(%rax), %rax
	addq	$24, %rax
	movq	(%rax), %rax
	movl	-100(%rbp), %edx
	leaq	-80(%rbp), %rsi
	movq	%rcx, %rdi
	call	*%rax
	nop
	jmp	.L311
.L318:
	call	_ZN5boost6system16generic_categoryEv
	movq	%rax, %rdx
	movq	-88(%rbp), %rax
	movq	8(%rax), %rax
	movq	%rdx, %rsi
	movq	%rax, %rdi
	call	_ZNK5boost6system14error_categoryeqERKS1_
	testb	%al, %al
	je	.L319
	call	_ZNSt3_V216generic_categoryEv
	movq	%rax, %rbx
	call	_ZNSt3_V216generic_categoryEv
	call	_ZNSt3_V216generic_categoryEv
	movq	(%rax), %rax
	addq	$56, %rax
	movq	(%rax), %rax
	movl	-100(%rbp), %edx
	movq	-96(%rbp), %rcx
	movq	%rcx, %rsi
	movq	%rbx, %rdi
	call	*%rax
	jmp	.L311
.L319:
	movl	$0, %eax
.L311:
	addq	$104, %rsp
	popq	%rbx
	popq	%rbp
	.cfi_def_cfa 7, 8
	ret
	.cfi_endproc
.LFE7067:
	.section	.gcc_except_table._ZNK5boost6system6detail12std_category10equivalentERKSt10error_codei,"aG",@progbits,_ZNK5boost6system6detail12std_category10equivalentERKSt10error_codei,comdat
.LLSDA7067:
	.byte	0xff
	.byte	0xff
	.byte	0x1
	.uleb128 .LLSDACSE7067-.LLSDACSB7067
.LLSDACSB7067:
.LLSDACSE7067:
	.section	.text._ZNK5boost6system6detail12std_category10equivalentERKSt10error_codei,"axG",@progbits,_ZNK5boost6system6detail12std_category10equivalentERKSt10error_codei,comdat
	.size	_ZNK5boost6system6detail12std_category10equivalentERKSt10error_codei, .-_ZNK5boost6system6detail12std_category10equivalentERKSt10error_codei
	.section	.text._ZNK5boost6system14error_categorycvRKNSt3_V214error_categoryEEv,"axG",@progbits,_ZNK5boost6system14error_categorycvRKNSt3_V214error_categoryEEv,comdat
	.align 2
	.weak	_ZNK5boost6system14error_categorycvRKNSt3_V214error_categoryEEv
	.type	_ZNK5boost6system14error_categorycvRKNSt3_V214error_categoryEEv, @function
_ZNK5boost6system14error_categorycvRKNSt3_V214error_categoryEEv:
.LFB7068:
	.cfi_startproc
	pushq	%rbp
	.cfi_def_cfa_offset 16
	.cfi_offset 6, -16
	movq	%rsp, %rbp
	.cfi_def_cfa_register 6
	subq	$16, %rsp
	movq	%rdi, -8(%rbp)
	movq	-8(%rbp), %rax
	movq	%rax, %rdi
	call	_ZN5boost6system6detail15to_std_categoryERKNS0_14error_categoryE
	leave
	.cfi_def_cfa 7, 8
	ret
	.cfi_endproc
.LFE7068:
	.size	_ZNK5boost6system14error_categorycvRKNSt3_V214error_categoryEEv, .-_ZNK5boost6system14error_categorycvRKNSt3_V214error_categoryEEv
	.section	.text._ZN5boost6system12system_errorD2Ev,"axG",@progbits,_ZN5boost6system12system_errorD5Ev,comdat
	.align 2
	.weak	_ZN5boost6system12system_errorD2Ev
	.type	_ZN5boost6system12system_errorD2Ev, @function
_ZN5boost6system12system_errorD2Ev:
.LFB7272:
	.cfi_startproc
	pushq	%rbp
	.cfi_def_cfa_offset 16
	.cfi_offset 6, -16
	movq	%rsp, %rbp
	.cfi_def_cfa_register 6
	subq	$16, %rsp
	movq	%rdi, -8(%rbp)
	movl	$_ZTVN5boost6system12system_errorE+16, %edx
	movq	-8(%rbp), %rax
	movq	%rdx, (%rax)
	movq	-8(%rbp), %rax
	addq	$32, %rax
	movq	%rax, %rdi
	call	_ZNSt7__cxx1112basic_stringIcSt11char_traitsIcESaIcEED1Ev
	movq	-8(%rbp), %rax
	movq	%rax, %rdi
	call	_ZNSt13runtime_errorD2Ev
	nop
	leave
	.cfi_def_cfa 7, 8
	ret
	.cfi_endproc
.LFE7272:
	.size	_ZN5boost6system12system_errorD2Ev, .-_ZN5boost6system12system_errorD2Ev
	.weak	_ZN5boost6system12system_errorD1Ev
	.set	_ZN5boost6system12system_errorD1Ev,_ZN5boost6system12system_errorD2Ev
	.section	.text._ZN5boost6system12system_errorD0Ev,"axG",@progbits,_ZN5boost6system12system_errorD5Ev,comdat
	.align 2
	.weak	_ZN5boost6system12system_errorD0Ev
	.type	_ZN5boost6system12system_errorD0Ev, @function
_ZN5boost6system12system_errorD0Ev:
.LFB7274:
	.cfi_startproc
	pushq	%rbp
	.cfi_def_cfa_offset 16
	.cfi_offset 6, -16
	movq	%rsp, %rbp
	.cfi_def_cfa_register 6
	subq	$16, %rsp
	movq	%rdi, -8(%rbp)
	movq	-8(%rbp), %rax
	movq	%rax, %rdi
	call	_ZN5boost6system12system_errorD1Ev
	movq	-8(%rbp), %rax
	movl	$64, %esi
	movq	%rax, %rdi
	call	_ZdlPvm
	leave
	.cfi_def_cfa 7, 8
	ret
	.cfi_endproc
.LFE7274:
	.size	_ZN5boost6system12system_errorD0Ev, .-_ZN5boost6system12system_errorD0Ev
	.section	.rodata
.LC7:
	.string	": "
	.section	.text._ZNK5boost6system12system_error4whatEv,"axG",@progbits,_ZNK5boost6system12system_error4whatEv,comdat
	.align 2
	.weak	_ZNK5boost6system12system_error4whatEv
	.type	_ZNK5boost6system12system_error4whatEv, @function
_ZNK5boost6system12system_error4whatEv:
.LFB7276:
	.cfi_startproc
	.cfi_personality 0x3,__gxx_personality_v0
	.cfi_lsda 0x3,.LLSDA7276
	pushq	%rbp
	.cfi_def_cfa_offset 16
	.cfi_offset 6, -16
	movq	%rsp, %rbp
	.cfi_def_cfa_register 6
	pushq	%rbx
	subq	$56, %rsp
	.cfi_offset 3, -24
	movq	%rdi, -56(%rbp)
	movq	-56(%rbp), %rax
	addq	$32, %rax
	movq	%rax, %rdi
	call	_ZNKSt7__cxx1112basic_stringIcSt11char_traitsIcESaIcEE5emptyEv
	testb	%al, %al
	je	.L325
	movq	-56(%rbp), %rax
	movq	%rax, %rdi
	call	_ZNKSt13runtime_error4whatEv
	movq	%rax, %rdx
	movq	-56(%rbp), %rax
	addq	$32, %rax
	movq	%rdx, %rsi
	movq	%rax, %rdi
.LEHB17:
	call	_ZNSt7__cxx1112basic_stringIcSt11char_traitsIcESaIcEEaSEPKc
	movq	-56(%rbp), %rax
	addq	$32, %rax
	movq	%rax, %rdi
	call	_ZNKSt7__cxx1112basic_stringIcSt11char_traitsIcESaIcEE5emptyEv
	xorl	$1, %eax
	testb	%al, %al
	je	.L326
	movq	-56(%rbp), %rax
	addq	$32, %rax
	movl	$.LC7, %esi
	movq	%rax, %rdi
	call	_ZNSt7__cxx1112basic_stringIcSt11char_traitsIcESaIcEEpLEPKc
.L326:
	movq	-56(%rbp), %rax
	leaq	16(%rax), %rdx
	leaq	-48(%rbp), %rax
	movq	%rdx, %rsi
	movq	%rax, %rdi
	call	_ZNK5boost6system10error_code7messageB5cxx11Ev
.LEHE17:
	movq	-56(%rbp), %rax
	leaq	32(%rax), %rdx
	leaq	-48(%rbp), %rax
	movq	%rax, %rsi
	movq	%rdx, %rdi
.LEHB18:
	call	_ZNSt7__cxx1112basic_stringIcSt11char_traitsIcESaIcEEpLERKS4_
.LEHE18:
	leaq	-48(%rbp), %rax
	movq	%rax, %rdi
	call	_ZNSt7__cxx1112basic_stringIcSt11char_traitsIcESaIcEED1Ev
.L325:
	movq	-56(%rbp), %rax
	addq	$32, %rax
	movq	%rax, %rdi
	call	_ZNKSt7__cxx1112basic_stringIcSt11char_traitsIcESaIcEE5c_strEv
	movq	%rax, %rbx
	nop
.L327:
	movq	%rbx, %rax
	jmp	.L332
.L331:
	movq	%rax, %rbx
	leaq	-48(%rbp), %rax
	movq	%rax, %rdi
	call	_ZNSt7__cxx1112basic_stringIcSt11char_traitsIcESaIcEED1Ev
	movq	%rbx, %rax
	jmp	.L329
.L330:
.L329:
	movq	%rax, %rdi
	call	__cxa_begin_catch
	movq	-56(%rbp), %rax
	movq	%rax, %rdi
	call	_ZNKSt13runtime_error4whatEv
	movq	%rax, %rbx
	nop
	call	__cxa_end_catch
	jmp	.L327
.L332:
	addq	$56, %rsp
	popq	%rbx
	popq	%rbp
	.cfi_def_cfa 7, 8
	ret
	.cfi_endproc
.LFE7276:
	.section	.gcc_except_table._ZNK5boost6system12system_error4whatEv,"aG",@progbits,_ZNK5boost6system12system_error4whatEv,comdat
	.align 4
.LLSDA7276:
	.byte	0xff
	.byte	0x3
	.uleb128 .LLSDATT7276-.LLSDATTD7276
.LLSDATTD7276:
	.byte	0x1
	.uleb128 .LLSDACSE7276-.LLSDACSB7276
.LLSDACSB7276:
	.uleb128 .LEHB17-.LFB7276
	.uleb128 .LEHE17-.LEHB17
	.uleb128 .L330-.LFB7276
	.uleb128 0x1
	.uleb128 .LEHB18-.LFB7276
	.uleb128 .LEHE18-.LEHB18
	.uleb128 .L331-.LFB7276
	.uleb128 0x3
.LLSDACSE7276:
	.byte	0x1
	.byte	0
	.byte	0
	.byte	0x7d
	.align 4
	.long	0

.LLSDATT7276:
	.section	.text._ZNK5boost6system12system_error4whatEv,"axG",@progbits,_ZNK5boost6system12system_error4whatEv,comdat
	.size	_ZNK5boost6system12system_error4whatEv, .-_ZNK5boost6system12system_error4whatEv
	.section	.text._ZN5boost2io15ios_flags_saverC2ERSt8ios_base,"axG",@progbits,_ZN5boost2io15ios_flags_saverC5ERSt8ios_base,comdat
	.align 2
	.weak	_ZN5boost2io15ios_flags_saverC2ERSt8ios_base
	.type	_ZN5boost2io15ios_flags_saverC2ERSt8ios_base, @function
_ZN5boost2io15ios_flags_saverC2ERSt8ios_base:
.LFB7278:
	.cfi_startproc
	pushq	%rbp
	.cfi_def_cfa_offset 16
	.cfi_offset 6, -16
	movq	%rsp, %rbp
	.cfi_def_cfa_register 6
	subq	$16, %rsp
	movq	%rdi, -8(%rbp)
	movq	%rsi, -16(%rbp)
	movq	-8(%rbp), %rax
	movq	-16(%rbp), %rdx
	movq	%rdx, (%rax)
	movq	-16(%rbp), %rax
	movq	%rax, %rdi
	call	_ZNKSt8ios_base5flagsEv
	movl	%eax, %edx
	movq	-8(%rbp), %rax
	movl	%edx, 8(%rax)
	nop
	leave
	.cfi_def_cfa 7, 8
	ret
	.cfi_endproc
.LFE7278:
	.size	_ZN5boost2io15ios_flags_saverC2ERSt8ios_base, .-_ZN5boost2io15ios_flags_saverC2ERSt8ios_base
	.weak	_ZN5boost2io15ios_flags_saverC1ERSt8ios_base
	.set	_ZN5boost2io15ios_flags_saverC1ERSt8ios_base,_ZN5boost2io15ios_flags_saverC2ERSt8ios_base
	.section	.text._ZN5boost2io15ios_flags_saverD2Ev,"axG",@progbits,_ZN5boost2io15ios_flags_saverD5Ev,comdat
	.align 2
	.weak	_ZN5boost2io15ios_flags_saverD2Ev
	.type	_ZN5boost2io15ios_flags_saverD2Ev, @function
_ZN5boost2io15ios_flags_saverD2Ev:
.LFB7284:
	.cfi_startproc
	pushq	%rbp
	.cfi_def_cfa_offset 16
	.cfi_offset 6, -16
	movq	%rsp, %rbp
	.cfi_def_cfa_register 6
	subq	$16, %rsp
	movq	%rdi, -8(%rbp)
	movq	-8(%rbp), %rax
	movq	%rax, %rdi
	call	_ZN5boost2io15ios_flags_saver7restoreEv
	nop
	leave
	.cfi_def_cfa 7, 8
	ret
	.cfi_endproc
.LFE7284:
	.size	_ZN5boost2io15ios_flags_saverD2Ev, .-_ZN5boost2io15ios_flags_saverD2Ev
	.weak	_ZN5boost2io15ios_flags_saverD1Ev
	.set	_ZN5boost2io15ios_flags_saverD1Ev,_ZN5boost2io15ios_flags_saverD2Ev
	.section	.text._ZN5boost2io15ios_flags_saver7restoreEv,"axG",@progbits,_ZN5boost2io15ios_flags_saver7restoreEv,comdat
	.align 2
	.weak	_ZN5boost2io15ios_flags_saver7restoreEv
	.type	_ZN5boost2io15ios_flags_saver7restoreEv, @function
_ZN5boost2io15ios_flags_saver7restoreEv:
.LFB7286:
	.cfi_startproc
	pushq	%rbp
	.cfi_def_cfa_offset 16
	.cfi_offset 6, -16
	movq	%rsp, %rbp
	.cfi_def_cfa_register 6
	subq	$16, %rsp
	movq	%rdi, -8(%rbp)
	movq	-8(%rbp), %rax
	movq	(%rax), %rax
	movq	-8(%rbp), %rdx
	movl	8(%rdx), %edx
	movl	%edx, %esi
	movq	%rax, %rdi
	call	_ZNSt8ios_base5flagsESt13_Ios_Fmtflags
	nop
	leave
	.cfi_def_cfa 7, 8
	ret
	.cfi_endproc
.LFE7286:
	.size	_ZN5boost2io15ios_flags_saver7restoreEv, .-_ZN5boost2io15ios_flags_saver7restoreEv
	.section	.text._ZN5boost10filesystem4pathD2Ev,"axG",@progbits,_ZN5boost10filesystem4pathD5Ev,comdat
	.align 2
	.weak	_ZN5boost10filesystem4pathD2Ev
	.type	_ZN5boost10filesystem4pathD2Ev, @function
_ZN5boost10filesystem4pathD2Ev:
.LFB7378:
	.cfi_startproc
	pushq	%rbp
	.cfi_def_cfa_offset 16
	.cfi_offset 6, -16
	movq	%rsp, %rbp
	.cfi_def_cfa_register 6
	subq	$16, %rsp
	movq	%rdi, -8(%rbp)
	movq	-8(%rbp), %rax
	movq	%rax, %rdi
	call	_ZNSt7__cxx1112basic_stringIcSt11char_traitsIcESaIcEED1Ev
	nop
	leave
	.cfi_def_cfa 7, 8
	ret
	.cfi_endproc
.LFE7378:
	.size	_ZN5boost10filesystem4pathD2Ev, .-_ZN5boost10filesystem4pathD2Ev
	.weak	_ZN5boost10filesystem4pathD1Ev
	.set	_ZN5boost10filesystem4pathD1Ev,_ZN5boost10filesystem4pathD2Ev
	.section	.text._ZN5boost10filesystem4pathC2Ev,"axG",@progbits,_ZN5boost10filesystem4pathC5Ev,comdat
	.align 2
	.weak	_ZN5boost10filesystem4pathC2Ev
	.type	_ZN5boost10filesystem4pathC2Ev, @function
_ZN5boost10filesystem4pathC2Ev:
.LFB7381:
	.cfi_startproc
	pushq	%rbp
	.cfi_def_cfa_offset 16
	.cfi_offset 6, -16
	movq	%rsp, %rbp
	.cfi_def_cfa_register 6
	subq	$16, %rsp
	movq	%rdi, -8(%rbp)
	movq	-8(%rbp), %rax
	movq	%rax, %rdi
	call	_ZNSt7__cxx1112basic_stringIcSt11char_traitsIcESaIcEEC1Ev
	nop
	leave
	.cfi_def_cfa 7, 8
	ret
	.cfi_endproc
.LFE7381:
	.size	_ZN5boost10filesystem4pathC2Ev, .-_ZN5boost10filesystem4pathC2Ev
	.weak	_ZN5boost10filesystem4pathC1Ev
	.set	_ZN5boost10filesystem4pathC1Ev,_ZN5boost10filesystem4pathC2Ev
	.section	.text._ZN5boost10filesystem4pathC2ERKS1_,"axG",@progbits,_ZN5boost10filesystem4pathC5ERKS1_,comdat
	.align 2
	.weak	_ZN5boost10filesystem4pathC2ERKS1_
	.type	_ZN5boost10filesystem4pathC2ERKS1_, @function
_ZN5boost10filesystem4pathC2ERKS1_:
.LFB7384:
	.cfi_startproc
	pushq	%rbp
	.cfi_def_cfa_offset 16
	.cfi_offset 6, -16
	movq	%rsp, %rbp
	.cfi_def_cfa_register 6
	subq	$16, %rsp
	movq	%rdi, -8(%rbp)
	movq	%rsi, -16(%rbp)
	movq	-8(%rbp), %rax
	movq	-16(%rbp), %rdx
	movq	%rdx, %rsi
	movq	%rax, %rdi
	call	_ZNSt7__cxx1112basic_stringIcSt11char_traitsIcESaIcEEC1ERKS4_
	nop
	leave
	.cfi_def_cfa 7, 8
	ret
	.cfi_endproc
.LFE7384:
	.size	_ZN5boost10filesystem4pathC2ERKS1_, .-_ZN5boost10filesystem4pathC2ERKS1_
	.weak	_ZN5boost10filesystem4pathC1ERKS1_
	.set	_ZN5boost10filesystem4pathC1ERKS1_,_ZN5boost10filesystem4pathC2ERKS1_
	.section	.text._ZN5boost10filesystem4pathC2EPc,"axG",@progbits,_ZN5boost10filesystem4pathC5EPc,comdat
	.align 2
	.weak	_ZN5boost10filesystem4pathC2EPc
	.type	_ZN5boost10filesystem4pathC2EPc, @function
_ZN5boost10filesystem4pathC2EPc:
.LFB7391:
	.cfi_startproc
	.cfi_personality 0x3,__gxx_personality_v0
	.cfi_lsda 0x3,.LLSDA7391
	pushq	%rbp
	.cfi_def_cfa_offset 16
	.cfi_offset 6, -16
	movq	%rsp, %rbp
	.cfi_def_cfa_register 6
	pushq	%rbx
	subq	$40, %rsp
	.cfi_offset 3, -24
	movq	%rdi, -40(%rbp)
	movq	%rsi, -48(%rbp)
	movq	-40(%rbp), %rbx
	leaq	-17(%rbp), %rax
	movq	%rax, %rdi
	call	_ZNSaIcEC1Ev
	leaq	-17(%rbp), %rdx
	movq	-48(%rbp), %rax
	movq	%rax, %rsi
	movq	%rbx, %rdi
.LEHB19:
	call	_ZNSt7__cxx1112basic_stringIcSt11char_traitsIcESaIcEEC1EPKcRKS3_
.LEHE19:
	leaq	-17(%rbp), %rax
	movq	%rax, %rdi
	call	_ZNSaIcED1Ev
	jmp	.L342
.L341:
	movq	%rax, %rbx
	leaq	-17(%rbp), %rax
	movq	%rax, %rdi
	call	_ZNSaIcED1Ev
	movq	%rbx, %rax
	movq	%rax, %rdi
.LEHB20:
	call	_Unwind_Resume
.LEHE20:
.L342:
	addq	$40, %rsp
	popq	%rbx
	popq	%rbp
	.cfi_def_cfa 7, 8
	ret
	.cfi_endproc
.LFE7391:
	.section	.gcc_except_table._ZN5boost10filesystem4pathC2EPc,"aG",@progbits,_ZN5boost10filesystem4pathC5EPc,comdat
.LLSDA7391:
	.byte	0xff
	.byte	0xff
	.byte	0x1
	.uleb128 .LLSDACSE7391-.LLSDACSB7391
.LLSDACSB7391:
	.uleb128 .LEHB19-.LFB7391
	.uleb128 .LEHE19-.LEHB19
	.uleb128 .L341-.LFB7391
	.uleb128 0
	.uleb128 .LEHB20-.LFB7391
	.uleb128 .LEHE20-.LEHB20
	.uleb128 0
	.uleb128 0
.LLSDACSE7391:
	.section	.text._ZN5boost10filesystem4pathC2EPc,"axG",@progbits,_ZN5boost10filesystem4pathC5EPc,comdat
	.size	_ZN5boost10filesystem4pathC2EPc, .-_ZN5boost10filesystem4pathC2EPc
	.weak	_ZN5boost10filesystem4pathC1EPc
	.set	_ZN5boost10filesystem4pathC1EPc,_ZN5boost10filesystem4pathC2EPc
	.section	.text._ZN5boost10filesystem4pathC2EOS1_,"axG",@progbits,_ZN5boost10filesystem4pathC5EOS1_,comdat
	.align 2
	.weak	_ZN5boost10filesystem4pathC2EOS1_
	.type	_ZN5boost10filesystem4pathC2EOS1_, @function
_ZN5boost10filesystem4pathC2EOS1_:
.LFB7400:
	.cfi_startproc
	pushq	%rbp
	.cfi_def_cfa_offset 16
	.cfi_offset 6, -16
	movq	%rsp, %rbp
	.cfi_def_cfa_register 6
	pushq	%rbx
	subq	$24, %rsp
	.cfi_offset 3, -24
	movq	%rdi, -24(%rbp)
	movq	%rsi, -32(%rbp)
	movq	-24(%rbp), %rbx
	movq	-32(%rbp), %rax
	movq	%rax, %rdi
	call	_ZSt4moveIRNSt7__cxx1112basic_stringIcSt11char_traitsIcESaIcEEEEONSt16remove_referenceIT_E4typeEOS8_
	movq	%rax, %rsi
	movq	%rbx, %rdi
	call	_ZNSt7__cxx1112basic_stringIcSt11char_traitsIcESaIcEEC1EOS4_
	nop
	addq	$24, %rsp
	popq	%rbx
	popq	%rbp
	.cfi_def_cfa 7, 8
	ret
	.cfi_endproc
.LFE7400:
	.size	_ZN5boost10filesystem4pathC2EOS1_, .-_ZN5boost10filesystem4pathC2EOS1_
	.weak	_ZN5boost10filesystem4pathC1EOS1_
	.set	_ZN5boost10filesystem4pathC1EOS1_,_ZN5boost10filesystem4pathC2EOS1_
	.section	.text._ZN5boost10filesystem4pathaSERKS1_,"axG",@progbits,_ZN5boost10filesystem4pathaSERKS1_,comdat
	.align 2
	.weak	_ZN5boost10filesystem4pathaSERKS1_
	.type	_ZN5boost10filesystem4pathaSERKS1_, @function
_ZN5boost10filesystem4pathaSERKS1_:
.LFB7406:
	.cfi_startproc
	pushq	%rbp
	.cfi_def_cfa_offset 16
	.cfi_offset 6, -16
	movq	%rsp, %rbp
	.cfi_def_cfa_register 6
	subq	$16, %rsp
	movq	%rdi, -8(%rbp)
	movq	%rsi, -16(%rbp)
	movq	-16(%rbp), %rdx
	movq	-8(%rbp), %rax
	movq	%rdx, %rsi
	movq	%rax, %rdi
	call	_ZNSt7__cxx1112basic_stringIcSt11char_traitsIcESaIcEEaSERKS4_
	movq	-8(%rbp), %rax
	leave
	.cfi_def_cfa 7, 8
	ret
	.cfi_endproc
.LFE7406:
	.size	_ZN5boost10filesystem4pathaSERKS1_, .-_ZN5boost10filesystem4pathaSERKS1_
	.section	.text._ZN5boost10filesystem4pathaSERNSt7__cxx1112basic_stringIcSt11char_traitsIcESaIcEEE,"axG",@progbits,_ZN5boost10filesystem4pathaSERNSt7__cxx1112basic_stringIcSt11char_traitsIcESaIcEEE,comdat
	.align 2
	.weak	_ZN5boost10filesystem4pathaSERNSt7__cxx1112basic_stringIcSt11char_traitsIcESaIcEEE
	.type	_ZN5boost10filesystem4pathaSERNSt7__cxx1112basic_stringIcSt11char_traitsIcESaIcEEE, @function
_ZN5boost10filesystem4pathaSERNSt7__cxx1112basic_stringIcSt11char_traitsIcESaIcEEE:
.LFB7411:
	.cfi_startproc
	pushq	%rbp
	.cfi_def_cfa_offset 16
	.cfi_offset 6, -16
	movq	%rsp, %rbp
	.cfi_def_cfa_register 6
	subq	$16, %rsp
	movq	%rdi, -8(%rbp)
	movq	%rsi, -16(%rbp)
	movq	-8(%rbp), %rax
	movq	-16(%rbp), %rdx
	movq	%rdx, %rsi
	movq	%rax, %rdi
	call	_ZNSt7__cxx1112basic_stringIcSt11char_traitsIcESaIcEEaSERKS4_
	movq	-8(%rbp), %rax
	leave
	.cfi_def_cfa 7, 8
	ret
	.cfi_endproc
.LFE7411:
	.size	_ZN5boost10filesystem4pathaSERNSt7__cxx1112basic_stringIcSt11char_traitsIcESaIcEEE, .-_ZN5boost10filesystem4pathaSERNSt7__cxx1112basic_stringIcSt11char_traitsIcESaIcEEE
	.section	.text._ZNK5boost10filesystem4path5c_strEv,"axG",@progbits,_ZNK5boost10filesystem4path5c_strEv,comdat
	.align 2
	.weak	_ZNK5boost10filesystem4path5c_strEv
	.type	_ZNK5boost10filesystem4path5c_strEv, @function
_ZNK5boost10filesystem4path5c_strEv:
.LFB7438:
	.cfi_startproc
	pushq	%rbp
	.cfi_def_cfa_offset 16
	.cfi_offset 6, -16
	movq	%rsp, %rbp
	.cfi_def_cfa_register 6
	subq	$16, %rsp
	movq	%rdi, -8(%rbp)
	movq	-8(%rbp), %rax
	movq	%rax, %rdi
	call	_ZNKSt7__cxx1112basic_stringIcSt11char_traitsIcESaIcEE5c_strEv
	leave
	.cfi_def_cfa 7, 8
	ret
	.cfi_endproc
.LFE7438:
	.size	_ZNK5boost10filesystem4path5c_strEv, .-_ZNK5boost10filesystem4path5c_strEv
	.section	.text._ZNK5boost10filesystem4path6stringB5cxx11Ev,"axG",@progbits,_ZNK5boost10filesystem4path6stringB5cxx11Ev,comdat
	.align 2
	.weak	_ZNK5boost10filesystem4path6stringB5cxx11Ev
	.type	_ZNK5boost10filesystem4path6stringB5cxx11Ev, @function
_ZNK5boost10filesystem4path6stringB5cxx11Ev:
.LFB7440:
	.cfi_startproc
	pushq	%rbp
	.cfi_def_cfa_offset 16
	.cfi_offset 6, -16
	movq	%rsp, %rbp
	.cfi_def_cfa_register 6
	movq	%rdi, -8(%rbp)
	movq	-8(%rbp), %rax
	popq	%rbp
	.cfi_def_cfa 7, 8
	ret
	.cfi_endproc
.LFE7440:
	.size	_ZNK5boost10filesystem4path6stringB5cxx11Ev, .-_ZNK5boost10filesystem4path6stringB5cxx11Ev
	.section	.text._ZNK5boost10filesystem4path6stringINSt7__cxx1112basic_stringIcSt11char_traitsIcESaIcEEEEET_v,"axG",@progbits,_ZNK5boost10filesystem4path6stringINSt7__cxx1112basic_stringIcSt11char_traitsIcESaIcEEEEET_v,comdat
	.align 2
	.weak	_ZNK5boost10filesystem4path6stringINSt7__cxx1112basic_stringIcSt11char_traitsIcESaIcEEEEET_v
	.type	_ZNK5boost10filesystem4path6stringINSt7__cxx1112basic_stringIcSt11char_traitsIcESaIcEEEEET_v, @function
_ZNK5boost10filesystem4path6stringINSt7__cxx1112basic_stringIcSt11char_traitsIcESaIcEEEEET_v:
.LFB7528:
	.cfi_startproc
	pushq	%rbp
	.cfi_def_cfa_offset 16
	.cfi_offset 6, -16
	movq	%rsp, %rbp
	.cfi_def_cfa_register 6
	subq	$16, %rsp
	movq	%rdi, -8(%rbp)
	movq	%rsi, -16(%rbp)
	movq	-16(%rbp), %rax
	movq	%rax, %rdi
	call	_ZNK5boost10filesystem4path6stringB5cxx11Ev
	movq	%rax, %rdx
	movq	-8(%rbp), %rax
	movq	%rdx, %rsi
	movq	%rax, %rdi
	call	_ZNSt7__cxx1112basic_stringIcSt11char_traitsIcESaIcEEC1ERKS4_
	movq	-8(%rbp), %rax
	leave
	.cfi_def_cfa 7, 8
	ret
	.cfi_endproc
.LFE7528:
	.size	_ZNK5boost10filesystem4path6stringINSt7__cxx1112basic_stringIcSt11char_traitsIcESaIcEEEEET_v, .-_ZNK5boost10filesystem4path6stringINSt7__cxx1112basic_stringIcSt11char_traitsIcESaIcEEEEET_v
	.section	.text._ZN5boost6tuples6detail5cnullEv,"axG",@progbits,_ZN5boost6tuples6detail5cnullEv,comdat
	.weak	_ZN5boost6tuples6detail5cnullEv
	.type	_ZN5boost6tuples6detail5cnullEv, @function
_ZN5boost6tuples6detail5cnullEv:
.LFB8005:
	.cfi_startproc
	pushq	%rbp
	.cfi_def_cfa_offset 16
	.cfi_offset 6, -16
	movq	%rsp, %rbp
	.cfi_def_cfa_register 6
	popq	%rbp
	.cfi_def_cfa 7, 8
	ret
	.cfi_endproc
.LFE8005:
	.size	_ZN5boost6tuples6detail5cnullEv, .-_ZN5boost6tuples6detail5cnullEv
	.section	.text._ZN5boost6tuples6detail14swallow_assignC2EPFMS2_FvvES4_E,"axG",@progbits,_ZN5boost6tuples6detail14swallow_assignC5EPFMS2_FvvES4_E,comdat
	.align 2
	.weak	_ZN5boost6tuples6detail14swallow_assignC2EPFMS2_FvvES4_E
	.type	_ZN5boost6tuples6detail14swallow_assignC2EPFMS2_FvvES4_E, @function
_ZN5boost6tuples6detail14swallow_assignC2EPFMS2_FvvES4_E:
.LFB8052:
	.cfi_startproc
	pushq	%rbp
	.cfi_def_cfa_offset 16
	.cfi_offset 6, -16
	movq	%rsp, %rbp
	.cfi_def_cfa_register 6
	movq	%rdi, -8(%rbp)
	movq	%rsi, -16(%rbp)
	nop
	popq	%rbp
	.cfi_def_cfa 7, 8
	ret
	.cfi_endproc
.LFE8052:
	.size	_ZN5boost6tuples6detail14swallow_assignC2EPFMS2_FvvES4_E, .-_ZN5boost6tuples6detail14swallow_assignC2EPFMS2_FvvES4_E
	.weak	_ZN5boost6tuples6detail14swallow_assignC1EPFMS2_FvvES4_E
	.set	_ZN5boost6tuples6detail14swallow_assignC1EPFMS2_FvvES4_E,_ZN5boost6tuples6detail14swallow_assignC2EPFMS2_FvvES4_E
	.section	.text._ZN5boost6tuples6ignoreEMNS0_6detail14swallow_assignEFvvE,"axG",@progbits,_ZN5boost6tuples6ignoreEMNS0_6detail14swallow_assignEFvvE,comdat
	.weak	_ZN5boost6tuples6ignoreEMNS0_6detail14swallow_assignEFvvE
	.type	_ZN5boost6tuples6ignoreEMNS0_6detail14swallow_assignEFvvE, @function
_ZN5boost6tuples6ignoreEMNS0_6detail14swallow_assignEFvvE:
.LFB8055:
	.cfi_startproc
	pushq	%rbp
	.cfi_def_cfa_offset 16
	.cfi_offset 6, -16
	movq	%rsp, %rbp
	.cfi_def_cfa_register 6
	pushq	%rbx
	.cfi_offset 3, -24
	movq	%rdi, %rax
	movq	%rsi, %rdx
	movq	%rax, -32(%rbp)
	movq	%rdx, -24(%rbp)
	movl	$0, %ecx
	movl	$0, %ebx
	movq	%rcx, %rax
	movq	%rbx, %rdx
	popq	%rbx
	popq	%rbp
	.cfi_def_cfa 7, 8
	ret
	.cfi_endproc
.LFE8055:
	.size	_ZN5boost6tuples6ignoreEMNS0_6detail14swallow_assignEFvvE, .-_ZN5boost6tuples6ignoreEMNS0_6detail14swallow_assignEFvvE
	.section	.text._ZN5boost5logic7triboolC2Eb,"axG",@progbits,_ZN5boost5logic7triboolC5Eb,comdat
	.align 2
	.weak	_ZN5boost5logic7triboolC2Eb
	.type	_ZN5boost5logic7triboolC2Eb, @function
_ZN5boost5logic7triboolC2Eb:
.LFB8085:
	.cfi_startproc
	pushq	%rbp
	.cfi_def_cfa_offset 16
	.cfi_offset 6, -16
	movq	%rsp, %rbp
	.cfi_def_cfa_register 6
	movq	%rdi, -8(%rbp)
	movl	%esi, %eax
	movb	%al, -12(%rbp)
	cmpb	$0, -12(%rbp)
	je	.L360
	movl	$1, %edx
	jmp	.L361
.L360:
	movl	$0, %edx
.L361:
	movq	-8(%rbp), %rax
	movl	%edx, (%rax)
	nop
	popq	%rbp
	.cfi_def_cfa 7, 8
	ret
	.cfi_endproc
.LFE8085:
	.size	_ZN5boost5logic7triboolC2Eb, .-_ZN5boost5logic7triboolC2Eb
	.weak	_ZN5boost5logic7triboolC1Eb
	.set	_ZN5boost5logic7triboolC1Eb,_ZN5boost5logic7triboolC2Eb
	.section	.text._ZN5boost5logic7triboolC2EPFbS1_NS0_6detail15indeterminate_tEE,"axG",@progbits,_ZN5boost5logic7triboolC5EPFbS1_NS0_6detail15indeterminate_tEE,comdat
	.align 2
	.weak	_ZN5boost5logic7triboolC2EPFbS1_NS0_6detail15indeterminate_tEE
	.type	_ZN5boost5logic7triboolC2EPFbS1_NS0_6detail15indeterminate_tEE, @function
_ZN5boost5logic7triboolC2EPFbS1_NS0_6detail15indeterminate_tEE:
.LFB8088:
	.cfi_startproc
	pushq	%rbp
	.cfi_def_cfa_offset 16
	.cfi_offset 6, -16
	movq	%rsp, %rbp
	.cfi_def_cfa_register 6
	movq	%rdi, -8(%rbp)
	movq	%rsi, -16(%rbp)
	movq	-8(%rbp), %rax
	movl	$2, (%rax)
	nop
	popq	%rbp
	.cfi_def_cfa 7, 8
	ret
	.cfi_endproc
.LFE8088:
	.size	_ZN5boost5logic7triboolC2EPFbS1_NS0_6detail15indeterminate_tEE, .-_ZN5boost5logic7triboolC2EPFbS1_NS0_6detail15indeterminate_tEE
	.weak	_ZN5boost5logic7triboolC1EPFbS1_NS0_6detail15indeterminate_tEE
	.set	_ZN5boost5logic7triboolC1EPFbS1_NS0_6detail15indeterminate_tEE,_ZN5boost5logic7triboolC2EPFbS1_NS0_6detail15indeterminate_tEE
	.section	.text._ZNK5boost5logic7triboolcvbEv,"axG",@progbits,_ZNK5boost5logic7triboolcvbEv,comdat
	.align 2
	.weak	_ZNK5boost5logic7triboolcvbEv
	.type	_ZNK5boost5logic7triboolcvbEv, @function
_ZNK5boost5logic7triboolcvbEv:
.LFB8090:
	.cfi_startproc
	pushq	%rbp
	.cfi_def_cfa_offset 16
	.cfi_offset 6, -16
	movq	%rsp, %rbp
	.cfi_def_cfa_register 6
	movq	%rdi, -8(%rbp)
	movq	-8(%rbp), %rax
	movl	(%rax), %eax
	cmpl	$1, %eax
	sete	%al
	popq	%rbp
	.cfi_def_cfa 7, 8
	ret
	.cfi_endproc
.LFE8090:
	.size	_ZNK5boost5logic7triboolcvbEv, .-_ZNK5boost5logic7triboolcvbEv
	.section	.text._ZN5boost5logic13indeterminateENS0_7triboolENS0_6detail15indeterminate_tE,"axG",@progbits,_ZN5boost5logic13indeterminateENS0_7triboolENS0_6detail15indeterminate_tE,comdat
	.weak	_ZN5boost5logic13indeterminateENS0_7triboolENS0_6detail15indeterminate_tE
	.type	_ZN5boost5logic13indeterminateENS0_7triboolENS0_6detail15indeterminate_tE, @function
_ZN5boost5logic13indeterminateENS0_7triboolENS0_6detail15indeterminate_tE:
.LFB8091:
	.cfi_startproc
	pushq	%rbp
	.cfi_def_cfa_offset 16
	.cfi_offset 6, -16
	movq	%rsp, %rbp
	.cfi_def_cfa_register 6
	movl	%edi, -4(%rbp)
	movl	-4(%rbp), %eax
	cmpl	$2, %eax
	sete	%al
	popq	%rbp
	.cfi_def_cfa 7, 8
	ret
	.cfi_endproc
.LFE8091:
	.size	_ZN5boost5logic13indeterminateENS0_7triboolENS0_6detail15indeterminate_tE, .-_ZN5boost5logic13indeterminateENS0_7triboolENS0_6detail15indeterminate_tE
	.section	.text._ZN5boost5logicntENS0_7triboolE,"axG",@progbits,_ZN5boost5logicntENS0_7triboolE,comdat
	.weak	_ZN5boost5logicntENS0_7triboolE
	.type	_ZN5boost5logicntENS0_7triboolE, @function
_ZN5boost5logicntENS0_7triboolE:
.LFB8092:
	.cfi_startproc
	pushq	%rbp
	.cfi_def_cfa_offset 16
	.cfi_offset 6, -16
	movq	%rsp, %rbp
	.cfi_def_cfa_register 6
	subq	$32, %rsp
	movl	%edi, -20(%rbp)
	movl	-20(%rbp), %eax
	testl	%eax, %eax
	jne	.L368
	leaq	-4(%rbp), %rax
	movl	$1, %esi
	movq	%rax, %rdi
	call	_ZN5boost5logic7triboolC1Eb
	jmp	.L371
.L368:
	movl	-20(%rbp), %eax
	cmpl	$1, %eax
	jne	.L370
	leaq	-4(%rbp), %rax
	movl	$0, %esi
	movq	%rax, %rdi
	call	_ZN5boost5logic7triboolC1Eb
	jmp	.L371
.L370:
	leaq	-4(%rbp), %rax
	movl	$_ZN5boost5logic13indeterminateENS0_7triboolENS0_6detail15indeterminate_tE, %esi
	movq	%rax, %rdi
	call	_ZN5boost5logic7triboolC1EPFbS1_NS0_6detail15indeterminate_tEE
.L371:
	movl	-4(%rbp), %eax
	leave
	.cfi_def_cfa 7, 8
	ret
	.cfi_endproc
.LFE8092:
	.size	_ZN5boost5logicntENS0_7triboolE, .-_ZN5boost5logicntENS0_7triboolE
	.section	.text._ZN5boost5logicooENS0_7triboolES1_,"axG",@progbits,_ZN5boost5logicooENS0_7triboolES1_,comdat
	.weak	_ZN5boost5logicooENS0_7triboolES1_
	.type	_ZN5boost5logicooENS0_7triboolES1_, @function
_ZN5boost5logicooENS0_7triboolES1_:
.LFB8098:
	.cfi_startproc
	pushq	%rbp
	.cfi_def_cfa_offset 16
	.cfi_offset 6, -16
	movq	%rsp, %rbp
	.cfi_def_cfa_register 6
	subq	$32, %rsp
	movl	%edi, -20(%rbp)
	movl	%esi, -24(%rbp)
	movl	-20(%rbp), %eax
	movl	%eax, %edi
	call	_ZN5boost5logicntENS0_7triboolE
	movl	%eax, -8(%rbp)
	leaq	-8(%rbp), %rax
	movq	%rax, %rdi
	call	_ZNK5boost5logic7triboolcvbEv
	testb	%al, %al
	je	.L373
	movl	-24(%rbp), %eax
	movl	%eax, %edi
	call	_ZN5boost5logicntENS0_7triboolE
	movl	%eax, -4(%rbp)
	leaq	-4(%rbp), %rax
	movq	%rax, %rdi
	call	_ZNK5boost5logic7triboolcvbEv
	testb	%al, %al
	je	.L373
	leaq	-12(%rbp), %rax
	movl	$0, %esi
	movq	%rax, %rdi
	call	_ZN5boost5logic7triboolC1Eb
	jmp	.L377
.L373:
	leaq	-20(%rbp), %rax
	movq	%rax, %rdi
	call	_ZNK5boost5logic7triboolcvbEv
	testb	%al, %al
	jne	.L375
	leaq	-24(%rbp), %rax
	movq	%rax, %rdi
	call	_ZNK5boost5logic7triboolcvbEv
	testb	%al, %al
	je	.L376
.L375:
	leaq	-12(%rbp), %rax
	movl	$1, %esi
	movq	%rax, %rdi
	call	_ZN5boost5logic7triboolC1Eb
	jmp	.L377
.L376:
	leaq	-12(%rbp), %rax
	movl	$_ZN5boost5logic13indeterminateENS0_7triboolENS0_6detail15indeterminate_tE, %esi
	movq	%rax, %rdi
	call	_ZN5boost5logic7triboolC1EPFbS1_NS0_6detail15indeterminate_tEE
.L377:
	movl	-12(%rbp), %eax
	leave
	.cfi_def_cfa 7, 8
	ret
	.cfi_endproc
.LFE8098:
	.size	_ZN5boost5logicooENS0_7triboolES1_, .-_ZN5boost5logicooENS0_7triboolES1_
	.section	.rodata
	.align 4
	.type	_ZN5boost6locale8boundaryL9word_noneE, @object
	.size	_ZN5boost6locale8boundaryL9word_noneE, 4
_ZN5boost6locale8boundaryL9word_noneE:
	.long	15
	.align 4
	.type	_ZN5boost6locale8boundaryL11word_numberE, @object
	.size	_ZN5boost6locale8boundaryL11word_numberE, 4
_ZN5boost6locale8boundaryL11word_numberE:
	.long	240
	.align 4
	.type	_ZN5boost6locale8boundaryL11word_letterE, @object
	.size	_ZN5boost6locale8boundaryL11word_letterE, 4
_ZN5boost6locale8boundaryL11word_letterE:
	.long	3840
	.align 4
	.type	_ZN5boost6locale8boundaryL9word_kanaE, @object
	.size	_ZN5boost6locale8boundaryL9word_kanaE, 4
_ZN5boost6locale8boundaryL9word_kanaE:
	.long	61440
	.align 4
	.type	_ZN5boost6locale8boundaryL9word_ideoE, @object
	.size	_ZN5boost6locale8boundaryL9word_ideoE, 4
_ZN5boost6locale8boundaryL9word_ideoE:
	.long	983040
	.align 4
	.type	_ZN5boost6locale8boundaryL8word_anyE, @object
	.size	_ZN5boost6locale8boundaryL8word_anyE, 4
_ZN5boost6locale8boundaryL8word_anyE:
	.long	1048560
	.align 4
	.type	_ZN5boost6locale8boundaryL12word_lettersE, @object
	.size	_ZN5boost6locale8boundaryL12word_lettersE, 4
_ZN5boost6locale8boundaryL12word_lettersE:
	.long	1048320
	.align 4
	.type	_ZN5boost6locale8boundaryL14word_kana_ideoE, @object
	.size	_ZN5boost6locale8boundaryL14word_kana_ideoE, 4
_ZN5boost6locale8boundaryL14word_kana_ideoE:
	.long	1044480
	.align 4
	.type	_ZN5boost6locale8boundaryL9word_maskE, @object
	.size	_ZN5boost6locale8boundaryL9word_maskE, 4
_ZN5boost6locale8boundaryL9word_maskE:
	.long	1048575
	.align 4
	.type	_ZN5boost6locale8boundaryL9line_softE, @object
	.size	_ZN5boost6locale8boundaryL9line_softE, 4
_ZN5boost6locale8boundaryL9line_softE:
	.long	15
	.align 4
	.type	_ZN5boost6locale8boundaryL9line_hardE, @object
	.size	_ZN5boost6locale8boundaryL9line_hardE, 4
_ZN5boost6locale8boundaryL9line_hardE:
	.long	240
	.align 4
	.type	_ZN5boost6locale8boundaryL8line_anyE, @object
	.size	_ZN5boost6locale8boundaryL8line_anyE, 4
_ZN5boost6locale8boundaryL8line_anyE:
	.long	255
	.align 4
	.type	_ZN5boost6locale8boundaryL9line_maskE, @object
	.size	_ZN5boost6locale8boundaryL9line_maskE, 4
_ZN5boost6locale8boundaryL9line_maskE:
	.long	255
	.align 4
	.type	_ZN5boost6locale8boundaryL13sentence_termE, @object
	.size	_ZN5boost6locale8boundaryL13sentence_termE, 4
_ZN5boost6locale8boundaryL13sentence_termE:
	.long	15
	.align 4
	.type	_ZN5boost6locale8boundaryL12sentence_sepE, @object
	.size	_ZN5boost6locale8boundaryL12sentence_sepE, 4
_ZN5boost6locale8boundaryL12sentence_sepE:
	.long	240
	.align 4
	.type	_ZN5boost6locale8boundaryL12sentence_anyE, @object
	.size	_ZN5boost6locale8boundaryL12sentence_anyE, 4
_ZN5boost6locale8boundaryL12sentence_anyE:
	.long	255
	.align 4
	.type	_ZN5boost6locale8boundaryL13sentence_maskE, @object
	.size	_ZN5boost6locale8boundaryL13sentence_maskE, 4
_ZN5boost6locale8boundaryL13sentence_maskE:
	.long	255
	.align 4
	.type	_ZN5boost6locale8boundaryL13character_anyE, @object
	.size	_ZN5boost6locale8boundaryL13character_anyE, 4
_ZN5boost6locale8boundaryL13character_anyE:
	.long	15
	.align 4
	.type	_ZN5boost6locale8boundaryL14character_maskE, @object
	.size	_ZN5boost6locale8boundaryL14character_maskE, 4
_ZN5boost6locale8boundaryL14character_maskE:
	.long	15
	.align 4
	.type	_ZN5boost6locale3utfL7illegalE, @object
	.size	_ZN5boost6locale3utfL7illegalE, 4
_ZN5boost6locale3utfL7illegalE:
	.long	-1
	.align 4
	.type	_ZN5boost6locale3utfL10incompleteE, @object
	.size	_ZN5boost6locale3utfL10incompleteE, 4
_ZN5boost6locale3utfL10incompleteE:
	.long	-2
	.align 4
	.type	_ZN5boost6localeL12nochar_facetE, @object
	.size	_ZN5boost6localeL12nochar_facetE, 4
_ZN5boost6localeL12nochar_facetE:
	.zero	4
	.align 4
	.type	_ZN5boost6localeL10char_facetE, @object
	.size	_ZN5boost6localeL10char_facetE, 4
_ZN5boost6localeL10char_facetE:
	.long	1
	.align 4
	.type	_ZN5boost6localeL13wchar_t_facetE, @object
	.size	_ZN5boost6localeL13wchar_t_facetE, 4
_ZN5boost6localeL13wchar_t_facetE:
	.long	2
	.align 4
	.type	_ZN5boost6localeL14char16_t_facetE, @object
	.size	_ZN5boost6localeL14char16_t_facetE, 4
_ZN5boost6localeL14char16_t_facetE:
	.long	4
	.align 4
	.type	_ZN5boost6localeL14char32_t_facetE, @object
	.size	_ZN5boost6localeL14char32_t_facetE, 4
_ZN5boost6localeL14char32_t_facetE:
	.long	8
	.align 4
	.type	_ZN5boost6localeL21character_first_facetE, @object
	.size	_ZN5boost6localeL21character_first_facetE, 4
_ZN5boost6localeL21character_first_facetE:
	.long	1
	.align 4
	.type	_ZN5boost6localeL20character_last_facetE, @object
	.size	_ZN5boost6localeL20character_last_facetE, 4
_ZN5boost6localeL20character_last_facetE:
	.long	8
	.align 4
	.type	_ZN5boost6localeL14all_charactersE, @object
	.size	_ZN5boost6localeL14all_charactersE, 4
_ZN5boost6localeL14all_charactersE:
	.long	65535
	.align 4
	.type	_ZN5boost6localeL13convert_facetE, @object
	.size	_ZN5boost6localeL13convert_facetE, 4
_ZN5boost6localeL13convert_facetE:
	.long	1
	.align 4
	.type	_ZN5boost6localeL15collation_facetE, @object
	.size	_ZN5boost6localeL15collation_facetE, 4
_ZN5boost6localeL15collation_facetE:
	.long	2
	.align 4
	.type	_ZN5boost6localeL16formatting_facetE, @object
	.size	_ZN5boost6localeL16formatting_facetE, 4
_ZN5boost6localeL16formatting_facetE:
	.long	4
	.align 4
	.type	_ZN5boost6localeL13parsing_facetE, @object
	.size	_ZN5boost6localeL13parsing_facetE, 4
_ZN5boost6localeL13parsing_facetE:
	.long	8
	.align 4
	.type	_ZN5boost6localeL13message_facetE, @object
	.size	_ZN5boost6localeL13message_facetE, 4
_ZN5boost6localeL13message_facetE:
	.long	16
	.align 4
	.type	_ZN5boost6localeL14codepage_facetE, @object
	.size	_ZN5boost6localeL14codepage_facetE, 4
_ZN5boost6localeL14codepage_facetE:
	.long	32
	.align 4
	.type	_ZN5boost6localeL14boundary_facetE, @object
	.size	_ZN5boost6localeL14boundary_facetE, 4
_ZN5boost6localeL14boundary_facetE:
	.long	64
	.align 4
	.type	_ZN5boost6localeL25per_character_facet_firstE, @object
	.size	_ZN5boost6localeL25per_character_facet_firstE, 4
_ZN5boost6localeL25per_character_facet_firstE:
	.long	1
	.align 4
	.type	_ZN5boost6localeL24per_character_facet_lastE, @object
	.size	_ZN5boost6localeL24per_character_facet_lastE, 4
_ZN5boost6localeL24per_character_facet_lastE:
	.long	64
	.align 4
	.type	_ZN5boost6localeL14calendar_facetE, @object
	.size	_ZN5boost6localeL14calendar_facetE, 4
_ZN5boost6localeL14calendar_facetE:
	.long	65536
	.align 4
	.type	_ZN5boost6localeL17information_facetE, @object
	.size	_ZN5boost6localeL17information_facetE, 4
_ZN5boost6localeL17information_facetE:
	.long	131072
	.align 4
	.type	_ZN5boost6localeL25non_character_facet_firstE, @object
	.size	_ZN5boost6localeL25non_character_facet_firstE, 4
_ZN5boost6localeL25non_character_facet_firstE:
	.long	65536
	.align 4
	.type	_ZN5boost6localeL24non_character_facet_lastE, @object
	.size	_ZN5boost6localeL24non_character_facet_lastE, 4
_ZN5boost6localeL24non_character_facet_lastE:
	.long	131072
	.align 4
	.type	_ZN5boost6localeL14all_categoriesE, @object
	.size	_ZN5boost6localeL14all_categoriesE, 4
_ZN5boost6localeL14all_categoriesE:
	.long	-1
.LC8:
	.string	"indeterminate"
	.section	.text._ZN5boost5logic30get_default_indeterminate_nameIcEENSt7__cxx1112basic_stringIT_St11char_traitsIS4_ESaIS4_EEEv,"axG",@progbits,_ZN5boost5logic30get_default_indeterminate_nameIcEENSt7__cxx1112basic_stringIT_St11char_traitsIS4_ESaIS4_EEEv,comdat
	.weak	_ZN5boost5logic30get_default_indeterminate_nameIcEENSt7__cxx1112basic_stringIT_St11char_traitsIS4_ESaIS4_EEEv
	.type	_ZN5boost5logic30get_default_indeterminate_nameIcEENSt7__cxx1112basic_stringIT_St11char_traitsIS4_ESaIS4_EEEv, @function
_ZN5boost5logic30get_default_indeterminate_nameIcEENSt7__cxx1112basic_stringIT_St11char_traitsIS4_ESaIS4_EEEv:
.LFB8684:
	.cfi_startproc
	.cfi_personality 0x3,__gxx_personality_v0
	.cfi_lsda 0x3,.LLSDA8684
	pushq	%rbp
	.cfi_def_cfa_offset 16
	.cfi_offset 6, -16
	movq	%rsp, %rbp
	.cfi_def_cfa_register 6
	pushq	%rbx
	subq	$40, %rsp
	.cfi_offset 3, -24
	movq	%rdi, -40(%rbp)
	leaq	-17(%rbp), %rax
	movq	%rax, %rdi
	call	_ZNSaIcEC1Ev
	leaq	-17(%rbp), %rdx
	movq	-40(%rbp), %rax
	movl	$.LC8, %esi
	movq	%rax, %rdi
.LEHB21:
	call	_ZNSt7__cxx1112basic_stringIcSt11char_traitsIcESaIcEEC1EPKcRKS3_
.LEHE21:
	leaq	-17(%rbp), %rax
	movq	%rax, %rdi
	call	_ZNSaIcED1Ev
	jmp	.L382
.L381:
	movq	%rax, %rbx
	leaq	-17(%rbp), %rax
	movq	%rax, %rdi
	call	_ZNSaIcED1Ev
	movq	%rbx, %rax
	movq	%rax, %rdi
.LEHB22:
	call	_Unwind_Resume
.LEHE22:
.L382:
	movq	-40(%rbp), %rax
	addq	$40, %rsp
	popq	%rbx
	popq	%rbp
	.cfi_def_cfa 7, 8
	ret
	.cfi_endproc
.LFE8684:
	.section	.gcc_except_table._ZN5boost5logic30get_default_indeterminate_nameIcEENSt7__cxx1112basic_stringIT_St11char_traitsIS4_ESaIS4_EEEv,"aG",@progbits,_ZN5boost5logic30get_default_indeterminate_nameIcEENSt7__cxx1112basic_stringIT_St11char_traitsIS4_ESaIS4_EEEv,comdat
.LLSDA8684:
	.byte	0xff
	.byte	0xff
	.byte	0x1
	.uleb128 .LLSDACSE8684-.LLSDACSB8684
.LLSDACSB8684:
	.uleb128 .LEHB21-.LFB8684
	.uleb128 .LEHE21-.LEHB21
	.uleb128 .L381-.LFB8684
	.uleb128 0
	.uleb128 .LEHB22-.LFB8684
	.uleb128 .LEHE22-.LEHB22
	.uleb128 0
	.uleb128 0
.LLSDACSE8684:
	.section	.text._ZN5boost5logic30get_default_indeterminate_nameIcEENSt7__cxx1112basic_stringIT_St11char_traitsIS4_ESaIS4_EEEv,"axG",@progbits,_ZN5boost5logic30get_default_indeterminate_nameIcEENSt7__cxx1112basic_stringIT_St11char_traitsIS4_ESaIS4_EEEv,comdat
	.size	_ZN5boost5logic30get_default_indeterminate_nameIcEENSt7__cxx1112basic_stringIT_St11char_traitsIS4_ESaIS4_EEEv, .-_ZN5boost5logic30get_default_indeterminate_nameIcEENSt7__cxx1112basic_stringIT_St11char_traitsIS4_ESaIS4_EEEv
	.section	.text._ZNSt5arrayINSt7__cxx1118basic_stringstreamIwSt11char_traitsIwESaIwEEELm3EED2Ev,"axG",@progbits,_ZNSt5arrayINSt7__cxx1118basic_stringstreamIwSt11char_traitsIwESaIwEEELm3EED5Ev,comdat
	.align 2
	.weak	_ZNSt5arrayINSt7__cxx1118basic_stringstreamIwSt11char_traitsIwESaIwEEELm3EED2Ev
	.type	_ZNSt5arrayINSt7__cxx1118basic_stringstreamIwSt11char_traitsIwESaIwEEELm3EED2Ev, @function
_ZNSt5arrayINSt7__cxx1118basic_stringstreamIwSt11char_traitsIwESaIwEEELm3EED2Ev:
.LFB8696:
	.cfi_startproc
	pushq	%rbp
	.cfi_def_cfa_offset 16
	.cfi_offset 6, -16
	movq	%rsp, %rbp
	.cfi_def_cfa_register 6
	pushq	%rbx
	subq	$24, %rsp
	.cfi_offset 3, -24
	movq	%rdi, -24(%rbp)
	movq	-24(%rbp), %rax
	testq	%rax, %rax
	je	.L384
	movq	-24(%rbp), %rax
	leaq	1176(%rax), %rbx
.L385:
	movq	-24(%rbp), %rax
	cmpq	%rax, %rbx
	je	.L384
	subq	$392, %rbx
	movq	(%rbx), %rax
	movq	(%rax), %rax
	movq	%rbx, %rdi
	call	*%rax
	jmp	.L385
.L384:
	nop
	addq	$24, %rsp
	popq	%rbx
	popq	%rbp
	.cfi_def_cfa 7, 8
	ret
	.cfi_endproc
.LFE8696:
	.size	_ZNSt5arrayINSt7__cxx1118basic_stringstreamIwSt11char_traitsIwESaIwEEELm3EED2Ev, .-_ZNSt5arrayINSt7__cxx1118basic_stringstreamIwSt11char_traitsIwESaIwEEELm3EED2Ev
	.weak	_ZNSt5arrayINSt7__cxx1118basic_stringstreamIwSt11char_traitsIwESaIwEEELm3EED1Ev
	.set	_ZNSt5arrayINSt7__cxx1118basic_stringstreamIwSt11char_traitsIwESaIwEEELm3EED1Ev,_ZNSt5arrayINSt7__cxx1118basic_stringstreamIwSt11char_traitsIwESaIwEEELm3EED2Ev
	.section	.text._ZNSt5arrayINSt7__cxx1112basic_stringIwSt11char_traitsIwESaIwEEELm2EED2Ev,"axG",@progbits,_ZNSt5arrayINSt7__cxx1112basic_stringIwSt11char_traitsIwESaIwEEELm2EED5Ev,comdat
	.align 2
	.weak	_ZNSt5arrayINSt7__cxx1112basic_stringIwSt11char_traitsIwESaIwEEELm2EED2Ev
	.type	_ZNSt5arrayINSt7__cxx1112basic_stringIwSt11char_traitsIwESaIwEEELm2EED2Ev, @function
_ZNSt5arrayINSt7__cxx1112basic_stringIwSt11char_traitsIwESaIwEEELm2EED2Ev:
.LFB8699:
	.cfi_startproc
	pushq	%rbp
	.cfi_def_cfa_offset 16
	.cfi_offset 6, -16
	movq	%rsp, %rbp
	.cfi_def_cfa_register 6
	pushq	%rbx
	subq	$24, %rsp
	.cfi_offset 3, -24
	movq	%rdi, -24(%rbp)
	movq	-24(%rbp), %rax
	testq	%rax, %rax
	je	.L387
	movq	-24(%rbp), %rax
	leaq	64(%rax), %rbx
.L388:
	movq	-24(%rbp), %rax
	cmpq	%rax, %rbx
	je	.L387
	subq	$32, %rbx
	movq	%rbx, %rdi
	call	_ZNSt7__cxx1112basic_stringIwSt11char_traitsIwESaIwEED1Ev
	jmp	.L388
.L387:
	nop
	addq	$24, %rsp
	popq	%rbx
	popq	%rbp
	.cfi_def_cfa 7, 8
	ret
	.cfi_endproc
.LFE8699:
	.size	_ZNSt5arrayINSt7__cxx1112basic_stringIwSt11char_traitsIwESaIwEEELm2EED2Ev, .-_ZNSt5arrayINSt7__cxx1112basic_stringIwSt11char_traitsIwESaIwEEELm2EED2Ev
	.weak	_ZNSt5arrayINSt7__cxx1112basic_stringIwSt11char_traitsIwESaIwEEELm2EED1Ev
	.set	_ZNSt5arrayINSt7__cxx1112basic_stringIwSt11char_traitsIwESaIwEEELm2EED1Ev,_ZNSt5arrayINSt7__cxx1112basic_stringIwSt11char_traitsIwESaIwEEELm2EED2Ev
	.section	.text._ZNSt3mapIN9ReqParser5StateENSt7__cxx1112basic_stringIcSt11char_traitsIcESaIcEEESt4lessIS1_ESaISt4pairIKS1_S7_EEED2Ev,"axG",@progbits,_ZNSt3mapIN9ReqParser5StateENSt7__cxx1112basic_stringIcSt11char_traitsIcESaIcEEESt4lessIS1_ESaISt4pairIKS1_S7_EEED5Ev,comdat
	.align 2
	.weak	_ZNSt3mapIN9ReqParser5StateENSt7__cxx1112basic_stringIcSt11char_traitsIcESaIcEEESt4lessIS1_ESaISt4pairIKS1_S7_EEED2Ev
	.type	_ZNSt3mapIN9ReqParser5StateENSt7__cxx1112basic_stringIcSt11char_traitsIcESaIcEEESt4lessIS1_ESaISt4pairIKS1_S7_EEED2Ev, @function
_ZNSt3mapIN9ReqParser5StateENSt7__cxx1112basic_stringIcSt11char_traitsIcESaIcEEESt4lessIS1_ESaISt4pairIKS1_S7_EEED2Ev:
.LFB8702:
	.cfi_startproc
	pushq	%rbp
	.cfi_def_cfa_offset 16
	.cfi_offset 6, -16
	movq	%rsp, %rbp
	.cfi_def_cfa_register 6
	subq	$16, %rsp
	movq	%rdi, -8(%rbp)
	movq	-8(%rbp), %rax
	movq	%rax, %rdi
	call	_ZNSt8_Rb_treeIN9ReqParser5StateESt4pairIKS1_NSt7__cxx1112basic_stringIcSt11char_traitsIcESaIcEEEESt10_Select1stISA_ESt4lessIS1_ESaISA_EED1Ev
	nop
	leave
	.cfi_def_cfa 7, 8
	ret
	.cfi_endproc
.LFE8702:
	.size	_ZNSt3mapIN9ReqParser5StateENSt7__cxx1112basic_stringIcSt11char_traitsIcESaIcEEESt4lessIS1_ESaISt4pairIKS1_S7_EEED2Ev, .-_ZNSt3mapIN9ReqParser5StateENSt7__cxx1112basic_stringIcSt11char_traitsIcESaIcEEESt4lessIS1_ESaISt4pairIKS1_S7_EEED2Ev
	.weak	_ZNSt3mapIN9ReqParser5StateENSt7__cxx1112basic_stringIcSt11char_traitsIcESaIcEEESt4lessIS1_ESaISt4pairIKS1_S7_EEED1Ev
	.set	_ZNSt3mapIN9ReqParser5StateENSt7__cxx1112basic_stringIcSt11char_traitsIcESaIcEEESt4lessIS1_ESaISt4pairIKS1_S7_EEED1Ev,_ZNSt3mapIN9ReqParser5StateENSt7__cxx1112basic_stringIcSt11char_traitsIcESaIcEEESt4lessIS1_ESaISt4pairIKS1_S7_EEED2Ev
	.section	.text._ZN9ReqParserD2Ev,"axG",@progbits,_ZN9ReqParserD5Ev,comdat
	.align 2
	.weak	_ZN9ReqParserD2Ev
	.type	_ZN9ReqParserD2Ev, @function
_ZN9ReqParserD2Ev:
.LFB8704:
	.cfi_startproc
	pushq	%rbp
	.cfi_def_cfa_offset 16
	.cfi_offset 6, -16
	movq	%rsp, %rbp
	.cfi_def_cfa_register 6
	subq	$16, %rsp
	movq	%rdi, -8(%rbp)
	movq	-8(%rbp), %rax
	addq	$1272, %rax
	movq	%rax, %rdi
	call	_ZNSt3mapIN9ReqParser5StateENSt7__cxx1112basic_stringIcSt11char_traitsIcESaIcEEESt4lessIS1_ESaISt4pairIKS1_S7_EEED1Ev
	movq	-8(%rbp), %rax
	addq	$1264, %rax
	movq	%rax, %rdi
	call	_ZN5boost6locale9generatorD1Ev
	movq	-8(%rbp), %rax
	addq	$1200, %rax
	movq	%rax, %rdi
	call	_ZNSt5arrayINSt7__cxx1112basic_stringIwSt11char_traitsIwESaIwEEELm2EED1Ev
	movq	-8(%rbp), %rax
	addq	$24, %rax
	movq	%rax, %rdi
	call	_ZNSt5arrayINSt7__cxx1118basic_stringstreamIwSt11char_traitsIwESaIwEEELm3EED1Ev
	nop
	leave
	.cfi_def_cfa 7, 8
	ret
	.cfi_endproc
.LFE8704:
	.size	_ZN9ReqParserD2Ev, .-_ZN9ReqParserD2Ev
	.weak	_ZN9ReqParserD1Ev
	.set	_ZN9ReqParserD1Ev,_ZN9ReqParserD2Ev
	.section	.text._ZN5boost15program_options19options_descriptionD2Ev,"axG",@progbits,_ZN5boost15program_options19options_descriptionD5Ev,comdat
	.align 2
	.weak	_ZN5boost15program_options19options_descriptionD2Ev
	.type	_ZN5boost15program_options19options_descriptionD2Ev, @function
_ZN5boost15program_options19options_descriptionD2Ev:
.LFB8707:
	.cfi_startproc
	pushq	%rbp
	.cfi_def_cfa_offset 16
	.cfi_offset 6, -16
	movq	%rsp, %rbp
	.cfi_def_cfa_register 6
	subq	$16, %rsp
	movq	%rdi, -8(%rbp)
	movq	-8(%rbp), %rax
	addq	$104, %rax
	movq	%rax, %rdi
	call	_ZNSt6vectorIN5boost10shared_ptrINS0_15program_options19options_descriptionEEESaIS4_EED1Ev
	movq	-8(%rbp), %rax
	addq	$64, %rax
	movq	%rax, %rdi
	call	_ZNSt6vectorIbSaIbEED1Ev
	movq	-8(%rbp), %rax
	addq	$40, %rax
	movq	%rax, %rdi
	call	_ZNSt6vectorIN5boost10shared_ptrINS0_15program_options18option_descriptionEEESaIS4_EED1Ev
	movq	-8(%rbp), %rax
	movq	%rax, %rdi
	call	_ZNSt7__cxx1112basic_stringIcSt11char_traitsIcESaIcEED1Ev
	nop
	leave
	.cfi_def_cfa 7, 8
	ret
	.cfi_endproc
.LFE8707:
	.size	_ZN5boost15program_options19options_descriptionD2Ev, .-_ZN5boost15program_options19options_descriptionD2Ev
	.weak	_ZN5boost15program_options19options_descriptionD1Ev
	.set	_ZN5boost15program_options19options_descriptionD1Ev,_ZN5boost15program_options19options_descriptionD2Ev
	.section	.text._ZN5boost15program_options30positional_options_descriptionD2Ev,"axG",@progbits,_ZN5boost15program_options30positional_options_descriptionD5Ev,comdat
	.align 2
	.weak	_ZN5boost15program_options30positional_options_descriptionD2Ev
	.type	_ZN5boost15program_options30positional_options_descriptionD2Ev, @function
_ZN5boost15program_options30positional_options_descriptionD2Ev:
.LFB8710:
	.cfi_startproc
	pushq	%rbp
	.cfi_def_cfa_offset 16
	.cfi_offset 6, -16
	movq	%rsp, %rbp
	.cfi_def_cfa_register 6
	subq	$16, %rsp
	movq	%rdi, -8(%rbp)
	movq	-8(%rbp), %rax
	addq	$24, %rax
	movq	%rax, %rdi
	call	_ZNSt7__cxx1112basic_stringIcSt11char_traitsIcESaIcEED1Ev
	movq	-8(%rbp), %rax
	movq	%rax, %rdi
	call	_ZNSt6vectorINSt7__cxx1112basic_stringIcSt11char_traitsIcESaIcEEESaIS5_EED1Ev
	nop
	leave
	.cfi_def_cfa 7, 8
	ret
	.cfi_endproc
.LFE8710:
	.size	_ZN5boost15program_options30positional_options_descriptionD2Ev, .-_ZN5boost15program_options30positional_options_descriptionD2Ev
	.weak	_ZN5boost15program_options30positional_options_descriptionD1Ev
	.set	_ZN5boost15program_options30positional_options_descriptionD1Ev,_ZN5boost15program_options30positional_options_descriptionD2Ev
	.section	.text._ZN5boost15program_options6detail7cmdlineD2Ev,"axG",@progbits,_ZN5boost15program_options6detail7cmdlineD5Ev,comdat
	.align 2
	.weak	_ZN5boost15program_options6detail7cmdlineD2Ev
	.type	_ZN5boost15program_options6detail7cmdlineD2Ev, @function
_ZN5boost15program_options6detail7cmdlineD2Ev:
.LFB8714:
	.cfi_startproc
	pushq	%rbp
	.cfi_def_cfa_offset 16
	.cfi_offset 6, -16
	movq	%rsp, %rbp
	.cfi_def_cfa_register 6
	subq	$16, %rsp
	movq	%rdi, -8(%rbp)
	movq	-8(%rbp), %rax
	addq	$80, %rax
	movq	%rax, %rdi
	call	_ZN5boost9function1ISt6vectorINS_15program_options12basic_optionIcEESaIS4_EERS1_INSt7__cxx1112basic_stringIcSt11char_traitsIcESaIcEEESaISC_EEED1Ev
	movq	-8(%rbp), %rax
	addq	$48, %rax
	movq	%rax, %rdi
	call	_ZN5boost9function1ISt4pairINSt7__cxx1112basic_stringIcSt11char_traitsIcESaIcEEES7_ERKS7_ED1Ev
	movq	-8(%rbp), %rax
	movq	%rax, %rdi
	call	_ZNSt6vectorINSt7__cxx1112basic_stringIcSt11char_traitsIcESaIcEEESaIS5_EED1Ev
	nop
	leave
	.cfi_def_cfa 7, 8
	ret
	.cfi_endproc
.LFE8714:
	.size	_ZN5boost15program_options6detail7cmdlineD2Ev, .-_ZN5boost15program_options6detail7cmdlineD2Ev
	.weak	_ZN5boost15program_options6detail7cmdlineD1Ev
	.set	_ZN5boost15program_options6detail7cmdlineD1Ev,_ZN5boost15program_options6detail7cmdlineD2Ev
	.section	.text._ZN5boost15program_options25basic_command_line_parserIcED2Ev,"axG",@progbits,_ZN5boost15program_options25basic_command_line_parserIcED5Ev,comdat
	.align 2
	.weak	_ZN5boost15program_options25basic_command_line_parserIcED2Ev
	.type	_ZN5boost15program_options25basic_command_line_parserIcED2Ev, @function
_ZN5boost15program_options25basic_command_line_parserIcED2Ev:
.LFB8716:
	.cfi_startproc
	pushq	%rbp
	.cfi_def_cfa_offset 16
	.cfi_offset 6, -16
	movq	%rsp, %rbp
	.cfi_def_cfa_register 6
	subq	$16, %rsp
	movq	%rdi, -8(%rbp)
	movq	-8(%rbp), %rax
	movq	%rax, %rdi
	call	_ZN5boost15program_options6detail7cmdlineD2Ev
	nop
	leave
	.cfi_def_cfa 7, 8
	ret
	.cfi_endproc
.LFE8716:
	.size	_ZN5boost15program_options25basic_command_line_parserIcED2Ev, .-_ZN5boost15program_options25basic_command_line_parserIcED2Ev
	.weak	_ZN5boost15program_options25basic_command_line_parserIcED1Ev
	.set	_ZN5boost15program_options25basic_command_line_parserIcED1Ev,_ZN5boost15program_options25basic_command_line_parserIcED2Ev
	.section	.text._ZN5boost15program_options20basic_parsed_optionsIcED2Ev,"axG",@progbits,_ZN5boost15program_options20basic_parsed_optionsIcED5Ev,comdat
	.align 2
	.weak	_ZN5boost15program_options20basic_parsed_optionsIcED2Ev
	.type	_ZN5boost15program_options20basic_parsed_optionsIcED2Ev, @function
_ZN5boost15program_options20basic_parsed_optionsIcED2Ev:
.LFB8719:
	.cfi_startproc
	pushq	%rbp
	.cfi_def_cfa_offset 16
	.cfi_offset 6, -16
	movq	%rsp, %rbp
	.cfi_def_cfa_register 6
	subq	$16, %rsp
	movq	%rdi, -8(%rbp)
	movq	-8(%rbp), %rax
	movq	%rax, %rdi
	call	_ZNSt6vectorIN5boost15program_options12basic_optionIcEESaIS3_EED1Ev
	nop
	leave
	.cfi_def_cfa 7, 8
	ret
	.cfi_endproc
.LFE8719:
	.size	_ZN5boost15program_options20basic_parsed_optionsIcED2Ev, .-_ZN5boost15program_options20basic_parsed_optionsIcED2Ev
	.weak	_ZN5boost15program_options20basic_parsed_optionsIcED1Ev
	.set	_ZN5boost15program_options20basic_parsed_optionsIcED1Ev,_ZN5boost15program_options20basic_parsed_optionsIcED2Ev
	.section	.rodata
.LC9:
	.string	"Command-line options"
	.align 8
.LC10:
	.string	"Options for converting positional options to named options"
.LC11:
	.string	"All options"
.LC12:
	.string	"Print this help message."
.LC13:
	.string	"help,h"
	.align 8
.LC14:
	.string	"Path to file containing test request to parse."
.LC15:
	.string	"file,f"
.LC16:
	.string	"file"
.LC17:
	.string	"help"
.LC18:
	.string	"Usage: "
.LC19:
	.string	" input-file-path"
.LC20:
	.string	": couldn't open file "
	.align 8
.LC21:
	.string	": successfully parsed request."
	.align 8
.LC22:
	.string	": Error occurred while parsing request."
.LC23:
	.string	": need more data."
	.text
	.globl	main
	.type	main, @function
main:
.LFB8693:
	.cfi_startproc
	.cfi_personality 0x3,__gxx_personality_v0
	.cfi_lsda 0x3,.LLSDA8693
	pushq	%rbp
	.cfi_def_cfa_offset 16
	.cfi_offset 6, -16
	movq	%rsp, %rbp
	.cfi_def_cfa_register 6
	pushq	%r12
	pushq	%rbx
	subq	$3600, %rsp
	.cfi_offset 12, -24
	.cfi_offset 3, -32
	movl	%edi, -3604(%rbp)
	movq	%rsi, -3616(%rbp)
	leaq	-580(%rbp), %rax
	movq	%rax, %rdi
.LEHB23:
	call	_ZN7RequestC1Ev
	leaq	-1904(%rbp), %rax
	movq	%rax, %rdi
	call	_ZN9ReqParserC1Ev
.LEHE23:
	movl	_ZN5boost15program_options19options_description21m_default_line_lengthE(%rip), %eax
	shrl	%eax
	movl	%eax, %r12d
	movl	_ZN5boost15program_options19options_description21m_default_line_lengthE(%rip), %ebx
	leaq	-529(%rbp), %rax
	movq	%rax, %rdi
	call	_ZNSaIcEC1Ev
	leaq	-529(%rbp), %rdx
	leaq	-576(%rbp), %rax
	movl	$.LC9, %esi
	movq	%rax, %rdi
.LEHB24:
	call	_ZNSt7__cxx1112basic_stringIcSt11char_traitsIcESaIcEEC1EPKcRKS3_
.LEHE24:
	leaq	-576(%rbp), %rsi
	leaq	-2032(%rbp), %rax
	movl	%r12d, %ecx
	movl	%ebx, %edx
	movq	%rax, %rdi
.LEHB25:
	call	_ZN5boost15program_options19options_descriptionC1ERKNSt7__cxx1112basic_stringIcSt11char_traitsIcESaIcEEEjj
.LEHE25:
	leaq	-576(%rbp), %rax
	movq	%rax, %rdi
	call	_ZNSt7__cxx1112basic_stringIcSt11char_traitsIcESaIcEED1Ev
	leaq	-529(%rbp), %rax
	movq	%rax, %rdi
	call	_ZNSaIcED1Ev
	movl	_ZN5boost15program_options19options_description21m_default_line_lengthE(%rip), %eax
	shrl	%eax
	movl	%eax, %r12d
	movl	_ZN5boost15program_options19options_description21m_default_line_lengthE(%rip), %ebx
	leaq	-481(%rbp), %rax
	movq	%rax, %rdi
	call	_ZNSaIcEC1Ev
	leaq	-481(%rbp), %rdx
	leaq	-528(%rbp), %rax
	movl	$.LC10, %esi
	movq	%rax, %rdi
.LEHB26:
	call	_ZNSt7__cxx1112basic_stringIcSt11char_traitsIcESaIcEEC1EPKcRKS3_
.LEHE26:
	leaq	-528(%rbp), %rsi
	leaq	-2160(%rbp), %rax
	movl	%r12d, %ecx
	movl	%ebx, %edx
	movq	%rax, %rdi
.LEHB27:
	call	_ZN5boost15program_options19options_descriptionC1ERKNSt7__cxx1112basic_stringIcSt11char_traitsIcESaIcEEEjj
.LEHE27:
	leaq	-528(%rbp), %rax
	movq	%rax, %rdi
	call	_ZNSt7__cxx1112basic_stringIcSt11char_traitsIcESaIcEED1Ev
	leaq	-481(%rbp), %rax
	movq	%rax, %rdi
	call	_ZNSaIcED1Ev
	leaq	-2320(%rbp), %rax
	movq	%rax, %rdi
.LEHB28:
	call	_ZN5boost15program_options13variables_mapC1Ev
.LEHE28:
	leaq	-2384(%rbp), %rax
	movq	%rax, %rdi
.LEHB29:
	call	_ZN5boost15program_options30positional_options_descriptionC1Ev
.LEHE29:
	movl	_ZN5boost15program_options19options_description21m_default_line_lengthE(%rip), %eax
	shrl	%eax
	movl	%eax, %r12d
	movl	_ZN5boost15program_options19options_description21m_default_line_lengthE(%rip), %ebx
	leaq	-433(%rbp), %rax
	movq	%rax, %rdi
	call	_ZNSaIcEC1Ev
	leaq	-433(%rbp), %rdx
	leaq	-480(%rbp), %rax
	movl	$.LC11, %esi
	movq	%rax, %rdi
.LEHB30:
	call	_ZNSt7__cxx1112basic_stringIcSt11char_traitsIcESaIcEEC1EPKcRKS3_
.LEHE30:
	leaq	-480(%rbp), %rsi
	leaq	-2512(%rbp), %rax
	movl	%r12d, %ecx
	movl	%ebx, %edx
	movq	%rax, %rdi
.LEHB31:
	call	_ZN5boost15program_options19options_descriptionC1ERKNSt7__cxx1112basic_stringIcSt11char_traitsIcESaIcEEEjj
.LEHE31:
	leaq	-480(%rbp), %rax
	movq	%rax, %rdi
	call	_ZNSt7__cxx1112basic_stringIcSt11char_traitsIcESaIcEED1Ev
	leaq	-433(%rbp), %rax
	movq	%rax, %rdi
	call	_ZNSaIcED1Ev
	movq	-3616(%rbp), %rax
	addq	$8, %rax
	movq	(%rax), %rdx
	leaq	-2544(%rbp), %rax
	movq	%rdx, %rsi
	movq	%rax, %rdi
.LEHB32:
	call	_ZN5boost10filesystem4pathC1EPc
.LEHE32:
	leaq	-432(%rbp), %rax
	leaq	-2544(%rbp), %rdx
	movq	%rdx, %rsi
	movq	%rax, %rdi
.LEHB33:
	call	_ZNK5boost10filesystem4path8filenameEv
.LEHE33:
	leaq	-432(%rbp), %rax
	movq	%rax, %rdi
	call	_ZNK5boost10filesystem4path6stringB5cxx11Ev
	movq	%rax, %rdx
	leaq	-2576(%rbp), %rax
	movq	%rdx, %rsi
	movq	%rax, %rdi
.LEHB34:
	call	_ZNSt7__cxx1112basic_stringIcSt11char_traitsIcESaIcEEC1ERKS4_
.LEHE34:
	leaq	-432(%rbp), %rax
	movq	%rax, %rdi
	call	_ZN5boost10filesystem4pathD1Ev
	leaq	-2032(%rbp), %rax
	movq	%rax, %rdi
.LEHB35:
	call	_ZN5boost15program_options19options_description11add_optionsEv
	movq	%rax, -400(%rbp)
	leaq	-400(%rbp), %rax
	movl	$.LC12, %edx
	movl	$.LC13, %esi
	movq	%rax, %rdi
	call	_ZN5boost15program_options29options_description_easy_initclEPKcS3_
	leaq	-2160(%rbp), %rax
	movq	%rax, %rdi
	call	_ZN5boost15program_options19options_description11add_optionsEv
	movq	%rax, -392(%rbp)
	call	_ZN5boost15program_options5valueINS_10filesystem4pathEEEPNS0_11typed_valueIT_cEEv
	movq	%rax, %rdx
	leaq	-392(%rbp), %rax
	movl	$.LC14, %ecx
	movl	$.LC15, %esi
	movq	%rax, %rdi
	call	_ZN5boost15program_options29options_description_easy_initclEPKcPKNS0_14value_semanticES3_
	leaq	-2032(%rbp), %rdx
	leaq	-2512(%rbp), %rax
	movq	%rdx, %rsi
	movq	%rax, %rdi
	call	_ZN5boost15program_options19options_description3addERKS1_
	movq	%rax, %rdx
	leaq	-2160(%rbp), %rax
	movq	%rax, %rsi
	movq	%rdx, %rdi
	call	_ZN5boost15program_options19options_description3addERKS1_
	leaq	-2384(%rbp), %rax
	movl	$-1, %edx
	movl	$.LC16, %esi
	movq	%rax, %rdi
	call	_ZN5boost15program_options30positional_options_description3addEPKci
	movl	$_ZSt9boolalphaRSt8ios_base, %esi
	movl	$_ZSt4cout, %edi
	call	_ZNSolsEPFRSt8ios_baseS0_E
	movl	$_ZSt9boolalphaRSt8ios_base, %esi
	movl	$_ZSt5wcout, %edi
	call	_ZNSt13basic_ostreamIwSt11char_traitsIwEElsEPFRSt8ios_baseS4_E
	movq	-3616(%rbp), %rdx
	movl	-3604(%rbp), %ecx
	leaq	-336(%rbp), %rax
	movl	%ecx, %esi
	movq	%rax, %rdi
	call	_ZN5boost15program_options25basic_command_line_parserIcEC1EiPKPKc
.LEHE35:
	leaq	-2512(%rbp), %rdx
	leaq	-336(%rbp), %rax
	movq	%rdx, %rsi
	movq	%rax, %rdi
.LEHB36:
	call	_ZN5boost15program_options25basic_command_line_parserIcE7optionsERKNS0_19options_descriptionE
	movq	%rax, %rdx
	leaq	-2384(%rbp), %rax
	movq	%rax, %rsi
	movq	%rdx, %rdi
	call	_ZN5boost15program_options25basic_command_line_parserIcE10positionalERKNS0_30positional_options_descriptionE
	movq	%rax, %rdx
	leaq	-384(%rbp), %rax
	movq	%rdx, %rsi
	movq	%rax, %rdi
	call	_ZN5boost15program_options25basic_command_line_parserIcE3runEv
.LEHE36:
	leaq	-2320(%rbp), %rcx
	leaq	-384(%rbp), %rax
	movl	$0, %edx
	movq	%rcx, %rsi
	movq	%rax, %rdi
.LEHB37:
	call	_ZN5boost15program_options5storeERKNS0_20basic_parsed_optionsIcEERNS0_13variables_mapEb
.LEHE37:
	leaq	-384(%rbp), %rax
	movq	%rax, %rdi
	call	_ZN5boost15program_options20basic_parsed_optionsIcED1Ev
	leaq	-336(%rbp), %rax
	movq	%rax, %rdi
	call	_ZN5boost15program_options25basic_command_line_parserIcED1Ev
	leaq	-2320(%rbp), %rax
	movq	%rax, %rdi
.LEHB38:
	call	_ZN5boost15program_options6notifyERNS0_13variables_mapE
.LEHE38:
	leaq	-161(%rbp), %rax
	movq	%rax, %rdi
	call	_ZNSaIcEC1Ev
	leaq	-161(%rbp), %rdx
	leaq	-208(%rbp), %rax
	movl	$.LC17, %esi
	movq	%rax, %rdi
.LEHB39:
	call	_ZNSt7__cxx1112basic_stringIcSt11char_traitsIcESaIcEEC1EPKcRKS3_
.LEHE39:
	leaq	-208(%rbp), %rax
	leaq	-2320(%rbp), %rdx
	addq	$16, %rdx
	movq	%rax, %rsi
	movq	%rdx, %rdi
.LEHB40:
	call	_ZNKSt3mapINSt7__cxx1112basic_stringIcSt11char_traitsIcESaIcEEEN5boost15program_options14variable_valueESt4lessIS5_ESaISt4pairIKS5_S8_EEE5countERSC_
.LEHE40:
	testq	%rax, %rax
	setne	%bl
	leaq	-208(%rbp), %rax
	movq	%rax, %rdi
	call	_ZNSt7__cxx1112basic_stringIcSt11char_traitsIcESaIcEED1Ev
	leaq	-161(%rbp), %rax
	movq	%rax, %rdi
	call	_ZNSaIcED1Ev
	testb	%bl, %bl
	je	.L397
	leaq	-2032(%rbp), %rax
	movq	%rax, %rsi
	movl	$_ZSt4cout, %edi
.LEHB41:
	call	_ZN5boost15program_optionslsERSoRKNS0_19options_descriptionE
	movl	$_ZSt4endlIcSt11char_traitsIcEERSt13basic_ostreamIT_T0_ES6_, %esi
	movq	%rax, %rdi
	call	_ZNSolsEPFRSoS_E
.LEHE41:
	movl	$1, %ebx
	jmp	.L398
.L397:
	leaq	-113(%rbp), %rax
	movq	%rax, %rdi
	call	_ZNSaIcEC1Ev
	leaq	-113(%rbp), %rdx
	leaq	-160(%rbp), %rax
	movl	$.LC16, %esi
	movq	%rax, %rdi
.LEHB42:
	call	_ZNSt7__cxx1112basic_stringIcSt11char_traitsIcESaIcEEC1EPKcRKS3_
.LEHE42:
	leaq	-160(%rbp), %rax
	leaq	-2320(%rbp), %rdx
	addq	$16, %rdx
	movq	%rax, %rsi
	movq	%rdx, %rdi
.LEHB43:
	call	_ZNKSt3mapINSt7__cxx1112basic_stringIcSt11char_traitsIcESaIcEEEN5boost15program_options14variable_valueESt4lessIS5_ESaISt4pairIKS5_S8_EEE5countERSC_
.LEHE43:
	testq	%rax, %rax
	sete	%bl
	leaq	-160(%rbp), %rax
	movq	%rax, %rdi
	call	_ZNSt7__cxx1112basic_stringIcSt11char_traitsIcESaIcEED1Ev
	leaq	-113(%rbp), %rax
	movq	%rax, %rdi
	call	_ZNSaIcED1Ev
	testb	%bl, %bl
	je	.L399
	movl	$.LC18, %esi
	movl	$_ZSt4cerr, %edi
.LEHB44:
	call	_ZStlsISt11char_traitsIcEERSt13basic_ostreamIcT_ES5_PKc
	movq	%rax, %rdx
	leaq	-2576(%rbp), %rax
	movq	%rax, %rsi
	movq	%rdx, %rdi
	call	_ZStlsIcSt11char_traitsIcESaIcEERSt13basic_ostreamIT_T0_ES7_RKNSt7__cxx1112basic_stringIS4_S5_T1_EE
	movl	$.LC19, %esi
	movq	%rax, %rdi
	call	_ZStlsISt11char_traitsIcEERSt13basic_ostreamIcT_ES5_PKc
	movl	$_ZSt4endlIcSt11char_traitsIcEERSt13basic_ostreamIT_T0_ES6_, %esi
	movq	%rax, %rdi
	call	_ZNSolsEPFRSoS_E
.LEHE44:
	movl	$2, %ebx
	jmp	.L398
.L399:
	leaq	-65(%rbp), %rax
	movq	%rax, %rdi
	call	_ZNSaIcEC1Ev
	leaq	-65(%rbp), %rdx
	leaq	-112(%rbp), %rax
	movl	$.LC16, %esi
	movq	%rax, %rdi
.LEHB45:
	call	_ZNSt7__cxx1112basic_stringIcSt11char_traitsIcESaIcEEC1EPKcRKS3_
.LEHE45:
	leaq	-112(%rbp), %rdx
	leaq	-2320(%rbp), %rax
	movq	%rdx, %rsi
	movq	%rax, %rdi
.LEHB46:
	call	_ZNK5boost15program_options13variables_mapixERKNSt7__cxx1112basic_stringIcSt11char_traitsIcESaIcEEE
	movq	%rax, %rdi
	call	_ZNK5boost15program_options14variable_value2asINS_10filesystem4pathEEERKT_v
	movq	%rax, %rdx
	leaq	-2608(%rbp), %rax
	movq	%rdx, %rsi
	movq	%rax, %rdi
	call	_ZN5boost10filesystem4pathC1ERKS1_
.LEHE46:
	leaq	-112(%rbp), %rax
	movq	%rax, %rdi
	call	_ZNSt7__cxx1112basic_stringIcSt11char_traitsIcESaIcEED1Ev
	leaq	-65(%rbp), %rax
	movq	%rax, %rdi
	call	_ZNSaIcED1Ev
	leaq	-2608(%rbp), %rdx
	leaq	-3136(%rbp), %rax
	movq	%rdx, %rsi
	movq	%rax, %rdi
.LEHB47:
	call	_ZN5boost10filesystem14basic_ifstreamIcSt11char_traitsIcEEC1ERKNS0_4pathE
.LEHE47:
	leaq	-3136(%rbp), %rax
	movq	%rax, %rdi
.LEHB48:
	call	_ZNSt14basic_ifstreamIcSt11char_traitsIcEE7is_openEv
	xorl	$1, %eax
	testb	%al, %al
	je	.L400
	leaq	-2576(%rbp), %rax
	movq	%rax, %rsi
	movl	$_ZSt4cerr, %edi
	call	_ZStlsIcSt11char_traitsIcESaIcEERSt13basic_ostreamIT_T0_ES7_RKNSt7__cxx1112basic_stringIS4_S5_T1_EE
	movl	$.LC20, %esi
	movq	%rax, %rdi
	call	_ZStlsISt11char_traitsIcEERSt13basic_ostreamIcT_ES5_PKc
	movq	%rax, %rdx
	leaq	-2608(%rbp), %rax
	movq	%rax, %rsi
	movq	%rdx, %rdi
	call	_ZN5boost10filesystemlsIcSt11char_traitsIcEEERSt13basic_ostreamIT_T0_ES8_RKNS0_4pathE
	movl	$_ZSt4endlIcSt11char_traitsIcEERSt13basic_ostreamIT_T0_ES6_, %esi
	movq	%rax, %rdi
	call	_ZNSolsEPFRSoS_E
	movl	$3, %ebx
	jmp	.L401
.L400:
	movl	$8, %esi
	movl	$16, %edi
	call	_ZStorSt13_Ios_OpenmodeS_
	movl	%eax, %edx
	leaq	-3536(%rbp), %rax
	movl	%edx, %esi
	movq	%rax, %rdi
	call	_ZNSt7__cxx1118basic_stringstreamIcSt11char_traitsIcESaIcEEC1ESt13_Ios_Openmode
.LEHE48:
	leaq	-3136(%rbp), %rax
	movq	%rax, %rdi
.LEHB49:
	call	_ZNKSt14basic_ifstreamIcSt11char_traitsIcEE5rdbufEv
	movq	%rax, %rdx
	leaq	-3536(%rbp), %rax
	addq	$16, %rax
	movq	%rdx, %rsi
	movq	%rax, %rdi
	call	_ZNSolsEPSt15basic_streambufIcSt11char_traitsIcEE
	leaq	-3600(%rbp), %rax
	leaq	-3536(%rbp), %rdx
	movq	%rdx, %rsi
	movq	%rax, %rdi
	call	_ZNKSt7__cxx1118basic_stringstreamIcSt11char_traitsIcESaIcEE3strEv
.LEHE49:
	movl	$0, -3140(%rbp)
	leaq	-3600(%rbp), %rax
	movq	%rax, %rdi
	call	_ZNKSt7__cxx1112basic_stringIcSt11char_traitsIcESaIcEE4cendEv
	movq	%rax, %rbx
	leaq	-3600(%rbp), %rax
	movq	%rax, %rdi
	call	_ZNKSt7__cxx1112basic_stringIcSt11char_traitsIcESaIcEE6cbeginEv
	movq	%rax, %rdx
	leaq	-580(%rbp), %rsi
	leaq	-1904(%rbp), %rax
	movq	%rbx, %rcx
	movq	%rax, %rdi
.LEHB50:
	call	_ZN9ReqParser5parseIN9__gnu_cxx17__normal_iteratorIPKcNSt7__cxx1112basic_stringIcSt11char_traitsIcESaIcEEEEEEEN5boost6tuples5tupleINSC_5logic7triboolET_NSD_9null_typeESI_SI_SI_SI_SI_SI_SI_EER7RequestSH_SH_
	movl	%eax, %ecx
	movq	%rdx, %rax
	movl	%ecx, -64(%rbp)
	movq	%rax, -56(%rbp)
	leaq	-3140(%rbp), %rax
	movl	$_ZN5boost6tuples6ignoreEMNS0_6detail14swallow_assignEFvvE, %esi
	movq	%rax, %rdi
	call	_ZN5boost6tuples3tieINS_5logic7triboolEFMNS0_6detail14swallow_assignEFvvES7_EEENS4_10tie_mapperIT_T0_vvvvvvvvE4typeERSA_RSB_
	movq	%rax, -48(%rbp)
	leaq	-64(%rbp), %rdx
	leaq	-48(%rbp), %rax
	movq	%rdx, %rsi
	movq	%rax, %rdi
	call	_ZN5boost6tuples5tupleIRNS_5logic7triboolENS0_6detail14swallow_assignENS0_9null_typeES7_S7_S7_S7_S7_S7_S7_EaSIS3_NS0_4consIN9__gnu_cxx17__normal_iteratorIPKcNSt7__cxx1112basic_stringIcSt11char_traitsIcESaIcEEEEES7_EEEERS8_RKNSA_IT_T0_EE
	leaq	-3140(%rbp), %rax
	movq	%rax, %rdi
	call	_ZNK5boost5logic7triboolcvbEv
	testb	%al, %al
	je	.L402
	leaq	-2576(%rbp), %rax
	movq	%rax, %rsi
	movl	$_ZSt4cout, %edi
	call	_ZStlsIcSt11char_traitsIcESaIcEERSt13basic_ostreamIT_T0_ES7_RKNSt7__cxx1112basic_stringIS4_S5_T1_EE
	movl	$.LC21, %esi
	movq	%rax, %rdi
	call	_ZStlsISt11char_traitsIcEERSt13basic_ostreamIcT_ES5_PKc
	movl	$_ZSt4endlIcSt11char_traitsIcEERSt13basic_ostreamIT_T0_ES6_, %esi
	movq	%rax, %rdi
	call	_ZNSolsEPFRSoS_E
	movl	$0, %ebx
	jmp	.L403
.L402:
	movl	-3140(%rbp), %eax
	movl	%eax, %edi
	call	_ZN5boost5logicntENS0_7triboolE
	movl	%eax, -24(%rbp)
	leaq	-24(%rbp), %rax
	movq	%rax, %rdi
	call	_ZNK5boost5logic7triboolcvbEv
	testb	%al, %al
	je	.L404
	leaq	-2576(%rbp), %rax
	movq	%rax, %rsi
	movl	$_ZSt4cout, %edi
	call	_ZStlsIcSt11char_traitsIcESaIcEERSt13basic_ostreamIT_T0_ES7_RKNSt7__cxx1112basic_stringIS4_S5_T1_EE
	movl	$.LC22, %esi
	movq	%rax, %rdi
	call	_ZStlsISt11char_traitsIcEERSt13basic_ostreamIcT_ES5_PKc
	movl	$_ZSt4endlIcSt11char_traitsIcEERSt13basic_ostreamIT_T0_ES6_, %esi
	movq	%rax, %rdi
	call	_ZNSolsEPFRSoS_E
	leaq	-1904(%rbp), %rax
	movq	%rax, %rdi
	call	_ZNK9ReqParser15getFailedReasonEv
	movl	%eax, -20(%rbp)
	leaq	-3568(%rbp), %rax
	movl	-20(%rbp), %edx
	movl	%edx, %esi
	movq	%rax, %rdi
	call	_ZN5Reply11getFCStringB5cxx11ENS_11FailureCodeE
.LEHE50:
	leaq	-3568(%rbp), %rax
	movq	%rax, %rsi
	movl	$_ZSt4cout, %edi
.LEHB51:
	call	_ZStlsIcSt11char_traitsIcESaIcEERSt13basic_ostreamIT_T0_ES7_RKNSt7__cxx1112basic_stringIS4_S5_T1_EE
	movl	$_ZSt4endlIcSt11char_traitsIcEERSt13basic_ostreamIT_T0_ES6_, %esi
	movq	%rax, %rdi
	call	_ZNSolsEPFRSoS_E
.LEHE51:
	movl	$4, %ebx
	leaq	-3568(%rbp), %rax
	movq	%rax, %rdi
	call	_ZNSt7__cxx1112basic_stringIcSt11char_traitsIcESaIcEED1Ev
	jmp	.L403
.L404:
	leaq	-2576(%rbp), %rax
	movq	%rax, %rsi
	movl	$_ZSt4cout, %edi
.LEHB52:
	call	_ZStlsIcSt11char_traitsIcESaIcEERSt13basic_ostreamIT_T0_ES7_RKNSt7__cxx1112basic_stringIS4_S5_T1_EE
	movl	$.LC23, %esi
	movq	%rax, %rdi
	call	_ZStlsISt11char_traitsIcEERSt13basic_ostreamIcT_ES5_PKc
	movl	$_ZSt4endlIcSt11char_traitsIcEERSt13basic_ostreamIT_T0_ES6_, %esi
	movq	%rax, %rdi
	call	_ZNSolsEPFRSoS_E
.LEHE52:
	movl	$5, %ebx
.L403:
	leaq	-3600(%rbp), %rax
	movq	%rax, %rdi
	call	_ZNSt7__cxx1112basic_stringIcSt11char_traitsIcESaIcEED1Ev
	leaq	-3536(%rbp), %rax
	movq	%rax, %rdi
	call	_ZNSt7__cxx1118basic_stringstreamIcSt11char_traitsIcESaIcEED1Ev
.L401:
	leaq	-3136(%rbp), %rax
	movq	%rax, %rdi
	call	_ZN5boost10filesystem14basic_ifstreamIcSt11char_traitsIcEED1Ev
	leaq	-2608(%rbp), %rax
	movq	%rax, %rdi
	call	_ZN5boost10filesystem4pathD1Ev
.L398:
	leaq	-2576(%rbp), %rax
	movq	%rax, %rdi
	call	_ZNSt7__cxx1112basic_stringIcSt11char_traitsIcESaIcEED1Ev
	leaq	-2544(%rbp), %rax
	movq	%rax, %rdi
	call	_ZN5boost10filesystem4pathD1Ev
	leaq	-2512(%rbp), %rax
	movq	%rax, %rdi
	call	_ZN5boost15program_options19options_descriptionD1Ev
	leaq	-2384(%rbp), %rax
	movq	%rax, %rdi
	call	_ZN5boost15program_options30positional_options_descriptionD1Ev
	leaq	-2320(%rbp), %rax
	movq	%rax, %rdi
	call	_ZN5boost15program_options13variables_mapD1Ev
	leaq	-2160(%rbp), %rax
	movq	%rax, %rdi
	call	_ZN5boost15program_options19options_descriptionD1Ev
	leaq	-2032(%rbp), %rax
	movq	%rax, %rdi
	call	_ZN5boost15program_options19options_descriptionD1Ev
	leaq	-1904(%rbp), %rax
	movq	%rax, %rdi
	call	_ZN9ReqParserD1Ev
	movl	%ebx, %eax
	jmp	.L459
.L435:
	movq	%rax, %rbx
	leaq	-576(%rbp), %rax
	movq	%rax, %rdi
	call	_ZNSt7__cxx1112basic_stringIcSt11char_traitsIcESaIcEED1Ev
	jmp	.L407
.L434:
	movq	%rax, %rbx
.L407:
	leaq	-529(%rbp), %rax
	movq	%rax, %rdi
	call	_ZNSaIcED1Ev
	jmp	.L408
.L437:
	movq	%rax, %rbx
	leaq	-528(%rbp), %rax
	movq	%rax, %rdi
	call	_ZNSt7__cxx1112basic_stringIcSt11char_traitsIcESaIcEED1Ev
	jmp	.L410
.L436:
	movq	%rax, %rbx
.L410:
	leaq	-481(%rbp), %rax
	movq	%rax, %rdi
	call	_ZNSaIcED1Ev
	jmp	.L411
.L441:
	movq	%rax, %rbx
	leaq	-480(%rbp), %rax
	movq	%rax, %rdi
	call	_ZNSt7__cxx1112basic_stringIcSt11char_traitsIcESaIcEED1Ev
	jmp	.L413
.L440:
	movq	%rax, %rbx
.L413:
	leaq	-433(%rbp), %rax
	movq	%rax, %rdi
	call	_ZNSaIcED1Ev
	jmp	.L414
.L444:
	movq	%rax, %rbx
	leaq	-432(%rbp), %rax
	movq	%rax, %rdi
	call	_ZN5boost10filesystem4pathD1Ev
	jmp	.L416
.L447:
	movq	%rax, %rbx
	leaq	-384(%rbp), %rax
	movq	%rax, %rdi
	call	_ZN5boost15program_options20basic_parsed_optionsIcED1Ev
	jmp	.L418
.L446:
	movq	%rax, %rbx
.L418:
	leaq	-336(%rbp), %rax
	movq	%rax, %rdi
	call	_ZN5boost15program_options25basic_command_line_parserIcED1Ev
	jmp	.L419
.L449:
	movq	%rax, %rbx
	leaq	-208(%rbp), %rax
	movq	%rax, %rdi
	call	_ZNSt7__cxx1112basic_stringIcSt11char_traitsIcESaIcEED1Ev
	jmp	.L421
.L448:
	movq	%rax, %rbx
.L421:
	leaq	-161(%rbp), %rax
	movq	%rax, %rdi
	call	_ZNSaIcED1Ev
	jmp	.L419
.L451:
	movq	%rax, %rbx
	leaq	-160(%rbp), %rax
	movq	%rax, %rdi
	call	_ZNSt7__cxx1112basic_stringIcSt11char_traitsIcESaIcEED1Ev
	jmp	.L423
.L450:
	movq	%rax, %rbx
.L423:
	leaq	-113(%rbp), %rax
	movq	%rax, %rdi
	call	_ZNSaIcED1Ev
	jmp	.L419
.L453:
	movq	%rax, %rbx
	leaq	-112(%rbp), %rax
	movq	%rax, %rdi
	call	_ZNSt7__cxx1112basic_stringIcSt11char_traitsIcESaIcEED1Ev
	jmp	.L425
.L452:
	movq	%rax, %rbx
.L425:
	leaq	-65(%rbp), %rax
	movq	%rax, %rdi
	call	_ZNSaIcED1Ev
	jmp	.L419
.L458:
	movq	%rax, %rbx
	leaq	-3568(%rbp), %rax
	movq	%rax, %rdi
	call	_ZNSt7__cxx1112basic_stringIcSt11char_traitsIcESaIcEED1Ev
	jmp	.L427
.L457:
	movq	%rax, %rbx
.L427:
	leaq	-3600(%rbp), %rax
	movq	%rax, %rdi
	call	_ZNSt7__cxx1112basic_stringIcSt11char_traitsIcESaIcEED1Ev
	jmp	.L428
.L456:
	movq	%rax, %rbx
.L428:
	leaq	-3536(%rbp), %rax
	movq	%rax, %rdi
	call	_ZNSt7__cxx1118basic_stringstreamIcSt11char_traitsIcESaIcEED1Ev
	jmp	.L429
.L455:
	movq	%rax, %rbx
.L429:
	leaq	-3136(%rbp), %rax
	movq	%rax, %rdi
	call	_ZN5boost10filesystem14basic_ifstreamIcSt11char_traitsIcEED1Ev
	jmp	.L430
.L454:
	movq	%rax, %rbx
.L430:
	leaq	-2608(%rbp), %rax
	movq	%rax, %rdi
	call	_ZN5boost10filesystem4pathD1Ev
	jmp	.L419
.L445:
	movq	%rax, %rbx
.L419:
	leaq	-2576(%rbp), %rax
	movq	%rax, %rdi
	call	_ZNSt7__cxx1112basic_stringIcSt11char_traitsIcESaIcEED1Ev
	jmp	.L416
.L443:
	movq	%rax, %rbx
.L416:
	leaq	-2544(%rbp), %rax
	movq	%rax, %rdi
	call	_ZN5boost10filesystem4pathD1Ev
	jmp	.L431
.L442:
	movq	%rax, %rbx
.L431:
	leaq	-2512(%rbp), %rax
	movq	%rax, %rdi
	call	_ZN5boost15program_options19options_descriptionD1Ev
.L414:
	leaq	-2384(%rbp), %rax
	movq	%rax, %rdi
	call	_ZN5boost15program_options30positional_options_descriptionD1Ev
	jmp	.L432
.L439:
	movq	%rax, %rbx
.L432:
	leaq	-2320(%rbp), %rax
	movq	%rax, %rdi
	call	_ZN5boost15program_options13variables_mapD1Ev
	jmp	.L433
.L438:
	movq	%rax, %rbx
.L433:
	leaq	-2160(%rbp), %rax
	movq	%rax, %rdi
	call	_ZN5boost15program_options19options_descriptionD1Ev
.L411:
	leaq	-2032(%rbp), %rax
	movq	%rax, %rdi
	call	_ZN5boost15program_options19options_descriptionD1Ev
.L408:
	leaq	-1904(%rbp), %rax
	movq	%rax, %rdi
	call	_ZN9ReqParserD1Ev
	movq	%rbx, %rax
	movq	%rax, %rdi
.LEHB53:
	call	_Unwind_Resume
.LEHE53:
.L459:
	addq	$3600, %rsp
	popq	%rbx
	popq	%r12
	popq	%rbp
	.cfi_def_cfa 7, 8
	ret
	.cfi_endproc
.LFE8693:
	.section	.gcc_except_table,"a",@progbits
.LLSDA8693:
	.byte	0xff
	.byte	0xff
	.byte	0x1
	.uleb128 .LLSDACSE8693-.LLSDACSB8693
.LLSDACSB8693:
	.uleb128 .LEHB23-.LFB8693
	.uleb128 .LEHE23-.LEHB23
	.uleb128 0
	.uleb128 0
	.uleb128 .LEHB24-.LFB8693
	.uleb128 .LEHE24-.LEHB24
	.uleb128 .L434-.LFB8693
	.uleb128 0
	.uleb128 .LEHB25-.LFB8693
	.uleb128 .LEHE25-.LEHB25
	.uleb128 .L435-.LFB8693
	.uleb128 0
	.uleb128 .LEHB26-.LFB8693
	.uleb128 .LEHE26-.LEHB26
	.uleb128 .L436-.LFB8693
	.uleb128 0
	.uleb128 .LEHB27-.LFB8693
	.uleb128 .LEHE27-.LEHB27
	.uleb128 .L437-.LFB8693
	.uleb128 0
	.uleb128 .LEHB28-.LFB8693
	.uleb128 .LEHE28-.LEHB28
	.uleb128 .L438-.LFB8693
	.uleb128 0
	.uleb128 .LEHB29-.LFB8693
	.uleb128 .LEHE29-.LEHB29
	.uleb128 .L439-.LFB8693
	.uleb128 0
	.uleb128 .LEHB30-.LFB8693
	.uleb128 .LEHE30-.LEHB30
	.uleb128 .L440-.LFB8693
	.uleb128 0
	.uleb128 .LEHB31-.LFB8693
	.uleb128 .LEHE31-.LEHB31
	.uleb128 .L441-.LFB8693
	.uleb128 0
	.uleb128 .LEHB32-.LFB8693
	.uleb128 .LEHE32-.LEHB32
	.uleb128 .L442-.LFB8693
	.uleb128 0
	.uleb128 .LEHB33-.LFB8693
	.uleb128 .LEHE33-.LEHB33
	.uleb128 .L443-.LFB8693
	.uleb128 0
	.uleb128 .LEHB34-.LFB8693
	.uleb128 .LEHE34-.LEHB34
	.uleb128 .L444-.LFB8693
	.uleb128 0
	.uleb128 .LEHB35-.LFB8693
	.uleb128 .LEHE35-.LEHB35
	.uleb128 .L445-.LFB8693
	.uleb128 0
	.uleb128 .LEHB36-.LFB8693
	.uleb128 .LEHE36-.LEHB36
	.uleb128 .L446-.LFB8693
	.uleb128 0
	.uleb128 .LEHB37-.LFB8693
	.uleb128 .LEHE37-.LEHB37
	.uleb128 .L447-.LFB8693
	.uleb128 0
	.uleb128 .LEHB38-.LFB8693
	.uleb128 .LEHE38-.LEHB38
	.uleb128 .L445-.LFB8693
	.uleb128 0
	.uleb128 .LEHB39-.LFB8693
	.uleb128 .LEHE39-.LEHB39
	.uleb128 .L448-.LFB8693
	.uleb128 0
	.uleb128 .LEHB40-.LFB8693
	.uleb128 .LEHE40-.LEHB40
	.uleb128 .L449-.LFB8693
	.uleb128 0
	.uleb128 .LEHB41-.LFB8693
	.uleb128 .LEHE41-.LEHB41
	.uleb128 .L445-.LFB8693
	.uleb128 0
	.uleb128 .LEHB42-.LFB8693
	.uleb128 .LEHE42-.LEHB42
	.uleb128 .L450-.LFB8693
	.uleb128 0
	.uleb128 .LEHB43-.LFB8693
	.uleb128 .LEHE43-.LEHB43
	.uleb128 .L451-.LFB8693
	.uleb128 0
	.uleb128 .LEHB44-.LFB8693
	.uleb128 .LEHE44-.LEHB44
	.uleb128 .L445-.LFB8693
	.uleb128 0
	.uleb128 .LEHB45-.LFB8693
	.uleb128 .LEHE45-.LEHB45
	.uleb128 .L452-.LFB8693
	.uleb128 0
	.uleb128 .LEHB46-.LFB8693
	.uleb128 .LEHE46-.LEHB46
	.uleb128 .L453-.LFB8693
	.uleb128 0
	.uleb128 .LEHB47-.LFB8693
	.uleb128 .LEHE47-.LEHB47
	.uleb128 .L454-.LFB8693
	.uleb128 0
	.uleb128 .LEHB48-.LFB8693
	.uleb128 .LEHE48-.LEHB48
	.uleb128 .L455-.LFB8693
	.uleb128 0
	.uleb128 .LEHB49-.LFB8693
	.uleb128 .LEHE49-.LEHB49
	.uleb128 .L456-.LFB8693
	.uleb128 0
	.uleb128 .LEHB50-.LFB8693
	.uleb128 .LEHE50-.LEHB50
	.uleb128 .L457-.LFB8693
	.uleb128 0
	.uleb128 .LEHB51-.LFB8693
	.uleb128 .LEHE51-.LEHB51
	.uleb128 .L458-.LFB8693
	.uleb128 0
	.uleb128 .LEHB52-.LFB8693
	.uleb128 .LEHE52-.LEHB52
	.uleb128 .L457-.LFB8693
	.uleb128 0
	.uleb128 .LEHB53-.LFB8693
	.uleb128 .LEHE53-.LEHB53
	.uleb128 0
	.uleb128 0
.LLSDACSE8693:
	.text
	.size	main, .-main
	.section	.text._ZStplIcSt11char_traitsIcESaIcEENSt7__cxx1112basic_stringIT_T0_T1_EERKS8_PKS5_,"axG",@progbits,_ZStplIcSt11char_traitsIcESaIcEENSt7__cxx1112basic_stringIT_T0_T1_EERKS8_PKS5_,comdat
	.weak	_ZStplIcSt11char_traitsIcESaIcEENSt7__cxx1112basic_stringIT_T0_T1_EERKS8_PKS5_
	.type	_ZStplIcSt11char_traitsIcESaIcEENSt7__cxx1112basic_stringIT_T0_T1_EERKS8_PKS5_, @function
_ZStplIcSt11char_traitsIcESaIcEENSt7__cxx1112basic_stringIT_T0_T1_EERKS8_PKS5_:
.LFB8952:
	.cfi_startproc
	.cfi_personality 0x3,__gxx_personality_v0
	.cfi_lsda 0x3,.LLSDA8952
	pushq	%rbp
	.cfi_def_cfa_offset 16
	.cfi_offset 6, -16
	movq	%rsp, %rbp
	.cfi_def_cfa_register 6
	pushq	%rbx
	subq	$40, %rsp
	.cfi_offset 3, -24
	movq	%rdi, -24(%rbp)
	movq	%rsi, -32(%rbp)
	movq	%rdx, -40(%rbp)
	movq	-32(%rbp), %rdx
	movq	-24(%rbp), %rax
	movq	%rdx, %rsi
	movq	%rax, %rdi
.LEHB54:
	call	_ZNSt7__cxx1112basic_stringIcSt11char_traitsIcESaIcEEC1ERKS4_
.LEHE54:
	movq	-40(%rbp), %rdx
	movq	-24(%rbp), %rax
	movq	%rdx, %rsi
	movq	%rax, %rdi
.LEHB55:
	call	_ZNSt7__cxx1112basic_stringIcSt11char_traitsIcESaIcEE6appendEPKc
.LEHE55:
	jmp	.L464
.L463:
	movq	%rax, %rbx
	movq	-24(%rbp), %rax
	movq	%rax, %rdi
	call	_ZNSt7__cxx1112basic_stringIcSt11char_traitsIcESaIcEED1Ev
	movq	%rbx, %rax
	movq	%rax, %rdi
.LEHB56:
	call	_Unwind_Resume
.LEHE56:
.L464:
	movq	-24(%rbp), %rax
	addq	$40, %rsp
	popq	%rbx
	popq	%rbp
	.cfi_def_cfa 7, 8
	ret
	.cfi_endproc
.LFE8952:
	.section	.gcc_except_table
.LLSDA8952:
	.byte	0xff
	.byte	0xff
	.byte	0x1
	.uleb128 .LLSDACSE8952-.LLSDACSB8952
.LLSDACSB8952:
	.uleb128 .LEHB54-.LFB8952
	.uleb128 .LEHE54-.LEHB54
	.uleb128 0
	.uleb128 0
	.uleb128 .LEHB55-.LFB8952
	.uleb128 .LEHE55-.LEHB55
	.uleb128 .L463-.LFB8952
	.uleb128 0
	.uleb128 .LEHB56-.LFB8952
	.uleb128 .LEHE56-.LEHB56
	.uleb128 0
	.uleb128 0
.LLSDACSE8952:
	.section	.text._ZStplIcSt11char_traitsIcESaIcEENSt7__cxx1112basic_stringIT_T0_T1_EERKS8_PKS5_,"axG",@progbits,_ZStplIcSt11char_traitsIcESaIcEENSt7__cxx1112basic_stringIT_T0_T1_EERKS8_PKS5_,comdat
	.size	_ZStplIcSt11char_traitsIcESaIcEENSt7__cxx1112basic_stringIT_T0_T1_EERKS8_PKS5_, .-_ZStplIcSt11char_traitsIcESaIcEENSt7__cxx1112basic_stringIT_T0_T1_EERKS8_PKS5_
	.section	.text._ZNSt8_Rb_treeINSt7__cxx1112basic_stringIcSt11char_traitsIcESaIcEEESt4pairIKS5_S5_ESt10_Select1stIS8_ESt4lessIS5_ESaIS8_EE13_Rb_tree_implISC_Lb1EED2Ev,"axG",@progbits,_ZNSt8_Rb_treeINSt7__cxx1112basic_stringIcSt11char_traitsIcESaIcEEESt4pairIKS5_S5_ESt10_Select1stIS8_ESt4lessIS5_ESaIS8_EE13_Rb_tree_implISC_Lb1EED5Ev,comdat
	.align 2
	.weak	_ZNSt8_Rb_treeINSt7__cxx1112basic_stringIcSt11char_traitsIcESaIcEEESt4pairIKS5_S5_ESt10_Select1stIS8_ESt4lessIS5_ESaIS8_EE13_Rb_tree_implISC_Lb1EED2Ev
	.type	_ZNSt8_Rb_treeINSt7__cxx1112basic_stringIcSt11char_traitsIcESaIcEEESt4pairIKS5_S5_ESt10_Select1stIS8_ESt4lessIS5_ESaIS8_EE13_Rb_tree_implISC_Lb1EED2Ev, @function
_ZNSt8_Rb_treeINSt7__cxx1112basic_stringIcSt11char_traitsIcESaIcEEESt4pairIKS5_S5_ESt10_Select1stIS8_ESt4lessIS5_ESaIS8_EE13_Rb_tree_implISC_Lb1EED2Ev:
.LFB8968:
	.cfi_startproc
	pushq	%rbp
	.cfi_def_cfa_offset 16
	.cfi_offset 6, -16
	movq	%rsp, %rbp
	.cfi_def_cfa_register 6
	subq	$16, %rsp
	movq	%rdi, -8(%rbp)
	movq	-8(%rbp), %rax
	movq	%rax, %rdi
	call	_ZNSaISt13_Rb_tree_nodeISt4pairIKNSt7__cxx1112basic_stringIcSt11char_traitsIcESaIcEEES6_EEED2Ev
	nop
	leave
	.cfi_def_cfa 7, 8
	ret
	.cfi_endproc
.LFE8968:
	.size	_ZNSt8_Rb_treeINSt7__cxx1112basic_stringIcSt11char_traitsIcESaIcEEESt4pairIKS5_S5_ESt10_Select1stIS8_ESt4lessIS5_ESaIS8_EE13_Rb_tree_implISC_Lb1EED2Ev, .-_ZNSt8_Rb_treeINSt7__cxx1112basic_stringIcSt11char_traitsIcESaIcEEESt4pairIKS5_S5_ESt10_Select1stIS8_ESt4lessIS5_ESaIS8_EE13_Rb_tree_implISC_Lb1EED2Ev
	.weak	_ZNSt8_Rb_treeINSt7__cxx1112basic_stringIcSt11char_traitsIcESaIcEEESt4pairIKS5_S5_ESt10_Select1stIS8_ESt4lessIS5_ESaIS8_EE13_Rb_tree_implISC_Lb1EED1Ev
	.set	_ZNSt8_Rb_treeINSt7__cxx1112basic_stringIcSt11char_traitsIcESaIcEEESt4pairIKS5_S5_ESt10_Select1stIS8_ESt4lessIS5_ESaIS8_EE13_Rb_tree_implISC_Lb1EED1Ev,_ZNSt8_Rb_treeINSt7__cxx1112basic_stringIcSt11char_traitsIcESaIcEEESt4pairIKS5_S5_ESt10_Select1stIS8_ESt4lessIS5_ESaIS8_EE13_Rb_tree_implISC_Lb1EED2Ev
	.section	.text._ZNSt8_Rb_treeINSt7__cxx1112basic_stringIcSt11char_traitsIcESaIcEEESt4pairIKS5_S5_ESt10_Select1stIS8_ESt4lessIS5_ESaIS8_EED2Ev,"axG",@progbits,_ZNSt8_Rb_treeINSt7__cxx1112basic_stringIcSt11char_traitsIcESaIcEEESt4pairIKS5_S5_ESt10_Select1stIS8_ESt4lessIS5_ESaIS8_EED5Ev,comdat
	.align 2
	.weak	_ZNSt8_Rb_treeINSt7__cxx1112basic_stringIcSt11char_traitsIcESaIcEEESt4pairIKS5_S5_ESt10_Select1stIS8_ESt4lessIS5_ESaIS8_EED2Ev
	.type	_ZNSt8_Rb_treeINSt7__cxx1112basic_stringIcSt11char_traitsIcESaIcEEESt4pairIKS5_S5_ESt10_Select1stIS8_ESt4lessIS5_ESaIS8_EED2Ev, @function
_ZNSt8_Rb_treeINSt7__cxx1112basic_stringIcSt11char_traitsIcESaIcEEESt4pairIKS5_S5_ESt10_Select1stIS8_ESt4lessIS5_ESaIS8_EED2Ev:
.LFB8970:
	.cfi_startproc
	.cfi_personality 0x3,__gxx_personality_v0
	.cfi_lsda 0x3,.LLSDA8970
	pushq	%rbp
	.cfi_def_cfa_offset 16
	.cfi_offset 6, -16
	movq	%rsp, %rbp
	.cfi_def_cfa_register 6
	subq	$16, %rsp
	movq	%rdi, -8(%rbp)
	movq	-8(%rbp), %rax
	movq	%rax, %rdi
	call	_ZNSt8_Rb_treeINSt7__cxx1112basic_stringIcSt11char_traitsIcESaIcEEESt4pairIKS5_S5_ESt10_Select1stIS8_ESt4lessIS5_ESaIS8_EE8_M_beginEv
	movq	%rax, %rdx
	movq	-8(%rbp), %rax
	movq	%rdx, %rsi
	movq	%rax, %rdi
	call	_ZNSt8_Rb_treeINSt7__cxx1112basic_stringIcSt11char_traitsIcESaIcEEESt4pairIKS5_S5_ESt10_Select1stIS8_ESt4lessIS5_ESaIS8_EE8_M_eraseEPSt13_Rb_tree_nodeIS8_E
	movq	-8(%rbp), %rax
	movq	%rax, %rdi
	call	_ZNSt8_Rb_treeINSt7__cxx1112basic_stringIcSt11char_traitsIcESaIcEEESt4pairIKS5_S5_ESt10_Select1stIS8_ESt4lessIS5_ESaIS8_EE13_Rb_tree_implISC_Lb1EED1Ev
	nop
	leave
	.cfi_def_cfa 7, 8
	ret
	.cfi_endproc
.LFE8970:
	.section	.gcc_except_table
.LLSDA8970:
	.byte	0xff
	.byte	0xff
	.byte	0x1
	.uleb128 .LLSDACSE8970-.LLSDACSB8970
.LLSDACSB8970:
.LLSDACSE8970:
	.section	.text._ZNSt8_Rb_treeINSt7__cxx1112basic_stringIcSt11char_traitsIcESaIcEEESt4pairIKS5_S5_ESt10_Select1stIS8_ESt4lessIS5_ESaIS8_EED2Ev,"axG",@progbits,_ZNSt8_Rb_treeINSt7__cxx1112basic_stringIcSt11char_traitsIcESaIcEEESt4pairIKS5_S5_ESt10_Select1stIS8_ESt4lessIS5_ESaIS8_EED5Ev,comdat
	.size	_ZNSt8_Rb_treeINSt7__cxx1112basic_stringIcSt11char_traitsIcESaIcEEESt4pairIKS5_S5_ESt10_Select1stIS8_ESt4lessIS5_ESaIS8_EED2Ev, .-_ZNSt8_Rb_treeINSt7__cxx1112basic_stringIcSt11char_traitsIcESaIcEEESt4pairIKS5_S5_ESt10_Select1stIS8_ESt4lessIS5_ESaIS8_EED2Ev
	.weak	_ZNSt8_Rb_treeINSt7__cxx1112basic_stringIcSt11char_traitsIcESaIcEEESt4pairIKS5_S5_ESt10_Select1stIS8_ESt4lessIS5_ESaIS8_EED1Ev
	.set	_ZNSt8_Rb_treeINSt7__cxx1112basic_stringIcSt11char_traitsIcESaIcEEESt4pairIKS5_S5_ESt10_Select1stIS8_ESt4lessIS5_ESaIS8_EED1Ev,_ZNSt8_Rb_treeINSt7__cxx1112basic_stringIcSt11char_traitsIcESaIcEEESt4pairIKS5_S5_ESt10_Select1stIS8_ESt4lessIS5_ESaIS8_EED2Ev
	.section	.text._ZNSt8_Rb_treeINSt7__cxx1112basic_stringIcSt11char_traitsIcESaIcEEESt4pairIKS5_S6_IS5_S5_EESt10_Select1stIS9_ESt4lessIS5_ESaIS9_EE13_Rb_tree_implISD_Lb1EED2Ev,"axG",@progbits,_ZNSt8_Rb_treeINSt7__cxx1112basic_stringIcSt11char_traitsIcESaIcEEESt4pairIKS5_S6_IS5_S5_EESt10_Select1stIS9_ESt4lessIS5_ESaIS9_EE13_Rb_tree_implISD_Lb1EED5Ev,comdat
	.align 2
	.weak	_ZNSt8_Rb_treeINSt7__cxx1112basic_stringIcSt11char_traitsIcESaIcEEESt4pairIKS5_S6_IS5_S5_EESt10_Select1stIS9_ESt4lessIS5_ESaIS9_EE13_Rb_tree_implISD_Lb1EED2Ev
	.type	_ZNSt8_Rb_treeINSt7__cxx1112basic_stringIcSt11char_traitsIcESaIcEEESt4pairIKS5_S6_IS5_S5_EESt10_Select1stIS9_ESt4lessIS5_ESaIS9_EE13_Rb_tree_implISD_Lb1EED2Ev, @function
_ZNSt8_Rb_treeINSt7__cxx1112basic_stringIcSt11char_traitsIcESaIcEEESt4pairIKS5_S6_IS5_S5_EESt10_Select1stIS9_ESt4lessIS5_ESaIS9_EE13_Rb_tree_implISD_Lb1EED2Ev:
.LFB8974:
	.cfi_startproc
	pushq	%rbp
	.cfi_def_cfa_offset 16
	.cfi_offset 6, -16
	movq	%rsp, %rbp
	.cfi_def_cfa_register 6
	subq	$16, %rsp
	movq	%rdi, -8(%rbp)
	movq	-8(%rbp), %rax
	movq	%rax, %rdi
	call	_ZNSaISt13_Rb_tree_nodeISt4pairIKNSt7__cxx1112basic_stringIcSt11char_traitsIcESaIcEEES0_IS6_S6_EEEED2Ev
	nop
	leave
	.cfi_def_cfa 7, 8
	ret
	.cfi_endproc
.LFE8974:
	.size	_ZNSt8_Rb_treeINSt7__cxx1112basic_stringIcSt11char_traitsIcESaIcEEESt4pairIKS5_S6_IS5_S5_EESt10_Select1stIS9_ESt4lessIS5_ESaIS9_EE13_Rb_tree_implISD_Lb1EED2Ev, .-_ZNSt8_Rb_treeINSt7__cxx1112basic_stringIcSt11char_traitsIcESaIcEEESt4pairIKS5_S6_IS5_S5_EESt10_Select1stIS9_ESt4lessIS5_ESaIS9_EE13_Rb_tree_implISD_Lb1EED2Ev
	.weak	_ZNSt8_Rb_treeINSt7__cxx1112basic_stringIcSt11char_traitsIcESaIcEEESt4pairIKS5_S6_IS5_S5_EESt10_Select1stIS9_ESt4lessIS5_ESaIS9_EE13_Rb_tree_implISD_Lb1EED1Ev
	.set	_ZNSt8_Rb_treeINSt7__cxx1112basic_stringIcSt11char_traitsIcESaIcEEESt4pairIKS5_S6_IS5_S5_EESt10_Select1stIS9_ESt4lessIS5_ESaIS9_EE13_Rb_tree_implISD_Lb1EED1Ev,_ZNSt8_Rb_treeINSt7__cxx1112basic_stringIcSt11char_traitsIcESaIcEEESt4pairIKS5_S6_IS5_S5_EESt10_Select1stIS9_ESt4lessIS5_ESaIS9_EE13_Rb_tree_implISD_Lb1EED2Ev
	.section	.text._ZNSt8_Rb_treeINSt7__cxx1112basic_stringIcSt11char_traitsIcESaIcEEESt4pairIKS5_S6_IS5_S5_EESt10_Select1stIS9_ESt4lessIS5_ESaIS9_EED2Ev,"axG",@progbits,_ZNSt8_Rb_treeINSt7__cxx1112basic_stringIcSt11char_traitsIcESaIcEEESt4pairIKS5_S6_IS5_S5_EESt10_Select1stIS9_ESt4lessIS5_ESaIS9_EED5Ev,comdat
	.align 2
	.weak	_ZNSt8_Rb_treeINSt7__cxx1112basic_stringIcSt11char_traitsIcESaIcEEESt4pairIKS5_S6_IS5_S5_EESt10_Select1stIS9_ESt4lessIS5_ESaIS9_EED2Ev
	.type	_ZNSt8_Rb_treeINSt7__cxx1112basic_stringIcSt11char_traitsIcESaIcEEESt4pairIKS5_S6_IS5_S5_EESt10_Select1stIS9_ESt4lessIS5_ESaIS9_EED2Ev, @function
_ZNSt8_Rb_treeINSt7__cxx1112basic_stringIcSt11char_traitsIcESaIcEEESt4pairIKS5_S6_IS5_S5_EESt10_Select1stIS9_ESt4lessIS5_ESaIS9_EED2Ev:
.LFB8976:
	.cfi_startproc
	.cfi_personality 0x3,__gxx_personality_v0
	.cfi_lsda 0x3,.LLSDA8976
	pushq	%rbp
	.cfi_def_cfa_offset 16
	.cfi_offset 6, -16
	movq	%rsp, %rbp
	.cfi_def_cfa_register 6
	subq	$16, %rsp
	movq	%rdi, -8(%rbp)
	movq	-8(%rbp), %rax
	movq	%rax, %rdi
	call	_ZNSt8_Rb_treeINSt7__cxx1112basic_stringIcSt11char_traitsIcESaIcEEESt4pairIKS5_S6_IS5_S5_EESt10_Select1stIS9_ESt4lessIS5_ESaIS9_EE8_M_beginEv
	movq	%rax, %rdx
	movq	-8(%rbp), %rax
	movq	%rdx, %rsi
	movq	%rax, %rdi
	call	_ZNSt8_Rb_treeINSt7__cxx1112basic_stringIcSt11char_traitsIcESaIcEEESt4pairIKS5_S6_IS5_S5_EESt10_Select1stIS9_ESt4lessIS5_ESaIS9_EE8_M_eraseEPSt13_Rb_tree_nodeIS9_E
	movq	-8(%rbp), %rax
	movq	%rax, %rdi
	call	_ZNSt8_Rb_treeINSt7__cxx1112basic_stringIcSt11char_traitsIcESaIcEEESt4pairIKS5_S6_IS5_S5_EESt10_Select1stIS9_ESt4lessIS5_ESaIS9_EE13_Rb_tree_implISD_Lb1EED1Ev
	nop
	leave
	.cfi_def_cfa 7, 8
	ret
	.cfi_endproc
.LFE8976:
	.section	.gcc_except_table
.LLSDA8976:
	.byte	0xff
	.byte	0xff
	.byte	0x1
	.uleb128 .LLSDACSE8976-.LLSDACSB8976
.LLSDACSB8976:
.LLSDACSE8976:
	.section	.text._ZNSt8_Rb_treeINSt7__cxx1112basic_stringIcSt11char_traitsIcESaIcEEESt4pairIKS5_S6_IS5_S5_EESt10_Select1stIS9_ESt4lessIS5_ESaIS9_EED2Ev,"axG",@progbits,_ZNSt8_Rb_treeINSt7__cxx1112basic_stringIcSt11char_traitsIcESaIcEEESt4pairIKS5_S6_IS5_S5_EESt10_Select1stIS9_ESt4lessIS5_ESaIS9_EED5Ev,comdat
	.size	_ZNSt8_Rb_treeINSt7__cxx1112basic_stringIcSt11char_traitsIcESaIcEEESt4pairIKS5_S6_IS5_S5_EESt10_Select1stIS9_ESt4lessIS5_ESaIS9_EED2Ev, .-_ZNSt8_Rb_treeINSt7__cxx1112basic_stringIcSt11char_traitsIcESaIcEEESt4pairIKS5_S6_IS5_S5_EESt10_Select1stIS9_ESt4lessIS5_ESaIS9_EED2Ev
	.weak	_ZNSt8_Rb_treeINSt7__cxx1112basic_stringIcSt11char_traitsIcESaIcEEESt4pairIKS5_S6_IS5_S5_EESt10_Select1stIS9_ESt4lessIS5_ESaIS9_EED1Ev
	.set	_ZNSt8_Rb_treeINSt7__cxx1112basic_stringIcSt11char_traitsIcESaIcEEESt4pairIKS5_S6_IS5_S5_EESt10_Select1stIS9_ESt4lessIS5_ESaIS9_EED1Ev,_ZNSt8_Rb_treeINSt7__cxx1112basic_stringIcSt11char_traitsIcESaIcEEESt4pairIKS5_S6_IS5_S5_EESt10_Select1stIS9_ESt4lessIS5_ESaIS9_EED2Ev
	.section	.text._ZNSt3mapINSt7__cxx1112basic_stringIcSt11char_traitsIcESaIcEEES5_St4lessIS5_ESaISt4pairIKS5_S5_EEEixERS9_,"axG",@progbits,_ZNSt3mapINSt7__cxx1112basic_stringIcSt11char_traitsIcESaIcEEES5_St4lessIS5_ESaISt4pairIKS5_S5_EEEixERS9_,comdat
	.align 2
	.weak	_ZNSt3mapINSt7__cxx1112basic_stringIcSt11char_traitsIcESaIcEEES5_St4lessIS5_ESaISt4pairIKS5_S5_EEEixERS9_
	.type	_ZNSt3mapINSt7__cxx1112basic_stringIcSt11char_traitsIcESaIcEEES5_St4lessIS5_ESaISt4pairIKS5_S5_EEEixERS9_, @function
_ZNSt3mapINSt7__cxx1112basic_stringIcSt11char_traitsIcESaIcEEES5_St4lessIS5_ESaISt4pairIKS5_S5_EEEixERS9_:
.LFB8978:
	.cfi_startproc
	pushq	%rbp
	.cfi_def_cfa_offset 16
	.cfi_offset 6, -16
	movq	%rsp, %rbp
	.cfi_def_cfa_register 6
	pushq	%rbx
	subq	$72, %rsp
	.cfi_offset 3, -24
	movq	%rdi, -72(%rbp)
	movq	%rsi, -80(%rbp)
	movq	-80(%rbp), %rdx
	movq	-72(%rbp), %rax
	movq	%rdx, %rsi
	movq	%rax, %rdi
	call	_ZNSt3mapINSt7__cxx1112basic_stringIcSt11char_traitsIcESaIcEEES5_St4lessIS5_ESaISt4pairIKS5_S5_EEE11lower_boundERS9_
	movq	%rax, -56(%rbp)
	movq	-72(%rbp), %rax
	movq	%rax, %rdi
	call	_ZNSt3mapINSt7__cxx1112basic_stringIcSt11char_traitsIcESaIcEEES5_St4lessIS5_ESaISt4pairIKS5_S5_EEE3endEv
	movq	%rax, -48(%rbp)
	leaq	-48(%rbp), %rdx
	leaq	-56(%rbp), %rax
	movq	%rdx, %rsi
	movq	%rax, %rdi
	call	_ZNKSt17_Rb_tree_iteratorISt4pairIKNSt7__cxx1112basic_stringIcSt11char_traitsIcESaIcEEES6_EEeqERKS9_
	testb	%al, %al
	jne	.L470
	movq	-72(%rbp), %rax
	movq	%rax, %rdi
	call	_ZNKSt3mapINSt7__cxx1112basic_stringIcSt11char_traitsIcESaIcEEES5_St4lessIS5_ESaISt4pairIKS5_S5_EEE8key_compEv
	leaq	-56(%rbp), %rax
	movq	%rax, %rdi
	call	_ZNKSt17_Rb_tree_iteratorISt4pairIKNSt7__cxx1112basic_stringIcSt11char_traitsIcESaIcEEES6_EEdeEv
	movq	%rax, %rdx
	movq	-80(%rbp), %rcx
	leaq	-34(%rbp), %rax
	movq	%rcx, %rsi
	movq	%rax, %rdi
	call	_ZNKSt4lessINSt7__cxx1112basic_stringIcSt11char_traitsIcESaIcEEEEclERKS5_S8_
	testb	%al, %al
	je	.L471
.L470:
	movl	$1, %eax
	jmp	.L472
.L471:
	movl	$0, %eax
.L472:
	testb	%al, %al
	je	.L473
	movq	-72(%rbp), %rbx
	movq	-80(%rbp), %rdx
	leaq	-32(%rbp), %rax
	movq	%rdx, %rsi
	movq	%rax, %rdi
	call	_ZNSt5tupleIJRKNSt7__cxx1112basic_stringIcSt11char_traitsIcESaIcEEEEEC1IvLb1EEES7_
	leaq	-56(%rbp), %rdx
	leaq	-24(%rbp), %rax
	movq	%rdx, %rsi
	movq	%rax, %rdi
	call	_ZNSt23_Rb_tree_const_iteratorISt4pairIKNSt7__cxx1112basic_stringIcSt11char_traitsIcESaIcEEES6_EEC1ERKSt17_Rb_tree_iteratorIS8_E
	leaq	-33(%rbp), %rcx
	leaq	-32(%rbp), %rdx
	movq	-24(%rbp), %rax
	movq	%rcx, %r8
	movq	%rdx, %rcx
	movl	$_ZStL19piecewise_construct, %edx
	movq	%rax, %rsi
	movq	%rbx, %rdi
	call	_ZNSt8_Rb_treeINSt7__cxx1112basic_stringIcSt11char_traitsIcESaIcEEESt4pairIKS5_S5_ESt10_Select1stIS8_ESt4lessIS5_ESaIS8_EE22_M_emplace_hint_uniqueIJRKSt21piecewise_construct_tSt5tupleIJRS7_EESJ_IJEEEEESt17_Rb_tree_iteratorIS8_ESt23_Rb_tree_const_iteratorIS8_EDpOT_
	movq	%rax, -56(%rbp)
.L473:
	leaq	-56(%rbp), %rax
	movq	%rax, %rdi
	call	_ZNKSt17_Rb_tree_iteratorISt4pairIKNSt7__cxx1112basic_stringIcSt11char_traitsIcESaIcEEES6_EEdeEv
	addq	$32, %rax
	addq	$72, %rsp
	popq	%rbx
	popq	%rbp
	.cfi_def_cfa 7, 8
	ret
	.cfi_endproc
.LFE8978:
	.size	_ZNSt3mapINSt7__cxx1112basic_stringIcSt11char_traitsIcESaIcEEES5_St4lessIS5_ESaISt4pairIKS5_S5_EEEixERS9_, .-_ZNSt3mapINSt7__cxx1112basic_stringIcSt11char_traitsIcESaIcEEES5_St4lessIS5_ESaISt4pairIKS5_S5_EEEixERS9_
	.section	.text._ZNSt6vectorINSt7__cxx1112basic_stringIcSt11char_traitsIcESaIcEEESaIS5_EEC2ERKS7_,"axG",@progbits,_ZNSt6vectorINSt7__cxx1112basic_stringIcSt11char_traitsIcESaIcEEESaIS5_EEC5ERKS7_,comdat
	.align 2
	.weak	_ZNSt6vectorINSt7__cxx1112basic_stringIcSt11char_traitsIcESaIcEEESaIS5_EEC2ERKS7_
	.type	_ZNSt6vectorINSt7__cxx1112basic_stringIcSt11char_traitsIcESaIcEEESaIS5_EEC2ERKS7_, @function
_ZNSt6vectorINSt7__cxx1112basic_stringIcSt11char_traitsIcESaIcEEESaIS5_EEC2ERKS7_:
.LFB9005:
	.cfi_startproc
	.cfi_personality 0x3,__gxx_personality_v0
	.cfi_lsda 0x3,.LLSDA9005
	pushq	%rbp
	.cfi_def_cfa_offset 16
	.cfi_offset 6, -16
	movq	%rsp, %rbp
	.cfi_def_cfa_register 6
	pushq	%r13
	pushq	%r12
	pushq	%rbx
	subq	$40, %rsp
	.cfi_offset 13, -24
	.cfi_offset 12, -32
	.cfi_offset 3, -40
	movq	%rdi, -56(%rbp)
	movq	%rsi, -64(%rbp)
	movq	-56(%rbp), %rbx
	movq	-64(%rbp), %rax
	movq	%rax, %rdi
	call	_ZNKSt12_Vector_baseINSt7__cxx1112basic_stringIcSt11char_traitsIcESaIcEEESaIS5_EE19_M_get_Tp_allocatorEv
	movq	%rax, %rdx
	leaq	-33(%rbp), %rax
	movq	%rdx, %rsi
	movq	%rax, %rdi
.LEHB57:
	call	_ZN9__gnu_cxx14__alloc_traitsISaINSt7__cxx1112basic_stringIcSt11char_traitsIcESaIcEEEES6_E17_S_select_on_copyERKS7_
.LEHE57:
	movq	-64(%rbp), %rax
	movq	%rax, %rdi
	call	_ZNKSt6vectorINSt7__cxx1112basic_stringIcSt11char_traitsIcESaIcEEESaIS5_EE4sizeEv
	movq	%rax, %rcx
	leaq	-33(%rbp), %rax
	movq	%rax, %rdx
	movq	%rcx, %rsi
	movq	%rbx, %rdi
.LEHB58:
	call	_ZNSt12_Vector_baseINSt7__cxx1112basic_stringIcSt11char_traitsIcESaIcEEESaIS5_EEC2EmRKS6_
.LEHE58:
	leaq	-33(%rbp), %rax
	movq	%rax, %rdi
	call	_ZNSaINSt7__cxx1112basic_stringIcSt11char_traitsIcESaIcEEEED1Ev
	movq	-56(%rbp), %rax
	movq	%rax, %rdi
	call	_ZNSt12_Vector_baseINSt7__cxx1112basic_stringIcSt11char_traitsIcESaIcEEESaIS5_EE19_M_get_Tp_allocatorEv
	movq	%rax, %r13
	movq	-56(%rbp), %rax
	movq	(%rax), %rbx
	movq	-64(%rbp), %rax
	movq	%rax, %rdi
	call	_ZNKSt6vectorINSt7__cxx1112basic_stringIcSt11char_traitsIcESaIcEEESaIS5_EE3endEv
	movq	%rax, %r12
	movq	-64(%rbp), %rax
	movq	%rax, %rdi
	call	_ZNKSt6vectorINSt7__cxx1112basic_stringIcSt11char_traitsIcESaIcEEESaIS5_EE5beginEv
	movq	%r13, %rcx
	movq	%rbx, %rdx
	movq	%r12, %rsi
	movq	%rax, %rdi
.LEHB59:
	call	_ZSt22__uninitialized_copy_aIN9__gnu_cxx17__normal_iteratorIPKNSt7__cxx1112basic_stringIcSt11char_traitsIcESaIcEEESt6vectorIS7_SaIS7_EEEEPS7_S7_ET0_T_SG_SF_RSaIT1_E
.LEHE59:
	movq	%rax, %rdx
	movq	-56(%rbp), %rax
	movq	%rdx, 8(%rax)
	jmp	.L480
.L478:
	movq	%rax, %rbx
	leaq	-33(%rbp), %rax
	movq	%rax, %rdi
