	.file	"Reply.cpp"
	.text
.Ltext0:
	.section	.rodata
	.type	_ZStL19piecewise_construct, @object
	.size	_ZStL19piecewise_construct, 1
_ZStL19piecewise_construct:
	.zero	1
.LC0:
	.string	"MPP/1.1 400 Bad Request"
	.align 8
.LC1:
	.string	"MPP/1.1 401 Unrecognised Protocol Major Version Number"
	.align 8
.LC2:
	.string	"MPP/1.1 402 Unrecognised Protocol Minor Version Number"
	.align 8
.LC3:
	.string	"MPP/1.1 403 Unrecognised Protocol Patch NUmber"
.LC4:
	.string	"MPP/1.1 404 Unrecognised Verb"
	.text
	.align 2
	.globl	_ZN5Reply11getFCStringB5cxx11ENS_11FailureCodeE
	.type	_ZN5Reply11getFCStringB5cxx11ENS_11FailureCodeE, @function
_ZN5Reply11getFCStringB5cxx11ENS_11FailureCodeE:
.LFB1006:
	.file 1 "cpp/Reply.cpp"
	.loc 1 12 1
	.cfi_startproc
	.cfi_personality 0x3,__gxx_personality_v0
	.cfi_lsda 0x3,.LLSDA1006
	pushq	%rbp
	.cfi_def_cfa_offset 16
	.cfi_offset 6, -16
	movq	%rsp, %rbp
	.cfi_def_cfa_register 6
	pushq	%rbx
	subq	$264, %rsp
	.cfi_offset 3, -24
	movq	%rdi, -264(%rbp)
	movl	%esi, -268(%rbp)
	.loc 1 13 14
	movq	-264(%rbp), %rax
	movq	%rax, %rdi
	call	_ZNSt7__cxx1112basic_stringIcSt11char_traitsIcESaIcEEC1Ev
	.loc 1 15 2
	movl	-268(%rbp), %eax
	cmpl	$4, %eax
	ja	.L21
	movl	%eax, %eax
	movq	.L4(,%rax,8), %rax
	jmp	*%rax
	.section	.rodata
	.align 8
	.align 4
.L4:
	.quad	.L8
	.quad	.L7
	.quad	.L6
	.quad	.L5
	.quad	.L3
	.text
.L8:
	.loc 1 19 20
	leaq	-209(%rbp), %rax
	movq	%rax, %rdi
	call	_ZNSaIcEC1Ev
	leaq	-209(%rbp), %rdx
	leaq	-256(%rbp), %rax
	movl	$.LC0, %esi
	movq	%rax, %rdi
.LEHB0:
	call	_ZNSt7__cxx1112basic_stringIcSt11char_traitsIcESaIcEEC1EPKcRKS3_
.LEHE0:
	.loc 1 19 52 discriminator 2
	leaq	-256(%rbp), %rdx
	movq	-264(%rbp), %rax
	movq	%rdx, %rsi
	movq	%rax, %rdi
	call	_ZNSt7__cxx1112basic_stringIcSt11char_traitsIcESaIcEEaSEOS4_
	.loc 1 19 20 discriminator 2
	leaq	-256(%rbp), %rax
	movq	%rax, %rdi
	call	_ZNSt7__cxx1112basic_stringIcSt11char_traitsIcESaIcEED1Ev
	leaq	-209(%rbp), %rax
	movq	%rax, %rdi
	call	_ZNSaIcED1Ev
	.loc 1 20 4 discriminator 2
	jmp	.L2
.L7:
	.loc 1 25 20
	leaq	-161(%rbp), %rax
	movq	%rax, %rdi
	call	_ZNSaIcEC1Ev
	leaq	-161(%rbp), %rdx
	leaq	-208(%rbp), %rax
	movl	$.LC1, %esi
	movq	%rax, %rdi
.LEHB1:
	call	_ZNSt7__cxx1112basic_stringIcSt11char_traitsIcESaIcEEC1EPKcRKS3_
.LEHE1:
	.loc 1 25 83 discriminator 2
	leaq	-208(%rbp), %rdx
	movq	-264(%rbp), %rax
	movq	%rdx, %rsi
	movq	%rax, %rdi
	call	_ZNSt7__cxx1112basic_stringIcSt11char_traitsIcESaIcEEaSEOS4_
	.loc 1 25 20 discriminator 2
	leaq	-208(%rbp), %rax
	movq	%rax, %rdi
	call	_ZNSt7__cxx1112basic_stringIcSt11char_traitsIcESaIcEED1Ev
	leaq	-161(%rbp), %rax
	movq	%rax, %rdi
	call	_ZNSaIcED1Ev
	.loc 1 26 4 discriminator 2
	jmp	.L2
.L6:
	.loc 1 31 20
	leaq	-113(%rbp), %rax
	movq	%rax, %rdi
	call	_ZNSaIcEC1Ev
	leaq	-113(%rbp), %rdx
	leaq	-160(%rbp), %rax
	movl	$.LC2, %esi
	movq	%rax, %rdi
.LEHB2:
	call	_ZNSt7__cxx1112basic_stringIcSt11char_traitsIcESaIcEEC1EPKcRKS3_
.LEHE2:
	.loc 1 31 83 discriminator 2
	leaq	-160(%rbp), %rdx
	movq	-264(%rbp), %rax
	movq	%rdx, %rsi
	movq	%rax, %rdi
	call	_ZNSt7__cxx1112basic_stringIcSt11char_traitsIcESaIcEEaSEOS4_
	.loc 1 31 20 discriminator 2
	leaq	-160(%rbp), %rax
	movq	%rax, %rdi
	call	_ZNSt7__cxx1112basic_stringIcSt11char_traitsIcESaIcEED1Ev
	leaq	-113(%rbp), %rax
	movq	%rax, %rdi
	call	_ZNSaIcED1Ev
	.loc 1 32 4 discriminator 2
	jmp	.L2
.L5:
	.loc 1 37 20
	leaq	-65(%rbp), %rax
	movq	%rax, %rdi
	call	_ZNSaIcEC1Ev
	leaq	-65(%rbp), %rdx
	leaq	-112(%rbp), %rax
	movl	$.LC3, %esi
	movq	%rax, %rdi
.LEHB3:
	call	_ZNSt7__cxx1112basic_stringIcSt11char_traitsIcESaIcEEC1EPKcRKS3_
.LEHE3:
	.loc 1 37 75 discriminator 2
	leaq	-112(%rbp), %rdx
	movq	-264(%rbp), %rax
	movq	%rdx, %rsi
	movq	%rax, %rdi
	call	_ZNSt7__cxx1112basic_stringIcSt11char_traitsIcESaIcEEaSEOS4_
	.loc 1 37 20 discriminator 2
	leaq	-112(%rbp), %rax
	movq	%rax, %rdi
	call	_ZNSt7__cxx1112basic_stringIcSt11char_traitsIcESaIcEED1Ev
	leaq	-65(%rbp), %rax
	movq	%rax, %rdi
	call	_ZNSaIcED1Ev
	.loc 1 38 4 discriminator 2
	jmp	.L2
.L3:
	.loc 1 43 20
	leaq	-17(%rbp), %rax
	movq	%rax, %rdi
	call	_ZNSaIcEC1Ev
	leaq	-17(%rbp), %rdx
	leaq	-64(%rbp), %rax
	movl	$.LC4, %esi
	movq	%rax, %rdi
.LEHB4:
	call	_ZNSt7__cxx1112basic_stringIcSt11char_traitsIcESaIcEEC1EPKcRKS3_
.LEHE4:
	.loc 1 43 58 discriminator 2
	leaq	-64(%rbp), %rdx
	movq	-264(%rbp), %rax
	movq	%rdx, %rsi
	movq	%rax, %rdi
	call	_ZNSt7__cxx1112basic_stringIcSt11char_traitsIcESaIcEEaSEOS4_
	.loc 1 43 20 discriminator 2
	leaq	-64(%rbp), %rax
	movq	%rax, %rdi
	call	_ZNSt7__cxx1112basic_stringIcSt11char_traitsIcESaIcEED1Ev
	leaq	-17(%rbp), %rax
	movq	%rax, %rdi
	call	_ZNSaIcED1Ev
	.loc 1 44 4 discriminator 2
	nop
.L2:
	.loc 1 48 9
	jmp	.L21
.L16:
	movq	%rax, %rbx
	.loc 1 19 20
	leaq	-209(%rbp), %rax
	movq	%rax, %rdi
	call	_ZNSaIcED1Ev
	jmp	.L11
.L17:
	movq	%rax, %rbx
	.loc 1 25 20
	leaq	-161(%rbp), %rax
	movq	%rax, %rdi
	call	_ZNSaIcED1Ev
	jmp	.L11
.L18:
	movq	%rax, %rbx
	.loc 1 31 20
	leaq	-113(%rbp), %rax
	movq	%rax, %rdi
	call	_ZNSaIcED1Ev
	jmp	.L11
.L19:
	movq	%rax, %rbx
	.loc 1 37 20
	leaq	-65(%rbp), %rax
	movq	%rax, %rdi
	call	_ZNSaIcED1Ev
	jmp	.L11
.L20:
	movq	%rax, %rbx
	.loc 1 43 20
	leaq	-17(%rbp), %rax
	movq	%rax, %rdi
	call	_ZNSaIcED1Ev
.L11:
	movq	-264(%rbp), %rax
	movq	%rax, %rdi
	call	_ZNSt7__cxx1112basic_stringIcSt11char_traitsIcESaIcEED1Ev
	movq	%rbx, %rax
	movq	%rax, %rdi
.LEHB5:
	call	_Unwind_Resume
.LEHE5:
.L21:
	.loc 1 48 9
	nop
	.loc 1 49 1
	movq	-264(%rbp), %rax
	addq	$264, %rsp
	popq	%rbx
	popq	%rbp
	.cfi_def_cfa 7, 8
	ret
	.cfi_endproc
.LFE1006:
	.globl	__gxx_personality_v0
	.section	.gcc_except_table,"a",@progbits
.LLSDA1006:
	.byte	0xff
	.byte	0xff
	.byte	0x1
	.uleb128 .LLSDACSE1006-.LLSDACSB1006
.LLSDACSB1006:
	.uleb128 .LEHB0-.LFB1006
	.uleb128 .LEHE0-.LEHB0
	.uleb128 .L16-.LFB1006
	.uleb128 0
	.uleb128 .LEHB1-.LFB1006
	.uleb128 .LEHE1-.LEHB1
	.uleb128 .L17-.LFB1006
	.uleb128 0
	.uleb128 .LEHB2-.LFB1006
	.uleb128 .LEHE2-.LEHB2
	.uleb128 .L18-.LFB1006
	.uleb128 0
	.uleb128 .LEHB3-.LFB1006
	.uleb128 .LEHE3-.LEHB3
	.uleb128 .L19-.LFB1006
	.uleb128 0
	.uleb128 .LEHB4-.LFB1006
	.uleb128 .LEHE4-.LEHB4
	.uleb128 .L20-.LFB1006
	.uleb128 0
	.uleb128 .LEHB5-.LFB1006
	.uleb128 .LEHE5-.LEHB5
	.uleb128 0
	.uleb128 0
.LLSDACSE1006:
	.text
	.size	_ZN5Reply11getFCStringB5cxx11ENS_11FailureCodeE, .-_ZN5Reply11getFCStringB5cxx11ENS_11FailureCodeE
.Letext0:
	.file 2 "/usr/include/c++/8/bits/basic_string.h"
	.file 3 "/usr/include/c++/8/bits/basic_string.tcc"
	.file 4 "/usr/include/c++/8/bits/stringfwd.h"
	.file 5 "/usr/include/c++/8/type_traits"
	.file 6 "/usr/include/c++/8/bits/stl_pair.h"
	.file 7 "/usr/include/c++/8/bits/cpp_type_traits.h"
	.file 8 "/usr/include/c++/8/bits/stl_iterator_base_types.h"
	.file 9 "/usr/include/c++/8/debug/debug.h"
	.file 10 "/usr/include/c++/8/cwchar"
	.file 11 "/usr/include/c++/8/bits/char_traits.h"
	.file 12 "/usr/include/c++/8/x86_64-suse-linux/bits/c++config.h"
	.file 13 "/usr/include/c++/8/cstdint"
	.file 14 "/usr/include/c++/8/bits/exception_ptr.h"
	.file 15 "/usr/include/c++/8/new"
	.file 16 "/usr/include/c++/8/bits/allocator.h"
	.file 17 "/usr/include/c++/8/clocale"
	.file 18 "/usr/include/c++/8/cstdlib"
	.file 19 "/usr/include/c++/8/cstdio"
	.file 20 "/usr/include/c++/8/bits/alloc_traits.h"
	.file 21 "/usr/include/c++/8/initializer_list"
	.file 22 "/usr/include/c++/8/bits/stl_iterator_base_funcs.h"
	.file 23 "/usr/include/c++/8/bits/move.h"
	.file 24 "/usr/include/c++/8/bits/predefined_ops.h"
	.file 25 "/usr/include/c++/8/ext/new_allocator.h"
	.file 26 "/usr/include/c++/8/ext/numeric_traits.h"
	.file 27 "/usr/include/c++/8/ext/alloc_traits.h"
	.file 28 "/usr/include/c++/8/bits/stl_iterator.h"
	.file 29 "/usr/include/c++/8/ext/type_traits.h"
	.file 30 "/usr/lib64/gcc/x86_64-suse-linux/8/include/stddef.h"
	.file 31 "<built-in>"
	.file 32 "/usr/include/bits/types/wint_t.h"
	.file 33 "/usr/include/bits/types/__mbstate_t.h"
	.file 34 "/usr/include/bits/types/mbstate_t.h"
	.file 35 "/usr/include/bits/types/__FILE.h"
	.file 36 "/usr/include/libio.h"
	.file 37 "/usr/include/bits/types/FILE.h"
	.file 38 "/usr/include/wchar.h"
	.file 39 "/usr/include/bits/types/struct_tm.h"
	.file 40 "/usr/include/bits/types.h"
	.file 41 "/usr/include/bits/stdint-intn.h"
	.file 42 "/usr/include/bits/stdint-uintn.h"
	.file 43 "/usr/include/stdint.h"
	.file 44 "/usr/include/locale.h"
	.file 45 "/usr/include/time.h"
	.file 46 "/usr/include/stdlib.h"
	.file 47 "/usr/include/_G_config.h"
	.file 48 "/usr/include/stdio.h"
	.file 49 "/usr/include/bits/sys_errlist.h"
	.file 50 "/usr/include/errno.h"
	.file 51 "./hpp/Reply.hpp"
	.section	.note.GNU-stack,"",@progbits
