	.file	"ReqParser.cpp"
	.text
	.section	.rodata
	.type	_ZStL19piecewise_construct, @object
	.size	_ZStL19piecewise_construct, 1
_ZStL19piecewise_construct:
	.zero	1
	.section	.text._ZnwmPv,"axG",@progbits,_ZnwmPv,comdat
	.weak	_ZnwmPv
	.type	_ZnwmPv, @function
_ZnwmPv:
.LFB448:
	.cfi_startproc
	pushq	%rbp
	.cfi_def_cfa_offset 16
	.cfi_offset 6, -16
	movq	%rsp, %rbp
	.cfi_def_cfa_register 6
	movq	%rdi, -8(%rbp)
	movq	%rsi, -16(%rbp)
	movq	-16(%rbp), %rax
	popq	%rbp
	.cfi_def_cfa 7, 8
	ret
	.cfi_endproc
.LFE448:
	.size	_ZnwmPv, .-_ZnwmPv
	.section	.text._ZdlPvS_,"axG",@progbits,_ZdlPvS_,comdat
	.weak	_ZdlPvS_
	.type	_ZdlPvS_, @function
_ZdlPvS_:
.LFB450:
	.cfi_startproc
	pushq	%rbp
	.cfi_def_cfa_offset 16
	.cfi_offset 6, -16
	movq	%rsp, %rbp
	.cfi_def_cfa_register 6
	movq	%rdi, -8(%rbp)
	movq	%rsi, -16(%rbp)
	nop
	popq	%rbp
	.cfi_def_cfa 7, 8
	ret
	.cfi_endproc
.LFE450:
	.size	_ZdlPvS_, .-_ZdlPvS_
	.section	.text._ZNSt6locale2idC2Ev,"axG",@progbits,_ZNSt6locale2idC5Ev,comdat
	.align 2
	.weak	_ZNSt6locale2idC2Ev
	.type	_ZNSt6locale2idC2Ev, @function
_ZNSt6locale2idC2Ev:
.LFB1019:
	.cfi_startproc
	pushq	%rbp
	.cfi_def_cfa_offset 16
	.cfi_offset 6, -16
	movq	%rsp, %rbp
	.cfi_def_cfa_register 6
	movq	%rdi, -8(%rbp)
	nop
	popq	%rbp
	.cfi_def_cfa 7, 8
	ret
	.cfi_endproc
.LFE1019:
	.size	_ZNSt6locale2idC2Ev, .-_ZNSt6locale2idC2Ev
	.weak	_ZNSt6locale2idC1Ev
	.set	_ZNSt6locale2idC1Ev,_ZNSt6locale2idC2Ev
	.section	.text._ZStanSt13_Ios_FmtflagsS_,"axG",@progbits,_ZStanSt13_Ios_FmtflagsS_,comdat
	.weak	_ZStanSt13_Ios_FmtflagsS_
	.type	_ZStanSt13_Ios_FmtflagsS_, @function
_ZStanSt13_Ios_FmtflagsS_:
.LFB1109:
	.cfi_startproc
	pushq	%rbp
	.cfi_def_cfa_offset 16
	.cfi_offset 6, -16
	movq	%rsp, %rbp
	.cfi_def_cfa_register 6
	movl	%edi, -4(%rbp)
	movl	%esi, -8(%rbp)
	movl	-4(%rbp), %eax
	andl	-8(%rbp), %eax
	popq	%rbp
	.cfi_def_cfa 7, 8
	ret
	.cfi_endproc
.LFE1109:
	.size	_ZStanSt13_Ios_FmtflagsS_, .-_ZStanSt13_Ios_FmtflagsS_
	.section	.text._ZStorSt13_Ios_OpenmodeS_,"axG",@progbits,_ZStorSt13_Ios_OpenmodeS_,comdat
	.weak	_ZStorSt13_Ios_OpenmodeS_
	.type	_ZStorSt13_Ios_OpenmodeS_, @function
_ZStorSt13_Ios_OpenmodeS_:
.LFB1117:
	.cfi_startproc
	pushq	%rbp
	.cfi_def_cfa_offset 16
	.cfi_offset 6, -16
	movq	%rsp, %rbp
	.cfi_def_cfa_register 6
	movl	%edi, -4(%rbp)
	movl	%esi, -8(%rbp)
	movl	-4(%rbp), %eax
	orl	-8(%rbp), %eax
	popq	%rbp
	.cfi_def_cfa 7, 8
	ret
	.cfi_endproc
.LFE1117:
	.size	_ZStorSt13_Ios_OpenmodeS_, .-_ZStorSt13_Ios_OpenmodeS_
	.section	.text._ZNKSt8ios_base5flagsEv,"axG",@progbits,_ZNKSt8ios_base5flagsEv,comdat
	.align 2
	.weak	_ZNKSt8ios_base5flagsEv
	.type	_ZNKSt8ios_base5flagsEv, @function
_ZNKSt8ios_base5flagsEv:
.LFB1140:
	.cfi_startproc
	pushq	%rbp
	.cfi_def_cfa_offset 16
	.cfi_offset 6, -16
	movq	%rsp, %rbp
	.cfi_def_cfa_register 6
	movq	%rdi, -8(%rbp)
	movq	-8(%rbp), %rax
	movl	24(%rax), %eax
	popq	%rbp
	.cfi_def_cfa 7, 8
	ret
	.cfi_endproc
.LFE1140:
	.size	_ZNKSt8ios_base5flagsEv, .-_ZNKSt8ios_base5flagsEv
	.section	.text._ZNKSt8ios_base6getlocEv,"axG",@progbits,_ZNKSt8ios_base6getlocEv,comdat
	.align 2
	.weak	_ZNKSt8ios_base6getlocEv
	.type	_ZNKSt8ios_base6getlocEv, @function
_ZNKSt8ios_base6getlocEv:
.LFB1149:
	.cfi_startproc
	pushq	%rbp
	.cfi_def_cfa_offset 16
	.cfi_offset 6, -16
	movq	%rsp, %rbp
	.cfi_def_cfa_register 6
	subq	$16, %rsp
	movq	%rdi, -8(%rbp)
	movq	%rsi, -16(%rbp)
	movq	-16(%rbp), %rax
	leaq	208(%rax), %rdx
	movq	-8(%rbp), %rax
	movq	%rdx, %rsi
	movq	%rax, %rdi
	call	_ZNSt6localeC1ERKS_
	movq	-8(%rbp), %rax
	leave
	.cfi_def_cfa 7, 8
	ret
	.cfi_endproc
.LFE1149:
	.size	_ZNKSt8ios_base6getlocEv, .-_ZNKSt8ios_base6getlocEv
	.section	.rodata
	.type	_ZStL13allocator_arg, @object
	.size	_ZStL13allocator_arg, 1
_ZStL13allocator_arg:
	.zero	1
	.type	_ZStL6ignore, @object
	.size	_ZStL6ignore, 1
_ZStL6ignore:
	.zero	1
	.local	_ZStL8__ioinit
	.comm	_ZStL8__ioinit,1,1
	.section	.text._ZN5boost5logic7triboolC2Eb,"axG",@progbits,_ZN5boost5logic7triboolC5Eb,comdat
	.align 2
	.weak	_ZN5boost5logic7triboolC2Eb
	.type	_ZN5boost5logic7triboolC2Eb, @function
_ZN5boost5logic7triboolC2Eb:
.LFB2460:
	.cfi_startproc
	pushq	%rbp
	.cfi_def_cfa_offset 16
	.cfi_offset 6, -16
	movq	%rsp, %rbp
	.cfi_def_cfa_register 6
	movq	%rdi, -8(%rbp)
	movl	%esi, %eax
	movb	%al, -12(%rbp)
	cmpb	$0, -12(%rbp)
	je	.L14
	movl	$1, %edx
	jmp	.L15
.L14:
	movl	$0, %edx
.L15:
	movq	-8(%rbp), %rax
	movl	%edx, (%rax)
	nop
	popq	%rbp
	.cfi_def_cfa 7, 8
	ret
	.cfi_endproc
.LFE2460:
	.size	_ZN5boost5logic7triboolC2Eb, .-_ZN5boost5logic7triboolC2Eb
	.weak	_ZN5boost5logic7triboolC1Eb
	.set	_ZN5boost5logic7triboolC1Eb,_ZN5boost5logic7triboolC2Eb
	.section	.text._ZN5boost5logic7triboolC2EPFbS1_NS0_6detail15indeterminate_tEE,"axG",@progbits,_ZN5boost5logic7triboolC5EPFbS1_NS0_6detail15indeterminate_tEE,comdat
	.align 2
	.weak	_ZN5boost5logic7triboolC2EPFbS1_NS0_6detail15indeterminate_tEE
	.type	_ZN5boost5logic7triboolC2EPFbS1_NS0_6detail15indeterminate_tEE, @function
_ZN5boost5logic7triboolC2EPFbS1_NS0_6detail15indeterminate_tEE:
.LFB2463:
	.cfi_startproc
	pushq	%rbp
	.cfi_def_cfa_offset 16
	.cfi_offset 6, -16
	movq	%rsp, %rbp
	.cfi_def_cfa_register 6
	movq	%rdi, -8(%rbp)
	movq	%rsi, -16(%rbp)
	movq	-8(%rbp), %rax
	movl	$2, (%rax)
	nop
	popq	%rbp
	.cfi_def_cfa 7, 8
	ret
	.cfi_endproc
.LFE2463:
	.size	_ZN5boost5logic7triboolC2EPFbS1_NS0_6detail15indeterminate_tEE, .-_ZN5boost5logic7triboolC2EPFbS1_NS0_6detail15indeterminate_tEE
	.weak	_ZN5boost5logic7triboolC1EPFbS1_NS0_6detail15indeterminate_tEE
	.set	_ZN5boost5logic7triboolC1EPFbS1_NS0_6detail15indeterminate_tEE,_ZN5boost5logic7triboolC2EPFbS1_NS0_6detail15indeterminate_tEE
	.section	.text._ZNK5boost5logic7triboolcvbEv,"axG",@progbits,_ZNK5boost5logic7triboolcvbEv,comdat
	.align 2
	.weak	_ZNK5boost5logic7triboolcvbEv
	.type	_ZNK5boost5logic7triboolcvbEv, @function
_ZNK5boost5logic7triboolcvbEv:
.LFB2465:
	.cfi_startproc
	pushq	%rbp
	.cfi_def_cfa_offset 16
	.cfi_offset 6, -16
	movq	%rsp, %rbp
	.cfi_def_cfa_register 6
	movq	%rdi, -8(%rbp)
	movq	-8(%rbp), %rax
	movl	(%rax), %eax
	cmpl	$1, %eax
	sete	%al
	popq	%rbp
	.cfi_def_cfa 7, 8
	ret
	.cfi_endproc
.LFE2465:
	.size	_ZNK5boost5logic7triboolcvbEv, .-_ZNK5boost5logic7triboolcvbEv
	.section	.text._ZN5boost5logic13indeterminateENS0_7triboolENS0_6detail15indeterminate_tE,"axG",@progbits,_ZN5boost5logic13indeterminateENS0_7triboolENS0_6detail15indeterminate_tE,comdat
	.weak	_ZN5boost5logic13indeterminateENS0_7triboolENS0_6detail15indeterminate_tE
	.type	_ZN5boost5logic13indeterminateENS0_7triboolENS0_6detail15indeterminate_tE, @function
_ZN5boost5logic13indeterminateENS0_7triboolENS0_6detail15indeterminate_tE:
.LFB2466:
	.cfi_startproc
	pushq	%rbp
	.cfi_def_cfa_offset 16
	.cfi_offset 6, -16
	movq	%rsp, %rbp
	.cfi_def_cfa_register 6
	movl	%edi, -4(%rbp)
	movl	-4(%rbp), %eax
	cmpl	$2, %eax
	sete	%al
	popq	%rbp
	.cfi_def_cfa 7, 8
	ret
	.cfi_endproc
.LFE2466:
	.size	_ZN5boost5logic13indeterminateENS0_7triboolENS0_6detail15indeterminate_tE, .-_ZN5boost5logic13indeterminateENS0_7triboolENS0_6detail15indeterminate_tE
	.section	.text._ZNSt15_Rb_tree_headerC2Ev,"axG",@progbits,_ZNSt15_Rb_tree_headerC5Ev,comdat
	.align 2
	.weak	_ZNSt15_Rb_tree_headerC2Ev
	.type	_ZNSt15_Rb_tree_headerC2Ev, @function
_ZNSt15_Rb_tree_headerC2Ev:
.LFB2558:
	.cfi_startproc
	pushq	%rbp
	.cfi_def_cfa_offset 16
	.cfi_offset 6, -16
	movq	%rsp, %rbp
	.cfi_def_cfa_register 6
	subq	$16, %rsp
	movq	%rdi, -8(%rbp)
	movq	-8(%rbp), %rax
	movl	$0, (%rax)
	movq	-8(%rbp), %rax
	movq	%rax, %rdi
	call	_ZNSt15_Rb_tree_header8_M_resetEv
	nop
	leave
	.cfi_def_cfa 7, 8
	ret
	.cfi_endproc
.LFE2558:
	.size	_ZNSt15_Rb_tree_headerC2Ev, .-_ZNSt15_Rb_tree_headerC2Ev
	.weak	_ZNSt15_Rb_tree_headerC1Ev
	.set	_ZNSt15_Rb_tree_headerC1Ev,_ZNSt15_Rb_tree_headerC2Ev
	.section	.text._ZNSt15_Rb_tree_header8_M_resetEv,"axG",@progbits,_ZNSt15_Rb_tree_header8_M_resetEv,comdat
	.align 2
	.weak	_ZNSt15_Rb_tree_header8_M_resetEv
	.type	_ZNSt15_Rb_tree_header8_M_resetEv, @function
_ZNSt15_Rb_tree_header8_M_resetEv:
.LFB2564:
	.cfi_startproc
	pushq	%rbp
	.cfi_def_cfa_offset 16
	.cfi_offset 6, -16
	movq	%rsp, %rbp
	.cfi_def_cfa_register 6
	movq	%rdi, -8(%rbp)
	movq	-8(%rbp), %rax
	movq	$0, 8(%rax)
	movq	-8(%rbp), %rdx
	movq	-8(%rbp), %rax
	movq	%rdx, 16(%rax)
	movq	-8(%rbp), %rdx
	movq	-8(%rbp), %rax
	movq	%rdx, 24(%rax)
	movq	-8(%rbp), %rax
	movq	$0, 32(%rax)
	nop
	popq	%rbp
	.cfi_def_cfa 7, 8
	ret
	.cfi_endproc
.LFE2564:
	.size	_ZNSt15_Rb_tree_header8_M_resetEv, .-_ZNSt15_Rb_tree_header8_M_resetEv
	.section	.rodata
	.align 4
	.type	_ZN5boost6locale8boundaryL9word_noneE, @object
	.size	_ZN5boost6locale8boundaryL9word_noneE, 4
_ZN5boost6locale8boundaryL9word_noneE:
	.long	15
	.align 4
	.type	_ZN5boost6locale8boundaryL11word_numberE, @object
	.size	_ZN5boost6locale8boundaryL11word_numberE, 4
_ZN5boost6locale8boundaryL11word_numberE:
	.long	240
	.align 4
	.type	_ZN5boost6locale8boundaryL11word_letterE, @object
	.size	_ZN5boost6locale8boundaryL11word_letterE, 4
_ZN5boost6locale8boundaryL11word_letterE:
	.long	3840
	.align 4
	.type	_ZN5boost6locale8boundaryL9word_kanaE, @object
	.size	_ZN5boost6locale8boundaryL9word_kanaE, 4
_ZN5boost6locale8boundaryL9word_kanaE:
	.long	61440
	.align 4
	.type	_ZN5boost6locale8boundaryL9word_ideoE, @object
	.size	_ZN5boost6locale8boundaryL9word_ideoE, 4
_ZN5boost6locale8boundaryL9word_ideoE:
	.long	983040
	.align 4
	.type	_ZN5boost6locale8boundaryL8word_anyE, @object
	.size	_ZN5boost6locale8boundaryL8word_anyE, 4
_ZN5boost6locale8boundaryL8word_anyE:
	.long	1048560
	.align 4
	.type	_ZN5boost6locale8boundaryL12word_lettersE, @object
	.size	_ZN5boost6locale8boundaryL12word_lettersE, 4
_ZN5boost6locale8boundaryL12word_lettersE:
	.long	1048320
	.align 4
	.type	_ZN5boost6locale8boundaryL14word_kana_ideoE, @object
	.size	_ZN5boost6locale8boundaryL14word_kana_ideoE, 4
_ZN5boost6locale8boundaryL14word_kana_ideoE:
	.long	1044480
	.align 4
	.type	_ZN5boost6locale8boundaryL9word_maskE, @object
	.size	_ZN5boost6locale8boundaryL9word_maskE, 4
_ZN5boost6locale8boundaryL9word_maskE:
	.long	1048575
	.align 4
	.type	_ZN5boost6locale8boundaryL9line_softE, @object
	.size	_ZN5boost6locale8boundaryL9line_softE, 4
_ZN5boost6locale8boundaryL9line_softE:
	.long	15
	.align 4
	.type	_ZN5boost6locale8boundaryL9line_hardE, @object
	.size	_ZN5boost6locale8boundaryL9line_hardE, 4
_ZN5boost6locale8boundaryL9line_hardE:
	.long	240
	.align 4
	.type	_ZN5boost6locale8boundaryL8line_anyE, @object
	.size	_ZN5boost6locale8boundaryL8line_anyE, 4
_ZN5boost6locale8boundaryL8line_anyE:
	.long	255
	.align 4
	.type	_ZN5boost6locale8boundaryL9line_maskE, @object
	.size	_ZN5boost6locale8boundaryL9line_maskE, 4
_ZN5boost6locale8boundaryL9line_maskE:
	.long	255
	.align 4
	.type	_ZN5boost6locale8boundaryL13sentence_termE, @object
	.size	_ZN5boost6locale8boundaryL13sentence_termE, 4
_ZN5boost6locale8boundaryL13sentence_termE:
	.long	15
	.align 4
	.type	_ZN5boost6locale8boundaryL12sentence_sepE, @object
	.size	_ZN5boost6locale8boundaryL12sentence_sepE, 4
_ZN5boost6locale8boundaryL12sentence_sepE:
	.long	240
	.align 4
	.type	_ZN5boost6locale8boundaryL12sentence_anyE, @object
	.size	_ZN5boost6locale8boundaryL12sentence_anyE, 4
_ZN5boost6locale8boundaryL12sentence_anyE:
	.long	255
	.align 4
	.type	_ZN5boost6locale8boundaryL13sentence_maskE, @object
	.size	_ZN5boost6locale8boundaryL13sentence_maskE, 4
_ZN5boost6locale8boundaryL13sentence_maskE:
	.long	255
	.align 4
	.type	_ZN5boost6locale8boundaryL13character_anyE, @object
	.size	_ZN5boost6locale8boundaryL13character_anyE, 4
_ZN5boost6locale8boundaryL13character_anyE:
	.long	15
	.align 4
	.type	_ZN5boost6locale8boundaryL14character_maskE, @object
	.size	_ZN5boost6locale8boundaryL14character_maskE, 4
_ZN5boost6locale8boundaryL14character_maskE:
	.long	15
	.align 4
	.type	_ZN9__gnu_cxxL21__default_lock_policyE, @object
	.size	_ZN9__gnu_cxxL21__default_lock_policyE, 4
_ZN9__gnu_cxxL21__default_lock_policyE:
	.long	2
	.align 4
	.type	_ZN5boost6locale3utfL7illegalE, @object
	.size	_ZN5boost6locale3utfL7illegalE, 4
_ZN5boost6locale3utfL7illegalE:
	.long	-1
	.align 4
	.type	_ZN5boost6locale3utfL10incompleteE, @object
	.size	_ZN5boost6locale3utfL10incompleteE, 4
_ZN5boost6locale3utfL10incompleteE:
	.long	-2
	.align 4
	.type	_ZN5boost6localeL12nochar_facetE, @object
	.size	_ZN5boost6localeL12nochar_facetE, 4
_ZN5boost6localeL12nochar_facetE:
	.zero	4
	.align 4
	.type	_ZN5boost6localeL10char_facetE, @object
	.size	_ZN5boost6localeL10char_facetE, 4
_ZN5boost6localeL10char_facetE:
	.long	1
	.align 4
	.type	_ZN5boost6localeL13wchar_t_facetE, @object
	.size	_ZN5boost6localeL13wchar_t_facetE, 4
_ZN5boost6localeL13wchar_t_facetE:
	.long	2
	.align 4
	.type	_ZN5boost6localeL14char16_t_facetE, @object
	.size	_ZN5boost6localeL14char16_t_facetE, 4
_ZN5boost6localeL14char16_t_facetE:
	.long	4
	.align 4
	.type	_ZN5boost6localeL14char32_t_facetE, @object
	.size	_ZN5boost6localeL14char32_t_facetE, 4
_ZN5boost6localeL14char32_t_facetE:
	.long	8
	.align 4
	.type	_ZN5boost6localeL21character_first_facetE, @object
	.size	_ZN5boost6localeL21character_first_facetE, 4
_ZN5boost6localeL21character_first_facetE:
	.long	1
	.align 4
	.type	_ZN5boost6localeL20character_last_facetE, @object
	.size	_ZN5boost6localeL20character_last_facetE, 4
_ZN5boost6localeL20character_last_facetE:
	.long	8
	.align 4
	.type	_ZN5boost6localeL14all_charactersE, @object
	.size	_ZN5boost6localeL14all_charactersE, 4
_ZN5boost6localeL14all_charactersE:
	.long	65535
	.align 4
	.type	_ZN5boost6localeL13convert_facetE, @object
	.size	_ZN5boost6localeL13convert_facetE, 4
_ZN5boost6localeL13convert_facetE:
	.long	1
	.align 4
	.type	_ZN5boost6localeL15collation_facetE, @object
	.size	_ZN5boost6localeL15collation_facetE, 4
_ZN5boost6localeL15collation_facetE:
	.long	2
	.align 4
	.type	_ZN5boost6localeL16formatting_facetE, @object
	.size	_ZN5boost6localeL16formatting_facetE, 4
_ZN5boost6localeL16formatting_facetE:
	.long	4
	.align 4
	.type	_ZN5boost6localeL13parsing_facetE, @object
	.size	_ZN5boost6localeL13parsing_facetE, 4
_ZN5boost6localeL13parsing_facetE:
	.long	8
	.align 4
	.type	_ZN5boost6localeL13message_facetE, @object
	.size	_ZN5boost6localeL13message_facetE, 4
_ZN5boost6localeL13message_facetE:
	.long	16
	.align 4
	.type	_ZN5boost6localeL14codepage_facetE, @object
	.size	_ZN5boost6localeL14codepage_facetE, 4
_ZN5boost6localeL14codepage_facetE:
	.long	32
	.align 4
	.type	_ZN5boost6localeL14boundary_facetE, @object
	.size	_ZN5boost6localeL14boundary_facetE, 4
_ZN5boost6localeL14boundary_facetE:
	.long	64
	.align 4
	.type	_ZN5boost6localeL25per_character_facet_firstE, @object
	.size	_ZN5boost6localeL25per_character_facet_firstE, 4
_ZN5boost6localeL25per_character_facet_firstE:
	.long	1
	.align 4
	.type	_ZN5boost6localeL24per_character_facet_lastE, @object
	.size	_ZN5boost6localeL24per_character_facet_lastE, 4
_ZN5boost6localeL24per_character_facet_lastE:
	.long	64
	.align 4
	.type	_ZN5boost6localeL14calendar_facetE, @object
	.size	_ZN5boost6localeL14calendar_facetE, 4
_ZN5boost6localeL14calendar_facetE:
	.long	65536
	.align 4
	.type	_ZN5boost6localeL17information_facetE, @object
	.size	_ZN5boost6localeL17information_facetE, 4
_ZN5boost6localeL17information_facetE:
	.long	131072
	.align 4
	.type	_ZN5boost6localeL25non_character_facet_firstE, @object
	.size	_ZN5boost6localeL25non_character_facet_firstE, 4
_ZN5boost6localeL25non_character_facet_firstE:
	.long	65536
	.align 4
	.type	_ZN5boost6localeL24non_character_facet_lastE, @object
	.size	_ZN5boost6localeL24non_character_facet_lastE, 4
_ZN5boost6localeL24non_character_facet_lastE:
	.long	131072
	.align 4
	.type	_ZN5boost6localeL14all_categoriesE, @object
	.size	_ZN5boost6localeL14all_categoriesE, 4
_ZN5boost6localeL14all_categoriesE:
	.long	-1
	.section	.text._ZNK5boost6locale9generatorclERKNSt7__cxx1112basic_stringIcSt11char_traitsIcESaIcEEE,"axG",@progbits,_ZNK5boost6locale9generatorclERKNSt7__cxx1112basic_stringIcSt11char_traitsIcESaIcEEE,comdat
	.align 2
	.weak	_ZNK5boost6locale9generatorclERKNSt7__cxx1112basic_stringIcSt11char_traitsIcESaIcEEE
	.type	_ZNK5boost6locale9generatorclERKNSt7__cxx1112basic_stringIcSt11char_traitsIcESaIcEEE, @function
_ZNK5boost6locale9generatorclERKNSt7__cxx1112basic_stringIcSt11char_traitsIcESaIcEEE:
.LFB5093:
	.cfi_startproc
	pushq	%rbp
	.cfi_def_cfa_offset 16
	.cfi_offset 6, -16
	movq	%rsp, %rbp
	.cfi_def_cfa_register 6
	subq	$32, %rsp
	movq	%rdi, -8(%rbp)
	movq	%rsi, -16(%rbp)
	movq	%rdx, -24(%rbp)
	movq	-8(%rbp), %rax
	movq	-24(%rbp), %rdx
	movq	-16(%rbp), %rcx
	movq	%rcx, %rsi
	movq	%rax, %rdi
	call	_ZNK5boost6locale9generator8generateERKNSt7__cxx1112basic_stringIcSt11char_traitsIcESaIcEEE
	movq	-8(%rbp), %rax
	leave
	.cfi_def_cfa 7, 8
	ret
	.cfi_endproc
.LFE5093:
	.size	_ZNK5boost6locale9generatorclERKNSt7__cxx1112basic_stringIcSt11char_traitsIcESaIcEEE, .-_ZNK5boost6locale9generatorclERKNSt7__cxx1112basic_stringIcSt11char_traitsIcESaIcEEE
	.section	.rodata
.LC0:
	.string	"indeterminate"
	.section	.text._ZN5boost5logic30get_default_indeterminate_nameIcEENSt7__cxx1112basic_stringIT_St11char_traitsIS4_ESaIS4_EEEv,"axG",@progbits,_ZN5boost5logic30get_default_indeterminate_nameIcEENSt7__cxx1112basic_stringIT_St11char_traitsIS4_ESaIS4_EEEv,comdat
	.weak	_ZN5boost5logic30get_default_indeterminate_nameIcEENSt7__cxx1112basic_stringIT_St11char_traitsIS4_ESaIS4_EEEv
	.type	_ZN5boost5logic30get_default_indeterminate_nameIcEENSt7__cxx1112basic_stringIT_St11char_traitsIS4_ESaIS4_EEEv, @function
_ZN5boost5logic30get_default_indeterminate_nameIcEENSt7__cxx1112basic_stringIT_St11char_traitsIS4_ESaIS4_EEEv:
.LFB6101:
	.cfi_startproc
	.cfi_personality 0x3,__gxx_personality_v0
	.cfi_lsda 0x3,.LLSDA6101
	pushq	%rbp
	.cfi_def_cfa_offset 16
	.cfi_offset 6, -16
	movq	%rsp, %rbp
	.cfi_def_cfa_register 6
	pushq	%rbx
	subq	$40, %rsp
	.cfi_offset 3, -24
	movq	%rdi, -40(%rbp)
	leaq	-17(%rbp), %rax
	movq	%rax, %rdi
	call	_ZNSaIcEC1Ev
	leaq	-17(%rbp), %rdx
	movq	-40(%rbp), %rax
	movl	$.LC0, %esi
	movq	%rax, %rdi
.LEHB0:
	call	_ZNSt7__cxx1112basic_stringIcSt11char_traitsIcESaIcEEC1EPKcRKS3_
.LEHE0:
	leaq	-17(%rbp), %rax
	movq	%rax, %rdi
	call	_ZNSaIcED1Ev
	jmp	.L29
.L28:
	movq	%rax, %rbx
	leaq	-17(%rbp), %rax
	movq	%rax, %rdi
	call	_ZNSaIcED1Ev
	movq	%rbx, %rax
	movq	%rax, %rdi
.LEHB1:
	call	_Unwind_Resume
.LEHE1:
.L29:
	movq	-40(%rbp), %rax
	addq	$40, %rsp
	popq	%rbx
	popq	%rbp
	.cfi_def_cfa 7, 8
	ret
	.cfi_endproc
.LFE6101:
	.globl	__gxx_personality_v0
	.section	.gcc_except_table._ZN5boost5logic30get_default_indeterminate_nameIcEENSt7__cxx1112basic_stringIT_St11char_traitsIS4_ESaIS4_EEEv,"aG",@progbits,_ZN5boost5logic30get_default_indeterminate_nameIcEENSt7__cxx1112basic_stringIT_St11char_traitsIS4_ESaIS4_EEEv,comdat
.LLSDA6101:
	.byte	0xff
	.byte	0xff
	.byte	0x1
	.uleb128 .LLSDACSE6101-.LLSDACSB6101
.LLSDACSB6101:
	.uleb128 .LEHB0-.LFB6101
	.uleb128 .LEHE0-.LEHB0
	.uleb128 .L28-.LFB6101
	.uleb128 0
	.uleb128 .LEHB1-.LFB6101
	.uleb128 .LEHE1-.LEHB1
	.uleb128 0
	.uleb128 0
.LLSDACSE6101:
	.section	.text._ZN5boost5logic30get_default_indeterminate_nameIcEENSt7__cxx1112basic_stringIT_St11char_traitsIS4_ESaIS4_EEEv,"axG",@progbits,_ZN5boost5logic30get_default_indeterminate_nameIcEENSt7__cxx1112basic_stringIT_St11char_traitsIS4_ESaIS4_EEEv,comdat
	.size	_ZN5boost5logic30get_default_indeterminate_nameIcEENSt7__cxx1112basic_stringIT_St11char_traitsIS4_ESaIS4_EEEv, .-_ZN5boost5logic30get_default_indeterminate_nameIcEENSt7__cxx1112basic_stringIT_St11char_traitsIS4_ESaIS4_EEEv
	.section	.rodata
	.align 8
.LC1:
	.string	"i"
	.string	""
	.string	""
	.string	"n"
	.string	""
	.string	""
	.string	"d"
	.string	""
	.string	""
	.string	"e"
	.string	""
	.string	""
	.string	"t"
	.string	""
	.string	""
	.string	"e"
	.string	""
	.string	""
	.string	"r"
	.string	""
	.string	""
	.string	"m"
	.string	""
	.string	""
	.string	"i"
	.string	""
	.string	""
	.string	"n"
	.string	""
	.string	""
	.string	"a"
	.string	""
	.string	""
	.string	"t"
	.string	""
	.string	""
	.string	"e"
	.string	""
	.string	""
	.string	""
	.string	""
	.string	""
	.string	""
	.section	.text._ZN5boost5logic30get_default_indeterminate_nameIwEENSt7__cxx1112basic_stringIT_St11char_traitsIS4_ESaIS4_EEEv,"axG",@progbits,_ZN5boost5logic30get_default_indeterminate_nameIwEENSt7__cxx1112basic_stringIT_St11char_traitsIS4_ESaIS4_EEEv,comdat
	.weak	_ZN5boost5logic30get_default_indeterminate_nameIwEENSt7__cxx1112basic_stringIT_St11char_traitsIS4_ESaIS4_EEEv
	.type	_ZN5boost5logic30get_default_indeterminate_nameIwEENSt7__cxx1112basic_stringIT_St11char_traitsIS4_ESaIS4_EEEv, @function
_ZN5boost5logic30get_default_indeterminate_nameIwEENSt7__cxx1112basic_stringIT_St11char_traitsIS4_ESaIS4_EEEv:
.LFB6102:
	.cfi_startproc
	.cfi_personality 0x3,__gxx_personality_v0
	.cfi_lsda 0x3,.LLSDA6102
	pushq	%rbp
	.cfi_def_cfa_offset 16
	.cfi_offset 6, -16
	movq	%rsp, %rbp
	.cfi_def_cfa_register 6
	pushq	%rbx
	subq	$40, %rsp
	.cfi_offset 3, -24
	movq	%rdi, -40(%rbp)
	leaq	-17(%rbp), %rax
	movq	%rax, %rdi
	call	_ZNSaIwEC1Ev
	leaq	-17(%rbp), %rdx
	movq	-40(%rbp), %rax
	movl	$.LC1, %esi
	movq	%rax, %rdi
.LEHB2:
	call	_ZNSt7__cxx1112basic_stringIwSt11char_traitsIwESaIwEEC1EPKwRKS3_
.LEHE2:
	leaq	-17(%rbp), %rax
	movq	%rax, %rdi
	call	_ZNSaIwED1Ev
	jmp	.L34
.L33:
	movq	%rax, %rbx
	leaq	-17(%rbp), %rax
	movq	%rax, %rdi
	call	_ZNSaIwED1Ev
	movq	%rbx, %rax
	movq	%rax, %rdi
.LEHB3:
	call	_Unwind_Resume
.LEHE3:
.L34:
	movq	-40(%rbp), %rax
	addq	$40, %rsp
	popq	%rbx
	popq	%rbp
	.cfi_def_cfa 7, 8
	ret
	.cfi_endproc
.LFE6102:
	.section	.gcc_except_table._ZN5boost5logic30get_default_indeterminate_nameIwEENSt7__cxx1112basic_stringIT_St11char_traitsIS4_ESaIS4_EEEv,"aG",@progbits,_ZN5boost5logic30get_default_indeterminate_nameIwEENSt7__cxx1112basic_stringIT_St11char_traitsIS4_ESaIS4_EEEv,comdat
.LLSDA6102:
	.byte	0xff
	.byte	0xff
	.byte	0x1
	.uleb128 .LLSDACSE6102-.LLSDACSB6102
.LLSDACSB6102:
	.uleb128 .LEHB2-.LFB6102
	.uleb128 .LEHE2-.LEHB2
	.uleb128 .L33-.LFB6102
	.uleb128 0
	.uleb128 .LEHB3-.LFB6102
	.uleb128 .LEHE3-.LEHB3
	.uleb128 0
	.uleb128 0
.LLSDACSE6102:
	.section	.text._ZN5boost5logic30get_default_indeterminate_nameIwEENSt7__cxx1112basic_stringIT_St11char_traitsIS4_ESaIS4_EEEv,"axG",@progbits,_ZN5boost5logic30get_default_indeterminate_nameIwEENSt7__cxx1112basic_stringIT_St11char_traitsIS4_ESaIS4_EEEv,comdat
	.size	_ZN5boost5logic30get_default_indeterminate_nameIwEENSt7__cxx1112basic_stringIT_St11char_traitsIS4_ESaIS4_EEEv, .-_ZN5boost5logic30get_default_indeterminate_nameIwEENSt7__cxx1112basic_stringIT_St11char_traitsIS4_ESaIS4_EEEv
	.section	.text._ZNSt5arrayINSt7__cxx1118basic_stringstreamIwSt11char_traitsIwESaIwEEELm3EEC2Ev,"axG",@progbits,_ZNSt5arrayINSt7__cxx1118basic_stringstreamIwSt11char_traitsIwESaIwEEELm3EEC5Ev,comdat
	.align 2
	.weak	_ZNSt5arrayINSt7__cxx1118basic_stringstreamIwSt11char_traitsIwESaIwEEELm3EEC2Ev
	.type	_ZNSt5arrayINSt7__cxx1118basic_stringstreamIwSt11char_traitsIwESaIwEEELm3EEC2Ev, @function
_ZNSt5arrayINSt7__cxx1118basic_stringstreamIwSt11char_traitsIwESaIwEEELm3EEC2Ev:
.LFB6113:
	.cfi_startproc
	.cfi_personality 0x3,__gxx_personality_v0
	.cfi_lsda 0x3,.LLSDA6113
	pushq	%rbp
	.cfi_def_cfa_offset 16
	.cfi_offset 6, -16
	movq	%rsp, %rbp
	.cfi_def_cfa_register 6
	pushq	%r13
	pushq	%r12
	pushq	%rbx
	subq	$24, %rsp
	.cfi_offset 13, -24
	.cfi_offset 12, -32
	.cfi_offset 3, -40
	movq	%rdi, -40(%rbp)
	movq	-40(%rbp), %r12
	movl	$2, %ebx
	movq	%r12, %r13
.L37:
	testq	%rbx, %rbx
	js	.L42
	movl	$8, %esi
	movl	$16, %edi
	call	_ZStorSt13_Ios_OpenmodeS_
	movl	%eax, %esi
	movq	%r13, %rdi
.LEHB4:
	call	_ZNSt7__cxx1118basic_stringstreamIwSt11char_traitsIwESaIwEEC1ESt13_Ios_Openmode
.LEHE4:
	addq	$392, %r13
	subq	$1, %rbx
	jmp	.L37
.L41:
	movq	%rax, %r13
	testq	%r12, %r12
	je	.L39
	movl	$2, %eax
	subq	%rbx, %rax
	imulq	$392, %rax, %rax
	leaq	(%r12,%rax), %rbx
.L40:
	cmpq	%r12, %rbx
	je	.L39
	subq	$392, %rbx
	movq	(%rbx), %rax
	movq	(%rax), %rax
	movq	%rbx, %rdi
	call	*%rax
	jmp	.L40
.L39:
	movq	%r13, %rax
	movq	%rax, %rdi
.LEHB5:
	call	_Unwind_Resume
.LEHE5:
.L42:
	nop
	addq	$24, %rsp
	popq	%rbx
	popq	%r12
	popq	%r13
	popq	%rbp
	.cfi_def_cfa 7, 8
	ret
	.cfi_endproc
.LFE6113:
	.section	.gcc_except_table._ZNSt5arrayINSt7__cxx1118basic_stringstreamIwSt11char_traitsIwESaIwEEELm3EEC2Ev,"aG",@progbits,_ZNSt5arrayINSt7__cxx1118basic_stringstreamIwSt11char_traitsIwESaIwEEELm3EEC5Ev,comdat
.LLSDA6113:
	.byte	0xff
	.byte	0xff
	.byte	0x1
	.uleb128 .LLSDACSE6113-.LLSDACSB6113
.LLSDACSB6113:
	.uleb128 .LEHB4-.LFB6113
	.uleb128 .LEHE4-.LEHB4
	.uleb128 .L41-.LFB6113
	.uleb128 0
	.uleb128 .LEHB5-.LFB6113
	.uleb128 .LEHE5-.LEHB5
	.uleb128 0
	.uleb128 0
.LLSDACSE6113:
	.section	.text._ZNSt5arrayINSt7__cxx1118basic_stringstreamIwSt11char_traitsIwESaIwEEELm3EEC2Ev,"axG",@progbits,_ZNSt5arrayINSt7__cxx1118basic_stringstreamIwSt11char_traitsIwESaIwEEELm3EEC5Ev,comdat
	.size	_ZNSt5arrayINSt7__cxx1118basic_stringstreamIwSt11char_traitsIwESaIwEEELm3EEC2Ev, .-_ZNSt5arrayINSt7__cxx1118basic_stringstreamIwSt11char_traitsIwESaIwEEELm3EEC2Ev
	.weak	_ZNSt5arrayINSt7__cxx1118basic_stringstreamIwSt11char_traitsIwESaIwEEELm3EEC1Ev
	.set	_ZNSt5arrayINSt7__cxx1118basic_stringstreamIwSt11char_traitsIwESaIwEEELm3EEC1Ev,_ZNSt5arrayINSt7__cxx1118basic_stringstreamIwSt11char_traitsIwESaIwEEELm3EEC2Ev
	.section	.text._ZNSt5arrayINSt7__cxx1118basic_stringstreamIwSt11char_traitsIwESaIwEEELm3EED2Ev,"axG",@progbits,_ZNSt5arrayINSt7__cxx1118basic_stringstreamIwSt11char_traitsIwESaIwEEELm3EED5Ev,comdat
	.align 2
	.weak	_ZNSt5arrayINSt7__cxx1118basic_stringstreamIwSt11char_traitsIwESaIwEEELm3EED2Ev
	.type	_ZNSt5arrayINSt7__cxx1118basic_stringstreamIwSt11char_traitsIwESaIwEEELm3EED2Ev, @function
_ZNSt5arrayINSt7__cxx1118basic_stringstreamIwSt11char_traitsIwESaIwEEELm3EED2Ev:
.LFB6116:
	.cfi_startproc
	pushq	%rbp
	.cfi_def_cfa_offset 16
	.cfi_offset 6, -16
	movq	%rsp, %rbp
	.cfi_def_cfa_register 6
	pushq	%rbx
	subq	$24, %rsp
	.cfi_offset 3, -24
	movq	%rdi, -24(%rbp)
	movq	-24(%rbp), %rax
	testq	%rax, %rax
	je	.L44
	movq	-24(%rbp), %rax
	leaq	1176(%rax), %rbx
.L45:
	movq	-24(%rbp), %rax
	cmpq	%rax, %rbx
	je	.L44
	subq	$392, %rbx
	movq	(%rbx), %rax
	movq	(%rax), %rax
	movq	%rbx, %rdi
	call	*%rax
	jmp	.L45
.L44:
	nop
	addq	$24, %rsp
	popq	%rbx
	popq	%rbp
	.cfi_def_cfa 7, 8
	ret
	.cfi_endproc
.LFE6116:
	.size	_ZNSt5arrayINSt7__cxx1118basic_stringstreamIwSt11char_traitsIwESaIwEEELm3EED2Ev, .-_ZNSt5arrayINSt7__cxx1118basic_stringstreamIwSt11char_traitsIwESaIwEEELm3EED2Ev
	.weak	_ZNSt5arrayINSt7__cxx1118basic_stringstreamIwSt11char_traitsIwESaIwEEELm3EED1Ev
	.set	_ZNSt5arrayINSt7__cxx1118basic_stringstreamIwSt11char_traitsIwESaIwEEELm3EED1Ev,_ZNSt5arrayINSt7__cxx1118basic_stringstreamIwSt11char_traitsIwESaIwEEELm3EED2Ev
	.section	.text._ZNSt5arrayINSt7__cxx1112basic_stringIwSt11char_traitsIwESaIwEEELm2EED2Ev,"axG",@progbits,_ZNSt5arrayINSt7__cxx1112basic_stringIwSt11char_traitsIwESaIwEEELm2EED5Ev,comdat
	.align 2
	.weak	_ZNSt5arrayINSt7__cxx1112basic_stringIwSt11char_traitsIwESaIwEEELm2EED2Ev
	.type	_ZNSt5arrayINSt7__cxx1112basic_stringIwSt11char_traitsIwESaIwEEELm2EED2Ev, @function
_ZNSt5arrayINSt7__cxx1112basic_stringIwSt11char_traitsIwESaIwEEELm2EED2Ev:
.LFB6119:
	.cfi_startproc
	pushq	%rbp
	.cfi_def_cfa_offset 16
	.cfi_offset 6, -16
	movq	%rsp, %rbp
	.cfi_def_cfa_register 6
	pushq	%rbx
	subq	$24, %rsp
	.cfi_offset 3, -24
	movq	%rdi, -24(%rbp)
	movq	-24(%rbp), %rax
	testq	%rax, %rax
	je	.L47
	movq	-24(%rbp), %rax
	leaq	64(%rax), %rbx
.L48:
	movq	-24(%rbp), %rax
	cmpq	%rax, %rbx
	je	.L47
	subq	$32, %rbx
	movq	%rbx, %rdi
	call	_ZNSt7__cxx1112basic_stringIwSt11char_traitsIwESaIwEED1Ev
	jmp	.L48
.L47:
	nop
	addq	$24, %rsp
	popq	%rbx
	popq	%rbp
	.cfi_def_cfa 7, 8
	ret
	.cfi_endproc
.LFE6119:
	.size	_ZNSt5arrayINSt7__cxx1112basic_stringIwSt11char_traitsIwESaIwEEELm2EED2Ev, .-_ZNSt5arrayINSt7__cxx1112basic_stringIwSt11char_traitsIwESaIwEEELm2EED2Ev
	.weak	_ZNSt5arrayINSt7__cxx1112basic_stringIwSt11char_traitsIwESaIwEEELm2EED1Ev
	.set	_ZNSt5arrayINSt7__cxx1112basic_stringIwSt11char_traitsIwESaIwEEELm2EED1Ev,_ZNSt5arrayINSt7__cxx1112basic_stringIwSt11char_traitsIwESaIwEEELm2EED2Ev
	.section	.text._ZNSt8_Rb_treeIN9ReqParser5StateESt4pairIKS1_NSt7__cxx1112basic_stringIcSt11char_traitsIcESaIcEEEESt10_Select1stISA_ESt4lessIS1_ESaISA_EE13_Rb_tree_implISE_Lb1EED2Ev,"axG",@progbits,_ZNSt8_Rb_treeIN9ReqParser5StateESt4pairIKS1_NSt7__cxx1112basic_stringIcSt11char_traitsIcESaIcEEEESt10_Select1stISA_ESt4lessIS1_ESaISA_EE13_Rb_tree_implISE_Lb1EED5Ev,comdat
	.align 2
	.weak	_ZNSt8_Rb_treeIN9ReqParser5StateESt4pairIKS1_NSt7__cxx1112basic_stringIcSt11char_traitsIcESaIcEEEESt10_Select1stISA_ESt4lessIS1_ESaISA_EE13_Rb_tree_implISE_Lb1EED2Ev
	.type	_ZNSt8_Rb_treeIN9ReqParser5StateESt4pairIKS1_NSt7__cxx1112basic_stringIcSt11char_traitsIcESaIcEEEESt10_Select1stISA_ESt4lessIS1_ESaISA_EE13_Rb_tree_implISE_Lb1EED2Ev, @function
_ZNSt8_Rb_treeIN9ReqParser5StateESt4pairIKS1_NSt7__cxx1112basic_stringIcSt11char_traitsIcESaIcEEEESt10_Select1stISA_ESt4lessIS1_ESaISA_EE13_Rb_tree_implISE_Lb1EED2Ev:
.LFB6124:
	.cfi_startproc
	pushq	%rbp
	.cfi_def_cfa_offset 16
	.cfi_offset 6, -16
	movq	%rsp, %rbp
	.cfi_def_cfa_register 6
	subq	$16, %rsp
	movq	%rdi, -8(%rbp)
	movq	-8(%rbp), %rax
	movq	%rax, %rdi
	call	_ZNSaISt13_Rb_tree_nodeISt4pairIKN9ReqParser5StateENSt7__cxx1112basic_stringIcSt11char_traitsIcESaIcEEEEEED2Ev
	nop
	leave
	.cfi_def_cfa 7, 8
	ret
	.cfi_endproc
.LFE6124:
	.size	_ZNSt8_Rb_treeIN9ReqParser5StateESt4pairIKS1_NSt7__cxx1112basic_stringIcSt11char_traitsIcESaIcEEEESt10_Select1stISA_ESt4lessIS1_ESaISA_EE13_Rb_tree_implISE_Lb1EED2Ev, .-_ZNSt8_Rb_treeIN9ReqParser5StateESt4pairIKS1_NSt7__cxx1112basic_stringIcSt11char_traitsIcESaIcEEEESt10_Select1stISA_ESt4lessIS1_ESaISA_EE13_Rb_tree_implISE_Lb1EED2Ev
	.weak	_ZNSt8_Rb_treeIN9ReqParser5StateESt4pairIKS1_NSt7__cxx1112basic_stringIcSt11char_traitsIcESaIcEEEESt10_Select1stISA_ESt4lessIS1_ESaISA_EE13_Rb_tree_implISE_Lb1EED1Ev
	.set	_ZNSt8_Rb_treeIN9ReqParser5StateESt4pairIKS1_NSt7__cxx1112basic_stringIcSt11char_traitsIcESaIcEEEESt10_Select1stISA_ESt4lessIS1_ESaISA_EE13_Rb_tree_implISE_Lb1EED1Ev,_ZNSt8_Rb_treeIN9ReqParser5StateESt4pairIKS1_NSt7__cxx1112basic_stringIcSt11char_traitsIcESaIcEEEESt10_Select1stISA_ESt4lessIS1_ESaISA_EE13_Rb_tree_implISE_Lb1EED2Ev
	.section	.text._ZNSt8_Rb_treeIN9ReqParser5StateESt4pairIKS1_NSt7__cxx1112basic_stringIcSt11char_traitsIcESaIcEEEESt10_Select1stISA_ESt4lessIS1_ESaISA_EEC2Ev,"axG",@progbits,_ZNSt8_Rb_treeIN9ReqParser5StateESt4pairIKS1_NSt7__cxx1112basic_stringIcSt11char_traitsIcESaIcEEEESt10_Select1stISA_ESt4lessIS1_ESaISA_EEC5Ev,comdat
	.align 2
	.weak	_ZNSt8_Rb_treeIN9ReqParser5StateESt4pairIKS1_NSt7__cxx1112basic_stringIcSt11char_traitsIcESaIcEEEESt10_Select1stISA_ESt4lessIS1_ESaISA_EEC2Ev
	.type	_ZNSt8_Rb_treeIN9ReqParser5StateESt4pairIKS1_NSt7__cxx1112basic_stringIcSt11char_traitsIcESaIcEEEESt10_Select1stISA_ESt4lessIS1_ESaISA_EEC2Ev, @function
_ZNSt8_Rb_treeIN9ReqParser5StateESt4pairIKS1_NSt7__cxx1112basic_stringIcSt11char_traitsIcESaIcEEEESt10_Select1stISA_ESt4lessIS1_ESaISA_EEC2Ev:
.LFB6126:
	.cfi_startproc
	pushq	%rbp
	.cfi_def_cfa_offset 16
	.cfi_offset 6, -16
	movq	%rsp, %rbp
	.cfi_def_cfa_register 6
	subq	$16, %rsp
	movq	%rdi, -8(%rbp)
	movq	-8(%rbp), %rax
	movq	%rax, %rdi
	call	_ZNSt8_Rb_treeIN9ReqParser5StateESt4pairIKS1_NSt7__cxx1112basic_stringIcSt11char_traitsIcESaIcEEEESt10_Select1stISA_ESt4lessIS1_ESaISA_EE13_Rb_tree_implISE_Lb1EEC1Ev
	nop
	leave
	.cfi_def_cfa 7, 8
	ret
	.cfi_endproc
.LFE6126:
	.size	_ZNSt8_Rb_treeIN9ReqParser5StateESt4pairIKS1_NSt7__cxx1112basic_stringIcSt11char_traitsIcESaIcEEEESt10_Select1stISA_ESt4lessIS1_ESaISA_EEC2Ev, .-_ZNSt8_Rb_treeIN9ReqParser5StateESt4pairIKS1_NSt7__cxx1112basic_stringIcSt11char_traitsIcESaIcEEEESt10_Select1stISA_ESt4lessIS1_ESaISA_EEC2Ev
	.weak	_ZNSt8_Rb_treeIN9ReqParser5StateESt4pairIKS1_NSt7__cxx1112basic_stringIcSt11char_traitsIcESaIcEEEESt10_Select1stISA_ESt4lessIS1_ESaISA_EEC1Ev
	.set	_ZNSt8_Rb_treeIN9ReqParser5StateESt4pairIKS1_NSt7__cxx1112basic_stringIcSt11char_traitsIcESaIcEEEESt10_Select1stISA_ESt4lessIS1_ESaISA_EEC1Ev,_ZNSt8_Rb_treeIN9ReqParser5StateESt4pairIKS1_NSt7__cxx1112basic_stringIcSt11char_traitsIcESaIcEEEESt10_Select1stISA_ESt4lessIS1_ESaISA_EEC2Ev
	.section	.text._ZNSt3mapIN9ReqParser5StateENSt7__cxx1112basic_stringIcSt11char_traitsIcESaIcEEESt4lessIS1_ESaISt4pairIKS1_S7_EEEC2Ev,"axG",@progbits,_ZNSt3mapIN9ReqParser5StateENSt7__cxx1112basic_stringIcSt11char_traitsIcESaIcEEESt4lessIS1_ESaISt4pairIKS1_S7_EEEC5Ev,comdat
	.align 2
	.weak	_ZNSt3mapIN9ReqParser5StateENSt7__cxx1112basic_stringIcSt11char_traitsIcESaIcEEESt4lessIS1_ESaISt4pairIKS1_S7_EEEC2Ev
	.type	_ZNSt3mapIN9ReqParser5StateENSt7__cxx1112basic_stringIcSt11char_traitsIcESaIcEEESt4lessIS1_ESaISt4pairIKS1_S7_EEEC2Ev, @function
_ZNSt3mapIN9ReqParser5StateENSt7__cxx1112basic_stringIcSt11char_traitsIcESaIcEEESt4lessIS1_ESaISt4pairIKS1_S7_EEEC2Ev:
.LFB6128:
	.cfi_startproc
	pushq	%rbp
	.cfi_def_cfa_offset 16
	.cfi_offset 6, -16
	movq	%rsp, %rbp
	.cfi_def_cfa_register 6
	subq	$16, %rsp
	movq	%rdi, -8(%rbp)
	movq	-8(%rbp), %rax
	movq	%rax, %rdi
	call	_ZNSt8_Rb_treeIN9ReqParser5StateESt4pairIKS1_NSt7__cxx1112basic_stringIcSt11char_traitsIcESaIcEEEESt10_Select1stISA_ESt4lessIS1_ESaISA_EEC1Ev
	nop
	leave
	.cfi_def_cfa 7, 8
	ret
	.cfi_endproc
.LFE6128:
	.size	_ZNSt3mapIN9ReqParser5StateENSt7__cxx1112basic_stringIcSt11char_traitsIcESaIcEEESt4lessIS1_ESaISt4pairIKS1_S7_EEEC2Ev, .-_ZNSt3mapIN9ReqParser5StateENSt7__cxx1112basic_stringIcSt11char_traitsIcESaIcEEESt4lessIS1_ESaISt4pairIKS1_S7_EEEC2Ev
	.weak	_ZNSt3mapIN9ReqParser5StateENSt7__cxx1112basic_stringIcSt11char_traitsIcESaIcEEESt4lessIS1_ESaISt4pairIKS1_S7_EEEC1Ev
	.set	_ZNSt3mapIN9ReqParser5StateENSt7__cxx1112basic_stringIcSt11char_traitsIcESaIcEEESt4lessIS1_ESaISt4pairIKS1_S7_EEEC1Ev,_ZNSt3mapIN9ReqParser5StateENSt7__cxx1112basic_stringIcSt11char_traitsIcESaIcEEESt4lessIS1_ESaISt4pairIKS1_S7_EEEC2Ev
	.section	.text._ZNSt3mapIN9ReqParser5StateENSt7__cxx1112basic_stringIcSt11char_traitsIcESaIcEEESt4lessIS1_ESaISt4pairIKS1_S7_EEED2Ev,"axG",@progbits,_ZNSt3mapIN9ReqParser5StateENSt7__cxx1112basic_stringIcSt11char_traitsIcESaIcEEESt4lessIS1_ESaISt4pairIKS1_S7_EEED5Ev,comdat
	.align 2
	.weak	_ZNSt3mapIN9ReqParser5StateENSt7__cxx1112basic_stringIcSt11char_traitsIcESaIcEEESt4lessIS1_ESaISt4pairIKS1_S7_EEED2Ev
	.type	_ZNSt3mapIN9ReqParser5StateENSt7__cxx1112basic_stringIcSt11char_traitsIcESaIcEEESt4lessIS1_ESaISt4pairIKS1_S7_EEED2Ev, @function
_ZNSt3mapIN9ReqParser5StateENSt7__cxx1112basic_stringIcSt11char_traitsIcESaIcEEESt4lessIS1_ESaISt4pairIKS1_S7_EEED2Ev:
.LFB6131:
	.cfi_startproc
	pushq	%rbp
	.cfi_def_cfa_offset 16
	.cfi_offset 6, -16
	movq	%rsp, %rbp
	.cfi_def_cfa_register 6
	subq	$16, %rsp
	movq	%rdi, -8(%rbp)
	movq	-8(%rbp), %rax
	movq	%rax, %rdi
	call	_ZNSt8_Rb_treeIN9ReqParser5StateESt4pairIKS1_NSt7__cxx1112basic_stringIcSt11char_traitsIcESaIcEEEESt10_Select1stISA_ESt4lessIS1_ESaISA_EED1Ev
	nop
	leave
	.cfi_def_cfa 7, 8
	ret
	.cfi_endproc
.LFE6131:
	.size	_ZNSt3mapIN9ReqParser5StateENSt7__cxx1112basic_stringIcSt11char_traitsIcESaIcEEESt4lessIS1_ESaISt4pairIKS1_S7_EEED2Ev, .-_ZNSt3mapIN9ReqParser5StateENSt7__cxx1112basic_stringIcSt11char_traitsIcESaIcEEESt4lessIS1_ESaISt4pairIKS1_S7_EEED2Ev
	.weak	_ZNSt3mapIN9ReqParser5StateENSt7__cxx1112basic_stringIcSt11char_traitsIcESaIcEEESt4lessIS1_ESaISt4pairIKS1_S7_EEED1Ev
	.set	_ZNSt3mapIN9ReqParser5StateENSt7__cxx1112basic_stringIcSt11char_traitsIcESaIcEEESt4lessIS1_ESaISt4pairIKS1_S7_EEED1Ev,_ZNSt3mapIN9ReqParser5StateENSt7__cxx1112basic_stringIcSt11char_traitsIcESaIcEEESt4lessIS1_ESaISt4pairIKS1_S7_EEED2Ev
	.section	.rodata
	.align 4
.LC2:
	.string	","
	.string	""
	.string	""
	.string	""
	.string	""
	.string	""
	.string	""
	.text
	.align 2
	.type	_ZZN9ReqParserC4EvENKUlNSt7__cxx1112basic_stringIwSt11char_traitsIwESaIwEEEE_clES5_, @function
_ZZN9ReqParserC4EvENKUlNSt7__cxx1112basic_stringIwSt11char_traitsIwESaIwEEEE_clES5_:
.LFB6133:
	.cfi_startproc
	pushq	%rbp
	.cfi_def_cfa_offset 16
	.cfi_offset 6, -16
	movq	%rsp, %rbp
	.cfi_def_cfa_register 6
	subq	$16, %rsp
	movq	%rdi, -8(%rbp)
	movq	%rsi, -16(%rbp)
	movq	-16(%rbp), %rax
	movq	%rax, %rsi
	movl	$_ZSt5wcout, %edi
	call	_ZStlsIwSt11char_traitsIwESaIwEERSt13basic_ostreamIT_T0_ES7_RKNSt7__cxx1112basic_stringIS4_S5_T1_EE
	movl	$.LC2, %esi
	movq	%rax, %rdi
	call	_ZStlsIwSt11char_traitsIwEERSt13basic_ostreamIT_T0_ES6_PKS3_
	nop
	leave
	.cfi_def_cfa 7, 8
	ret
	.cfi_endproc
.LFE6133:
	.size	_ZZN9ReqParserC4EvENKUlNSt7__cxx1112basic_stringIwSt11char_traitsIwESaIwEEEE_clES5_, .-_ZZN9ReqParserC4EvENKUlNSt7__cxx1112basic_stringIwSt11char_traitsIwESaIwEEEE_clES5_
	.section	.rodata
	.align 4
.LC3:
	.string	"I"
	.string	""
	.string	""
	.string	"S"
	.string	""
	.string	""
	.string	"S"
	.string	""
	.string	""
	.string	"I"
	.string	""
	.string	""
	.string	"N"
	.string	""
	.string	""
	.string	"G"
	.string	""
	.string	""
	.string	""
	.string	""
	.string	""
	.string	""
	.align 4
.LC4:
	.string	"F"
	.string	""
	.string	""
	.string	"O"
	.string	""
	.string	""
	.string	"F"
	.string	""
	.string	""
	.string	""
	.string	""
	.string	""
	.string	""
.LC5:
	.string	"protocol_name_m"
.LC6:
	.string	"protocol_name_first_p"
.LC7:
	.string	"protocol_name_second_p"
.LC8:
	.string	"slash"
.LC9:
	.string	"major"
.LC10:
	.string	"minor"
.LC11:
	.string	"patch"
.LC12:
	.string	"verb_start"
.LC13:
	.string	"fof_o"
.LC14:
	.string	"fof_f"
.LC15:
	.string	"issing_first_s"
.LC16:
	.string	"issing_second_s"
.LC17:
	.string	"issing_second_i"
.LC18:
	.string	"issing_n"
.LC19:
	.string	"issing_g"
.LC20:
	.string	"space"
.LC21:
	.string	"header_start"
	.align 8
.LC22:
	.string	"ReqParser::ReqParser: starting state = "
.LC23:
	.string	"Version = "
.LC24:
	.string	"."
.LC25:
	.string	"Recognised verbs = "
.LC26:
	.string	"en_US.UTF-8"
.LC27:
	.string	"ml_IN.UTF-8"
	.text
	.align 2
	.globl	_ZN9ReqParserC2Ev
	.type	_ZN9ReqParserC2Ev, @function
_ZN9ReqParserC2Ev:
.LFB6136:
	.cfi_startproc
	.cfi_personality 0x3,__gxx_personality_v0
	.cfi_lsda 0x3,.LLSDA6136
	pushq	%rbp
	.cfi_def_cfa_offset 16
	.cfi_offset 6, -16
	movq	%rsp, %rbp
	.cfi_def_cfa_register 6
	pushq	%rbx
	subq	$216, %rsp
	.cfi_offset 3, -24
	movq	%rdi, -216(%rbp)
	movq	-216(%rbp), %rax
	movl	$1, (%rax)
	movq	-216(%rbp), %rax
	movw	$1, 12(%rax)
	movq	-216(%rbp), %rax
	movw	$0, 14(%rax)
	movq	-216(%rbp), %rax
	movw	$0, 16(%rax)
	movq	-216(%rbp), %rax
	addq	$24, %rax
	movq	%rax, %rdi
.LEHB6:
	call	_ZNSt5arrayINSt7__cxx1118basic_stringstreamIwSt11char_traitsIwESaIwEEELm3EEC1Ev
.LEHE6:
	movq	-216(%rbp), %rax
	leaq	1200(%rax), %rbx
	leaq	-194(%rbp), %rax
	movq	%rax, %rdi
	call	_ZNSaIwEC1Ev
	leaq	-194(%rbp), %rax
	movq	%rax, %rdx
	movl	$.LC3, %esi
	movq	%rbx, %rdi
.LEHB7:
	call	_ZNSt7__cxx1112basic_stringIwSt11char_traitsIwESaIwEEC1EPKwRKS3_
.LEHE7:
	movq	-216(%rbp), %rax
	leaq	1232(%rax), %rbx
	leaq	-193(%rbp), %rax
	movq	%rax, %rdi
	call	_ZNSaIwEC1Ev
	leaq	-193(%rbp), %rax
	movq	%rax, %rdx
	movl	$.LC4, %esi
	movq	%rbx, %rdi
.LEHB8:
	call	_ZNSt7__cxx1112basic_stringIwSt11char_traitsIwESaIwEEC1EPKwRKS3_
.LEHE8:
	leaq	-193(%rbp), %rax
	movq	%rax, %rdi
	call	_ZNSaIwED1Ev
	leaq	-194(%rbp), %rax
	movq	%rax, %rdi
	call	_ZNSaIwED1Ev
	movq	-216(%rbp), %rax
	addq	$1264, %rax
	movq	%rax, %rdi
.LEHB9:
	call	_ZN5boost6locale9generatorC1Ev
.LEHE9:
	movq	-216(%rbp), %rax
	addq	$1272, %rax
	movq	%rax, %rdi
	call	_ZNSt3mapIN9ReqParser5StateENSt7__cxx1112basic_stringIcSt11char_traitsIcESaIcEEESt4lessIS1_ESaISt4pairIKS1_S7_EEEC1Ev
	movl	$1, -192(%rbp)
	movq	-216(%rbp), %rax
	leaq	1272(%rax), %rdx
	leaq	-192(%rbp), %rax
	movq	%rax, %rsi
	movq	%rdx, %rdi
.LEHB10:
	call	_ZNSt3mapIN9ReqParser5StateENSt7__cxx1112basic_stringIcSt11char_traitsIcESaIcEEESt4lessIS1_ESaISt4pairIKS1_S7_EEEixEOS1_
	movl	$.LC5, %esi
	movq	%rax, %rdi
	call	_ZNSt7__cxx1112basic_stringIcSt11char_traitsIcESaIcEEaSEPKc
	movl	$2, -188(%rbp)
	movq	-216(%rbp), %rax
	leaq	1272(%rax), %rdx
	leaq	-188(%rbp), %rax
	movq	%rax, %rsi
	movq	%rdx, %rdi
	call	_ZNSt3mapIN9ReqParser5StateENSt7__cxx1112basic_stringIcSt11char_traitsIcESaIcEEESt4lessIS1_ESaISt4pairIKS1_S7_EEEixEOS1_
	movl	$.LC6, %esi
	movq	%rax, %rdi
	call	_ZNSt7__cxx1112basic_stringIcSt11char_traitsIcESaIcEEaSEPKc
	movl	$3, -184(%rbp)
	movq	-216(%rbp), %rax
	leaq	1272(%rax), %rdx
	leaq	-184(%rbp), %rax
	movq	%rax, %rsi
	movq	%rdx, %rdi
	call	_ZNSt3mapIN9ReqParser5StateENSt7__cxx1112basic_stringIcSt11char_traitsIcESaIcEEESt4lessIS1_ESaISt4pairIKS1_S7_EEEixEOS1_
	movl	$.LC7, %esi
	movq	%rax, %rdi
	call	_ZNSt7__cxx1112basic_stringIcSt11char_traitsIcESaIcEEaSEPKc
	movl	$4, -180(%rbp)
	movq	-216(%rbp), %rax
	leaq	1272(%rax), %rdx
	leaq	-180(%rbp), %rax
	movq	%rax, %rsi
	movq	%rdx, %rdi
	call	_ZNSt3mapIN9ReqParser5StateENSt7__cxx1112basic_stringIcSt11char_traitsIcESaIcEEESt4lessIS1_ESaISt4pairIKS1_S7_EEEixEOS1_
	movl	$.LC8, %esi
	movq	%rax, %rdi
	call	_ZNSt7__cxx1112basic_stringIcSt11char_traitsIcESaIcEEaSEPKc
	movl	$5, -176(%rbp)
	movq	-216(%rbp), %rax
	leaq	1272(%rax), %rdx
	leaq	-176(%rbp), %rax
	movq	%rax, %rsi
	movq	%rdx, %rdi
	call	_ZNSt3mapIN9ReqParser5StateENSt7__cxx1112basic_stringIcSt11char_traitsIcESaIcEEESt4lessIS1_ESaISt4pairIKS1_S7_EEEixEOS1_
	movl	$.LC9, %esi
	movq	%rax, %rdi
	call	_ZNSt7__cxx1112basic_stringIcSt11char_traitsIcESaIcEEaSEPKc
	movl	$6, -172(%rbp)
	movq	-216(%rbp), %rax
	leaq	1272(%rax), %rdx
	leaq	-172(%rbp), %rax
	movq	%rax, %rsi
	movq	%rdx, %rdi
	call	_ZNSt3mapIN9ReqParser5StateENSt7__cxx1112basic_stringIcSt11char_traitsIcESaIcEEESt4lessIS1_ESaISt4pairIKS1_S7_EEEixEOS1_
	movl	$.LC10, %esi
	movq	%rax, %rdi
	call	_ZNSt7__cxx1112basic_stringIcSt11char_traitsIcESaIcEEaSEPKc
	movl	$7, -168(%rbp)
	movq	-216(%rbp), %rax
	leaq	1272(%rax), %rdx
	leaq	-168(%rbp), %rax
	movq	%rax, %rsi
	movq	%rdx, %rdi
	call	_ZNSt3mapIN9ReqParser5StateENSt7__cxx1112basic_stringIcSt11char_traitsIcESaIcEEESt4lessIS1_ESaISt4pairIKS1_S7_EEEixEOS1_
	movl	$.LC11, %esi
	movq	%rax, %rdi
	call	_ZNSt7__cxx1112basic_stringIcSt11char_traitsIcESaIcEEaSEPKc
	movl	$8, -164(%rbp)
	movq	-216(%rbp), %rax
	leaq	1272(%rax), %rdx
	leaq	-164(%rbp), %rax
	movq	%rax, %rsi
	movq	%rdx, %rdi
	call	_ZNSt3mapIN9ReqParser5StateENSt7__cxx1112basic_stringIcSt11char_traitsIcESaIcEEESt4lessIS1_ESaISt4pairIKS1_S7_EEEixEOS1_
	movl	$.LC12, %esi
	movq	%rax, %rdi
	call	_ZNSt7__cxx1112basic_stringIcSt11char_traitsIcESaIcEEaSEPKc
	movl	$9, -160(%rbp)
	movq	-216(%rbp), %rax
	leaq	1272(%rax), %rdx
	leaq	-160(%rbp), %rax
	movq	%rax, %rsi
	movq	%rdx, %rdi
	call	_ZNSt3mapIN9ReqParser5StateENSt7__cxx1112basic_stringIcSt11char_traitsIcESaIcEEESt4lessIS1_ESaISt4pairIKS1_S7_EEEixEOS1_
	movl	$.LC13, %esi
	movq	%rax, %rdi
	call	_ZNSt7__cxx1112basic_stringIcSt11char_traitsIcESaIcEEaSEPKc
	movl	$10, -156(%rbp)
	movq	-216(%rbp), %rax
	leaq	1272(%rax), %rdx
	leaq	-156(%rbp), %rax
	movq	%rax, %rsi
	movq	%rdx, %rdi
	call	_ZNSt3mapIN9ReqParser5StateENSt7__cxx1112basic_stringIcSt11char_traitsIcESaIcEEESt4lessIS1_ESaISt4pairIKS1_S7_EEEixEOS1_
	movl	$.LC14, %esi
	movq	%rax, %rdi
	call	_ZNSt7__cxx1112basic_stringIcSt11char_traitsIcESaIcEEaSEPKc
	movl	$11, -152(%rbp)
	movq	-216(%rbp), %rax
	leaq	1272(%rax), %rdx
	leaq	-152(%rbp), %rax
	movq	%rax, %rsi
	movq	%rdx, %rdi
	call	_ZNSt3mapIN9ReqParser5StateENSt7__cxx1112basic_stringIcSt11char_traitsIcESaIcEEESt4lessIS1_ESaISt4pairIKS1_S7_EEEixEOS1_
	movl	$.LC15, %esi
	movq	%rax, %rdi
	call	_ZNSt7__cxx1112basic_stringIcSt11char_traitsIcESaIcEEaSEPKc
	movl	$12, -148(%rbp)
	movq	-216(%rbp), %rax
	leaq	1272(%rax), %rdx
	leaq	-148(%rbp), %rax
	movq	%rax, %rsi
	movq	%rdx, %rdi
	call	_ZNSt3mapIN9ReqParser5StateENSt7__cxx1112basic_stringIcSt11char_traitsIcESaIcEEESt4lessIS1_ESaISt4pairIKS1_S7_EEEixEOS1_
	movl	$.LC16, %esi
	movq	%rax, %rdi
	call	_ZNSt7__cxx1112basic_stringIcSt11char_traitsIcESaIcEEaSEPKc
	movl	$13, -144(%rbp)
	movq	-216(%rbp), %rax
	leaq	1272(%rax), %rdx
	leaq	-144(%rbp), %rax
	movq	%rax, %rsi
	movq	%rdx, %rdi
	call	_ZNSt3mapIN9ReqParser5StateENSt7__cxx1112basic_stringIcSt11char_traitsIcESaIcEEESt4lessIS1_ESaISt4pairIKS1_S7_EEEixEOS1_
	movl	$.LC17, %esi
	movq	%rax, %rdi
	call	_ZNSt7__cxx1112basic_stringIcSt11char_traitsIcESaIcEEaSEPKc
	movl	$14, -140(%rbp)
	movq	-216(%rbp), %rax
	leaq	1272(%rax), %rdx
	leaq	-140(%rbp), %rax
	movq	%rax, %rsi
	movq	%rdx, %rdi
	call	_ZNSt3mapIN9ReqParser5StateENSt7__cxx1112basic_stringIcSt11char_traitsIcESaIcEEESt4lessIS1_ESaISt4pairIKS1_S7_EEEixEOS1_
	movl	$.LC18, %esi
	movq	%rax, %rdi
	call	_ZNSt7__cxx1112basic_stringIcSt11char_traitsIcESaIcEEaSEPKc
	movl	$15, -136(%rbp)
	movq	-216(%rbp), %rax
	leaq	1272(%rax), %rdx
	leaq	-136(%rbp), %rax
	movq	%rax, %rsi
	movq	%rdx, %rdi
	call	_ZNSt3mapIN9ReqParser5StateENSt7__cxx1112basic_stringIcSt11char_traitsIcESaIcEEESt4lessIS1_ESaISt4pairIKS1_S7_EEEixEOS1_
	movl	$.LC19, %esi
	movq	%rax, %rdi
	call	_ZNSt7__cxx1112basic_stringIcSt11char_traitsIcESaIcEEaSEPKc
	movl	$16, -132(%rbp)
	movq	-216(%rbp), %rax
	leaq	1272(%rax), %rdx
	leaq	-132(%rbp), %rax
	movq	%rax, %rsi
	movq	%rdx, %rdi
	call	_ZNSt3mapIN9ReqParser5StateENSt7__cxx1112basic_stringIcSt11char_traitsIcESaIcEEESt4lessIS1_ESaISt4pairIKS1_S7_EEEixEOS1_
	movl	$.LC20, %esi
	movq	%rax, %rdi
	call	_ZNSt7__cxx1112basic_stringIcSt11char_traitsIcESaIcEEaSEPKc
	movl	$17, -128(%rbp)
	movq	-216(%rbp), %rax
	leaq	1272(%rax), %rdx
	leaq	-128(%rbp), %rax
	movq	%rax, %rsi
	movq	%rdx, %rdi
	call	_ZNSt3mapIN9ReqParser5StateENSt7__cxx1112basic_stringIcSt11char_traitsIcESaIcEEESt4lessIS1_ESaISt4pairIKS1_S7_EEEixEOS1_
	movl	$.LC21, %esi
	movq	%rax, %rdi
	call	_ZNSt7__cxx1112basic_stringIcSt11char_traitsIcESaIcEEaSEPKc
	movl	$.LC22, %esi
	movl	$_ZSt4cout, %edi
	call	_ZStlsISt11char_traitsIcEERSt13basic_ostreamIcT_ES5_PKc
	movq	%rax, %rbx
	movq	-216(%rbp), %rax
	movq	-216(%rbp), %rdx
	addq	$1272, %rdx
	movq	%rax, %rsi
	movq	%rdx, %rdi
	call	_ZNSt3mapIN9ReqParser5StateENSt7__cxx1112basic_stringIcSt11char_traitsIcESaIcEEESt4lessIS1_ESaISt4pairIKS1_S7_EEEixERSB_
	movq	%rax, %rsi
	movq	%rbx, %rdi
	call	_ZStlsIcSt11char_traitsIcESaIcEERSt13basic_ostreamIT_T0_ES7_RKNSt7__cxx1112basic_stringIS4_S5_T1_EE
	movl	$_ZSt4endlIcSt11char_traitsIcEERSt13basic_ostreamIT_T0_ES6_, %esi
	movq	%rax, %rdi
	call	_ZNSolsEPFRSoS_E
	movl	$.LC23, %esi
	movq	%rax, %rdi
	call	_ZStlsISt11char_traitsIcEERSt13basic_ostreamIcT_ES5_PKc
	movq	%rax, %rbx
	movq	-216(%rbp), %rax
	addq	$12, %rax
	movl	$0, %esi
	movq	%rax, %rdi
	call	_ZNKSt5arrayIsLm3EE2atEm
	movzwl	(%rax), %eax
	cwtl
	movl	%eax, %esi
	movq	%rbx, %rdi
	call	_ZNSolsEs
	movl	$.LC24, %esi
	movq	%rax, %rdi
	call	_ZStlsISt11char_traitsIcEERSt13basic_ostreamIcT_ES5_PKc
	movq	%rax, %rbx
	movq	-216(%rbp), %rax
	addq	$12, %rax
	movl	$1, %esi
	movq	%rax, %rdi
	call	_ZNKSt5arrayIsLm3EE2atEm
	movzwl	(%rax), %eax
	cwtl
	movl	%eax, %esi
	movq	%rbx, %rdi
	call	_ZNSolsEs
	movl	$.LC24, %esi
	movq	%rax, %rdi
	call	_ZStlsISt11char_traitsIcEERSt13basic_ostreamIcT_ES5_PKc
	movq	%rax, %rbx
	movq	-216(%rbp), %rax
	addq	$12, %rax
	movl	$2, %esi
	movq	%rax, %rdi
	call	_ZNKSt5arrayIsLm3EE2atEm
	movzwl	(%rax), %eax
	cwtl
	movl	%eax, %esi
	movq	%rbx, %rdi
	call	_ZNSolsEs
	movl	$_ZSt4endlIcSt11char_traitsIcEERSt13basic_ostreamIT_T0_ES6_, %esi
	movq	%rax, %rdi
	call	_ZNSolsEPFRSoS_E
	movl	$.LC25, %esi
	movq	%rax, %rdi
	call	_ZStlsISt11char_traitsIcEERSt13basic_ostreamIcT_ES5_PKc
	movq	-216(%rbp), %rax
	addq	$1200, %rax
	movq	%rax, %rdi
	call	_ZNKSt5arrayINSt7__cxx1112basic_stringIwSt11char_traitsIwESaIwEEELm2EE4cendEv
	leaq	-32(%rax), %rbx
	movq	-216(%rbp), %rax
	addq	$1200, %rax
	movq	%rax, %rdi
	call	_ZNKSt5arrayINSt7__cxx1112basic_stringIwSt11char_traitsIwESaIwEEELm2EE6cbeginEv
	movq	%rbx, %rsi
	movq	%rax, %rdi
	call	_ZSt8for_eachIPKNSt7__cxx1112basic_stringIwSt11char_traitsIwESaIwEEEZN9ReqParserC4EvEUlS5_E_ET0_T_SB_SA_
	movq	-216(%rbp), %rax
	leaq	1200(%rax), %rbx
	movq	-216(%rbp), %rax
	addq	$1200, %rax
	movq	%rax, %rdi
	call	_ZNKSt5arrayINSt7__cxx1112basic_stringIwSt11char_traitsIwESaIwEEELm2EE4sizeEv
	subq	$1, %rax
	movq	%rax, %rsi
	movq	%rbx, %rdi
	call	_ZNKSt5arrayINSt7__cxx1112basic_stringIwSt11char_traitsIwESaIwEEELm2EE2atEm
	movq	%rax, %rsi
	movl	$_ZSt5wcout, %edi
	call	_ZStlsIwSt11char_traitsIwESaIwEERSt13basic_ostreamIT_T0_ES7_RKNSt7__cxx1112basic_stringIS4_S5_T1_EE
	movl	$_ZSt4endlIwSt11char_traitsIwEERSt13basic_ostreamIT_T0_ES6_, %esi
	movq	%rax, %rdi
	call	_ZNSt13basic_ostreamIwSt11char_traitsIwEElsEPFRS2_S3_E
	movq	-216(%rbp), %rax
	addq	$1264, %rax
	movl	$1, %esi
	movq	%rax, %rdi
	call	_ZN5boost6locale9generator20locale_cache_enabledEb
.LEHE10:
	movq	-216(%rbp), %rax
	leaq	1264(%rax), %rbx
	leaq	-73(%rbp), %rax
	movq	%rax, %rdi
	call	_ZNSaIcEC1Ev
	leaq	-73(%rbp), %rdx
	leaq	-112(%rbp), %rax
	movl	$.LC26, %esi
	movq	%rax, %rdi
.LEHB11:
	call	_ZNSt7__cxx1112basic_stringIcSt11char_traitsIcESaIcEEC1EPKcRKS3_
.LEHE11:
	leaq	-120(%rbp), %rax
	leaq	-112(%rbp), %rdx
	movq	%rbx, %rsi
	movq	%rax, %rdi
.LEHB12:
	call	_ZNK5boost6locale9generatorclERKNSt7__cxx1112basic_stringIcSt11char_traitsIcESaIcEEE
.LEHE12:
	leaq	-120(%rbp), %rax
	movq	%rax, %rdi
	call	_ZNSt6localeD1Ev
	leaq	-112(%rbp), %rax
	movq	%rax, %rdi
	call	_ZNSt7__cxx1112basic_stringIcSt11char_traitsIcESaIcEED1Ev
	leaq	-73(%rbp), %rax
	movq	%rax, %rdi
	call	_ZNSaIcED1Ev
	movq	-216(%rbp), %rax
	leaq	1264(%rax), %rbx
	leaq	-17(%rbp), %rax
	movq	%rax, %rdi
	call	_ZNSaIcEC1Ev
	leaq	-17(%rbp), %rdx
	leaq	-64(%rbp), %rax
	movl	$.LC27, %esi
	movq	%rax, %rdi
.LEHB13:
	call	_ZNSt7__cxx1112basic_stringIcSt11char_traitsIcESaIcEEC1EPKcRKS3_
.LEHE13:
	leaq	-72(%rbp), %rax
	leaq	-64(%rbp), %rdx
	movq	%rbx, %rsi
	movq	%rax, %rdi
.LEHB14:
	call	_ZNK5boost6locale9generatorclERKNSt7__cxx1112basic_stringIcSt11char_traitsIcESaIcEEE
.LEHE14:
	leaq	-72(%rbp), %rax
	movq	%rax, %rdi
	call	_ZNSt6localeD1Ev
	leaq	-64(%rbp), %rax
	movq	%rax, %rdi
	call	_ZNSt7__cxx1112basic_stringIcSt11char_traitsIcESaIcEED1Ev
	leaq	-17(%rbp), %rax
	movq	%rax, %rdi
	call	_ZNSaIcED1Ev
	jmp	.L72
.L65:
	movq	%rax, %rbx
	leaq	-193(%rbp), %rax
	movq	%rax, %rdi
	call	_ZNSaIwED1Ev
	jmp	.L56
.L64:
	movq	%rax, %rbx
.L56:
	leaq	-194(%rbp), %rax
	movq	%rax, %rdi
	call	_ZNSaIwED1Ev
	jmp	.L57
.L69:
	movq	%rax, %rbx
	leaq	-112(%rbp), %rax
	movq	%rax, %rdi
	call	_ZNSt7__cxx1112basic_stringIcSt11char_traitsIcESaIcEED1Ev
	jmp	.L59
.L68:
	movq	%rax, %rbx
.L59:
	leaq	-73(%rbp), %rax
	movq	%rax, %rdi
	call	_ZNSaIcED1Ev
	jmp	.L60
.L71:
	movq	%rax, %rbx
	leaq	-64(%rbp), %rax
	movq	%rax, %rdi
	call	_ZNSt7__cxx1112basic_stringIcSt11char_traitsIcESaIcEED1Ev
	jmp	.L62
.L70:
	movq	%rax, %rbx
.L62:
	leaq	-17(%rbp), %rax
	movq	%rax, %rdi
	call	_ZNSaIcED1Ev
	jmp	.L60
.L67:
	movq	%rax, %rbx
.L60:
	movq	-216(%rbp), %rax
	addq	$1272, %rax
	movq	%rax, %rdi
	call	_ZNSt3mapIN9ReqParser5StateENSt7__cxx1112basic_stringIcSt11char_traitsIcESaIcEEESt4lessIS1_ESaISt4pairIKS1_S7_EEED1Ev
	movq	-216(%rbp), %rax
	addq	$1264, %rax
	movq	%rax, %rdi
	call	_ZN5boost6locale9generatorD1Ev
	jmp	.L63
.L66:
	movq	%rax, %rbx
.L63:
	movq	-216(%rbp), %rax
	addq	$1200, %rax
	movq	%rax, %rdi
	call	_ZNSt5arrayINSt7__cxx1112basic_stringIwSt11char_traitsIwESaIwEEELm2EED1Ev
.L57:
	movq	-216(%rbp), %rax
	addq	$24, %rax
	movq	%rax, %rdi
	call	_ZNSt5arrayINSt7__cxx1118basic_stringstreamIwSt11char_traitsIwESaIwEEELm3EED1Ev
	movq	%rbx, %rax
	movq	%rax, %rdi
.LEHB15:
	call	_Unwind_Resume
.LEHE15:
.L72:
	addq	$216, %rsp
	popq	%rbx
	popq	%rbp
	.cfi_def_cfa 7, 8
	ret
	.cfi_endproc
.LFE6136:
	.section	.gcc_except_table,"a",@progbits
.LLSDA6136:
	.byte	0xff
	.byte	0xff
	.byte	0x1
	.uleb128 .LLSDACSE6136-.LLSDACSB6136
.LLSDACSB6136:
	.uleb128 .LEHB6-.LFB6136
	.uleb128 .LEHE6-.LEHB6
	.uleb128 0
	.uleb128 0
	.uleb128 .LEHB7-.LFB6136
	.uleb128 .LEHE7-.LEHB7
	.uleb128 .L64-.LFB6136
	.uleb128 0
	.uleb128 .LEHB8-.LFB6136
	.uleb128 .LEHE8-.LEHB8
	.uleb128 .L65-.LFB6136
	.uleb128 0
	.uleb128 .LEHB9-.LFB6136
	.uleb128 .LEHE9-.LEHB9
	.uleb128 .L66-.LFB6136
	.uleb128 0
	.uleb128 .LEHB10-.LFB6136
	.uleb128 .LEHE10-.LEHB10
	.uleb128 .L67-.LFB6136
	.uleb128 0
	.uleb128 .LEHB11-.LFB6136
	.uleb128 .LEHE11-.LEHB11
	.uleb128 .L68-.LFB6136
	.uleb128 0
	.uleb128 .LEHB12-.LFB6136
	.uleb128 .LEHE12-.LEHB12
	.uleb128 .L69-.LFB6136
	.uleb128 0
	.uleb128 .LEHB13-.LFB6136
	.uleb128 .LEHE13-.LEHB13
	.uleb128 .L70-.LFB6136
	.uleb128 0
	.uleb128 .LEHB14-.LFB6136
	.uleb128 .LEHE14-.LEHB14
	.uleb128 .L71-.LFB6136
	.uleb128 0
	.uleb128 .LEHB15-.LFB6136
	.uleb128 .LEHE15-.LEHB15
	.uleb128 0
	.uleb128 0
.LLSDACSE6136:
	.text
	.size	_ZN9ReqParserC2Ev, .-_ZN9ReqParserC2Ev
	.globl	_ZN9ReqParserC1Ev
	.set	_ZN9ReqParserC1Ev,_ZN9ReqParserC2Ev
	.section	.rodata
	.align 8
.LC28:
	.string	"ReqParser::reset: reset to state "
	.text
	.align 2
	.globl	_ZN9ReqParser5resetEv
	.type	_ZN9ReqParser5resetEv, @function
_ZN9ReqParser5resetEv:
.LFB6138:
	.cfi_startproc
	pushq	%rbp
	.cfi_def_cfa_offset 16
	.cfi_offset 6, -16
	movq	%rsp, %rbp
	.cfi_def_cfa_register 6
	pushq	%rbx
	subq	$24, %rsp
	.cfi_offset 3, -24
	movq	%rdi, -24(%rbp)
	movq	-24(%rbp), %rax
	movl	$1, (%rax)
	movl	$.LC28, %esi
	movl	$_ZSt4cout, %edi
	call	_ZStlsISt11char_traitsIcEERSt13basic_ostreamIcT_ES5_PKc
	movq	%rax, %rbx
	movq	-24(%rbp), %rax
	movq	-24(%rbp), %rdx
	addq	$1272, %rdx
	movq	%rax, %rsi
	movq	%rdx, %rdi
	call	_ZNSt3mapIN9ReqParser5StateENSt7__cxx1112basic_stringIcSt11char_traitsIcESaIcEEESt4lessIS1_ESaISt4pairIKS1_S7_EEEixERSB_
	movq	%rax, %rsi
	movq	%rbx, %rdi
	call	_ZStlsIcSt11char_traitsIcESaIcEERSt13basic_ostreamIT_T0_ES7_RKNSt7__cxx1112basic_stringIS4_S5_T1_EE
	movl	$_ZSt4endlIcSt11char_traitsIcEERSt13basic_ostreamIT_T0_ES6_, %esi
	movq	%rax, %rdi
	call	_ZNSolsEPFRSoS_E
	nop
	addq	$24, %rsp
	popq	%rbx
	popq	%rbp
	.cfi_def_cfa 7, 8
	ret
	.cfi_endproc
.LFE6138:
	.size	_ZN9ReqParser5resetEv, .-_ZN9ReqParser5resetEv
	.section	.rodata
	.align 8
.LC29:
	.string	"R"
	.string	""
	.string	""
	.string	"e"
	.string	""
	.string	""
	.string	"q"
	.string	""
	.string	""
	.string	"P"
	.string	""
	.string	""
	.string	"a"
	.string	""
	.string	""
	.string	"r"
	.string	""
	.string	""
	.string	"s"
	.string	""
	.string	""
	.string	"e"
	.string	""
	.string	""
	.string	"r"
	.string	""
	.string	""
	.string	":"
	.string	""
	.string	""
	.string	":"
	.string	""
	.string	""
	.string	"c"
	.string	""
	.string	""
	.string	"o"
	.string	""
	.string	""
	.string	"n"
	.string	""
	.string	""
	.string	"s"
	.string	""
	.string	""
	.string	"u"
	.string	""
	.string	""
	.string	"m"
	.string	""
	.string	""
	.string	"e"
	.string	""
	.string	""
	.string	":"
	.string	""
	.string	""
	.string	" "
	.string	""
	.string	""
	.string	"c"
	.string	""
	.string	""
	.string	"o"
	.string	""
	.string	""
	.string	"m"
	.string	""
	.string	""
	.string	"p"
	.string	""
	.string	""
	.string	"a"
	.string	""
	.string	""
	.string	"r"
	.string	""
	.string	""
	.string	"i"
	.string	""
	.string	""
	.string	"n"
	.string	""
	.string	""
	.string	"g"
	.string	""
	.string	""
	.string	" "
	.string	""
	.string	""
	.string	"f"
	.string	""
	.string	""
	.string	"i"
	.string	""
	.string	""
	.string	"r"
	.string	""
	.string	""
	.string	"s"
	.string	""
	.string	""
	.string	"t"
	.string	""
	.string	""
	.string	" "
	.string	""
	.string	""
	.string	"c"
	.string	""
	.string	""
	.string	"h"
	.string	""
	.string	""
	.string	"a"
	.string	""
	.string	""
	.string	"r"
	.string	""
	.string	""
	.string	"a"
	.string	""
	.string	""
	.string	"c"
	.string	""
	.string	""
	.string	"t"
	.string	""
	.string	""
	.string	"e"
	.string	""
	.string	""
	.string	"r"
	.string	""
	.string	""
	.string	" "
	.string	""
	.string	""
	.string	"o"
	.string	""
	.string	""
	.string	"f"
	.string	""
	.string	""
	.string	" "
	.string	""
	.string	""
	.string	"v"
	.string	""
	.string	""
	.string	"e"
	.string	""
	.string	""
	.string	"r"
	.string	""
	.string	""
	.string	"b"
	.string	""
	.string	""
	.string	" "
	.string	""
	.string	""
	.string	"\""
	.string	""
	.string	""
	.string	""
	.string	""
	.string	""
	.string	""
	.align 8
.LC30:
	.string	"\""
	.string	""
	.string	""
	.string	" "
	.string	""
	.string	""
	.string	"t"
	.string	""
	.string	""
	.string	"o"
	.string	""
	.string	""
	.string	" "
	.string	""
	.string	""
	.string	"u"
	.string	""
	.string	""
	.string	"p"
	.string	""
	.string	""
	.string	"p"
	.string	""
	.string	""
	.string	"e"
	.string	""
	.string	""
	.string	"r"
	.string	""
	.string	""
	.string	"c"
	.string	""
	.string	""
	.string	"a"
	.string	""
	.string	""
	.string	"s"
	.string	""
	.string	""
	.string	"e"
	.string	""
	.string	""
	.string	" "
	.string	""
	.string	""
	.string	"c"
	.string	""
	.string	""
	.string	"h"
	.string	""
	.string	""
	.string	"a"
	.string	""
	.string	""
	.string	"r"
	.string	""
	.string	""
	.string	" "
	.string	""
	.string	""
	.string	"'"
	.string	""
	.string	""
	.string	""
	.string	""
	.string	""
	.string	""
	.align 4
.LC31:
	.string	"'"
	.string	""
	.string	""
	.string	""
	.string	""
	.string	""
	.string	""
	.align 8
.LC32:
	.string	"R"
	.string	""
	.string	""
	.string	"e"
	.string	""
	.string	""
	.string	"q"
	.string	""
	.string	""
	.string	"P"
	.string	""
	.string	""
	.string	"a"
	.string	""
	.string	""
	.string	"r"
	.string	""
	.string	""
	.string	"s"
	.string	""
	.string	""
	.string	"e"
	.string	""
	.string	""
	.string	"r"
	.string	""
	.string	""
	.string	":"
	.string	""
	.string	""
	.string	":"
	.string	""
	.string	""
	.string	"c"
	.string	""
	.string	""
	.string	"o"
	.string	""
	.string	""
	.string	"n"
	.string	""
	.string	""
	.string	"s"
	.string	""
	.string	""
	.string	"u"
	.string	""
	.string	""
	.string	"m"
	.string	""
	.string	""
	.string	"e"
	.string	""
	.string	""
	.string	":"
	.string	""
	.string	""
	.string	" "
	.string	""
	.string	""
	.string	"m"
	.string	""
	.string	""
	.string	"a"
	.string	""
	.string	""
	.string	"t"
	.string	""
	.string	""
	.string	"c"
	.string	""
	.string	""
	.string	"h"
	.string	""
	.string	""
	.string	"e"
	.string	""
	.string	""
	.string	"d"
	.string	""
	.string	""
	.string	" "
	.string	""
	.string	""
	.string	"v"
	.string	""
	.string	""
	.string	"e"
	.string	""
	.string	""
	.string	"r"
	.string	""
	.string	""
	.string	"b"
	.string	""
	.string	""
	.string	" "
	.string	""
	.string	""
	.string	"\""
	.string	""
	.string	""
	.string	""
	.string	""
	.string	""
	.string	""
.LC33:
	.string	"\""
	.align 8
.LC34:
	.string	"R"
	.string	""
	.string	""
	.string	"e"
	.string	""
	.string	""
	.string	"q"
	.string	""
	.string	""
	.string	"P"
	.string	""
	.string	""
	.string	"a"
	.string	""
	.string	""
	.string	"r"
	.string	""
	.string	""
	.string	"s"
	.string	""
	.string	""
	.string	"e"
	.string	""
	.string	""
	.string	"r"
	.string	""
	.string	""
	.string	":"
	.string	""
	.string	""
	.string	":"
	.string	""
	.string	""
	.string	"c"
	.string	""
	.string	""
	.string	"o"
	.string	""
	.string	""
	.string	"n"
	.string	""
	.string	""
	.string	"s"
	.string	""
	.string	""
	.string	"u"
	.string	""
	.string	""
	.string	"m"
	.string	""
	.string	""
	.string	"e"
	.string	""
	.string	""
	.string	":"
	.string	""
	.string	""
	.string	" "
	.string	""
	.string	""
	.string	"d"
	.string	""
	.string	""
	.string	"i"
	.string	""
	.string	""
	.string	"d"
	.string	""
	.string	""
	.string	"n"
	.string	""
	.string	""
	.string	"'"
	.string	""
	.string	""
	.string	"t"
	.string	""
	.string	""
	.string	" "
	.string	""
	.string	""
	.string	"m"
	.string	""
	.string	""
	.string	"a"
	.string	""
	.string	""
	.string	"t"
	.string	""
	.string	""
	.string	"c"
	.string	""
	.string	""
	.string	"h"
	.string	""
	.string	""
	.string	" "
	.string	""
	.string	""
	.string	"v"
	.string	""
	.string	""
	.string	"e"
	.string	""
	.string	""
	.string	"r"
	.string	""
	.string	""
	.string	"b"
	.string	""
	.string	""
	.string	" "
	.string	""
	.string	""
	.string	"\""
	.string	""
	.string	""
	.string	""
	.string	""
	.string	""
	.string	""
	.text
	.align 2
	.type	_ZZN9ReqParser7consumeER7RequestwENKUlNSt7__cxx1112basic_stringIwSt11char_traitsIwESaIwEEEE_clES7_, @function
_ZZN9ReqParser7consumeER7RequestwENKUlNSt7__cxx1112basic_stringIwSt11char_traitsIwESaIwEEEE_clES7_:
.LFB6140:
	.cfi_startproc
	pushq	%rbp
	.cfi_def_cfa_offset 16
	.cfi_offset 6, -16
	movq	%rsp, %rbp
	.cfi_def_cfa_register 6
	subq	$16, %rsp
	movq	%rdi, -8(%rbp)
	movq	%rsi, -16(%rbp)
	movl	$.LC29, %esi
	movl	$_ZSt5wcout, %edi
	call	_ZStlsIwSt11char_traitsIwEERSt13basic_ostreamIT_T0_ES6_PKS3_
	movq	%rax, %rdx
	movq	-16(%rbp), %rax
	movq	%rax, %rsi
	movq	%rdx, %rdi
	call	_ZStlsIwSt11char_traitsIwESaIwEERSt13basic_ostreamIT_T0_ES7_RKNSt7__cxx1112basic_stringIS4_S5_T1_EE
	movl	$.LC30, %esi
	movq	%rax, %rdi
	call	_ZStlsIwSt11char_traitsIwEERSt13basic_ostreamIT_T0_ES6_PKS3_
	movq	%rax, %rdx
	movq	-8(%rbp), %rax
	movl	(%rax), %eax
	movl	%eax, %esi
	movq	%rdx, %rdi
	call	_ZStlsIwSt11char_traitsIwEERSt13basic_ostreamIT_T0_ES6_S3_
	movl	$.LC31, %esi
	movq	%rax, %rdi
	call	_ZStlsIwSt11char_traitsIwEERSt13basic_ostreamIT_T0_ES6_PKS3_
	movl	$_ZSt4endlIwSt11char_traitsIwEERSt13basic_ostreamIT_T0_ES6_, %esi
	movq	%rax, %rdi
	call	_ZNSt13basic_ostreamIwSt11char_traitsIwEElsEPFRS2_S3_E
	movq	-16(%rbp), %rax
	movl	$0, %esi
	movq	%rax, %rdi
	call	_ZNSt7__cxx1112basic_stringIwSt11char_traitsIwESaIwEEixEm
	movl	(%rax), %edx
	movq	-8(%rbp), %rax
	movl	(%rax), %eax
	cmpl	%eax, %edx
	sete	%al
	testb	%al, %al
	je	.L75
	movl	$.LC32, %esi
	movl	$_ZSt5wcout, %edi
	call	_ZStlsIwSt11char_traitsIwEERSt13basic_ostreamIT_T0_ES6_PKS3_
	movq	%rax, %rdx
	movq	-16(%rbp), %rax
	movq	%rax, %rsi
	movq	%rdx, %rdi
	call	_ZStlsIwSt11char_traitsIwESaIwEERSt13basic_ostreamIT_T0_ES7_RKNSt7__cxx1112basic_stringIS4_S5_T1_EE
	movl	$.LC33, %esi
	movq	%rax, %rdi
	call	_ZStlsIwSt11char_traitsIwEERSt13basic_ostreamIT_T0_ES6_PKc
	movl	$_ZSt4endlIwSt11char_traitsIwEERSt13basic_ostreamIT_T0_ES6_, %esi
	movq	%rax, %rdi
	call	_ZNSt13basic_ostreamIwSt11char_traitsIwEElsEPFRS2_S3_E
	movl	$1, %eax
	jmp	.L76
.L75:
	movl	$.LC34, %esi
	movl	$_ZSt5wcout, %edi
	call	_ZStlsIwSt11char_traitsIwEERSt13basic_ostreamIT_T0_ES6_PKS3_
	movq	%rax, %rdx
	movq	-16(%rbp), %rax
	movq	%rax, %rsi
	movq	%rdx, %rdi
	call	_ZStlsIwSt11char_traitsIwESaIwEERSt13basic_ostreamIT_T0_ES7_RKNSt7__cxx1112basic_stringIS4_S5_T1_EE
	movl	$.LC33, %esi
	movq	%rax, %rdi
	call	_ZStlsIwSt11char_traitsIwEERSt13basic_ostreamIT_T0_ES6_PKc
	movl	$_ZSt4endlIwSt11char_traitsIwEERSt13basic_ostreamIT_T0_ES6_, %esi
	movq	%rax, %rdi
	call	_ZNSt13basic_ostreamIwSt11char_traitsIwEElsEPFRS2_S3_E
	movl	$0, %eax
.L76:
	leave
	.cfi_def_cfa 7, 8
	ret
	.cfi_endproc
.LFE6140:
	.size	_ZZN9ReqParser7consumeER7RequestwENKUlNSt7__cxx1112basic_stringIwSt11char_traitsIwESaIwEEEE_clES7_, .-_ZZN9ReqParser7consumeER7RequestwENKUlNSt7__cxx1112basic_stringIwSt11char_traitsIwESaIwEEEE_clES7_
	.section	.rodata
	.align 8
.LC35:
	.string	"ReqParser::consume: state at start = "
	.align 8
.LC36:
	.string	"ReqParser::consume: protocol_name_m: bad char: toReturn = "
	.align 8
.LC37:
	.string	"ReqParser::consume: protocol_name_m: 'M' found: toReturn = "
	.align 8
.LC38:
	.string	"ReqParser::consume: protocol_name_first_p: bad char found: toReturn = "
	.align 8
.LC39:
	.string	"ReqParser::consume: read '.' in \"major\" state"
	.align 8
.LC40:
	.string	"ReqParser::consume->case major: readVerNum = "
.LC41:
	.string	", version[0] = "
	.align 8
.LC42:
	.string	"ReqParser::consume: minor ver # = "
	.align 8
.LC43:
	.string	"R"
	.string	""
	.string	""
	.string	"e"
	.string	""
	.string	""
	.string	"q"
	.string	""
	.string	""
	.string	"P"
	.string	""
	.string	""
	.string	"a"
	.string	""
	.string	""
	.string	"r"
	.string	""
	.string	""
	.string	"s"
	.string	""
	.string	""
	.string	"e"
	.string	""
	.string	""
	.string	"r"
	.string	""
	.string	""
	.string	":"
	.string	""
	.string	""
	.string	":"
	.string	""
	.string	""
	.string	"c"
	.string	""
	.string	""
	.string	"o"
	.string	""
	.string	""
	.string	"n"
	.string	""
	.string	""
	.string	"s"
	.string	""
	.string	""
	.string	"u"
	.string	""
	.string	""
	.string	"m"
	.string	""
	.string	""
	.string	"e"
	.string	""
	.string	""
	.string	":"
	.string	""
	.string	""
	.string	" "
	.string	""
	.string	""
	.string	"c"
	.string	""
	.string	""
	.string	"h"
	.string	""
	.string	""
	.string	"a"
	.string	""
	.string	""
	.string	"r"
	.string	""
	.string	""
	.string	"a"
	.string	""
	.string	""
	.string	"c"
	.string	""
	.string	""
	.string	"t"
	.string	""
	.string	""
	.string	"e"
	.string	""
	.string	""
	.string	"r"
	.string	""
	.string	""
	.string	" "
	.string	""
	.string	""
	.string	"'"
	.string	""
	.string	""
	.string	""
	.string	""
	.string	""
	.string	""
.LC44:
	.string	"' is a digit in the locale "
	.align 8
.LC45:
	.string	"'"
	.string	""
	.string	""
	.string	" "
	.string	""
	.string	""
	.string	"i"
	.string	""
	.string	""
	.string	"s"
	.string	""
	.string	""
	.string	" "
	.string	""
	.string	""
	.string	"a"
	.string	""
	.string	""
	.string	" "
	.string	""
	.string	""
	.string	"s"
	.string	""
	.string	""
	.string	"p"
	.string	""
	.string	""
	.string	"a"
	.string	""
	.string	""
	.string	"c"
	.string	""
	.string	""
	.string	"e"
	.string	""
	.string	""
	.string	" "
	.string	""
	.string	""
	.string	"c"
	.string	""
	.string	""
	.string	"h"
	.string	""
	.string	""
	.string	"a"
	.string	""
	.string	""
	.string	"r"
	.string	""
	.string	""
	.string	"a"
	.string	""
	.string	""
	.string	"c"
	.string	""
	.string	""
	.string	"t"
	.string	""
	.string	""
	.string	"e"
	.string	""
	.string	""
	.string	"r"
	.string	""
	.string	""
	.string	" "
	.string	""
	.string	""
	.string	"i"
	.string	""
	.string	""
	.string	"n"
	.string	""
	.string	""
	.string	" "
	.string	""
	.string	""
	.string	"t"
	.string	""
	.string	""
	.string	"h"
	.string	""
	.string	""
	.string	"e"
	.string	""
	.string	""
	.string	" "
	.string	""
	.string	""
	.string	"l"
	.string	""
	.string	""
	.string	"o"
	.string	""
	.string	""
	.string	"c"
	.string	""
	.string	""
	.string	"a"
	.string	""
	.string	""
	.string	"l"
	.string	""
	.string	""
	.string	"e"
	.string	""
	.string	""
	.string	" "
	.string	""
	.string	""
	.string	""
	.string	""
	.string	""
	.string	""
	.align 8
.LC46:
	.string	"ReqParser::consume: patch # = "
	.align 8
.LC47:
	.string	"ReqParser::consume: character '"
.LC48:
	.string	"' is an invalid character."
	.align 8
.LC49:
	.string	"ReqParser::consume: at start of verb_start state handler."
.LC50:
	.string	"ReqParser::consume: input ("
	.align 8
.LC51:
	.string	") is alphabetic in the locale "
	.align 8
.LC52:
	.string	"R"
	.string	""
	.string	""
	.string	"e"
	.string	""
	.string	""
	.string	"q"
	.string	""
	.string	""
	.string	"P"
	.string	""
	.string	""
	.string	"a"
	.string	""
	.string	""
	.string	"r"
	.string	""
	.string	""
	.string	"s"
	.string	""
	.string	""
	.string	"e"
	.string	""
	.string	""
	.string	"r"
	.string	""
	.string	""
	.string	":"
	.string	""
	.string	""
	.string	":"
	.string	""
	.string	""
	.string	"c"
	.string	""
	.string	""
	.string	"o"
	.string	""
	.string	""
	.string	"n"
	.string	""
	.string	""
	.string	"s"
	.string	""
	.string	""
	.string	"u"
	.string	""
	.string	""
	.string	"m"
	.string	""
	.string	""
	.string	"e"
	.string	""
	.string	""
	.string	":"
	.string	""
	.string	""
	.string	" "
	.string	""
	.string	""
	.string	"u"
	.string	""
	.string	""
	.string	"p"
	.string	""
	.string	""
	.string	"p"
	.string	""
	.string	""
	.string	"e"
	.string	""
	.string	""
	.string	"r"
	.string	""
	.string	""
	.string	"c"
	.string	""
	.string	""
	.string	"a"
	.string	""
	.string	""
	.string	"s"
	.string	""
	.string	""
	.string	"e"
	.string	""
	.string	""
	.string	" "
	.string	""
	.string	""
	.string	"i"
	.string	""
	.string	""
	.string	"n"
	.string	""
	.string	""
	.string	"p"
	.string	""
	.string	""
	.string	"u"
	.string	""
	.string	""
	.string	"t"
	.string	""
	.string	""
	.string	" "
	.string	""
	.string	""
	.string	"i"
	.string	""
	.string	""
	.string	"s"
	.string	""
	.string	""
	.string	" "
	.string	""
	.string	""
	.string	"'"
	.string	""
	.string	""
	.string	""
	.string	""
	.string	""
	.string	""
.LC53:
	.string	"'"
	.align 8
.LC54:
	.string	"ReqParser::consume: no matching verb found."
	.align 8
.LC55:
	.string	"ReqParser::consume: no matching verb found: set toReturn to "
	.align 8
.LC56:
	.string	"ReqParser::consume: matched verb is: "
	.align 8
.LC57:
	.string	"ReqParser::consume: Found 'F' at start of matched verb, going to state "
	.align 8
.LC58:
	.string	"ReqParser::consume: Found 'I' at start of matched verb, going to state "
	.align 8
.LC59:
	.string	"ReqParser::consume: at end of matched verb else: toReturn = "
	.align 8
.LC60:
	.string	"ReqParser::consume: unknown verb given"
	.align 8
.LC61:
	.string	"ReqParser::consume: at end of unknown verb else: toReturn = "
.LC62:
	.string	"In state ISSING_FIRST_S"
	.align 8
.LC63:
	.string	"R"
	.string	""
	.string	""
	.string	"e"
	.string	""
	.string	""
	.string	"q"
	.string	""
	.string	""
	.string	"P"
	.string	""
	.string	""
	.string	"a"
	.string	""
	.string	""
	.string	"r"
	.string	""
	.string	""
	.string	"s"
	.string	""
	.string	""
	.string	"e"
	.string	""
	.string	""
	.string	"r"
	.string	""
	.string	""
	.string	":"
	.string	""
	.string	""
	.string	":"
	.string	""
	.string	""
	.string	"c"
	.string	""
	.string	""
	.string	"o"
	.string	""
	.string	""
	.string	"n"
	.string	""
	.string	""
	.string	"s"
	.string	""
	.string	""
	.string	"u"
	.string	""
	.string	""
	.string	"m"
	.string	""
	.string	""
	.string	"e"
	.string	""
	.string	""
	.string	":"
	.string	""
	.string	""
	.string	" "
	.string	""
	.string	""
	.string	"f"
	.string	""
	.string	""
	.string	"o"
	.string	""
	.string	""
	.string	"u"
	.string	""
	.string	""
	.string	"n"
	.string	""
	.string	""
	.string	"d"
	.string	""
	.string	""
	.string	" "
	.string	""
	.string	""
	.string	"f"
	.string	""
	.string	""
	.string	"i"
	.string	""
	.string	""
	.string	"r"
	.string	""
	.string	""
	.string	"s"
	.string	""
	.string	""
	.string	"t"
	.string	""
	.string	""
	.string	" "
	.string	""
	.string	""
	.string	"'"
	.string	""
	.string	""
	.string	"S"
	.string	""
	.string	""
	.string	"'"
	.string	""
	.string	""
	.string	" "
	.string	""
	.string	""
	.string	"o"
	.string	""
	.string	""
	.string	"f"
	.string	""
	.string	""
	.string	" "
	.string	""
	.string	""
	.string	"\""
	.string	""
	.string	""
	.string	"I"
	.string	""
	.string	""
	.string	"S"
	.string	""
	.string	""
	.string	"S"
	.string	""
	.string	""
	.string	"I"
	.string	""
	.string	""
	.string	"N"
	.string	""
	.string	""
	.string	"G"
	.string	""
	.string	""
	.string	"\""
	.string	""
	.string	""
	.string	""
	.string	""
	.string	""
	.string	""
	.align 8
.LC64:
	.string	"R"
	.string	""
	.string	""
	.string	"e"
	.string	""
	.string	""
	.string	"q"
	.string	""
	.string	""
	.string	"P"
	.string	""
	.string	""
	.string	"a"
	.string	""
	.string	""
	.string	"r"
	.string	""
	.string	""
	.string	"s"
	.string	""
	.string	""
	.string	"e"
	.string	""
	.string	""
	.string	"r"
	.string	""
	.string	""
	.string	":"
	.string	""
	.string	""
	.string	":"
	.string	""
	.string	""
	.string	"c"
	.string	""
	.string	""
	.string	"o"
	.string	""
	.string	""
	.string	"n"
	.string	""
	.string	""
	.string	"s"
	.string	""
	.string	""
	.string	"u"
	.string	""
	.string	""
	.string	"m"
	.string	""
	.string	""
	.string	"e"
	.string	""
	.string	""
	.string	":"
	.string	""
	.string	""
	.string	" "
	.string	""
	.string	""
	.string	"t"
	.string	""
	.string	""
	.string	"o"
	.string	""
	.string	""
	.string	"u"
	.string	""
	.string	""
	.string	"p"
	.string	""
	.string	""
	.string	"p"
	.string	""
	.string	""
	.string	"e"
	.string	""
	.string	""
	.string	"r"
	.string	""
	.string	""
	.string	" "
	.string	""
	.string	""
	.string	"o"
	.string	""
	.string	""
	.string	"f"
	.string	""
	.string	""
	.string	" "
	.string	""
	.string	""
	.string	"i"
	.string	""
	.string	""
	.string	"n"
	.string	""
	.string	""
	.string	"p"
	.string	""
	.string	""
	.string	"u"
	.string	""
	.string	""
	.string	"t"
	.string	""
	.string	""
	.string	" "
	.string	""
	.string	""
	.string	"("
	.string	""
	.string	""
	.string	"'"
	.string	""
	.string	""
	.string	""
	.string	""
	.string	""
	.string	""
.LC65:
	.string	"') != L'S'"
	.align 8
.LC66:
	.string	"ReqParser::consume: at start of state \""
	.align 8
.LC67:
	.string	"ReqParser::consume->switch(curStat)->case space: input ("
	.align 8
.LC68:
	.string	") is a space character in the US locale."
	.align 8
.LC69:
	.string	") isn't a space character in the US locale."
.LC70:
	.string	"\ttoReturn = "
	.align 8
.LC71:
	.string	"ReqParser::consume: state at end = "
	.text
	.align 2
	.globl	_ZN9ReqParser7consumeER7Requestw
	.type	_ZN9ReqParser7consumeER7Requestw, @function
_ZN9ReqParser7consumeER7Requestw:
.LFB6139:
	.cfi_startproc
	.cfi_personality 0x3,__gxx_personality_v0
	.cfi_lsda 0x3,.LLSDA6139
	pushq	%rbp
	.cfi_def_cfa_offset 16
	.cfi_offset 6, -16
	movq	%rsp, %rbp
	.cfi_def_cfa_register 6
	pushq	%r12
	pushq	%rbx
	subq	$496, %rsp
	.cfi_offset 12, -24
	.cfi_offset 3, -32
	movq	%rdi, -488(%rbp)
	movq	%rsi, -496(%rbp)
	movl	%edx, -500(%rbp)
	movq	-488(%rbp), %rax
	leaq	1264(%rax), %rbx
	leaq	-369(%rbp), %rax
	movq	%rax, %rdi
	call	_ZNSaIcEC1Ev
	leaq	-369(%rbp), %rdx
	leaq	-416(%rbp), %rax
	movl	$.LC26, %esi
	movq	%rax, %rdi
.LEHB16:
	call	_ZNSt7__cxx1112basic_stringIcSt11char_traitsIcESaIcEEC1EPKcRKS3_
.LEHE16:
	leaq	-424(%rbp), %rax
	leaq	-416(%rbp), %rdx
	movq	%rbx, %rsi
	movq	%rax, %rdi
.LEHB17:
	call	_ZNK5boost6locale9generatorclERKNSt7__cxx1112basic_stringIcSt11char_traitsIcESaIcEEE
.LEHE17:
	leaq	-416(%rbp), %rax
	movq	%rax, %rdi
	call	_ZNSt7__cxx1112basic_stringIcSt11char_traitsIcESaIcEED1Ev
	leaq	-369(%rbp), %rax
	movq	%rax, %rdi
	call	_ZNSaIcED1Ev
	movq	-488(%rbp), %rax
	leaq	1264(%rax), %rbx
	leaq	-321(%rbp), %rax
	movq	%rax, %rdi
	call	_ZNSaIcEC1Ev
	leaq	-321(%rbp), %rdx
	leaq	-368(%rbp), %rax
	movl	$.LC27, %esi
	movq	%rax, %rdi
.LEHB18:
	call	_ZNSt7__cxx1112basic_stringIcSt11char_traitsIcESaIcEEC1EPKcRKS3_
.LEHE18:
	leaq	-432(%rbp), %rax
	leaq	-368(%rbp), %rdx
	movq	%rbx, %rsi
	movq	%rax, %rdi
.LEHB19:
	call	_ZNK5boost6locale9generatorclERKNSt7__cxx1112basic_stringIcSt11char_traitsIcESaIcEEE
.LEHE19:
	leaq	-368(%rbp), %rax
	movq	%rax, %rdi
	call	_ZNSt7__cxx1112basic_stringIcSt11char_traitsIcESaIcEED1Ev
	leaq	-321(%rbp), %rax
	movq	%rax, %rdi
	call	_ZNSaIcED1Ev
	movl	$0, -436(%rbp)
	movq	-488(%rbp), %rax
	movl	(%rax), %edx
	movq	-488(%rbp), %rax
	movl	%edx, 4(%rax)
	movl	$.LC35, %esi
	movl	$_ZSt4cout, %edi
.LEHB20:
	call	_ZStlsISt11char_traitsIcEERSt13basic_ostreamIcT_ES5_PKc
	movq	%rax, %rbx
	movq	-488(%rbp), %rax
	movq	-488(%rbp), %rdx
	addq	$1272, %rdx
	movq	%rax, %rsi
	movq	%rdx, %rdi
	call	_ZNSt3mapIN9ReqParser5StateENSt7__cxx1112basic_stringIcSt11char_traitsIcESaIcEEESt4lessIS1_ESaISt4pairIKS1_S7_EEEixERSB_
	movq	%rax, %rsi
	movq	%rbx, %rdi
	call	_ZStlsIcSt11char_traitsIcESaIcEERSt13basic_ostreamIT_T0_ES7_RKNSt7__cxx1112basic_stringIS4_S5_T1_EE
	movl	$_ZSt4endlIcSt11char_traitsIcEERSt13basic_ostreamIT_T0_ES6_, %esi
	movq	%rax, %rdi
	call	_ZNSolsEPFRSoS_E
	movq	-488(%rbp), %rax
	movl	(%rax), %eax
	cmpl	$16, %eax
	ja	.L78
	movl	%eax, %eax
	movq	.L80(,%rax,8), %rax
	jmp	*%rax
	.section	.rodata
	.align 8
	.align 4
.L80:
	.quad	.L78
	.quad	.L95
	.quad	.L94
	.quad	.L93
	.quad	.L92
	.quad	.L91
	.quad	.L90
	.quad	.L89
	.quad	.L88
	.quad	.L87
	.quad	.L86
	.quad	.L85
	.quad	.L84
	.quad	.L83
	.quad	.L82
	.quad	.L81
	.quad	.L79
	.text
.L95:
	cmpl	$77, -500(%rbp)
	je	.L96
	movq	-488(%rbp), %rax
	movl	$0, 8(%rax)
	leaq	-320(%rbp), %rax
	movl	$0, %esi
	movq	%rax, %rdi
	call	_ZN5boost5logic7triboolC1Eb
	movl	-320(%rbp), %eax
	movl	%eax, -436(%rbp)
	movl	$.LC36, %esi
	movl	$_ZSt4cout, %edi
	call	_ZStlsISt11char_traitsIcEERSt13basic_ostreamIcT_ES5_PKc
	movq	%rax, %rdx
	movl	-436(%rbp), %eax
	movl	%eax, %esi
	movq	%rdx, %rdi
	call	_ZN5boost5logiclsIcSt11char_traitsIcEEERSt13basic_ostreamIT_T0_ES8_NS0_7triboolE
	movl	$_ZSt4endlIcSt11char_traitsIcEERSt13basic_ostreamIT_T0_ES6_, %esi
	movq	%rax, %rdi
	call	_ZNSolsEPFRSoS_E
	jmp	.L78
.L96:
	movq	-488(%rbp), %rax
	movl	$2, (%rax)
	leaq	-316(%rbp), %rax
	movl	$_ZN5boost5logic13indeterminateENS0_7triboolENS0_6detail15indeterminate_tE, %esi
	movq	%rax, %rdi
	call	_ZN5boost5logic7triboolC1EPFbS1_NS0_6detail15indeterminate_tEE
	movl	-316(%rbp), %eax
	movl	%eax, -436(%rbp)
	movl	$.LC37, %esi
	movl	$_ZSt4cout, %edi
	call	_ZStlsISt11char_traitsIcEERSt13basic_ostreamIcT_ES5_PKc
	movq	%rax, %rdx
	movl	-436(%rbp), %eax
	movl	%eax, %esi
	movq	%rdx, %rdi
	call	_ZN5boost5logiclsIcSt11char_traitsIcEEERSt13basic_ostreamIT_T0_ES8_NS0_7triboolE
	movl	$_ZSt4endlIcSt11char_traitsIcEERSt13basic_ostreamIT_T0_ES6_, %esi
	movq	%rax, %rdi
	call	_ZNSolsEPFRSoS_E
	jmp	.L78
.L94:
	cmpl	$80, -500(%rbp)
	je	.L98
	movq	-488(%rbp), %rax
	movl	$0, 8(%rax)
	leaq	-312(%rbp), %rax
	movl	$0, %esi
	movq	%rax, %rdi
	call	_ZN5boost5logic7triboolC1Eb
	movl	-312(%rbp), %eax
	movl	%eax, -436(%rbp)
	movl	$.LC38, %esi
	movl	$_ZSt4cout, %edi
	call	_ZStlsISt11char_traitsIcEERSt13basic_ostreamIcT_ES5_PKc
	movq	%rax, %rdx
	movl	-436(%rbp), %eax
	movl	%eax, %esi
	movq	%rdx, %rdi
	call	_ZN5boost5logiclsIcSt11char_traitsIcEEERSt13basic_ostreamIT_T0_ES8_NS0_7triboolE
	movl	$_ZSt4endlIcSt11char_traitsIcEERSt13basic_ostreamIT_T0_ES6_, %esi
	movq	%rax, %rdi
	call	_ZNSolsEPFRSoS_E
	jmp	.L78
.L98:
	movq	-488(%rbp), %rax
	movl	$3, (%rax)
	leaq	-308(%rbp), %rax
	movl	$_ZN5boost5logic13indeterminateENS0_7triboolENS0_6detail15indeterminate_tE, %esi
	movq	%rax, %rdi
	call	_ZN5boost5logic7triboolC1EPFbS1_NS0_6detail15indeterminate_tEE
	movl	-308(%rbp), %eax
	movl	%eax, -436(%rbp)
	jmp	.L78
.L93:
	cmpl	$80, -500(%rbp)
	je	.L100
	movq	-488(%rbp), %rax
	movl	$0, 8(%rax)
	leaq	-304(%rbp), %rax
	movl	$0, %esi
	movq	%rax, %rdi
	call	_ZN5boost5logic7triboolC1Eb
	movl	-304(%rbp), %eax
	movl	%eax, -436(%rbp)
	jmp	.L78
.L100:
	movq	-488(%rbp), %rax
	movl	$4, (%rax)
	leaq	-300(%rbp), %rax
	movl	$_ZN5boost5logic13indeterminateENS0_7triboolENS0_6detail15indeterminate_tE, %esi
	movq	%rax, %rdi
	call	_ZN5boost5logic7triboolC1EPFbS1_NS0_6detail15indeterminate_tEE
	movl	-300(%rbp), %eax
	movl	%eax, -436(%rbp)
	jmp	.L78
.L92:
	cmpl	$47, -500(%rbp)
	je	.L102
	movq	-488(%rbp), %rax
	movl	$0, 8(%rax)
	leaq	-296(%rbp), %rax
	movl	$0, %esi
	movq	%rax, %rdi
	call	_ZN5boost5logic7triboolC1Eb
	movl	-296(%rbp), %eax
	movl	%eax, -436(%rbp)
.L102:
	movq	-488(%rbp), %rax
	movl	$5, (%rax)
	leaq	-292(%rbp), %rax
	movl	$_ZN5boost5logic13indeterminateENS0_7triboolENS0_6detail15indeterminate_tE, %esi
	movq	%rax, %rdi
	call	_ZN5boost5logic7triboolC1EPFbS1_NS0_6detail15indeterminate_tEE
	movl	-292(%rbp), %eax
	movl	%eax, -436(%rbp)
	jmp	.L78
.L91:
	leaq	-424(%rbp), %rdx
	movl	-500(%rbp), %eax
	movq	%rdx, %rsi
	movl	%eax, %edi
	call	_ZSt7isdigitIwEbT_RKSt6locale
	testb	%al, %al
	je	.L103
	movq	-488(%rbp), %rax
	addq	$24, %rax
	movl	$0, %esi
	movq	%rax, %rdi
	call	_ZNSt5arrayINSt7__cxx1118basic_stringstreamIwSt11char_traitsIwESaIwEEELm3EEixEm
	leaq	16(%rax), %rdx
	movl	-500(%rbp), %eax
	movl	%eax, %esi
	movq	%rdx, %rdi
	call	_ZStlsIwSt11char_traitsIwEERSt13basic_ostreamIT_T0_ES6_S3_
	leaq	-288(%rbp), %rax
	movl	$_ZN5boost5logic13indeterminateENS0_7triboolENS0_6detail15indeterminate_tE, %esi
	movq	%rax, %rdi
	call	_ZN5boost5logic7triboolC1EPFbS1_NS0_6detail15indeterminate_tEE
	movl	-288(%rbp), %eax
	movl	%eax, -436(%rbp)
	jmp	.L78
.L103:
	cmpl	$46, -500(%rbp)
	jne	.L105
	movl	$.LC39, %esi
	movl	$_ZSt4cout, %edi
	call	_ZStlsISt11char_traitsIcEERSt13basic_ostreamIcT_ES5_PKc
	movl	$_ZSt4endlIcSt11char_traitsIcEERSt13basic_ostreamIT_T0_ES6_, %esi
	movq	%rax, %rdi
	call	_ZNSolsEPFRSoS_E
	movq	-488(%rbp), %rax
	addq	$24, %rax
	movl	$0, %esi
	movq	%rax, %rdi
	call	_ZNSt5arrayINSt7__cxx1118basic_stringstreamIwSt11char_traitsIwESaIwEEELm3EEixEm
	movq	%rax, %rdx
	leaq	-438(%rbp), %rax
	movq	%rax, %rsi
	movq	%rdx, %rdi
	call	_ZNSt13basic_istreamIwSt11char_traitsIwEErsERs
	movl	$.LC40, %esi
	movl	$_ZSt4cout, %edi
	call	_ZStlsISt11char_traitsIcEERSt13basic_ostreamIcT_ES5_PKc
	movq	%rax, %rdx
	movzwl	-438(%rbp), %eax
	cwtl
	movl	%eax, %esi
	movq	%rdx, %rdi
	call	_ZNSolsEs
	movl	$.LC41, %esi
	movq	%rax, %rdi
	call	_ZStlsISt11char_traitsIcEERSt13basic_ostreamIcT_ES5_PKc
	movq	%rax, %rbx
	movq	-488(%rbp), %rax
	addq	$12, %rax
	movl	$0, %esi
	movq	%rax, %rdi
	call	_ZNKSt5arrayIsLm3EEixEm
	movzwl	(%rax), %eax
	cwtl
	movl	%eax, %esi
	movq	%rbx, %rdi
	call	_ZNSolsEs
	movl	$_ZSt4endlIcSt11char_traitsIcEERSt13basic_ostreamIT_T0_ES6_, %esi
	movq	%rax, %rdi
	call	_ZNSolsEPFRSoS_E
	movq	-488(%rbp), %rax
	addq	$12, %rax
	movl	$0, %esi
	movq	%rax, %rdi
	call	_ZNKSt5arrayIsLm3EEixEm
	movzwl	(%rax), %edx
	movzwl	-438(%rbp), %eax
	cmpw	%ax, %dx
	setne	%al
	testb	%al, %al
	je	.L106
	movq	-488(%rbp), %rax
	movl	$1, 8(%rax)
	leaq	-284(%rbp), %rax
	movl	$0, %esi
	movq	%rax, %rdi
	call	_ZN5boost5logic7triboolC1Eb
	movl	-284(%rbp), %eax
	movl	%eax, -436(%rbp)
	jmp	.L78
.L106:
	movq	-488(%rbp), %rax
	movl	$6, (%rax)
	leaq	-280(%rbp), %rax
	movl	$_ZN5boost5logic13indeterminateENS0_7triboolENS0_6detail15indeterminate_tE, %esi
	movq	%rax, %rdi
	call	_ZN5boost5logic7triboolC1EPFbS1_NS0_6detail15indeterminate_tEE
	movl	-280(%rbp), %eax
	movl	%eax, -436(%rbp)
	jmp	.L78
.L105:
	movq	-488(%rbp), %rax
	movl	$0, 8(%rax)
	leaq	-276(%rbp), %rax
	movl	$0, %esi
	movq	%rax, %rdi
	call	_ZN5boost5logic7triboolC1Eb
	movl	-276(%rbp), %eax
	movl	%eax, -436(%rbp)
	jmp	.L78
.L90:
	leaq	-424(%rbp), %rdx
	movl	-500(%rbp), %eax
	movq	%rdx, %rsi
	movl	%eax, %edi
	call	_ZSt7isdigitIwEbT_RKSt6locale
	testb	%al, %al
	je	.L108
	movq	-488(%rbp), %rax
	addq	$24, %rax
	movl	$1, %esi
	movq	%rax, %rdi
	call	_ZNSt5arrayINSt7__cxx1118basic_stringstreamIwSt11char_traitsIwESaIwEEELm3EEixEm
	leaq	16(%rax), %rdx
	movl	-500(%rbp), %eax
	movl	%eax, %esi
	movq	%rdx, %rdi
	call	_ZStlsIwSt11char_traitsIwEERSt13basic_ostreamIT_T0_ES6_S3_
	leaq	-272(%rbp), %rax
	movl	$_ZN5boost5logic13indeterminateENS0_7triboolENS0_6detail15indeterminate_tE, %esi
	movq	%rax, %rdi
	call	_ZN5boost5logic7triboolC1EPFbS1_NS0_6detail15indeterminate_tEE
	movl	-272(%rbp), %eax
	movl	%eax, -436(%rbp)
	jmp	.L78
.L108:
	cmpl	$46, -500(%rbp)
	jne	.L110
	movq	-488(%rbp), %rax
	addq	$24, %rax
	movl	$1, %esi
	movq	%rax, %rdi
	call	_ZNSt5arrayINSt7__cxx1118basic_stringstreamIwSt11char_traitsIwESaIwEEELm3EEixEm
	movq	%rax, %rdx
	leaq	-440(%rbp), %rax
	movq	%rax, %rsi
	movq	%rdx, %rdi
	call	_ZNSt13basic_istreamIwSt11char_traitsIwEErsERs
	movl	$.LC42, %esi
	movl	$_ZSt4cout, %edi
	call	_ZStlsISt11char_traitsIcEERSt13basic_ostreamIcT_ES5_PKc
	movq	%rax, %rdx
	movzwl	-440(%rbp), %eax
	cwtl
	movl	%eax, %esi
	movq	%rdx, %rdi
	call	_ZNSolsEs
	movl	$_ZSt4endlIcSt11char_traitsIcEERSt13basic_ostreamIT_T0_ES6_, %esi
	movq	%rax, %rdi
	call	_ZNSolsEPFRSoS_E
	movq	-488(%rbp), %rax
	addq	$12, %rax
	movl	$1, %esi
	movq	%rax, %rdi
	call	_ZNKSt5arrayIsLm3EEixEm
	movzwl	(%rax), %edx
	movzwl	-440(%rbp), %eax
	cmpw	%ax, %dx
	setne	%al
	testb	%al, %al
	je	.L111
	movq	-488(%rbp), %rax
	movl	$2, 8(%rax)
	leaq	-268(%rbp), %rax
	movl	$0, %esi
	movq	%rax, %rdi
	call	_ZN5boost5logic7triboolC1Eb
	movl	-268(%rbp), %eax
	movl	%eax, -436(%rbp)
	jmp	.L78
.L111:
	movq	-488(%rbp), %rax
	movl	$7, (%rax)
	leaq	-264(%rbp), %rax
	movl	$_ZN5boost5logic13indeterminateENS0_7triboolENS0_6detail15indeterminate_tE, %esi
	movq	%rax, %rdi
	call	_ZN5boost5logic7triboolC1EPFbS1_NS0_6detail15indeterminate_tEE
	movl	-264(%rbp), %eax
	movl	%eax, -436(%rbp)
	jmp	.L78
.L110:
	movq	-488(%rbp), %rax
	movl	$0, 8(%rax)
	leaq	-260(%rbp), %rax
	movl	$0, %esi
	movq	%rax, %rdi
	call	_ZN5boost5logic7triboolC1Eb
	movl	-260(%rbp), %eax
	movl	%eax, -436(%rbp)
	jmp	.L78
.L89:
	leaq	-424(%rbp), %rdx
	movl	-500(%rbp), %eax
	movq	%rdx, %rsi
	movl	%eax, %edi
	call	_ZSt7isdigitIwEbT_RKSt6locale
	testb	%al, %al
	je	.L113
	movl	$.LC43, %esi
	movl	$_ZSt5wcout, %edi
	call	_ZStlsIwSt11char_traitsIwEERSt13basic_ostreamIT_T0_ES6_PKS3_
	movq	%rax, %rdx
	movl	-500(%rbp), %eax
	movl	%eax, %esi
	movq	%rdx, %rdi
	call	_ZStlsIwSt11char_traitsIwEERSt13basic_ostreamIT_T0_ES6_S3_
	movl	$.LC44, %esi
	movl	$_ZSt4cout, %edi
	call	_ZStlsISt11char_traitsIcEERSt13basic_ostreamIcT_ES5_PKc
	movq	%rax, %rbx
	leaq	-256(%rbp), %rax
	leaq	-424(%rbp), %rdx
	movq	%rdx, %rsi
	movq	%rax, %rdi
	call	_ZNKSt6locale4nameB5cxx11Ev
.LEHE20:
	leaq	-256(%rbp), %rax
	movq	%rax, %rsi
	movq	%rbx, %rdi
.LEHB21:
	call	_ZStlsIcSt11char_traitsIcESaIcEERSt13basic_ostreamIT_T0_ES7_RKNSt7__cxx1112basic_stringIS4_S5_T1_EE
	movl	$_ZSt4endlIcSt11char_traitsIcEERSt13basic_ostreamIT_T0_ES6_, %esi
	movq	%rax, %rdi
	call	_ZNSolsEPFRSoS_E
.LEHE21:
	leaq	-256(%rbp), %rax
	movq	%rax, %rdi
	call	_ZNSt7__cxx1112basic_stringIcSt11char_traitsIcESaIcEED1Ev
	movq	-488(%rbp), %rax
	addq	$24, %rax
	movl	$2, %esi
	movq	%rax, %rdi
	call	_ZNSt5arrayINSt7__cxx1118basic_stringstreamIwSt11char_traitsIwESaIwEEELm3EEixEm
	leaq	16(%rax), %rdx
	movl	-500(%rbp), %eax
	movl	%eax, %esi
	movq	%rdx, %rdi
.LEHB22:
	call	_ZStlsIwSt11char_traitsIwEERSt13basic_ostreamIT_T0_ES6_S3_
	leaq	-212(%rbp), %rax
	movl	$_ZN5boost5logic13indeterminateENS0_7triboolENS0_6detail15indeterminate_tE, %esi
	movq	%rax, %rdi
	call	_ZN5boost5logic7triboolC1EPFbS1_NS0_6detail15indeterminate_tEE
	movl	-212(%rbp), %eax
	movl	%eax, -436(%rbp)
	jmp	.L78
.L113:
	leaq	-424(%rbp), %rdx
	movl	-500(%rbp), %eax
	movq	%rdx, %rsi
	movl	%eax, %edi
	call	_ZSt7isspaceIwEbT_RKSt6locale
	testb	%al, %al
	je	.L115
	movl	$.LC43, %esi
	movl	$_ZSt5wcout, %edi
	call	_ZStlsIwSt11char_traitsIwEERSt13basic_ostreamIT_T0_ES6_PKS3_
	movq	%rax, %rdx
	movl	-500(%rbp), %eax
	movl	%eax, %esi
	movq	%rdx, %rdi
	call	_ZStlsIwSt11char_traitsIwEERSt13basic_ostreamIT_T0_ES6_S3_
	movl	$.LC45, %esi
	movq	%rax, %rdi
	call	_ZStlsIwSt11char_traitsIwEERSt13basic_ostreamIT_T0_ES6_PKS3_
	leaq	-208(%rbp), %rax
	leaq	-424(%rbp), %rdx
	movq	%rdx, %rsi
	movq	%rax, %rdi
	call	_ZNKSt6locale4nameB5cxx11Ev
.LEHE22:
	leaq	-208(%rbp), %rax
	movq	%rax, %rsi
	movl	$_ZSt4cout, %edi
.LEHB23:
	call	_ZStlsIcSt11char_traitsIcESaIcEERSt13basic_ostreamIT_T0_ES7_RKNSt7__cxx1112basic_stringIS4_S5_T1_EE
	movl	$_ZSt4endlIcSt11char_traitsIcEERSt13basic_ostreamIT_T0_ES6_, %esi
	movq	%rax, %rdi
	call	_ZNSolsEPFRSoS_E
.LEHE23:
	leaq	-208(%rbp), %rax
	movq	%rax, %rdi
	call	_ZNSt7__cxx1112basic_stringIcSt11char_traitsIcESaIcEED1Ev
	movq	-488(%rbp), %rax
	addq	$24, %rax
	movl	$2, %esi
	movq	%rax, %rdi
	call	_ZNSt5arrayINSt7__cxx1118basic_stringstreamIwSt11char_traitsIwESaIwEEELm3EEixEm
	movq	%rax, %rdx
	leaq	-442(%rbp), %rax
	movq	%rax, %rsi
	movq	%rdx, %rdi
.LEHB24:
	call	_ZNSt13basic_istreamIwSt11char_traitsIwEErsERs
	movl	$.LC46, %esi
	movl	$_ZSt4cout, %edi
	call	_ZStlsISt11char_traitsIcEERSt13basic_ostreamIcT_ES5_PKc
	movq	%rax, %rdx
	movzwl	-442(%rbp), %eax
	cwtl
	movl	%eax, %esi
	movq	%rdx, %rdi
	call	_ZNSolsEs
	movl	$_ZSt4endlIcSt11char_traitsIcEERSt13basic_ostreamIT_T0_ES6_, %esi
	movq	%rax, %rdi
	call	_ZNSolsEPFRSoS_E
	movq	-488(%rbp), %rax
	addq	$12, %rax
	movl	$2, %esi
	movq	%rax, %rdi
	call	_ZNKSt5arrayIsLm3EEixEm
	movzwl	(%rax), %edx
	movzwl	-442(%rbp), %eax
	cmpw	%ax, %dx
	setne	%al
	testb	%al, %al
	je	.L116
	movq	-488(%rbp), %rax
	movl	$3, 8(%rax)
	leaq	-172(%rbp), %rax
	movl	$0, %esi
	movq	%rax, %rdi
	call	_ZN5boost5logic7triboolC1Eb
	movl	-172(%rbp), %eax
	movl	%eax, -436(%rbp)
	jmp	.L78
.L116:
	movq	-488(%rbp), %rax
	movl	$8, (%rax)
	leaq	-168(%rbp), %rax
	movl	$_ZN5boost5logic13indeterminateENS0_7triboolENS0_6detail15indeterminate_tE, %esi
	movq	%rax, %rdi
	call	_ZN5boost5logic7triboolC1EPFbS1_NS0_6detail15indeterminate_tEE
	movl	-168(%rbp), %eax
	movl	%eax, -436(%rbp)
	jmp	.L78
.L115:
	movl	$.LC47, %esi
	movl	$_ZSt5wcout, %edi
	call	_ZStlsIwSt11char_traitsIwEERSt13basic_ostreamIT_T0_ES6_PKc
	movq	%rax, %rdx
	movl	-500(%rbp), %eax
	movl	%eax, %esi
	movq	%rdx, %rdi
	call	_ZStlsIwSt11char_traitsIwEERSt13basic_ostreamIT_T0_ES6_S3_
	movl	$.LC48, %esi
	movq	%rax, %rdi
	call	_ZStlsIwSt11char_traitsIwEERSt13basic_ostreamIT_T0_ES6_PKc
	movl	$_ZSt4endlIwSt11char_traitsIwEERSt13basic_ostreamIT_T0_ES6_, %esi
	movq	%rax, %rdi
	call	_ZNSt13basic_ostreamIwSt11char_traitsIwEElsEPFRS2_S3_E
	movq	-488(%rbp), %rax
	movl	$0, 8(%rax)
	leaq	-164(%rbp), %rax
	movl	$0, %esi
	movq	%rax, %rdi
	call	_ZN5boost5logic7triboolC1Eb
	movl	-164(%rbp), %eax
	movl	%eax, -436(%rbp)
	jmp	.L78
.L88:
	movl	$.LC49, %esi
	movl	$_ZSt4cout, %edi
	call	_ZStlsISt11char_traitsIcEERSt13basic_ostreamIcT_ES5_PKc
	movl	$_ZSt4endlIcSt11char_traitsIcEERSt13basic_ostreamIT_T0_ES6_, %esi
	movq	%rax, %rdi
	call	_ZNSolsEPFRSoS_E
	leaq	-424(%rbp), %rdx
	movl	-500(%rbp), %eax
	movq	%rdx, %rsi
	movl	%eax, %edi
	call	_ZSt7isalphaIwEbT_RKSt6locale
	testb	%al, %al
	je	.L118
	movl	$.LC50, %esi
	movl	$_ZSt5wcout, %edi
	call	_ZStlsIwSt11char_traitsIwEERSt13basic_ostreamIT_T0_ES6_PKc
	movq	%rax, %rdx
	movl	-500(%rbp), %eax
	movl	%eax, %esi
	movq	%rdx, %rdi
	call	_ZStlsIwSt11char_traitsIwEERSt13basic_ostreamIT_T0_ES6_S3_
	movl	$.LC51, %esi
	movq	%rax, %rdi
	call	_ZStlsIwSt11char_traitsIwEERSt13basic_ostreamIT_T0_ES6_PKc
	leaq	-160(%rbp), %rax
	leaq	-424(%rbp), %rdx
	movq	%rdx, %rsi
	movq	%rax, %rdi
	call	_ZNKSt6locale4nameB5cxx11Ev
.LEHE24:
	leaq	-160(%rbp), %rax
	movq	%rax, %rsi
	movl	$_ZSt4cout, %edi
.LEHB25:
	call	_ZStlsIcSt11char_traitsIcESaIcEERSt13basic_ostreamIT_T0_ES7_RKNSt7__cxx1112basic_stringIS4_S5_T1_EE
	movl	$_ZSt4endlIcSt11char_traitsIcEERSt13basic_ostreamIT_T0_ES6_, %esi
	movq	%rax, %rdi
	call	_ZNSolsEPFRSoS_E
.LEHE25:
	leaq	-160(%rbp), %rax
	movq	%rax, %rdi
	call	_ZNSt7__cxx1112basic_stringIcSt11char_traitsIcESaIcEED1Ev
	leaq	-424(%rbp), %rdx
	movl	-500(%rbp), %eax
	movq	%rdx, %rsi
	movl	%eax, %edi
.LEHB26:
	call	_ZSt7toupperIwET_S0_RKSt6locale
	movl	%eax, -20(%rbp)
	movl	$.LC52, %esi
	movl	$_ZSt5wcout, %edi
	call	_ZStlsIwSt11char_traitsIwEERSt13basic_ostreamIT_T0_ES6_PKS3_
	movq	%rax, %rdx
	movl	-20(%rbp), %eax
	movl	%eax, %esi
	movq	%rdx, %rdi
	call	_ZStlsIwSt11char_traitsIwEERSt13basic_ostreamIT_T0_ES6_S3_
	movl	$.LC53, %esi
	movq	%rax, %rdi
	call	_ZStlsIwSt11char_traitsIwEERSt13basic_ostreamIT_T0_ES6_PKc
	movl	$_ZSt4endlIwSt11char_traitsIwEERSt13basic_ostreamIT_T0_ES6_, %esi
	movq	%rax, %rdi
	call	_ZNSt13basic_ostreamIwSt11char_traitsIwEElsEPFRS2_S3_E
	movl	-20(%rbp), %ebx
	movq	-488(%rbp), %rax
	addq	$1200, %rax
	movq	%rax, %rdi
	call	_ZNKSt5arrayINSt7__cxx1112basic_stringIwSt11char_traitsIwESaIwEEELm2EE4cendEv
	movq	%rax, %r12
	movq	-488(%rbp), %rax
	addq	$1200, %rax
	movq	%rax, %rdi
	call	_ZNKSt5arrayINSt7__cxx1112basic_stringIwSt11char_traitsIwESaIwEEELm2EE6cbeginEv
	movl	%ebx, %edx
	movq	%r12, %rsi
	movq	%rax, %rdi
	call	_ZSt7find_ifIPKNSt7__cxx1112basic_stringIwSt11char_traitsIwESaIwEEEZN9ReqParser7consumeER7RequestwEUlS5_E_ET_SC_SC_T0_
	movq	%rax, -32(%rbp)
	movq	-488(%rbp), %rax
	addq	$1200, %rax
	movq	%rax, %rdi
	call	_ZNKSt5arrayINSt7__cxx1112basic_stringIwSt11char_traitsIwESaIwEEELm2EE4cendEv
	cmpq	%rax, -32(%rbp)
	sete	%al
	testb	%al, %al
	je	.L119
	movl	$.LC54, %esi
	movl	$_ZSt4cout, %edi
	call	_ZStlsISt11char_traitsIcEERSt13basic_ostreamIcT_ES5_PKc
	movl	$_ZSt4endlIcSt11char_traitsIcEERSt13basic_ostreamIT_T0_ES6_, %esi
	movq	%rax, %rdi
	call	_ZNSolsEPFRSoS_E
	movq	-488(%rbp), %rax
	movl	$4, 8(%rax)
	leaq	-116(%rbp), %rax
	movl	$0, %esi
	movq	%rax, %rdi
	call	_ZN5boost5logic7triboolC1Eb
	movl	-116(%rbp), %eax
	movl	%eax, -436(%rbp)
	movl	$.LC55, %esi
	movl	$_ZSt4cout, %edi
	call	_ZStlsISt11char_traitsIcEERSt13basic_ostreamIcT_ES5_PKc
	movq	%rax, %rdx
	movl	-436(%rbp), %eax
	movl	%eax, %esi
	movq	%rdx, %rdi
	call	_ZN5boost5logiclsIcSt11char_traitsIcEEERSt13basic_ostreamIT_T0_ES8_NS0_7triboolE
	movl	$_ZSt4endlIcSt11char_traitsIcEERSt13basic_ostreamIT_T0_ES6_, %esi
	movq	%rax, %rdi
	call	_ZNSolsEPFRSoS_E
	jmp	.L78
.L119:
	movq	-32(%rbp), %rdx
	leaq	-480(%rbp), %rax
	movq	%rdx, %rsi
	movq	%rax, %rdi
	call	_ZNSt7__cxx1112basic_stringIwSt11char_traitsIwESaIwEEC1ERKS4_
.LEHE26:
	movl	$.LC56, %esi
	movl	$_ZSt4cout, %edi
.LEHB27:
	call	_ZStlsISt11char_traitsIcEERSt13basic_ostreamIcT_ES5_PKc
	leaq	-480(%rbp), %rax
	movq	%rax, %rsi
	movl	$_ZSt5wcout, %edi
	call	_ZStlsIwSt11char_traitsIwESaIwEERSt13basic_ostreamIT_T0_ES7_RKNSt7__cxx1112basic_stringIS4_S5_T1_EE
	movl	$_ZSt4endlIwSt11char_traitsIwEERSt13basic_ostreamIT_T0_ES6_, %esi
	movq	%rax, %rdi
	call	_ZNSt13basic_ostreamIwSt11char_traitsIwEElsEPFRS2_S3_E
	leaq	-480(%rbp), %rax
	movl	$0, %esi
	movq	%rax, %rdi
	call	_ZNSt7__cxx1112basic_stringIwSt11char_traitsIwESaIwEEixEm
	movl	(%rax), %eax
	cmpl	$70, %eax
	sete	%al
	testb	%al, %al
	je	.L121
	movl	$.LC57, %esi
	movl	$_ZSt4cout, %edi
	call	_ZStlsISt11char_traitsIcEERSt13basic_ostreamIcT_ES5_PKc
	movq	%rax, %rbx
	movl	$9, -112(%rbp)
	movq	-488(%rbp), %rax
	leaq	1272(%rax), %rdx
	leaq	-112(%rbp), %rax
	movq	%rax, %rsi
	movq	%rdx, %rdi
	call	_ZNSt3mapIN9ReqParser5StateENSt7__cxx1112basic_stringIcSt11char_traitsIcESaIcEEESt4lessIS1_ESaISt4pairIKS1_S7_EEEixEOS1_
	movq	%rax, %rsi
	movq	%rbx, %rdi
	call	_ZStlsIcSt11char_traitsIcESaIcEERSt13basic_ostreamIT_T0_ES7_RKNSt7__cxx1112basic_stringIS4_S5_T1_EE
	movl	$_ZSt4endlIcSt11char_traitsIcEERSt13basic_ostreamIT_T0_ES6_, %esi
	movq	%rax, %rdi
	call	_ZNSolsEPFRSoS_E
	movq	-488(%rbp), %rax
	movl	$9, (%rax)
	jmp	.L122
.L121:
	leaq	-480(%rbp), %rax
	movl	$0, %esi
	movq	%rax, %rdi
	call	_ZNSt7__cxx1112basic_stringIwSt11char_traitsIwESaIwEEixEm
	movl	(%rax), %eax
	cmpl	$73, %eax
	sete	%al
	testb	%al, %al
	je	.L122
	movl	$.LC58, %esi
	movl	$_ZSt4cout, %edi
	call	_ZStlsISt11char_traitsIcEERSt13basic_ostreamIcT_ES5_PKc
	movq	%rax, %rbx
	movl	$11, -108(%rbp)
	movq	-488(%rbp), %rax
	leaq	1272(%rax), %rdx
	leaq	-108(%rbp), %rax
	movq	%rax, %rsi
	movq	%rdx, %rdi
	call	_ZNSt3mapIN9ReqParser5StateENSt7__cxx1112basic_stringIcSt11char_traitsIcESaIcEEESt4lessIS1_ESaISt4pairIKS1_S7_EEEixEOS1_
	movq	%rax, %rsi
	movq	%rbx, %rdi
	call	_ZStlsIcSt11char_traitsIcESaIcEERSt13basic_ostreamIT_T0_ES7_RKNSt7__cxx1112basic_stringIS4_S5_T1_EE
	movl	$_ZSt4endlIcSt11char_traitsIcEERSt13basic_ostreamIT_T0_ES6_, %esi
	movq	%rax, %rdi
	call	_ZNSolsEPFRSoS_E
	movq	-488(%rbp), %rax
	movl	$11, (%rax)
.L122:
	leaq	-104(%rbp), %rax
	movl	$_ZN5boost5logic13indeterminateENS0_7triboolENS0_6detail15indeterminate_tE, %esi
	movq	%rax, %rdi
	call	_ZN5boost5logic7triboolC1EPFbS1_NS0_6detail15indeterminate_tEE
	movl	-104(%rbp), %eax
	movl	%eax, -436(%rbp)
	movl	$.LC59, %esi
	movl	$_ZSt4cout, %edi
	call	_ZStlsISt11char_traitsIcEERSt13basic_ostreamIcT_ES5_PKc
	movq	%rax, %rdx
	movl	-436(%rbp), %eax
	movl	%eax, %esi
	movq	%rdx, %rdi
	call	_ZN5boost5logiclsIcSt11char_traitsIcEEERSt13basic_ostreamIT_T0_ES8_NS0_7triboolE
	movl	$_ZSt4endlIcSt11char_traitsIcEERSt13basic_ostreamIT_T0_ES6_, %esi
	movq	%rax, %rdi
	call	_ZNSolsEPFRSoS_E
.LEHE27:
	leaq	-480(%rbp), %rax
	movq	%rax, %rdi
	call	_ZNSt7__cxx1112basic_stringIwSt11char_traitsIwESaIwEED1Ev
	jmp	.L78
.L118:
	movl	$.LC60, %esi
	movl	$_ZSt4cout, %edi
.LEHB28:
	call	_ZStlsISt11char_traitsIcEERSt13basic_ostreamIcT_ES5_PKc
	movl	$_ZSt4endlIcSt11char_traitsIcEERSt13basic_ostreamIT_T0_ES6_, %esi
	movq	%rax, %rdi
	call	_ZNSolsEPFRSoS_E
	movq	-488(%rbp), %rax
	movl	$4, 8(%rax)
	leaq	-100(%rbp), %rax
	movl	$0, %esi
	movq	%rax, %rdi
	call	_ZN5boost5logic7triboolC1Eb
	movl	-100(%rbp), %eax
	movl	%eax, -436(%rbp)
	movl	$.LC61, %esi
	movl	$_ZSt4cout, %edi
	call	_ZStlsISt11char_traitsIcEERSt13basic_ostreamIcT_ES5_PKc
	movq	%rax, %rdx
	movl	-436(%rbp), %eax
	movl	%eax, %esi
	movq	%rdx, %rdi
	call	_ZN5boost5logiclsIcSt11char_traitsIcEEERSt13basic_ostreamIT_T0_ES8_NS0_7triboolE
	movl	$_ZSt4endlIcSt11char_traitsIcEERSt13basic_ostreamIT_T0_ES6_, %esi
	movq	%rax, %rdi
	call	_ZNSolsEPFRSoS_E
	jmp	.L78
.L87:
	leaq	-424(%rbp), %rdx
	movl	-500(%rbp), %eax
	movq	%rdx, %rsi
	movl	%eax, %edi
	call	_ZSt7toupperIwET_S0_RKSt6locale
	cmpl	$79, %eax
	sete	%al
	testb	%al, %al
	je	.L124
	movq	-488(%rbp), %rax
	movl	$10, (%rax)
	leaq	-96(%rbp), %rax
	movl	$_ZN5boost5logic13indeterminateENS0_7triboolENS0_6detail15indeterminate_tE, %esi
	movq	%rax, %rdi
	call	_ZN5boost5logic7triboolC1EPFbS1_NS0_6detail15indeterminate_tEE
	movl	-96(%rbp), %eax
	movl	%eax, -436(%rbp)
	jmp	.L78
.L124:
	movq	-488(%rbp), %rax
	movl	$0, 8(%rax)
	leaq	-92(%rbp), %rax
	movl	$0, %esi
	movq	%rax, %rdi
	call	_ZN5boost5logic7triboolC1Eb
	movl	-92(%rbp), %eax
	movl	%eax, -436(%rbp)
	jmp	.L78
.L86:
	leaq	-424(%rbp), %rdx
	movl	-500(%rbp), %eax
	movq	%rdx, %rsi
	movl	%eax, %edi
	call	_ZSt7toupperIwET_S0_RKSt6locale
	cmpl	$70, %eax
	sete	%al
	testb	%al, %al
	je	.L126
	movq	-488(%rbp), %rax
	movl	$16, (%rax)
	leaq	-88(%rbp), %rax
	movl	$_ZN5boost5logic13indeterminateENS0_7triboolENS0_6detail15indeterminate_tE, %esi
	movq	%rax, %rdi
	call	_ZN5boost5logic7triboolC1EPFbS1_NS0_6detail15indeterminate_tEE
	movl	-88(%rbp), %eax
	movl	%eax, -436(%rbp)
	jmp	.L78
.L126:
	movq	-488(%rbp), %rax
	movl	$0, 8(%rax)
	leaq	-84(%rbp), %rax
	movl	$0, %esi
	movq	%rax, %rdi
	call	_ZN5boost5logic7triboolC1Eb
	movl	-84(%rbp), %eax
	movl	%eax, -436(%rbp)
	jmp	.L78
.L85:
	movl	$.LC62, %esi
	movl	$_ZSt4cout, %edi
	call	_ZStlsISt11char_traitsIcEERSt13basic_ostreamIcT_ES5_PKc
	movl	$_ZSt4endlIcSt11char_traitsIcEERSt13basic_ostreamIT_T0_ES6_, %esi
	movq	%rax, %rdi
	call	_ZNSolsEPFRSoS_E
	leaq	-424(%rbp), %rdx
	movl	-500(%rbp), %eax
	movq	%rdx, %rsi
	movl	%eax, %edi
	call	_ZSt7toupperIwET_S0_RKSt6locale
	cmpl	$83, %eax
	sete	%al
	testb	%al, %al
	je	.L128
	movl	$.LC63, %esi
	movl	$_ZSt5wcout, %edi
	call	_ZStlsIwSt11char_traitsIwEERSt13basic_ostreamIT_T0_ES6_PKS3_
	movl	$_ZSt4endlIwSt11char_traitsIwEERSt13basic_ostreamIT_T0_ES6_, %esi
	movq	%rax, %rdi
	call	_ZNSt13basic_ostreamIwSt11char_traitsIwEElsEPFRS2_S3_E
	movq	-488(%rbp), %rax
	movl	$12, (%rax)
	leaq	-80(%rbp), %rax
	movl	$_ZN5boost5logic13indeterminateENS0_7triboolENS0_6detail15indeterminate_tE, %esi
	movq	%rax, %rdi
	call	_ZN5boost5logic7triboolC1EPFbS1_NS0_6detail15indeterminate_tEE
	movl	-80(%rbp), %eax
	movl	%eax, -436(%rbp)
	jmp	.L78
.L128:
	movl	$.LC64, %esi
	movl	$_ZSt5wcout, %edi
	call	_ZStlsIwSt11char_traitsIwEERSt13basic_ostreamIT_T0_ES6_PKS3_
	movq	%rax, %rbx
	leaq	-424(%rbp), %rdx
	movl	-500(%rbp), %eax
	movq	%rdx, %rsi
	movl	%eax, %edi
	call	_ZSt7toupperIwET_S0_RKSt6locale
	movl	%eax, %esi
	movq	%rbx, %rdi
	call	_ZStlsIwSt11char_traitsIwEERSt13basic_ostreamIT_T0_ES6_S3_
	movl	$.LC65, %esi
	movq	%rax, %rdi
	call	_ZStlsIwSt11char_traitsIwEERSt13basic_ostreamIT_T0_ES6_PKc
	movl	$_ZSt4endlIwSt11char_traitsIwEERSt13basic_ostreamIT_T0_ES6_, %esi
	movq	%rax, %rdi
	call	_ZNSt13basic_ostreamIwSt11char_traitsIwEElsEPFRS2_S3_E
	movq	-488(%rbp), %rax
	movl	$0, 8(%rax)
	leaq	-76(%rbp), %rax
	movl	$0, %esi
	movq	%rax, %rdi
	call	_ZN5boost5logic7triboolC1Eb
	movl	-76(%rbp), %eax
	movl	%eax, -436(%rbp)
	jmp	.L78
.L84:
	leaq	-424(%rbp), %rdx
	movl	-500(%rbp), %eax
	movq	%rdx, %rsi
	movl	%eax, %edi
	call	_ZSt7toupperIwET_S0_RKSt6locale
	cmpl	$83, %eax
	sete	%al
	testb	%al, %al
	je	.L130
	movq	-488(%rbp), %rax
	movl	$13, (%rax)
	leaq	-72(%rbp), %rax
	movl	$_ZN5boost5logic13indeterminateENS0_7triboolENS0_6detail15indeterminate_tE, %esi
	movq	%rax, %rdi
	call	_ZN5boost5logic7triboolC1EPFbS1_NS0_6detail15indeterminate_tEE
	movl	-72(%rbp), %eax
	movl	%eax, -436(%rbp)
	jmp	.L78
.L130:
	movq	-488(%rbp), %rax
	movl	$0, 8(%rax)
	leaq	-68(%rbp), %rax
	movl	$0, %esi
	movq	%rax, %rdi
	call	_ZN5boost5logic7triboolC1Eb
	movl	-68(%rbp), %eax
	movl	%eax, -436(%rbp)
	jmp	.L78
.L83:
	leaq	-424(%rbp), %rdx
	movl	-500(%rbp), %eax
	movq	%rdx, %rsi
	movl	%eax, %edi
	call	_ZSt7toupperIwET_S0_RKSt6locale
	cmpl	$73, %eax
	sete	%al
	testb	%al, %al
	je	.L132
	movq	-488(%rbp), %rax
	movl	$14, (%rax)
	leaq	-64(%rbp), %rax
	movl	$_ZN5boost5logic13indeterminateENS0_7triboolENS0_6detail15indeterminate_tE, %esi
	movq	%rax, %rdi
	call	_ZN5boost5logic7triboolC1EPFbS1_NS0_6detail15indeterminate_tEE
	movl	-64(%rbp), %eax
	movl	%eax, -436(%rbp)
	jmp	.L78
.L132:
	movq	-488(%rbp), %rax
	movl	$0, 8(%rax)
	leaq	-60(%rbp), %rax
	movl	$0, %esi
	movq	%rax, %rdi
	call	_ZN5boost5logic7triboolC1Eb
	movl	-60(%rbp), %eax
	movl	%eax, -436(%rbp)
	jmp	.L78
.L82:
	leaq	-424(%rbp), %rdx
	movl	-500(%rbp), %eax
	movq	%rdx, %rsi
	movl	%eax, %edi
	call	_ZSt7toupperIwET_S0_RKSt6locale
	cmpl	$78, %eax
	sete	%al
	testb	%al, %al
	je	.L134
	movq	-488(%rbp), %rax
	movl	$15, (%rax)
	leaq	-56(%rbp), %rax
	movl	$_ZN5boost5logic13indeterminateENS0_7triboolENS0_6detail15indeterminate_tE, %esi
	movq	%rax, %rdi
	call	_ZN5boost5logic7triboolC1EPFbS1_NS0_6detail15indeterminate_tEE
	movl	-56(%rbp), %eax
	movl	%eax, -436(%rbp)
	jmp	.L78
.L134:
	movq	-488(%rbp), %rax
	movl	$0, 8(%rax)
	leaq	-52(%rbp), %rax
	movl	$0, %esi
	movq	%rax, %rdi
	call	_ZN5boost5logic7triboolC1Eb
	movl	-52(%rbp), %eax
	movl	%eax, -436(%rbp)
	jmp	.L78
.L81:
	leaq	-424(%rbp), %rdx
	movl	-500(%rbp), %eax
	movq	%rdx, %rsi
	movl	%eax, %edi
	call	_ZSt7toupperIwET_S0_RKSt6locale
	cmpl	$71, %eax
	sete	%al
	testb	%al, %al
	je	.L136
	movq	-488(%rbp), %rax
	movl	$16, (%rax)
	leaq	-48(%rbp), %rax
	movl	$_ZN5boost5logic13indeterminateENS0_7triboolENS0_6detail15indeterminate_tE, %esi
	movq	%rax, %rdi
	call	_ZN5boost5logic7triboolC1EPFbS1_NS0_6detail15indeterminate_tEE
	movl	-48(%rbp), %eax
	movl	%eax, -436(%rbp)
	jmp	.L78
.L136:
	movq	-488(%rbp), %rax
	movl	$0, 8(%rax)
	leaq	-44(%rbp), %rax
	movl	$0, %esi
	movq	%rax, %rdi
	call	_ZN5boost5logic7triboolC1Eb
	movl	-44(%rbp), %eax
	movl	%eax, -436(%rbp)
	jmp	.L78
.L79:
	movl	$.LC66, %esi
	movl	$_ZSt4cout, %edi
	call	_ZStlsISt11char_traitsIcEERSt13basic_ostreamIcT_ES5_PKc
	movq	%rax, %rbx
	movq	-488(%rbp), %rax
	movq	-488(%rbp), %rdx
	addq	$1272, %rdx
	movq	%rax, %rsi
	movq	%rdx, %rdi
	call	_ZNSt3mapIN9ReqParser5StateENSt7__cxx1112basic_stringIcSt11char_traitsIcESaIcEEESt4lessIS1_ESaISt4pairIKS1_S7_EEEixERSB_
	movq	%rax, %rsi
	movq	%rbx, %rdi
	call	_ZStlsIcSt11char_traitsIcESaIcEERSt13basic_ostreamIT_T0_ES7_RKNSt7__cxx1112basic_stringIS4_S5_T1_EE
	movl	$.LC33, %esi
	movq	%rax, %rdi
	call	_ZStlsISt11char_traitsIcEERSt13basic_ostreamIcT_ES5_PKc
	movl	$_ZSt4endlIcSt11char_traitsIcEERSt13basic_ostreamIT_T0_ES6_, %esi
	movq	%rax, %rdi
	call	_ZNSolsEPFRSoS_E
	leaq	-424(%rbp), %rdx
	movl	-500(%rbp), %eax
	movq	%rdx, %rsi
	movl	%eax, %edi
	call	_ZSt7isspaceIwEbT_RKSt6locale
	testb	%al, %al
	je	.L138
	movl	$.LC67, %esi
	movl	$_ZSt5wcout, %edi
	call	_ZStlsIwSt11char_traitsIwEERSt13basic_ostreamIT_T0_ES6_PKc
	movq	%rax, %rdx
	movl	-500(%rbp), %eax
	movl	%eax, %esi
	movq	%rdx, %rdi
	call	_ZStlsIwSt11char_traitsIwEERSt13basic_ostreamIT_T0_ES6_S3_
	movl	$.LC68, %esi
	movq	%rax, %rdi
	call	_ZStlsIwSt11char_traitsIwEERSt13basic_ostreamIT_T0_ES6_PKc
	movl	$_ZSt4endlIwSt11char_traitsIwEERSt13basic_ostreamIT_T0_ES6_, %esi
	movq	%rax, %rdi
	call	_ZNSt13basic_ostreamIwSt11char_traitsIwEElsEPFRS2_S3_E
	movq	-488(%rbp), %rax
	movl	4(%rax), %eax
	cmpl	$10, %eax
	je	.L139
	cmpl	$15, %eax
	je	.L140
	jmp	.L141
.L139:
	movq	-496(%rbp), %rax
	movl	$0, %esi
	movq	%rax, %rdi
	call	_ZN7Request10setCommandENS_7CommandE
	jmp	.L141
.L140:
	movq	-496(%rbp), %rax
	movl	$1, %esi
	movq	%rax, %rdi
	call	_ZN7Request10setCommandENS_7CommandE
	nop
.L141:
	movq	-488(%rbp), %rax
	movl	$17, (%rax)
	leaq	-40(%rbp), %rax
	movl	$_ZN5boost5logic13indeterminateENS0_7triboolENS0_6detail15indeterminate_tE, %esi
	movq	%rax, %rdi
	call	_ZN5boost5logic7triboolC1EPFbS1_NS0_6detail15indeterminate_tEE
	movl	-40(%rbp), %eax
	movl	%eax, -436(%rbp)
	jmp	.L164
.L138:
	movq	-488(%rbp), %rax
	movl	$0, 8(%rax)
	leaq	-36(%rbp), %rax
	movl	$0, %esi
	movq	%rax, %rdi
	call	_ZN5boost5logic7triboolC1Eb
	movl	-36(%rbp), %eax
	movl	%eax, -436(%rbp)
	movl	$.LC67, %esi
	movl	$_ZSt5wcout, %edi
	call	_ZStlsIwSt11char_traitsIwEERSt13basic_ostreamIT_T0_ES6_PKc
	movq	%rax, %rdx
	movl	-500(%rbp), %eax
	movl	%eax, %esi
	movq	%rdx, %rdi
	call	_ZStlsIwSt11char_traitsIwEERSt13basic_ostreamIT_T0_ES6_S3_
	movl	$.LC69, %esi
	movq	%rax, %rdi
	call	_ZStlsIwSt11char_traitsIwEERSt13basic_ostreamIT_T0_ES6_PKc
	movl	$_ZSt4endlIwSt11char_traitsIwEERSt13basic_ostreamIT_T0_ES6_, %esi
	movq	%rax, %rdi
	call	_ZNSt13basic_ostreamIwSt11char_traitsIwEElsEPFRS2_S3_E
	movl	$.LC70, %esi
	movq	%rax, %rdi
	call	_ZStlsIwSt11char_traitsIwEERSt13basic_ostreamIT_T0_ES6_PKc
	movq	%rax, %rdx
	movl	-436(%rbp), %eax
	movl	%eax, %esi
	movq	%rdx, %rdi
	call	_ZN5boost5logiclsIwSt11char_traitsIwEEERSt13basic_ostreamIT_T0_ES8_NS0_7triboolE
	movl	$_ZSt4endlIwSt11char_traitsIwEERSt13basic_ostreamIT_T0_ES6_, %esi
	movq	%rax, %rdi
	call	_ZNSt13basic_ostreamIwSt11char_traitsIwEElsEPFRS2_S3_E
.L164:
	nop
.L78:
	movl	$.LC71, %esi
	movl	$_ZSt4cout, %edi
	call	_ZStlsISt11char_traitsIcEERSt13basic_ostreamIcT_ES5_PKc
	movq	%rax, %rbx
	movq	-488(%rbp), %rax
	movq	-488(%rbp), %rdx
	addq	$1272, %rdx
	movq	%rax, %rsi
	movq	%rdx, %rdi
	call	_ZNSt3mapIN9ReqParser5StateENSt7__cxx1112basic_stringIcSt11char_traitsIcESaIcEEESt4lessIS1_ESaISt4pairIKS1_S7_EEEixERSB_
	movq	%rax, %rsi
	movq	%rbx, %rdi
	call	_ZStlsIcSt11char_traitsIcESaIcEERSt13basic_ostreamIT_T0_ES7_RKNSt7__cxx1112basic_stringIS4_S5_T1_EE
	movl	$_ZSt4endlIcSt11char_traitsIcEERSt13basic_ostreamIT_T0_ES6_, %esi
	movq	%rax, %rdi
	call	_ZNSolsEPFRSoS_E
	movl	$.LC70, %esi
	movq	%rax, %rdi
	call	_ZStlsISt11char_traitsIcEERSt13basic_ostreamIcT_ES5_PKc
	movq	%rax, %rdx
	movl	-436(%rbp), %eax
	movl	%eax, %esi
	movq	%rdx, %rdi
	call	_ZN5boost5logiclsIcSt11char_traitsIcEEERSt13basic_ostreamIT_T0_ES8_NS0_7triboolE
	movl	$_ZSt4endlIcSt11char_traitsIcEERSt13basic_ostreamIT_T0_ES6_, %esi
	movq	%rax, %rdi
	call	_ZNSolsEPFRSoS_E
.LEHE28:
	movl	-436(%rbp), %ebx
	leaq	-432(%rbp), %rax
	movq	%rax, %rdi
	call	_ZNSt6localeD1Ev
	leaq	-424(%rbp), %rax
	movq	%rax, %rdi
	call	_ZNSt6localeD1Ev
	movl	%ebx, %eax
	jmp	.L163
.L155:
	movq	%rax, %rbx
	leaq	-416(%rbp), %rax
	movq	%rax, %rdi
	call	_ZNSt7__cxx1112basic_stringIcSt11char_traitsIcESaIcEED1Ev
	jmp	.L145
.L154:
	movq	%rax, %rbx
.L145:
	leaq	-369(%rbp), %rax
	movq	%rax, %rdi
	call	_ZNSaIcED1Ev
	movq	%rbx, %rax
	movq	%rax, %rdi
.LEHB29:
	call	_Unwind_Resume
.L157:
	movq	%rax, %rbx
	leaq	-368(%rbp), %rax
	movq	%rax, %rdi
	call	_ZNSt7__cxx1112basic_stringIcSt11char_traitsIcESaIcEED1Ev
	jmp	.L147
.L156:
	movq	%rax, %rbx
.L147:
	leaq	-321(%rbp), %rax
	movq	%rax, %rdi
	call	_ZNSaIcED1Ev
	jmp	.L148
.L159:
	movq	%rax, %rbx
	leaq	-256(%rbp), %rax
	movq	%rax, %rdi
	call	_ZNSt7__cxx1112basic_stringIcSt11char_traitsIcESaIcEED1Ev
	jmp	.L150
.L160:
	movq	%rax, %rbx
	leaq	-208(%rbp), %rax
	movq	%rax, %rdi
	call	_ZNSt7__cxx1112basic_stringIcSt11char_traitsIcESaIcEED1Ev
	jmp	.L150
.L161:
	movq	%rax, %rbx
	leaq	-160(%rbp), %rax
	movq	%rax, %rdi
	call	_ZNSt7__cxx1112basic_stringIcSt11char_traitsIcESaIcEED1Ev
	jmp	.L150
.L162:
	movq	%rax, %rbx
	leaq	-480(%rbp), %rax
	movq	%rax, %rdi
	call	_ZNSt7__cxx1112basic_stringIwSt11char_traitsIwESaIwEED1Ev
	jmp	.L150
.L158:
	movq	%rax, %rbx
.L150:
	leaq	-432(%rbp), %rax
	movq	%rax, %rdi
	call	_ZNSt6localeD1Ev
.L148:
	leaq	-424(%rbp), %rax
	movq	%rax, %rdi
	call	_ZNSt6localeD1Ev
	movq	%rbx, %rax
	movq	%rax, %rdi
	call	_Unwind_Resume
.LEHE29:
.L163:
	addq	$496, %rsp
	popq	%rbx
	popq	%r12
	popq	%rbp
	.cfi_def_cfa 7, 8
	ret
	.cfi_endproc
.LFE6139:
	.section	.gcc_except_table
.LLSDA6139:
	.byte	0xff
	.byte	0xff
	.byte	0x1
	.uleb128 .LLSDACSE6139-.LLSDACSB6139
.LLSDACSB6139:
	.uleb128 .LEHB16-.LFB6139
	.uleb128 .LEHE16-.LEHB16
	.uleb128 .L154-.LFB6139
	.uleb128 0
	.uleb128 .LEHB17-.LFB6139
	.uleb128 .LEHE17-.LEHB17
	.uleb128 .L155-.LFB6139
	.uleb128 0
	.uleb128 .LEHB18-.LFB6139
	.uleb128 .LEHE18-.LEHB18
	.uleb128 .L156-.LFB6139
	.uleb128 0
	.uleb128 .LEHB19-.LFB6139
	.uleb128 .LEHE19-.LEHB19
	.uleb128 .L157-.LFB6139
	.uleb128 0
	.uleb128 .LEHB20-.LFB6139
	.uleb128 .LEHE20-.LEHB20
	.uleb128 .L158-.LFB6139
	.uleb128 0
	.uleb128 .LEHB21-.LFB6139
	.uleb128 .LEHE21-.LEHB21
	.uleb128 .L159-.LFB6139
	.uleb128 0
	.uleb128 .LEHB22-.LFB6139
	.uleb128 .LEHE22-.LEHB22
	.uleb128 .L158-.LFB6139
	.uleb128 0
	.uleb128 .LEHB23-.LFB6139
	.uleb128 .LEHE23-.LEHB23
	.uleb128 .L160-.LFB6139
	.uleb128 0
	.uleb128 .LEHB24-.LFB6139
	.uleb128 .LEHE24-.LEHB24
	.uleb128 .L158-.LFB6139
	.uleb128 0
	.uleb128 .LEHB25-.LFB6139
	.uleb128 .LEHE25-.LEHB25
	.uleb128 .L161-.LFB6139
	.uleb128 0
	.uleb128 .LEHB26-.LFB6139
	.uleb128 .LEHE26-.LEHB26
	.uleb128 .L158-.LFB6139
	.uleb128 0
	.uleb128 .LEHB27-.LFB6139
	.uleb128 .LEHE27-.LEHB27
	.uleb128 .L162-.LFB6139
	.uleb128 0
	.uleb128 .LEHB28-.LFB6139
	.uleb128 .LEHE28-.LEHB28
	.uleb128 .L158-.LFB6139
	.uleb128 0
	.uleb128 .LEHB29-.LFB6139
	.uleb128 .LEHE29-.LEHB29
	.uleb128 0
	.uleb128 0
.LLSDACSE6139:
	.text
	.size	_ZN9ReqParser7consumeER7Requestw, .-_ZN9ReqParser7consumeER7Requestw
	.align 2
	.globl	_ZNK9ReqParser15getFailedReasonEv
	.type	_ZNK9ReqParser15getFailedReasonEv, @function
_ZNK9ReqParser15getFailedReasonEv:
.LFB6141:
	.cfi_startproc
	pushq	%rbp
	.cfi_def_cfa_offset 16
	.cfi_offset 6, -16
	movq	%rsp, %rbp
	.cfi_def_cfa_register 6
	movq	%rdi, -8(%rbp)
	movq	-8(%rbp), %rax
	movl	8(%rax), %eax
	popq	%rbp
	.cfi_def_cfa 7, 8
	ret
	.cfi_endproc
.LFE6141:
	.size	_ZNK9ReqParser15getFailedReasonEv, .-_ZNK9ReqParser15getFailedReasonEv
	.section	.text._ZNSt8_Rb_treeIN9ReqParser5StateESt4pairIKS1_NSt7__cxx1112basic_stringIcSt11char_traitsIcESaIcEEEESt10_Select1stISA_ESt4lessIS1_ESaISA_EE13_Rb_tree_implISE_Lb1EEC2Ev,"axG",@progbits,_ZNSt8_Rb_treeIN9ReqParser5StateESt4pairIKS1_NSt7__cxx1112basic_stringIcSt11char_traitsIcESaIcEEEESt10_Select1stISA_ESt4lessIS1_ESaISA_EE13_Rb_tree_implISE_Lb1EEC5Ev,comdat
	.align 2
	.weak	_ZNSt8_Rb_treeIN9ReqParser5StateESt4pairIKS1_NSt7__cxx1112basic_stringIcSt11char_traitsIcESaIcEEEESt10_Select1stISA_ESt4lessIS1_ESaISA_EE13_Rb_tree_implISE_Lb1EEC2Ev
	.type	_ZNSt8_Rb_treeIN9ReqParser5StateESt4pairIKS1_NSt7__cxx1112basic_stringIcSt11char_traitsIcESaIcEEEESt10_Select1stISA_ESt4lessIS1_ESaISA_EE13_Rb_tree_implISE_Lb1EEC2Ev, @function
_ZNSt8_Rb_treeIN9ReqParser5StateESt4pairIKS1_NSt7__cxx1112basic_stringIcSt11char_traitsIcESaIcEEEESt10_Select1stISA_ESt4lessIS1_ESaISA_EE13_Rb_tree_implISE_Lb1EEC2Ev:
.LFB6572:
	.cfi_startproc
	pushq	%rbp
	.cfi_def_cfa_offset 16
	.cfi_offset 6, -16
	movq	%rsp, %rbp
	.cfi_def_cfa_register 6
	subq	$16, %rsp
	movq	%rdi, -8(%rbp)
	movq	-8(%rbp), %rax
	movq	%rax, %rdi
	call	_ZNSaISt13_Rb_tree_nodeISt4pairIKN9ReqParser5StateENSt7__cxx1112basic_stringIcSt11char_traitsIcESaIcEEEEEEC2Ev
	movq	-8(%rbp), %rax
	movq	%rax, %rdi
	call	_ZNSt20_Rb_tree_key_compareISt4lessIN9ReqParser5StateEEEC2Ev
	movq	-8(%rbp), %rax
	addq	$8, %rax
	movq	%rax, %rdi
	call	_ZNSt15_Rb_tree_headerC2Ev
	nop
	leave
	.cfi_def_cfa 7, 8
	ret
	.cfi_endproc
.LFE6572:
	.size	_ZNSt8_Rb_treeIN9ReqParser5StateESt4pairIKS1_NSt7__cxx1112basic_stringIcSt11char_traitsIcESaIcEEEESt10_Select1stISA_ESt4lessIS1_ESaISA_EE13_Rb_tree_implISE_Lb1EEC2Ev, .-_ZNSt8_Rb_treeIN9ReqParser5StateESt4pairIKS1_NSt7__cxx1112basic_stringIcSt11char_traitsIcESaIcEEEESt10_Select1stISA_ESt4lessIS1_ESaISA_EE13_Rb_tree_implISE_Lb1EEC2Ev
	.weak	_ZNSt8_Rb_treeIN9ReqParser5StateESt4pairIKS1_NSt7__cxx1112basic_stringIcSt11char_traitsIcESaIcEEEESt10_Select1stISA_ESt4lessIS1_ESaISA_EE13_Rb_tree_implISE_Lb1EEC1Ev
	.set	_ZNSt8_Rb_treeIN9ReqParser5StateESt4pairIKS1_NSt7__cxx1112basic_stringIcSt11char_traitsIcESaIcEEEESt10_Select1stISA_ESt4lessIS1_ESaISA_EE13_Rb_tree_implISE_Lb1EEC1Ev,_ZNSt8_Rb_treeIN9ReqParser5StateESt4pairIKS1_NSt7__cxx1112basic_stringIcSt11char_traitsIcESaIcEEEESt10_Select1stISA_ESt4lessIS1_ESaISA_EE13_Rb_tree_implISE_Lb1EEC2Ev
	.section	.text._ZNSaISt13_Rb_tree_nodeISt4pairIKN9ReqParser5StateENSt7__cxx1112basic_stringIcSt11char_traitsIcESaIcEEEEEED2Ev,"axG",@progbits,_ZNSaISt13_Rb_tree_nodeISt4pairIKN9ReqParser5StateENSt7__cxx1112basic_stringIcSt11char_traitsIcESaIcEEEEEED5Ev,comdat
	.align 2
	.weak	_ZNSaISt13_Rb_tree_nodeISt4pairIKN9ReqParser5StateENSt7__cxx1112basic_stringIcSt11char_traitsIcESaIcEEEEEED2Ev
	.type	_ZNSaISt13_Rb_tree_nodeISt4pairIKN9ReqParser5StateENSt7__cxx1112basic_stringIcSt11char_traitsIcESaIcEEEEEED2Ev, @function
_ZNSaISt13_Rb_tree_nodeISt4pairIKN9ReqParser5StateENSt7__cxx1112basic_stringIcSt11char_traitsIcESaIcEEEEEED2Ev:
.LFB6575:
	.cfi_startproc
	pushq	%rbp
	.cfi_def_cfa_offset 16
	.cfi_offset 6, -16
	movq	%rsp, %rbp
	.cfi_def_cfa_register 6
	subq	$16, %rsp
	movq	%rdi, -8(%rbp)
	movq	-8(%rbp), %rax
	movq	%rax, %rdi
	call	_ZN9__gnu_cxx13new_allocatorISt13_Rb_tree_nodeISt4pairIKN9ReqParser5StateENSt7__cxx1112basic_stringIcSt11char_traitsIcESaIcEEEEEED2Ev
	nop
	leave
	.cfi_def_cfa 7, 8
	ret
	.cfi_endproc
.LFE6575:
	.size	_ZNSaISt13_Rb_tree_nodeISt4pairIKN9ReqParser5StateENSt7__cxx1112basic_stringIcSt11char_traitsIcESaIcEEEEEED2Ev, .-_ZNSaISt13_Rb_tree_nodeISt4pairIKN9ReqParser5StateENSt7__cxx1112basic_stringIcSt11char_traitsIcESaIcEEEEEED2Ev
	.weak	_ZNSaISt13_Rb_tree_nodeISt4pairIKN9ReqParser5StateENSt7__cxx1112basic_stringIcSt11char_traitsIcESaIcEEEEEED1Ev
	.set	_ZNSaISt13_Rb_tree_nodeISt4pairIKN9ReqParser5StateENSt7__cxx1112basic_stringIcSt11char_traitsIcESaIcEEEEEED1Ev,_ZNSaISt13_Rb_tree_nodeISt4pairIKN9ReqParser5StateENSt7__cxx1112basic_stringIcSt11char_traitsIcESaIcEEEEEED2Ev
	.section	.text._ZNSt8_Rb_treeIN9ReqParser5StateESt4pairIKS1_NSt7__cxx1112basic_stringIcSt11char_traitsIcESaIcEEEESt10_Select1stISA_ESt4lessIS1_ESaISA_EED2Ev,"axG",@progbits,_ZNSt8_Rb_treeIN9ReqParser5StateESt4pairIKS1_NSt7__cxx1112basic_stringIcSt11char_traitsIcESaIcEEEESt10_Select1stISA_ESt4lessIS1_ESaISA_EED5Ev,comdat
	.align 2
	.weak	_ZNSt8_Rb_treeIN9ReqParser5StateESt4pairIKS1_NSt7__cxx1112basic_stringIcSt11char_traitsIcESaIcEEEESt10_Select1stISA_ESt4lessIS1_ESaISA_EED2Ev
	.type	_ZNSt8_Rb_treeIN9ReqParser5StateESt4pairIKS1_NSt7__cxx1112basic_stringIcSt11char_traitsIcESaIcEEEESt10_Select1stISA_ESt4lessIS1_ESaISA_EED2Ev, @function
_ZNSt8_Rb_treeIN9ReqParser5StateESt4pairIKS1_NSt7__cxx1112basic_stringIcSt11char_traitsIcESaIcEEEESt10_Select1stISA_ESt4lessIS1_ESaISA_EED2Ev:
.LFB6578:
	.cfi_startproc
	.cfi_personality 0x3,__gxx_personality_v0
	.cfi_lsda 0x3,.LLSDA6578
	pushq	%rbp
	.cfi_def_cfa_offset 16
	.cfi_offset 6, -16
	movq	%rsp, %rbp
	.cfi_def_cfa_register 6
	subq	$16, %rsp
	movq	%rdi, -8(%rbp)
	movq	-8(%rbp), %rax
	movq	%rax, %rdi
	call	_ZNSt8_Rb_treeIN9ReqParser5StateESt4pairIKS1_NSt7__cxx1112basic_stringIcSt11char_traitsIcESaIcEEEESt10_Select1stISA_ESt4lessIS1_ESaISA_EE8_M_beginEv
	movq	%rax, %rdx
	movq	-8(%rbp), %rax
	movq	%rdx, %rsi
	movq	%rax, %rdi
	call	_ZNSt8_Rb_treeIN9ReqParser5StateESt4pairIKS1_NSt7__cxx1112basic_stringIcSt11char_traitsIcESaIcEEEESt10_Select1stISA_ESt4lessIS1_ESaISA_EE8_M_eraseEPSt13_Rb_tree_nodeISA_E
	movq	-8(%rbp), %rax
	movq	%rax, %rdi
	call	_ZNSt8_Rb_treeIN9ReqParser5StateESt4pairIKS1_NSt7__cxx1112basic_stringIcSt11char_traitsIcESaIcEEEESt10_Select1stISA_ESt4lessIS1_ESaISA_EE13_Rb_tree_implISE_Lb1EED1Ev
	nop
	leave
	.cfi_def_cfa 7, 8
	ret
	.cfi_endproc
.LFE6578:
	.section	.gcc_except_table
.LLSDA6578:
	.byte	0xff
	.byte	0xff
	.byte	0x1
	.uleb128 .LLSDACSE6578-.LLSDACSB6578
.LLSDACSB6578:
.LLSDACSE6578:
	.section	.text._ZNSt8_Rb_treeIN9ReqParser5StateESt4pairIKS1_NSt7__cxx1112basic_stringIcSt11char_traitsIcESaIcEEEESt10_Select1stISA_ESt4lessIS1_ESaISA_EED2Ev,"axG",@progbits,_ZNSt8_Rb_treeIN9ReqParser5StateESt4pairIKS1_NSt7__cxx1112basic_stringIcSt11char_traitsIcESaIcEEEESt10_Select1stISA_ESt4lessIS1_ESaISA_EED5Ev,comdat
	.size	_ZNSt8_Rb_treeIN9ReqParser5StateESt4pairIKS1_NSt7__cxx1112basic_stringIcSt11char_traitsIcESaIcEEEESt10_Select1stISA_ESt4lessIS1_ESaISA_EED2Ev, .-_ZNSt8_Rb_treeIN9ReqParser5StateESt4pairIKS1_NSt7__cxx1112basic_stringIcSt11char_traitsIcESaIcEEEESt10_Select1stISA_ESt4lessIS1_ESaISA_EED2Ev
	.weak	_ZNSt8_Rb_treeIN9ReqParser5StateESt4pairIKS1_NSt7__cxx1112basic_stringIcSt11char_traitsIcESaIcEEEESt10_Select1stISA_ESt4lessIS1_ESaISA_EED1Ev
	.set	_ZNSt8_Rb_treeIN9ReqParser5StateESt4pairIKS1_NSt7__cxx1112basic_stringIcSt11char_traitsIcESaIcEEEESt10_Select1stISA_ESt4lessIS1_ESaISA_EED1Ev,_ZNSt8_Rb_treeIN9ReqParser5StateESt4pairIKS1_NSt7__cxx1112basic_stringIcSt11char_traitsIcESaIcEEEESt10_Select1stISA_ESt4lessIS1_ESaISA_EED2Ev
	.section	.text._ZNSt3mapIN9ReqParser5StateENSt7__cxx1112basic_stringIcSt11char_traitsIcESaIcEEESt4lessIS1_ESaISt4pairIKS1_S7_EEEixEOS1_,"axG",@progbits,_ZNSt3mapIN9ReqParser5StateENSt7__cxx1112basic_stringIcSt11char_traitsIcESaIcEEESt4lessIS1_ESaISt4pairIKS1_S7_EEEixEOS1_,comdat
	.align 2
	.weak	_ZNSt3mapIN9ReqParser5StateENSt7__cxx1112basic_stringIcSt11char_traitsIcESaIcEEESt4lessIS1_ESaISt4pairIKS1_S7_EEEixEOS1_
	.type	_ZNSt3mapIN9ReqParser5StateENSt7__cxx1112basic_stringIcSt11char_traitsIcESaIcEEESt4lessIS1_ESaISt4pairIKS1_S7_EEEixEOS1_, @function
_ZNSt3mapIN9ReqParser5StateENSt7__cxx1112basic_stringIcSt11char_traitsIcESaIcEEESt4lessIS1_ESaISt4pairIKS1_S7_EEEixEOS1_:
.LFB6580:
	.cfi_startproc
	pushq	%rbp
	.cfi_def_cfa_offset 16
	.cfi_offset 6, -16
	movq	%rsp, %rbp
	.cfi_def_cfa_register 6
	pushq	%rbx
	subq	$72, %rsp
	.cfi_offset 3, -24
	movq	%rdi, -72(%rbp)
	movq	%rsi, -80(%rbp)
	movq	-80(%rbp), %rdx
	movq	-72(%rbp), %rax
	movq	%rdx, %rsi
	movq	%rax, %rdi
	call	_ZNSt3mapIN9ReqParser5StateENSt7__cxx1112basic_stringIcSt11char_traitsIcESaIcEEESt4lessIS1_ESaISt4pairIKS1_S7_EEE11lower_boundERSB_
	movq	%rax, -56(%rbp)
	movq	-72(%rbp), %rax
	movq	%rax, %rdi
	call	_ZNSt3mapIN9ReqParser5StateENSt7__cxx1112basic_stringIcSt11char_traitsIcESaIcEEESt4lessIS1_ESaISt4pairIKS1_S7_EEE3endEv
	movq	%rax, -48(%rbp)
	leaq	-48(%rbp), %rdx
	leaq	-56(%rbp), %rax
	movq	%rdx, %rsi
	movq	%rax, %rdi
	call	_ZNKSt17_Rb_tree_iteratorISt4pairIKN9ReqParser5StateENSt7__cxx1112basic_stringIcSt11char_traitsIcESaIcEEEEEeqERKSB_
	testb	%al, %al
	jne	.L171
	movq	-72(%rbp), %rax
	movq	%rax, %rdi
	call	_ZNKSt3mapIN9ReqParser5StateENSt7__cxx1112basic_stringIcSt11char_traitsIcESaIcEEESt4lessIS1_ESaISt4pairIKS1_S7_EEE8key_compEv
	leaq	-56(%rbp), %rax
	movq	%rax, %rdi
	call	_ZNKSt17_Rb_tree_iteratorISt4pairIKN9ReqParser5StateENSt7__cxx1112basic_stringIcSt11char_traitsIcESaIcEEEEEdeEv
	movq	%rax, %rdx
	movq	-80(%rbp), %rcx
	leaq	-34(%rbp), %rax
	movq	%rcx, %rsi
	movq	%rax, %rdi
	call	_ZNKSt4lessIN9ReqParser5StateEEclERKS1_S4_
	testb	%al, %al
	je	.L172
.L171:
	movl	$1, %eax
	jmp	.L173
.L172:
	movl	$0, %eax
.L173:
	testb	%al, %al
	je	.L174
	movq	-72(%rbp), %rbx
	movq	-80(%rbp), %rax
	movq	%rax, %rdi
	call	_ZSt4moveIRN9ReqParser5StateEEONSt16remove_referenceIT_E4typeEOS4_
	movq	%rax, %rdx
	leaq	-32(%rbp), %rax
	movq	%rdx, %rsi
	movq	%rax, %rdi
	call	_ZSt16forward_as_tupleIJN9ReqParser5StateEEESt5tupleIJDpOT_EES5_
	leaq	-56(%rbp), %rdx
	leaq	-24(%rbp), %rax
	movq	%rdx, %rsi
	movq	%rax, %rdi
	call	_ZNSt23_Rb_tree_const_iteratorISt4pairIKN9ReqParser5StateENSt7__cxx1112basic_stringIcSt11char_traitsIcESaIcEEEEEC1ERKSt17_Rb_tree_iteratorISA_E
	leaq	-33(%rbp), %rcx
	leaq	-32(%rbp), %rdx
	movq	-24(%rbp), %rax
	movq	%rcx, %r8
	movq	%rdx, %rcx
	movl	$_ZStL19piecewise_construct, %edx
	movq	%rax, %rsi
	movq	%rbx, %rdi
	call	_ZNSt8_Rb_treeIN9ReqParser5StateESt4pairIKS1_NSt7__cxx1112basic_stringIcSt11char_traitsIcESaIcEEEESt10_Select1stISA_ESt4lessIS1_ESaISA_EE22_M_emplace_hint_uniqueIJRKSt21piecewise_construct_tSt5tupleIJOS1_EESL_IJEEEEESt17_Rb_tree_iteratorISA_ESt23_Rb_tree_const_iteratorISA_EDpOT_
	movq	%rax, -56(%rbp)
.L174:
	leaq	-56(%rbp), %rax
	movq	%rax, %rdi
	call	_ZNKSt17_Rb_tree_iteratorISt4pairIKN9ReqParser5StateENSt7__cxx1112basic_stringIcSt11char_traitsIcESaIcEEEEEdeEv
	addq	$8, %rax
	addq	$72, %rsp
	popq	%rbx
	popq	%rbp
	.cfi_def_cfa 7, 8
	ret
	.cfi_endproc
.LFE6580:
	.size	_ZNSt3mapIN9ReqParser5StateENSt7__cxx1112basic_stringIcSt11char_traitsIcESaIcEEESt4lessIS1_ESaISt4pairIKS1_S7_EEEixEOS1_, .-_ZNSt3mapIN9ReqParser5StateENSt7__cxx1112basic_stringIcSt11char_traitsIcESaIcEEESt4lessIS1_ESaISt4pairIKS1_S7_EEEixEOS1_
	.section	.text._ZNSt3mapIN9ReqParser5StateENSt7__cxx1112basic_stringIcSt11char_traitsIcESaIcEEESt4lessIS1_ESaISt4pairIKS1_S7_EEEixERSB_,"axG",@progbits,_ZNSt3mapIN9ReqParser5StateENSt7__cxx1112basic_stringIcSt11char_traitsIcESaIcEEESt4lessIS1_ESaISt4pairIKS1_S7_EEEixERSB_,comdat
	.align 2
	.weak	_ZNSt3mapIN9ReqParser5StateENSt7__cxx1112basic_stringIcSt11char_traitsIcESaIcEEESt4lessIS1_ESaISt4pairIKS1_S7_EEEixERSB_
	.type	_ZNSt3mapIN9ReqParser5StateENSt7__cxx1112basic_stringIcSt11char_traitsIcESaIcEEESt4lessIS1_ESaISt4pairIKS1_S7_EEEixERSB_, @function
_ZNSt3mapIN9ReqParser5StateENSt7__cxx1112basic_stringIcSt11char_traitsIcESaIcEEESt4lessIS1_ESaISt4pairIKS1_S7_EEEixERSB_:
.LFB6582:
	.cfi_startproc
	pushq	%rbp
	.cfi_def_cfa_offset 16
	.cfi_offset 6, -16
	movq	%rsp, %rbp
	.cfi_def_cfa_register 6
	pushq	%rbx
	subq	$72, %rsp
	.cfi_offset 3, -24
	movq	%rdi, -72(%rbp)
	movq	%rsi, -80(%rbp)
	movq	-80(%rbp), %rdx
	movq	-72(%rbp), %rax
	movq	%rdx, %rsi
	movq	%rax, %rdi
	call	_ZNSt3mapIN9ReqParser5StateENSt7__cxx1112basic_stringIcSt11char_traitsIcESaIcEEESt4lessIS1_ESaISt4pairIKS1_S7_EEE11lower_boundERSB_
	movq	%rax, -56(%rbp)
	movq	-72(%rbp), %rax
	movq	%rax, %rdi
	call	_ZNSt3mapIN9ReqParser5StateENSt7__cxx1112basic_stringIcSt11char_traitsIcESaIcEEESt4lessIS1_ESaISt4pairIKS1_S7_EEE3endEv
	movq	%rax, -48(%rbp)
	leaq	-48(%rbp), %rdx
	leaq	-56(%rbp), %rax
	movq	%rdx, %rsi
	movq	%rax, %rdi
	call	_ZNKSt17_Rb_tree_iteratorISt4pairIKN9ReqParser5StateENSt7__cxx1112basic_stringIcSt11char_traitsIcESaIcEEEEEeqERKSB_
	testb	%al, %al
	jne	.L177
	movq	-72(%rbp), %rax
	movq	%rax, %rdi
	call	_ZNKSt3mapIN9ReqParser5StateENSt7__cxx1112basic_stringIcSt11char_traitsIcESaIcEEESt4lessIS1_ESaISt4pairIKS1_S7_EEE8key_compEv
	leaq	-56(%rbp), %rax
	movq	%rax, %rdi
	call	_ZNKSt17_Rb_tree_iteratorISt4pairIKN9ReqParser5StateENSt7__cxx1112basic_stringIcSt11char_traitsIcESaIcEEEEEdeEv
	movq	%rax, %rdx
	movq	-80(%rbp), %rcx
	leaq	-34(%rbp), %rax
	movq	%rcx, %rsi
	movq	%rax, %rdi
	call	_ZNKSt4lessIN9ReqParser5StateEEclERKS1_S4_
	testb	%al, %al
	je	.L178
.L177:
	movl	$1, %eax
	jmp	.L179
.L178:
	movl	$0, %eax
.L179:
	testb	%al, %al
	je	.L180
	movq	-72(%rbp), %rbx
	movq	-80(%rbp), %rdx
	leaq	-32(%rbp), %rax
	movq	%rdx, %rsi
	movq	%rax, %rdi
	call	_ZNSt5tupleIJRKN9ReqParser5StateEEEC1IvLb1EEES3_
	leaq	-56(%rbp), %rdx
	leaq	-24(%rbp), %rax
	movq	%rdx, %rsi
	movq	%rax, %rdi
	call	_ZNSt23_Rb_tree_const_iteratorISt4pairIKN9ReqParser5StateENSt7__cxx1112basic_stringIcSt11char_traitsIcESaIcEEEEEC1ERKSt17_Rb_tree_iteratorISA_E
	leaq	-33(%rbp), %rcx
	leaq	-32(%rbp), %rdx
	movq	-24(%rbp), %rax
	movq	%rcx, %r8
	movq	%rdx, %rcx
	movl	$_ZStL19piecewise_construct, %edx
	movq	%rax, %rsi
	movq	%rbx, %rdi
	call	_ZNSt8_Rb_treeIN9ReqParser5StateESt4pairIKS1_NSt7__cxx1112basic_stringIcSt11char_traitsIcESaIcEEEESt10_Select1stISA_ESt4lessIS1_ESaISA_EE22_M_emplace_hint_uniqueIJRKSt21piecewise_construct_tSt5tupleIJRS3_EESL_IJEEEEESt17_Rb_tree_iteratorISA_ESt23_Rb_tree_const_iteratorISA_EDpOT_
	movq	%rax, -56(%rbp)
.L180:
	leaq	-56(%rbp), %rax
	movq	%rax, %rdi
	call	_ZNKSt17_Rb_tree_iteratorISt4pairIKN9ReqParser5StateENSt7__cxx1112basic_stringIcSt11char_traitsIcESaIcEEEEEdeEv
	addq	$8, %rax
	addq	$72, %rsp
	popq	%rbx
	popq	%rbp
	.cfi_def_cfa 7, 8
	ret
	.cfi_endproc
.LFE6582:
	.size	_ZNSt3mapIN9ReqParser5StateENSt7__cxx1112basic_stringIcSt11char_traitsIcESaIcEEESt4lessIS1_ESaISt4pairIKS1_S7_EEEixERSB_, .-_ZNSt3mapIN9ReqParser5StateENSt7__cxx1112basic_stringIcSt11char_traitsIcESaIcEEESt4lessIS1_ESaISt4pairIKS1_S7_EEEixERSB_
	.section	.rodata
	.align 8
.LC72:
	.string	"array::at: __n (which is %zu) >= _Nm (which is %zu)"
	.section	.text._ZNKSt5arrayIsLm3EE2atEm,"axG",@progbits,_ZNKSt5arrayIsLm3EE2atEm,comdat
	.align 2
	.weak	_ZNKSt5arrayIsLm3EE2atEm
	.type	_ZNKSt5arrayIsLm3EE2atEm, @function
_ZNKSt5arrayIsLm3EE2atEm:
.LFB6591:
	.cfi_startproc
	pushq	%rbp
	.cfi_def_cfa_offset 16
	.cfi_offset 6, -16
	movq	%rsp, %rbp
	.cfi_def_cfa_register 6
	subq	$16, %rsp
	movq	%rdi, -8(%rbp)
	movq	%rsi, -16(%rbp)
	cmpq	$2, -16(%rbp)
	ja	.L183
	movq	-8(%rbp), %rax
	movq	-16(%rbp), %rdx
	movq	%rdx, %rsi
	movq	%rax, %rdi
	call	_ZNSt14__array_traitsIsLm3EE6_S_refERA3_Ksm
	jmp	.L186
.L183:
	movq	-16(%rbp), %rax
	movl	$3, %edx
	movq	%rax, %rsi
	movl	$.LC72, %edi
	movl	$0, %eax
	call	_ZSt24__throw_out_of_range_fmtPKcz
.L186:
	leave
	.cfi_def_cfa 7, 8
	ret
	.cfi_endproc
.LFE6591:
	.size	_ZNKSt5arrayIsLm3EE2atEm, .-_ZNKSt5arrayIsLm3EE2atEm
	.section	.text._ZNKSt5arrayINSt7__cxx1112basic_stringIwSt11char_traitsIwESaIwEEELm2EE6cbeginEv,"axG",@progbits,_ZNKSt5arrayINSt7__cxx1112basic_stringIwSt11char_traitsIwESaIwEEELm2EE6cbeginEv,comdat
	.align 2
	.weak	_ZNKSt5arrayINSt7__cxx1112basic_stringIwSt11char_traitsIwESaIwEEELm2EE6cbeginEv
	.type	_ZNKSt5arrayINSt7__cxx1112basic_stringIwSt11char_traitsIwESaIwEEELm2EE6cbeginEv, @function
_ZNKSt5arrayINSt7__cxx1112basic_stringIwSt11char_traitsIwESaIwEEELm2EE6cbeginEv:
.LFB6592:
	.cfi_startproc
	pushq	%rbp
	.cfi_def_cfa_offset 16
	.cfi_offset 6, -16
	movq	%rsp, %rbp
	.cfi_def_cfa_register 6
	subq	$16, %rsp
	movq	%rdi, -8(%rbp)
	movq	-8(%rbp), %rax
	movq	%rax, %rdi
	call	_ZNKSt5arrayINSt7__cxx1112basic_stringIwSt11char_traitsIwESaIwEEELm2EE4dataEv
	leave
	.cfi_def_cfa 7, 8
	ret
	.cfi_endproc
.LFE6592:
	.size	_ZNKSt5arrayINSt7__cxx1112basic_stringIwSt11char_traitsIwESaIwEEELm2EE6cbeginEv, .-_ZNKSt5arrayINSt7__cxx1112basic_stringIwSt11char_traitsIwESaIwEEELm2EE6cbeginEv
	.section	.text._ZNKSt5arrayINSt7__cxx1112basic_stringIwSt11char_traitsIwESaIwEEELm2EE4cendEv,"axG",@progbits,_ZNKSt5arrayINSt7__cxx1112basic_stringIwSt11char_traitsIwESaIwEEELm2EE4cendEv,comdat
	.align 2
	.weak	_ZNKSt5arrayINSt7__cxx1112basic_stringIwSt11char_traitsIwESaIwEEELm2EE4cendEv
	.type	_ZNKSt5arrayINSt7__cxx1112basic_stringIwSt11char_traitsIwESaIwEEELm2EE4cendEv, @function
_ZNKSt5arrayINSt7__cxx1112basic_stringIwSt11char_traitsIwESaIwEEELm2EE4cendEv:
.LFB6593:
	.cfi_startproc
	pushq	%rbp
	.cfi_def_cfa_offset 16
	.cfi_offset 6, -16
	movq	%rsp, %rbp
	.cfi_def_cfa_register 6
	subq	$16, %rsp
	movq	%rdi, -8(%rbp)
	movq	-8(%rbp), %rax
	movq	%rax, %rdi
	call	_ZNKSt5arrayINSt7__cxx1112basic_stringIwSt11char_traitsIwESaIwEEELm2EE4dataEv
	addq	$64, %rax
	leave
	.cfi_def_cfa 7, 8
	ret
	.cfi_endproc
.LFE6593:
	.size	_ZNKSt5arrayINSt7__cxx1112basic_stringIwSt11char_traitsIwESaIwEEELm2EE4cendEv, .-_ZNKSt5arrayINSt7__cxx1112basic_stringIwSt11char_traitsIwESaIwEEELm2EE4cendEv
	.text
	.type	_ZSt8for_eachIPKNSt7__cxx1112basic_stringIwSt11char_traitsIwESaIwEEEZN9ReqParserC4EvEUlS5_E_ET0_T_SB_SA_, @function
_ZSt8for_eachIPKNSt7__cxx1112basic_stringIwSt11char_traitsIwESaIwEEEZN9ReqParserC4EvEUlS5_E_ET0_T_SB_SA_:
.LFB6596:
	.cfi_startproc
	.cfi_personality 0x3,__gxx_personality_v0
	.cfi_lsda 0x3,.LLSDA6596
	pushq	%rbp
	.cfi_def_cfa_offset 16
	.cfi_offset 6, -16
	movq	%rsp, %rbp
	.cfi_def_cfa_register 6
	pushq	%rbx
	subq	$56, %rsp
	.cfi_offset 3, -24
	movq	%rdi, -56(%rbp)
	movq	%rsi, -64(%rbp)
.L193:
	movq	-56(%rbp), %rax
	cmpq	-64(%rbp), %rax
	je	.L194
	movq	-56(%rbp), %rdx
	leaq	-48(%rbp), %rax
	movq	%rdx, %rsi
	movq	%rax, %rdi
.LEHB30:
	call	_ZNSt7__cxx1112basic_stringIwSt11char_traitsIwESaIwEEC1ERKS4_
.LEHE30:
	leaq	-48(%rbp), %rax
	movq	%rax, %rsi
	leaq	16(%rbp), %rdi
.LEHB31:
	call	_ZZN9ReqParserC4EvENKUlNSt7__cxx1112basic_stringIwSt11char_traitsIwESaIwEEEE_clES5_
.LEHE31:
	leaq	-48(%rbp), %rax
	movq	%rax, %rdi
	call	_ZNSt7__cxx1112basic_stringIwSt11char_traitsIwESaIwEED1Ev
	addq	$32, -56(%rbp)
	jmp	.L193
.L194:
	movl	%ebx, %eax
	jmp	.L197
.L196:
	movq	%rax, %rbx
	leaq	-48(%rbp), %rax
	movq	%rax, %rdi
	call	_ZNSt7__cxx1112basic_stringIwSt11char_traitsIwESaIwEED1Ev
	movq	%rbx, %rax
	movq	%rax, %rdi
.LEHB32:
	call	_Unwind_Resume
.LEHE32:
.L197:
	addq	$56, %rsp
	popq	%rbx
	popq	%rbp
	.cfi_def_cfa 7, 8
	ret
	.cfi_endproc
.LFE6596:
	.section	.gcc_except_table
.LLSDA6596:
	.byte	0xff
	.byte	0xff
	.byte	0x1
	.uleb128 .LLSDACSE6596-.LLSDACSB6596
.LLSDACSB6596:
	.uleb128 .LEHB30-.LFB6596
	.uleb128 .LEHE30-.LEHB30
	.uleb128 0
	.uleb128 0
	.uleb128 .LEHB31-.LFB6596
	.uleb128 .LEHE31-.LEHB31
	.uleb128 .L196-.LFB6596
	.uleb128 0
	.uleb128 .LEHB32-.LFB6596
	.uleb128 .LEHE32-.LEHB32
	.uleb128 0
	.uleb128 0
.LLSDACSE6596:
	.text
	.size	_ZSt8for_eachIPKNSt7__cxx1112basic_stringIwSt11char_traitsIwESaIwEEEZN9ReqParserC4EvEUlS5_E_ET0_T_SB_SA_, .-_ZSt8for_eachIPKNSt7__cxx1112basic_stringIwSt11char_traitsIwESaIwEEEZN9ReqParserC4EvEUlS5_E_ET0_T_SB_SA_
	.section	.text._ZNKSt5arrayINSt7__cxx1112basic_stringIwSt11char_traitsIwESaIwEEELm2EE4sizeEv,"axG",@progbits,_ZNKSt5arrayINSt7__cxx1112basic_stringIwSt11char_traitsIwESaIwEEELm2EE4sizeEv,comdat
	.align 2
	.weak	_ZNKSt5arrayINSt7__cxx1112basic_stringIwSt11char_traitsIwESaIwEEELm2EE4sizeEv
	.type	_ZNKSt5arrayINSt7__cxx1112basic_stringIwSt11char_traitsIwESaIwEEELm2EE4sizeEv, @function
_ZNKSt5arrayINSt7__cxx1112basic_stringIwSt11char_traitsIwESaIwEEELm2EE4sizeEv:
.LFB6597:
	.cfi_startproc
	pushq	%rbp
	.cfi_def_cfa_offset 16
	.cfi_offset 6, -16
	movq	%rsp, %rbp
	.cfi_def_cfa_register 6
	movq	%rdi, -8(%rbp)
	movl	$2, %eax
	popq	%rbp
	.cfi_def_cfa 7, 8
	ret
	.cfi_endproc
.LFE6597:
	.size	_ZNKSt5arrayINSt7__cxx1112basic_stringIwSt11char_traitsIwESaIwEEELm2EE4sizeEv, .-_ZNKSt5arrayINSt7__cxx1112basic_stringIwSt11char_traitsIwESaIwEEELm2EE4sizeEv
	.section	.text._ZNKSt5arrayINSt7__cxx1112basic_stringIwSt11char_traitsIwESaIwEEELm2EE2atEm,"axG",@progbits,_ZNKSt5arrayINSt7__cxx1112basic_stringIwSt11char_traitsIwESaIwEEELm2EE2atEm,comdat
	.align 2
	.weak	_ZNKSt5arrayINSt7__cxx1112basic_stringIwSt11char_traitsIwESaIwEEELm2EE2atEm
	.type	_ZNKSt5arrayINSt7__cxx1112basic_stringIwSt11char_traitsIwESaIwEEELm2EE2atEm, @function
_ZNKSt5arrayINSt7__cxx1112basic_stringIwSt11char_traitsIwESaIwEEELm2EE2atEm:
.LFB6598:
	.cfi_startproc
	pushq	%rbp
	.cfi_def_cfa_offset 16
	.cfi_offset 6, -16
	movq	%rsp, %rbp
	.cfi_def_cfa_register 6
	subq	$16, %rsp
	movq	%rdi, -8(%rbp)
	movq	%rsi, -16(%rbp)
	cmpq	$1, -16(%rbp)
	ja	.L201
	movq	-8(%rbp), %rax
	movq	-16(%rbp), %rdx
	movq	%rdx, %rsi
	movq	%rax, %rdi
	call	_ZNSt14__array_traitsINSt7__cxx1112basic_stringIwSt11char_traitsIwESaIwEEELm2EE6_S_refERA2_KS5_m
	jmp	.L204
.L201:
	movq	-16(%rbp), %rax
	movl	$2, %edx
	movq	%rax, %rsi
	movl	$.LC72, %edi
	movl	$0, %eax
	call	_ZSt24__throw_out_of_range_fmtPKcz
.L204:
	leave
	.cfi_def_cfa 7, 8
	ret
	.cfi_endproc
.LFE6598:
	.size	_ZNKSt5arrayINSt7__cxx1112basic_stringIwSt11char_traitsIwESaIwEEELm2EE2atEm, .-_ZNKSt5arrayINSt7__cxx1112basic_stringIwSt11char_traitsIwESaIwEEELm2EE2atEm
	.section	.text._ZN5boost5logiclsIcSt11char_traitsIcEEERSt13basic_ostreamIT_T0_ES8_NS0_7triboolE,"axG",@progbits,_ZN5boost5logiclsIcSt11char_traitsIcEEERSt13basic_ostreamIT_T0_ES8_NS0_7triboolE,comdat
	.weak	_ZN5boost5logiclsIcSt11char_traitsIcEEERSt13basic_ostreamIT_T0_ES8_NS0_7triboolE
	.type	_ZN5boost5logiclsIcSt11char_traitsIcEEERSt13basic_ostreamIT_T0_ES8_NS0_7triboolE, @function
_ZN5boost5logiclsIcSt11char_traitsIcEEERSt13basic_ostreamIT_T0_ES8_NS0_7triboolE:
.LFB6601:
	.cfi_startproc
	.cfi_personality 0x3,__gxx_personality_v0
	.cfi_lsda 0x3,.LLSDA6601
	pushq	%rbp
	.cfi_def_cfa_offset 16
	.cfi_offset 6, -16
	movq	%rsp, %rbp
	.cfi_def_cfa_register 6
	pushq	%rbx
	subq	$152, %rsp
	.cfi_offset 3, -24
	movq	%rdi, -152(%rbp)
	movl	%esi, -156(%rbp)
	movl	-156(%rbp), %eax
	movl	%eax, %edi
	call	_ZN5boost5logic13indeterminateENS0_7triboolENS0_6detail15indeterminate_tE
	xorl	$1, %eax
	testb	%al, %al
	je	.L206
	leaq	-156(%rbp), %rax
	movq	%rax, %rdi
	call	_ZNK5boost5logic7triboolcvbEv
	movzbl	%al, %edx
	movq	-152(%rbp), %rax
	movl	%edx, %esi
	movq	%rax, %rdi
.LEHB33:
	call	_ZNSolsEb
	jmp	.L207
.L206:
	movq	-152(%rbp), %rdx
	leaq	-144(%rbp), %rax
	movq	%rdx, %rsi
	movq	%rax, %rdi
	call	_ZNSo6sentryC1ERSo
.LEHE33:
	leaq	-144(%rbp), %rax
	movq	%rax, %rdi
.LEHB34:
	call	_ZNKSo6sentrycvbEv
.LEHE34:
	testb	%al, %al
	je	.L208
	movq	-152(%rbp), %rax
	movq	(%rax), %rax
	subq	$24, %rax
	movq	(%rax), %rax
	movq	%rax, %rdx
	movq	-152(%rbp), %rax
	addq	%rdx, %rax
	movq	%rax, %rdi
	call	_ZNKSt8ios_base5flagsEv
	movl	$1, %esi
	movl	%eax, %edi
	call	_ZStanSt13_Ios_FmtflagsS_
	testl	%eax, %eax
	setne	%al
	testb	%al, %al
	je	.L209
	movq	-152(%rbp), %rax
	movq	(%rax), %rax
	subq	$24, %rax
	movq	(%rax), %rax
	movq	%rax, %rdx
	movq	-152(%rbp), %rax
	addq	%rax, %rdx
	leaq	-112(%rbp), %rax
	movq	%rdx, %rsi
	movq	%rax, %rdi
	call	_ZNKSt8ios_base6getlocEv
	leaq	-112(%rbp), %rax
	movq	%rax, %rdi
	call	_ZSt9has_facetIN5boost5logic18indeterminate_nameIcEEEbRKSt6locale
	movl	%eax, %ebx
	leaq	-112(%rbp), %rax
	movq	%rax, %rdi
	call	_ZNSt6localeD1Ev
	testb	%bl, %bl
	je	.L210
	movq	-152(%rbp), %rax
	movq	(%rax), %rax
	subq	$24, %rax
	movq	(%rax), %rax
	movq	%rax, %rdx
	movq	-152(%rbp), %rax
	addq	%rax, %rdx
	leaq	-104(%rbp), %rax
	movq	%rdx, %rsi
	movq	%rax, %rdi
	call	_ZNKSt8ios_base6getlocEv
	leaq	-104(%rbp), %rax
	movq	%rax, %rdi
.LEHB35:
	call	_ZSt9use_facetIN5boost5logic18indeterminate_nameIcEEERKT_RKSt6locale
.LEHE35:
	movq	%rax, -24(%rbp)
	leaq	-104(%rbp), %rax
	movq	%rax, %rdi
	call	_ZNSt6localeD1Ev
	leaq	-96(%rbp), %rax
	movq	-24(%rbp), %rdx
	movq	%rdx, %rsi
	movq	%rax, %rdi
.LEHB36:
	call	_ZNK5boost5logic18indeterminate_nameIcE4nameB5cxx11Ev
.LEHE36:
	leaq	-96(%rbp), %rdx
	movq	-152(%rbp), %rax
	movq	%rdx, %rsi
	movq	%rax, %rdi
.LEHB37:
	call	_ZStlsIcSt11char_traitsIcESaIcEERSt13basic_ostreamIT_T0_ES7_RKNSt7__cxx1112basic_stringIS4_S5_T1_EE
.LEHE37:
	leaq	-96(%rbp), %rax
	movq	%rax, %rdi
	call	_ZNSt7__cxx1112basic_stringIcSt11char_traitsIcESaIcEED1Ev
	jmp	.L208
.L210:
	leaq	-64(%rbp), %rax
	movq	%rax, %rdi
.LEHB38:
	call	_ZN5boost5logic30get_default_indeterminate_nameIcEENSt7__cxx1112basic_stringIT_St11char_traitsIS4_ESaIS4_EEEv
.LEHE38:
	leaq	-64(%rbp), %rdx
	movq	-152(%rbp), %rax
	movq	%rdx, %rsi
	movq	%rax, %rdi
.LEHB39:
	call	_ZStlsIcSt11char_traitsIcESaIcEERSt13basic_ostreamIT_T0_ES7_RKNSt7__cxx1112basic_stringIS4_S5_T1_EE
.LEHE39:
	leaq	-64(%rbp), %rax
	movq	%rax, %rdi
	call	_ZNSt7__cxx1112basic_stringIcSt11char_traitsIcESaIcEED1Ev
	jmp	.L208
.L209:
	movq	-152(%rbp), %rax
	movl	$2, %esi
	movq	%rax, %rdi
.LEHB40:
	call	_ZNSolsEi
.LEHE40:
.L208:
	leaq	-144(%rbp), %rax
	movq	%rax, %rdi
	call	_ZNSo6sentryD1Ev
.L207:
	movq	-152(%rbp), %rax
	jmp	.L222
.L219:
	movq	%rax, %rbx
	leaq	-104(%rbp), %rax
	movq	%rax, %rdi
	call	_ZNSt6localeD1Ev
	jmp	.L215
.L220:
	movq	%rax, %rbx
	leaq	-96(%rbp), %rax
	movq	%rax, %rdi
	call	_ZNSt7__cxx1112basic_stringIcSt11char_traitsIcESaIcEED1Ev
	jmp	.L215
.L221:
	movq	%rax, %rbx
	leaq	-64(%rbp), %rax
	movq	%rax, %rdi
	call	_ZNSt7__cxx1112basic_stringIcSt11char_traitsIcESaIcEED1Ev
	jmp	.L215
.L218:
	movq	%rax, %rbx
.L215:
	leaq	-144(%rbp), %rax
	movq	%rax, %rdi
	call	_ZNSo6sentryD1Ev
	movq	%rbx, %rax
	movq	%rax, %rdi
.LEHB41:
	call	_Unwind_Resume
.LEHE41:
.L222:
	addq	$152, %rsp
	popq	%rbx
	popq	%rbp
	.cfi_def_cfa 7, 8
	ret
	.cfi_endproc
.LFE6601:
	.section	.gcc_except_table
.LLSDA6601:
	.byte	0xff
	.byte	0xff
	.byte	0x1
	.uleb128 .LLSDACSE6601-.LLSDACSB6601
.LLSDACSB6601:
	.uleb128 .LEHB33-.LFB6601
	.uleb128 .LEHE33-.LEHB33
	.uleb128 0
	.uleb128 0
	.uleb128 .LEHB34-.LFB6601
	.uleb128 .LEHE34-.LEHB34
	.uleb128 .L218-.LFB6601
	.uleb128 0
	.uleb128 .LEHB35-.LFB6601
	.uleb128 .LEHE35-.LEHB35
	.uleb128 .L219-.LFB6601
	.uleb128 0
	.uleb128 .LEHB36-.LFB6601
	.uleb128 .LEHE36-.LEHB36
	.uleb128 .L218-.LFB6601
	.uleb128 0
	.uleb128 .LEHB37-.LFB6601
	.uleb128 .LEHE37-.LEHB37
	.uleb128 .L220-.LFB6601
	.uleb128 0
	.uleb128 .LEHB38-.LFB6601
	.uleb128 .LEHE38-.LEHB38
	.uleb128 .L218-.LFB6601
	.uleb128 0
	.uleb128 .LEHB39-.LFB6601
	.uleb128 .LEHE39-.LEHB39
	.uleb128 .L221-.LFB6601
	.uleb128 0
	.uleb128 .LEHB40-.LFB6601
	.uleb128 .LEHE40-.LEHB40
	.uleb128 .L218-.LFB6601
	.uleb128 0
	.uleb128 .LEHB41-.LFB6601
	.uleb128 .LEHE41-.LEHB41
	.uleb128 0
	.uleb128 0
.LLSDACSE6601:
	.section	.text._ZN5boost5logiclsIcSt11char_traitsIcEEERSt13basic_ostreamIT_T0_ES8_NS0_7triboolE,"axG",@progbits,_ZN5boost5logiclsIcSt11char_traitsIcEEERSt13basic_ostreamIT_T0_ES8_NS0_7triboolE,comdat
	.size	_ZN5boost5logiclsIcSt11char_traitsIcEEERSt13basic_ostreamIT_T0_ES8_NS0_7triboolE, .-_ZN5boost5logiclsIcSt11char_traitsIcEEERSt13basic_ostreamIT_T0_ES8_NS0_7triboolE
	.section	.text._ZSt7isdigitIwEbT_RKSt6locale,"axG",@progbits,_ZSt7isdigitIwEbT_RKSt6locale,comdat
	.weak	_ZSt7isdigitIwEbT_RKSt6locale
	.type	_ZSt7isdigitIwEbT_RKSt6locale, @function
_ZSt7isdigitIwEbT_RKSt6locale:
.LFB6602:
	.cfi_startproc
	pushq	%rbp
	.cfi_def_cfa_offset 16
	.cfi_offset 6, -16
	movq	%rsp, %rbp
	.cfi_def_cfa_register 6
	subq	$16, %rsp
	movl	%edi, -4(%rbp)
	movq	%rsi, -16(%rbp)
	movq	-16(%rbp), %rax
	movq	%rax, %rdi
	call	_ZSt9use_facetISt5ctypeIwEERKT_RKSt6locale
	movq	%rax, %rcx
	movl	-4(%rbp), %eax
	movl	%eax, %edx
	movl	$2048, %esi
	movq	%rcx, %rdi
	call	_ZNKSt21__ctype_abstract_baseIwE2isEtw
	leave
	.cfi_def_cfa 7, 8
	ret
	.cfi_endproc
.LFE6602:
	.size	_ZSt7isdigitIwEbT_RKSt6locale, .-_ZSt7isdigitIwEbT_RKSt6locale
	.section	.text._ZNSt5arrayINSt7__cxx1118basic_stringstreamIwSt11char_traitsIwESaIwEEELm3EEixEm,"axG",@progbits,_ZNSt5arrayINSt7__cxx1118basic_stringstreamIwSt11char_traitsIwESaIwEEELm3EEixEm,comdat
	.align 2
	.weak	_ZNSt5arrayINSt7__cxx1118basic_stringstreamIwSt11char_traitsIwESaIwEEELm3EEixEm
	.type	_ZNSt5arrayINSt7__cxx1118basic_stringstreamIwSt11char_traitsIwESaIwEEELm3EEixEm, @function
_ZNSt5arrayINSt7__cxx1118basic_stringstreamIwSt11char_traitsIwESaIwEEELm3EEixEm:
.LFB6603:
	.cfi_startproc
	pushq	%rbp
	.cfi_def_cfa_offset 16
	.cfi_offset 6, -16
	movq	%rsp, %rbp
	.cfi_def_cfa_register 6
	subq	$16, %rsp
	movq	%rdi, -8(%rbp)
	movq	%rsi, -16(%rbp)
	movq	-8(%rbp), %rax
	movq	-16(%rbp), %rdx
	movq	%rdx, %rsi
	movq	%rax, %rdi
	call	_ZNSt14__array_traitsINSt7__cxx1118basic_stringstreamIwSt11char_traitsIwESaIwEEELm3EE6_S_refERA3_KS5_m
	leave
	.cfi_def_cfa 7, 8
	ret
	.cfi_endproc
.LFE6603:
	.size	_ZNSt5arrayINSt7__cxx1118basic_stringstreamIwSt11char_traitsIwESaIwEEELm3EEixEm, .-_ZNSt5arrayINSt7__cxx1118basic_stringstreamIwSt11char_traitsIwESaIwEEELm3EEixEm
	.section	.text._ZNKSt5arrayIsLm3EEixEm,"axG",@progbits,_ZNKSt5arrayIsLm3EEixEm,comdat
	.align 2
	.weak	_ZNKSt5arrayIsLm3EEixEm
	.type	_ZNKSt5arrayIsLm3EEixEm, @function
_ZNKSt5arrayIsLm3EEixEm:
.LFB6605:
	.cfi_startproc
	pushq	%rbp
	.cfi_def_cfa_offset 16
	.cfi_offset 6, -16
	movq	%rsp, %rbp
	.cfi_def_cfa_register 6
	subq	$16, %rsp
	movq	%rdi, -8(%rbp)
	movq	%rsi, -16(%rbp)
	movq	-8(%rbp), %rax
	movq	-16(%rbp), %rdx
	movq	%rdx, %rsi
	movq	%rax, %rdi
	call	_ZNSt14__array_traitsIsLm3EE6_S_refERA3_Ksm
	leave
	.cfi_def_cfa 7, 8
	ret
	.cfi_endproc
.LFE6605:
	.size	_ZNKSt5arrayIsLm3EEixEm, .-_ZNKSt5arrayIsLm3EEixEm
	.section	.text._ZSt7isspaceIwEbT_RKSt6locale,"axG",@progbits,_ZSt7isspaceIwEbT_RKSt6locale,comdat
	.weak	_ZSt7isspaceIwEbT_RKSt6locale
	.type	_ZSt7isspaceIwEbT_RKSt6locale, @function
_ZSt7isspaceIwEbT_RKSt6locale:
.LFB6606:
	.cfi_startproc
	pushq	%rbp
	.cfi_def_cfa_offset 16
	.cfi_offset 6, -16
	movq	%rsp, %rbp
	.cfi_def_cfa_register 6
	subq	$16, %rsp
	movl	%edi, -4(%rbp)
	movq	%rsi, -16(%rbp)
	movq	-16(%rbp), %rax
	movq	%rax, %rdi
	call	_ZSt9use_facetISt5ctypeIwEERKT_RKSt6locale
	movq	%rax, %rcx
	movl	-4(%rbp), %eax
	movl	%eax, %edx
	movl	$8192, %esi
	movq	%rcx, %rdi
	call	_ZNKSt21__ctype_abstract_baseIwE2isEtw
	leave
	.cfi_def_cfa 7, 8
	ret
	.cfi_endproc
.LFE6606:
	.size	_ZSt7isspaceIwEbT_RKSt6locale, .-_ZSt7isspaceIwEbT_RKSt6locale
	.section	.text._ZSt7isalphaIwEbT_RKSt6locale,"axG",@progbits,_ZSt7isalphaIwEbT_RKSt6locale,comdat
	.weak	_ZSt7isalphaIwEbT_RKSt6locale
	.type	_ZSt7isalphaIwEbT_RKSt6locale, @function
_ZSt7isalphaIwEbT_RKSt6locale:
.LFB6607:
	.cfi_startproc
	pushq	%rbp
	.cfi_def_cfa_offset 16
	.cfi_offset 6, -16
	movq	%rsp, %rbp
	.cfi_def_cfa_register 6
	subq	$16, %rsp
	movl	%edi, -4(%rbp)
	movq	%rsi, -16(%rbp)
	movq	-16(%rbp), %rax
	movq	%rax, %rdi
	call	_ZSt9use_facetISt5ctypeIwEERKT_RKSt6locale
	movq	%rax, %rcx
	movl	-4(%rbp), %eax
	movl	%eax, %edx
	movl	$1024, %esi
	movq	%rcx, %rdi
	call	_ZNKSt21__ctype_abstract_baseIwE2isEtw
	leave
	.cfi_def_cfa 7, 8
	ret
	.cfi_endproc
.LFE6607:
	.size	_ZSt7isalphaIwEbT_RKSt6locale, .-_ZSt7isalphaIwEbT_RKSt6locale
	.section	.text._ZSt7toupperIwET_S0_RKSt6locale,"axG",@progbits,_ZSt7toupperIwET_S0_RKSt6locale,comdat
	.weak	_ZSt7toupperIwET_S0_RKSt6locale
	.type	_ZSt7toupperIwET_S0_RKSt6locale, @function
_ZSt7toupperIwET_S0_RKSt6locale:
.LFB6608:
	.cfi_startproc
	pushq	%rbp
	.cfi_def_cfa_offset 16
	.cfi_offset 6, -16
	movq	%rsp, %rbp
	.cfi_def_cfa_register 6
	subq	$16, %rsp
	movl	%edi, -4(%rbp)
	movq	%rsi, -16(%rbp)
	movq	-16(%rbp), %rax
	movq	%rax, %rdi
	call	_ZSt9use_facetISt5ctypeIwEERKT_RKSt6locale
	movq	%rax, %rdx
	movl	-4(%rbp), %eax
	movl	%eax, %esi
	movq	%rdx, %rdi
	call	_ZNKSt21__ctype_abstract_baseIwE7toupperEw
	leave
	.cfi_def_cfa 7, 8
	ret
	.cfi_endproc
.LFE6608:
	.size	_ZSt7toupperIwET_S0_RKSt6locale, .-_ZSt7toupperIwET_S0_RKSt6locale
	.text
	.type	_ZSt7find_ifIPKNSt7__cxx1112basic_stringIwSt11char_traitsIwESaIwEEEZN9ReqParser7consumeER7RequestwEUlS5_E_ET_SC_SC_T0_, @function
_ZSt7find_ifIPKNSt7__cxx1112basic_stringIwSt11char_traitsIwESaIwEEEZN9ReqParser7consumeER7RequestwEUlS5_E_ET_SC_SC_T0_:
.LFB6610:
	.cfi_startproc
	pushq	%rbp
	.cfi_def_cfa_offset 16
	.cfi_offset 6, -16
	movq	%rsp, %rbp
	.cfi_def_cfa_register 6
	subq	$32, %rsp
	movq	%rdi, -8(%rbp)
	movq	%rsi, -16(%rbp)
	movl	%edx, -20(%rbp)
	movl	-20(%rbp), %eax
	movl	%eax, %edi
	call	_ZN9__gnu_cxx5__ops11__pred_iterIZN9ReqParser7consumeER7RequestwEUlNSt7__cxx1112basic_stringIwSt11char_traitsIwESaIwEEEE_EENS0_10_Iter_predIT_EESD_
	movl	%eax, %edx
	movq	-16(%rbp), %rcx
	movq	-8(%rbp), %rax
	movq	%rcx, %rsi
	movq	%rax, %rdi
	call	_ZSt9__find_ifIPKNSt7__cxx1112basic_stringIwSt11char_traitsIwESaIwEEEN9__gnu_cxx5__ops10_Iter_predIZN9ReqParser7consumeER7RequestwEUlS5_E_EEET_SG_SG_T0_
	leave
	.cfi_def_cfa 7, 8
	ret
	.cfi_endproc
.LFE6610:
	.size	_ZSt7find_ifIPKNSt7__cxx1112basic_stringIwSt11char_traitsIwESaIwEEEZN9ReqParser7consumeER7RequestwEUlS5_E_ET_SC_SC_T0_, .-_ZSt7find_ifIPKNSt7__cxx1112basic_stringIwSt11char_traitsIwESaIwEEEZN9ReqParser7consumeER7RequestwEUlS5_E_ET_SC_SC_T0_
	.section	.text._ZN5boost5logiclsIwSt11char_traitsIwEEERSt13basic_ostreamIT_T0_ES8_NS0_7triboolE,"axG",@progbits,_ZN5boost5logiclsIwSt11char_traitsIwEEERSt13basic_ostreamIT_T0_ES8_NS0_7triboolE,comdat
	.weak	_ZN5boost5logiclsIwSt11char_traitsIwEEERSt13basic_ostreamIT_T0_ES8_NS0_7triboolE
	.type	_ZN5boost5logiclsIwSt11char_traitsIwEEERSt13basic_ostreamIT_T0_ES8_NS0_7triboolE, @function
_ZN5boost5logiclsIwSt11char_traitsIwEEERSt13basic_ostreamIT_T0_ES8_NS0_7triboolE:
.LFB6614:
	.cfi_startproc
	.cfi_personality 0x3,__gxx_personality_v0
	.cfi_lsda 0x3,.LLSDA6614
	pushq	%rbp
	.cfi_def_cfa_offset 16
	.cfi_offset 6, -16
	movq	%rsp, %rbp
	.cfi_def_cfa_register 6
	pushq	%rbx
	subq	$152, %rsp
	.cfi_offset 3, -24
	movq	%rdi, -152(%rbp)
	movl	%esi, -156(%rbp)
	movl	-156(%rbp), %eax
	movl	%eax, %edi
	call	_ZN5boost5logic13indeterminateENS0_7triboolENS0_6detail15indeterminate_tE
	xorl	$1, %eax
	testb	%al, %al
	je	.L238
	leaq	-156(%rbp), %rax
	movq	%rax, %rdi
	call	_ZNK5boost5logic7triboolcvbEv
	movzbl	%al, %edx
	movq	-152(%rbp), %rax
	movl	%edx, %esi
	movq	%rax, %rdi
.LEHB42:
	call	_ZNSt13basic_ostreamIwSt11char_traitsIwEElsEb
	jmp	.L239
.L238:
	movq	-152(%rbp), %rdx
	leaq	-144(%rbp), %rax
	movq	%rdx, %rsi
	movq	%rax, %rdi
	call	_ZNSt13basic_ostreamIwSt11char_traitsIwEE6sentryC1ERS2_
.LEHE42:
	leaq	-144(%rbp), %rax
	movq	%rax, %rdi
.LEHB43:
	call	_ZNKSt13basic_ostreamIwSt11char_traitsIwEE6sentrycvbEv
.LEHE43:
	testb	%al, %al
	je	.L240
	movq	-152(%rbp), %rax
	movq	(%rax), %rax
	subq	$24, %rax
	movq	(%rax), %rax
	movq	%rax, %rdx
	movq	-152(%rbp), %rax
	addq	%rdx, %rax
	movq	%rax, %rdi
	call	_ZNKSt8ios_base5flagsEv
	movl	$1, %esi
	movl	%eax, %edi
	call	_ZStanSt13_Ios_FmtflagsS_
	testl	%eax, %eax
	setne	%al
	testb	%al, %al
	je	.L241
	movq	-152(%rbp), %rax
	movq	(%rax), %rax
	subq	$24, %rax
	movq	(%rax), %rax
	movq	%rax, %rdx
	movq	-152(%rbp), %rax
	addq	%rax, %rdx
	leaq	-112(%rbp), %rax
	movq	%rdx, %rsi
	movq	%rax, %rdi
	call	_ZNKSt8ios_base6getlocEv
	leaq	-112(%rbp), %rax
	movq	%rax, %rdi
	call	_ZSt9has_facetIN5boost5logic18indeterminate_nameIwEEEbRKSt6locale
	movl	%eax, %ebx
	leaq	-112(%rbp), %rax
	movq	%rax, %rdi
	call	_ZNSt6localeD1Ev
	testb	%bl, %bl
	je	.L242
	movq	-152(%rbp), %rax
	movq	(%rax), %rax
	subq	$24, %rax
	movq	(%rax), %rax
	movq	%rax, %rdx
	movq	-152(%rbp), %rax
	addq	%rax, %rdx
	leaq	-104(%rbp), %rax
	movq	%rdx, %rsi
	movq	%rax, %rdi
	call	_ZNKSt8ios_base6getlocEv
	leaq	-104(%rbp), %rax
	movq	%rax, %rdi
.LEHB44:
	call	_ZSt9use_facetIN5boost5logic18indeterminate_nameIwEEERKT_RKSt6locale
.LEHE44:
	movq	%rax, -24(%rbp)
	leaq	-104(%rbp), %rax
	movq	%rax, %rdi
	call	_ZNSt6localeD1Ev
	leaq	-96(%rbp), %rax
	movq	-24(%rbp), %rdx
	movq	%rdx, %rsi
	movq	%rax, %rdi
.LEHB45:
	call	_ZNK5boost5logic18indeterminate_nameIwE4nameB5cxx11Ev
.LEHE45:
	leaq	-96(%rbp), %rdx
	movq	-152(%rbp), %rax
	movq	%rdx, %rsi
	movq	%rax, %rdi
.LEHB46:
	call	_ZStlsIwSt11char_traitsIwESaIwEERSt13basic_ostreamIT_T0_ES7_RKNSt7__cxx1112basic_stringIS4_S5_T1_EE
.LEHE46:
	leaq	-96(%rbp), %rax
	movq	%rax, %rdi
	call	_ZNSt7__cxx1112basic_stringIwSt11char_traitsIwESaIwEED1Ev
	jmp	.L240
.L242:
	leaq	-64(%rbp), %rax
	movq	%rax, %rdi
.LEHB47:
	call	_ZN5boost5logic30get_default_indeterminate_nameIwEENSt7__cxx1112basic_stringIT_St11char_traitsIS4_ESaIS4_EEEv
.LEHE47:
	leaq	-64(%rbp), %rdx
	movq	-152(%rbp), %rax
	movq	%rdx, %rsi
	movq	%rax, %rdi
.LEHB48:
	call	_ZStlsIwSt11char_traitsIwESaIwEERSt13basic_ostreamIT_T0_ES7_RKNSt7__cxx1112basic_stringIS4_S5_T1_EE
.LEHE48:
	leaq	-64(%rbp), %rax
	movq	%rax, %rdi
	call	_ZNSt7__cxx1112basic_stringIwSt11char_traitsIwESaIwEED1Ev
	jmp	.L240
.L241:
	movq	-152(%rbp), %rax
	movl	$2, %esi
	movq	%rax, %rdi
.LEHB49:
	call	_ZNSt13basic_ostreamIwSt11char_traitsIwEElsEi
.LEHE49:
.L240:
	leaq	-144(%rbp), %rax
	movq	%rax, %rdi
	call	_ZNSt13basic_ostreamIwSt11char_traitsIwEE6sentryD1Ev
.L239:
	movq	-152(%rbp), %rax
	jmp	.L254
.L251:
	movq	%rax, %rbx
	leaq	-104(%rbp), %rax
	movq	%rax, %rdi
	call	_ZNSt6localeD1Ev
	jmp	.L247
.L252:
	movq	%rax, %rbx
	leaq	-96(%rbp), %rax
	movq	%rax, %rdi
	call	_ZNSt7__cxx1112basic_stringIwSt11char_traitsIwESaIwEED1Ev
	jmp	.L247
.L253:
	movq	%rax, %rbx
	leaq	-64(%rbp), %rax
	movq	%rax, %rdi
	call	_ZNSt7__cxx1112basic_stringIwSt11char_traitsIwESaIwEED1Ev
	jmp	.L247
.L250:
	movq	%rax, %rbx
.L247:
	leaq	-144(%rbp), %rax
	movq	%rax, %rdi
	call	_ZNSt13basic_ostreamIwSt11char_traitsIwEE6sentryD1Ev
	movq	%rbx, %rax
	movq	%rax, %rdi
.LEHB50:
	call	_Unwind_Resume
.LEHE50:
.L254:
	addq	$152, %rsp
	popq	%rbx
	popq	%rbp
	.cfi_def_cfa 7, 8
	ret
	.cfi_endproc
.LFE6614:
	.section	.gcc_except_table
.LLSDA6614:
	.byte	0xff
	.byte	0xff
	.byte	0x1
	.uleb128 .LLSDACSE6614-.LLSDACSB6614
.LLSDACSB6614:
	.uleb128 .LEHB42-.LFB6614
	.uleb128 .LEHE42-.LEHB42
	.uleb128 0
	.uleb128 0
	.uleb128 .LEHB43-.LFB6614
	.uleb128 .LEHE43-.LEHB43
	.uleb128 .L250-.LFB6614
	.uleb128 0
	.uleb128 .LEHB44-.LFB6614
	.uleb128 .LEHE44-.LEHB44
	.uleb128 .L251-.LFB6614
	.uleb128 0
	.uleb128 .LEHB45-.LFB6614
	.uleb128 .LEHE45-.LEHB45
	.uleb128 .L250-.LFB6614
	.uleb128 0
	.uleb128 .LEHB46-.LFB6614
	.uleb128 .LEHE46-.LEHB46
	.uleb128 .L252-.LFB6614
	.uleb128 0
	.uleb128 .LEHB47-.LFB6614
	.uleb128 .LEHE47-.LEHB47
	.uleb128 .L250-.LFB6614
	.uleb128 0
	.uleb128 .LEHB48-.LFB6614
	.uleb128 .LEHE48-.LEHB48
	.uleb128 .L253-.LFB6614
	.uleb128 0
	.uleb128 .LEHB49-.LFB6614
	.uleb128 .LEHE49-.LEHB49
	.uleb128 .L250-.LFB6614
	.uleb128 0
	.uleb128 .LEHB50-.LFB6614
	.uleb128 .LEHE50-.LEHB50
	.uleb128 0
	.uleb128 0
.LLSDACSE6614:
	.section	.text._ZN5boost5logiclsIwSt11char_traitsIwEEERSt13basic_ostreamIT_T0_ES8_NS0_7triboolE,"axG",@progbits,_ZN5boost5logiclsIwSt11char_traitsIwEEERSt13basic_ostreamIT_T0_ES8_NS0_7triboolE,comdat
	.size	_ZN5boost5logiclsIwSt11char_traitsIwEEERSt13basic_ostreamIT_T0_ES8_NS0_7triboolE, .-_ZN5boost5logiclsIwSt11char_traitsIwEEERSt13basic_ostreamIT_T0_ES8_NS0_7triboolE
	.section	.text._ZNSaISt13_Rb_tree_nodeISt4pairIKN9ReqParser5StateENSt7__cxx1112basic_stringIcSt11char_traitsIcESaIcEEEEEEC2Ev,"axG",@progbits,_ZNSaISt13_Rb_tree_nodeISt4pairIKN9ReqParser5StateENSt7__cxx1112basic_stringIcSt11char_traitsIcESaIcEEEEEEC5Ev,comdat
	.align 2
	.weak	_ZNSaISt13_Rb_tree_nodeISt4pairIKN9ReqParser5StateENSt7__cxx1112basic_stringIcSt11char_traitsIcESaIcEEEEEEC2Ev
	.type	_ZNSaISt13_Rb_tree_nodeISt4pairIKN9ReqParser5StateENSt7__cxx1112basic_stringIcSt11char_traitsIcESaIcEEEEEEC2Ev, @function
_ZNSaISt13_Rb_tree_nodeISt4pairIKN9ReqParser5StateENSt7__cxx1112basic_stringIcSt11char_traitsIcESaIcEEEEEEC2Ev:
.LFB6849:
	.cfi_startproc
	pushq	%rbp
	.cfi_def_cfa_offset 16
	.cfi_offset 6, -16
	movq	%rsp, %rbp
	.cfi_def_cfa_register 6
	subq	$16, %rsp
	movq	%rdi, -8(%rbp)
	movq	-8(%rbp), %rax
	movq	%rax, %rdi
	call	_ZN9__gnu_cxx13new_allocatorISt13_Rb_tree_nodeISt4pairIKN9ReqParser5StateENSt7__cxx1112basic_stringIcSt11char_traitsIcESaIcEEEEEEC2Ev
	nop
	leave
	.cfi_def_cfa 7, 8
	ret
	.cfi_endproc
.LFE6849:
	.size	_ZNSaISt13_Rb_tree_nodeISt4pairIKN9ReqParser5StateENSt7__cxx1112basic_stringIcSt11char_traitsIcESaIcEEEEEEC2Ev, .-_ZNSaISt13_Rb_tree_nodeISt4pairIKN9ReqParser5StateENSt7__cxx1112basic_stringIcSt11char_traitsIcESaIcEEEEEEC2Ev
	.weak	_ZNSaISt13_Rb_tree_nodeISt4pairIKN9ReqParser5StateENSt7__cxx1112basic_stringIcSt11char_traitsIcESaIcEEEEEEC1Ev
	.set	_ZNSaISt13_Rb_tree_nodeISt4pairIKN9ReqParser5StateENSt7__cxx1112basic_stringIcSt11char_traitsIcESaIcEEEEEEC1Ev,_ZNSaISt13_Rb_tree_nodeISt4pairIKN9ReqParser5StateENSt7__cxx1112basic_stringIcSt11char_traitsIcESaIcEEEEEEC2Ev
	.section	.text._ZNSt20_Rb_tree_key_compareISt4lessIN9ReqParser5StateEEEC2Ev,"axG",@progbits,_ZNSt20_Rb_tree_key_compareISt4lessIN9ReqParser5StateEEEC5Ev,comdat
	.align 2
	.weak	_ZNSt20_Rb_tree_key_compareISt4lessIN9ReqParser5StateEEEC2Ev
	.type	_ZNSt20_Rb_tree_key_compareISt4lessIN9ReqParser5StateEEEC2Ev, @function
_ZNSt20_Rb_tree_key_compareISt4lessIN9ReqParser5StateEEEC2Ev:
.LFB6852:
	.cfi_startproc
	pushq	%rbp
	.cfi_def_cfa_offset 16
	.cfi_offset 6, -16
	movq	%rsp, %rbp
	.cfi_def_cfa_register 6
	movq	%rdi, -8(%rbp)
	nop
	popq	%rbp
	.cfi_def_cfa 7, 8
	ret
	.cfi_endproc
.LFE6852:
	.size	_ZNSt20_Rb_tree_key_compareISt4lessIN9ReqParser5StateEEEC2Ev, .-_ZNSt20_Rb_tree_key_compareISt4lessIN9ReqParser5StateEEEC2Ev
	.weak	_ZNSt20_Rb_tree_key_compareISt4lessIN9ReqParser5StateEEEC1Ev
	.set	_ZNSt20_Rb_tree_key_compareISt4lessIN9ReqParser5StateEEEC1Ev,_ZNSt20_Rb_tree_key_compareISt4lessIN9ReqParser5StateEEEC2Ev
	.section	.text._ZN9__gnu_cxx13new_allocatorISt13_Rb_tree_nodeISt4pairIKN9ReqParser5StateENSt7__cxx1112basic_stringIcSt11char_traitsIcESaIcEEEEEED2Ev,"axG",@progbits,_ZN9__gnu_cxx13new_allocatorISt13_Rb_tree_nodeISt4pairIKN9ReqParser5StateENSt7__cxx1112basic_stringIcSt11char_traitsIcESaIcEEEEEED5Ev,comdat
	.align 2
	.weak	_ZN9__gnu_cxx13new_allocatorISt13_Rb_tree_nodeISt4pairIKN9ReqParser5StateENSt7__cxx1112basic_stringIcSt11char_traitsIcESaIcEEEEEED2Ev
	.type	_ZN9__gnu_cxx13new_allocatorISt13_Rb_tree_nodeISt4pairIKN9ReqParser5StateENSt7__cxx1112basic_stringIcSt11char_traitsIcESaIcEEEEEED2Ev, @function
_ZN9__gnu_cxx13new_allocatorISt13_Rb_tree_nodeISt4pairIKN9ReqParser5StateENSt7__cxx1112basic_stringIcSt11char_traitsIcESaIcEEEEEED2Ev:
.LFB6855:
	.cfi_startproc
	pushq	%rbp
	.cfi_def_cfa_offset 16
	.cfi_offset 6, -16
	movq	%rsp, %rbp
	.cfi_def_cfa_register 6
	movq	%rdi, -8(%rbp)
	nop
	popq	%rbp
	.cfi_def_cfa 7, 8
	ret
	.cfi_endproc
.LFE6855:
	.size	_ZN9__gnu_cxx13new_allocatorISt13_Rb_tree_nodeISt4pairIKN9ReqParser5StateENSt7__cxx1112basic_stringIcSt11char_traitsIcESaIcEEEEEED2Ev, .-_ZN9__gnu_cxx13new_allocatorISt13_Rb_tree_nodeISt4pairIKN9ReqParser5StateENSt7__cxx1112basic_stringIcSt11char_traitsIcESaIcEEEEEED2Ev
	.weak	_ZN9__gnu_cxx13new_allocatorISt13_Rb_tree_nodeISt4pairIKN9ReqParser5StateENSt7__cxx1112basic_stringIcSt11char_traitsIcESaIcEEEEEED1Ev
	.set	_ZN9__gnu_cxx13new_allocatorISt13_Rb_tree_nodeISt4pairIKN9ReqParser5StateENSt7__cxx1112basic_stringIcSt11char_traitsIcESaIcEEEEEED1Ev,_ZN9__gnu_cxx13new_allocatorISt13_Rb_tree_nodeISt4pairIKN9ReqParser5StateENSt7__cxx1112basic_stringIcSt11char_traitsIcESaIcEEEEEED2Ev
	.section	.text._ZNSt8_Rb_treeIN9ReqParser5StateESt4pairIKS1_NSt7__cxx1112basic_stringIcSt11char_traitsIcESaIcEEEESt10_Select1stISA_ESt4lessIS1_ESaISA_EE8_M_eraseEPSt13_Rb_tree_nodeISA_E,"axG",@progbits,_ZNSt8_Rb_treeIN9ReqParser5StateESt4pairIKS1_NSt7__cxx1112basic_stringIcSt11char_traitsIcESaIcEEEESt10_Select1stISA_ESt4lessIS1_ESaISA_EE8_M_eraseEPSt13_Rb_tree_nodeISA_E,comdat
	.align 2
	.weak	_ZNSt8_Rb_treeIN9ReqParser5StateESt4pairIKS1_NSt7__cxx1112basic_stringIcSt11char_traitsIcESaIcEEEESt10_Select1stISA_ESt4lessIS1_ESaISA_EE8_M_eraseEPSt13_Rb_tree_nodeISA_E
	.type	_ZNSt8_Rb_treeIN9ReqParser5StateESt4pairIKS1_NSt7__cxx1112basic_stringIcSt11char_traitsIcESaIcEEEESt10_Select1stISA_ESt4lessIS1_ESaISA_EE8_M_eraseEPSt13_Rb_tree_nodeISA_E, @function
_ZNSt8_Rb_treeIN9ReqParser5StateESt4pairIKS1_NSt7__cxx1112basic_stringIcSt11char_traitsIcESaIcEEEESt10_Select1stISA_ESt4lessIS1_ESaISA_EE8_M_eraseEPSt13_Rb_tree_nodeISA_E:
.LFB6857:
	.cfi_startproc
	pushq	%rbp
	.cfi_def_cfa_offset 16
	.cfi_offset 6, -16
	movq	%rsp, %rbp
	.cfi_def_cfa_register 6
	subq	$32, %rsp
	movq	%rdi, -24(%rbp)
	movq	%rsi, -32(%rbp)
.L260:
	cmpq	$0, -32(%rbp)
	je	.L261
	movq	-32(%rbp), %rax
	movq	%rax, %rdi
	call	_ZNSt8_Rb_treeIN9ReqParser5StateESt4pairIKS1_NSt7__cxx1112basic_stringIcSt11char_traitsIcESaIcEEEESt10_Select1stISA_ESt4lessIS1_ESaISA_EE8_S_rightEPSt18_Rb_tree_node_base
	movq	%rax, %rdx
	movq	-24(%rbp), %rax
	movq	%rdx, %rsi
	movq	%rax, %rdi
	call	_ZNSt8_Rb_treeIN9ReqParser5StateESt4pairIKS1_NSt7__cxx1112basic_stringIcSt11char_traitsIcESaIcEEEESt10_Select1stISA_ESt4lessIS1_ESaISA_EE8_M_eraseEPSt13_Rb_tree_nodeISA_E
	movq	-32(%rbp), %rax
	movq	%rax, %rdi
	call	_ZNSt8_Rb_treeIN9ReqParser5StateESt4pairIKS1_NSt7__cxx1112basic_stringIcSt11char_traitsIcESaIcEEEESt10_Select1stISA_ESt4lessIS1_ESaISA_EE7_S_leftEPSt18_Rb_tree_node_base
	movq	%rax, -8(%rbp)
	movq	-32(%rbp), %rdx
	movq	-24(%rbp), %rax
	movq	%rdx, %rsi
	movq	%rax, %rdi
	call	_ZNSt8_Rb_treeIN9ReqParser5StateESt4pairIKS1_NSt7__cxx1112basic_stringIcSt11char_traitsIcESaIcEEEESt10_Select1stISA_ESt4lessIS1_ESaISA_EE12_M_drop_nodeEPSt13_Rb_tree_nodeISA_E
	movq	-8(%rbp), %rax
	movq	%rax, -32(%rbp)
	jmp	.L260
.L261:
	nop
	leave
	.cfi_def_cfa 7, 8
	ret
	.cfi_endproc
.LFE6857:
	.size	_ZNSt8_Rb_treeIN9ReqParser5StateESt4pairIKS1_NSt7__cxx1112basic_stringIcSt11char_traitsIcESaIcEEEESt10_Select1stISA_ESt4lessIS1_ESaISA_EE8_M_eraseEPSt13_Rb_tree_nodeISA_E, .-_ZNSt8_Rb_treeIN9ReqParser5StateESt4pairIKS1_NSt7__cxx1112basic_stringIcSt11char_traitsIcESaIcEEEESt10_Select1stISA_ESt4lessIS1_ESaISA_EE8_M_eraseEPSt13_Rb_tree_nodeISA_E
	.section	.text._ZNSt8_Rb_treeIN9ReqParser5StateESt4pairIKS1_NSt7__cxx1112basic_stringIcSt11char_traitsIcESaIcEEEESt10_Select1stISA_ESt4lessIS1_ESaISA_EE8_M_beginEv,"axG",@progbits,_ZNSt8_Rb_treeIN9ReqParser5StateESt4pairIKS1_NSt7__cxx1112basic_stringIcSt11char_traitsIcESaIcEEEESt10_Select1stISA_ESt4lessIS1_ESaISA_EE8_M_beginEv,comdat
	.align 2
	.weak	_ZNSt8_Rb_treeIN9ReqParser5StateESt4pairIKS1_NSt7__cxx1112basic_stringIcSt11char_traitsIcESaIcEEEESt10_Select1stISA_ESt4lessIS1_ESaISA_EE8_M_beginEv
	.type	_ZNSt8_Rb_treeIN9ReqParser5StateESt4pairIKS1_NSt7__cxx1112basic_stringIcSt11char_traitsIcESaIcEEEESt10_Select1stISA_ESt4lessIS1_ESaISA_EE8_M_beginEv, @function
_ZNSt8_Rb_treeIN9ReqParser5StateESt4pairIKS1_NSt7__cxx1112basic_stringIcSt11char_traitsIcESaIcEEEESt10_Select1stISA_ESt4lessIS1_ESaISA_EE8_M_beginEv:
.LFB6858:
	.cfi_startproc
	pushq	%rbp
	.cfi_def_cfa_offset 16
	.cfi_offset 6, -16
	movq	%rsp, %rbp
	.cfi_def_cfa_register 6
	movq	%rdi, -8(%rbp)
	movq	-8(%rbp), %rax
	movq	16(%rax), %rax
	popq	%rbp
	.cfi_def_cfa 7, 8
	ret
	.cfi_endproc
.LFE6858:
	.size	_ZNSt8_Rb_treeIN9ReqParser5StateESt4pairIKS1_NSt7__cxx1112basic_stringIcSt11char_traitsIcESaIcEEEESt10_Select1stISA_ESt4lessIS1_ESaISA_EE8_M_beginEv, .-_ZNSt8_Rb_treeIN9ReqParser5StateESt4pairIKS1_NSt7__cxx1112basic_stringIcSt11char_traitsIcESaIcEEEESt10_Select1stISA_ESt4lessIS1_ESaISA_EE8_M_beginEv
	.section	.text._ZNSt3mapIN9ReqParser5StateENSt7__cxx1112basic_stringIcSt11char_traitsIcESaIcEEESt4lessIS1_ESaISt4pairIKS1_S7_EEE11lower_boundERSB_,"axG",@progbits,_ZNSt3mapIN9ReqParser5StateENSt7__cxx1112basic_stringIcSt11char_traitsIcESaIcEEESt4lessIS1_ESaISt4pairIKS1_S7_EEE11lower_boundERSB_,comdat
	.align 2
	.weak	_ZNSt3mapIN9ReqParser5StateENSt7__cxx1112basic_stringIcSt11char_traitsIcESaIcEEESt4lessIS1_ESaISt4pairIKS1_S7_EEE11lower_boundERSB_
	.type	_ZNSt3mapIN9ReqParser5StateENSt7__cxx1112basic_stringIcSt11char_traitsIcESaIcEEESt4lessIS1_ESaISt4pairIKS1_S7_EEE11lower_boundERSB_, @function
_ZNSt3mapIN9ReqParser5StateENSt7__cxx1112basic_stringIcSt11char_traitsIcESaIcEEESt4lessIS1_ESaISt4pairIKS1_S7_EEE11lower_boundERSB_:
.LFB6859:
	.cfi_startproc
	pushq	%rbp
	.cfi_def_cfa_offset 16
	.cfi_offset 6, -16
	movq	%rsp, %rbp
	.cfi_def_cfa_register 6
	subq	$16, %rsp
	movq	%rdi, -8(%rbp)
	movq	%rsi, -16(%rbp)
	movq	-8(%rbp), %rax
	movq	-16(%rbp), %rdx
	movq	%rdx, %rsi
	movq	%rax, %rdi
	call	_ZNSt8_Rb_treeIN9ReqParser5StateESt4pairIKS1_NSt7__cxx1112basic_stringIcSt11char_traitsIcESaIcEEEESt10_Select1stISA_ESt4lessIS1_ESaISA_EE11lower_boundERS3_
	leave
	.cfi_def_cfa 7, 8
	ret
	.cfi_endproc
.LFE6859:
	.size	_ZNSt3mapIN9ReqParser5StateENSt7__cxx1112basic_stringIcSt11char_traitsIcESaIcEEESt4lessIS1_ESaISt4pairIKS1_S7_EEE11lower_boundERSB_, .-_ZNSt3mapIN9ReqParser5StateENSt7__cxx1112basic_stringIcSt11char_traitsIcESaIcEEESt4lessIS1_ESaISt4pairIKS1_S7_EEE11lower_boundERSB_
	.section	.text._ZNSt3mapIN9ReqParser5StateENSt7__cxx1112basic_stringIcSt11char_traitsIcESaIcEEESt4lessIS1_ESaISt4pairIKS1_S7_EEE3endEv,"axG",@progbits,_ZNSt3mapIN9ReqParser5StateENSt7__cxx1112basic_stringIcSt11char_traitsIcESaIcEEESt4lessIS1_ESaISt4pairIKS1_S7_EEE3endEv,comdat
	.align 2
	.weak	_ZNSt3mapIN9ReqParser5StateENSt7__cxx1112basic_stringIcSt11char_traitsIcESaIcEEESt4lessIS1_ESaISt4pairIKS1_S7_EEE3endEv
	.type	_ZNSt3mapIN9ReqParser5StateENSt7__cxx1112basic_stringIcSt11char_traitsIcESaIcEEESt4lessIS1_ESaISt4pairIKS1_S7_EEE3endEv, @function
_ZNSt3mapIN9ReqParser5StateENSt7__cxx1112basic_stringIcSt11char_traitsIcESaIcEEESt4lessIS1_ESaISt4pairIKS1_S7_EEE3endEv:
.LFB6860:
	.cfi_startproc
	pushq	%rbp
	.cfi_def_cfa_offset 16
	.cfi_offset 6, -16
	movq	%rsp, %rbp
	.cfi_def_cfa_register 6
	subq	$16, %rsp
	movq	%rdi, -8(%rbp)
	movq	-8(%rbp), %rax
	movq	%rax, %rdi
	call	_ZNSt8_Rb_treeIN9ReqParser5StateESt4pairIKS1_NSt7__cxx1112basic_stringIcSt11char_traitsIcESaIcEEEESt10_Select1stISA_ESt4lessIS1_ESaISA_EE3endEv
	leave
	.cfi_def_cfa 7, 8
	ret
	.cfi_endproc
.LFE6860:
	.size	_ZNSt3mapIN9ReqParser5StateENSt7__cxx1112basic_stringIcSt11char_traitsIcESaIcEEESt4lessIS1_ESaISt4pairIKS1_S7_EEE3endEv, .-_ZNSt3mapIN9ReqParser5StateENSt7__cxx1112basic_stringIcSt11char_traitsIcESaIcEEESt4lessIS1_ESaISt4pairIKS1_S7_EEE3endEv
	.section	.text._ZNKSt17_Rb_tree_iteratorISt4pairIKN9ReqParser5StateENSt7__cxx1112basic_stringIcSt11char_traitsIcESaIcEEEEEeqERKSB_,"axG",@progbits,_ZNKSt17_Rb_tree_iteratorISt4pairIKN9ReqParser5StateENSt7__cxx1112basic_stringIcSt11char_traitsIcESaIcEEEEEeqERKSB_,comdat
	.align 2
	.weak	_ZNKSt17_Rb_tree_iteratorISt4pairIKN9ReqParser5StateENSt7__cxx1112basic_stringIcSt11char_traitsIcESaIcEEEEEeqERKSB_
	.type	_ZNKSt17_Rb_tree_iteratorISt4pairIKN9ReqParser5StateENSt7__cxx1112basic_stringIcSt11char_traitsIcESaIcEEEEEeqERKSB_, @function
_ZNKSt17_Rb_tree_iteratorISt4pairIKN9ReqParser5StateENSt7__cxx1112basic_stringIcSt11char_traitsIcESaIcEEEEEeqERKSB_:
.LFB6861:
	.cfi_startproc
	pushq	%rbp
	.cfi_def_cfa_offset 16
	.cfi_offset 6, -16
	movq	%rsp, %rbp
	.cfi_def_cfa_register 6
	movq	%rdi, -8(%rbp)
	movq	%rsi, -16(%rbp)
	movq	-8(%rbp), %rax
	movq	(%rax), %rdx
	movq	-16(%rbp), %rax
	movq	(%rax), %rax
	cmpq	%rax, %rdx
	sete	%al
	popq	%rbp
	.cfi_def_cfa 7, 8
	ret
	.cfi_endproc
.LFE6861:
	.size	_ZNKSt17_Rb_tree_iteratorISt4pairIKN9ReqParser5StateENSt7__cxx1112basic_stringIcSt11char_traitsIcESaIcEEEEEeqERKSB_, .-_ZNKSt17_Rb_tree_iteratorISt4pairIKN9ReqParser5StateENSt7__cxx1112basic_stringIcSt11char_traitsIcESaIcEEEEEeqERKSB_
	.section	.text._ZNKSt3mapIN9ReqParser5StateENSt7__cxx1112basic_stringIcSt11char_traitsIcESaIcEEESt4lessIS1_ESaISt4pairIKS1_S7_EEE8key_compEv,"axG",@progbits,_ZNKSt3mapIN9ReqParser5StateENSt7__cxx1112basic_stringIcSt11char_traitsIcESaIcEEESt4lessIS1_ESaISt4pairIKS1_S7_EEE8key_compEv,comdat
	.align 2
	.weak	_ZNKSt3mapIN9ReqParser5StateENSt7__cxx1112basic_stringIcSt11char_traitsIcESaIcEEESt4lessIS1_ESaISt4pairIKS1_S7_EEE8key_compEv
	.type	_ZNKSt3mapIN9ReqParser5StateENSt7__cxx1112basic_stringIcSt11char_traitsIcESaIcEEESt4lessIS1_ESaISt4pairIKS1_S7_EEE8key_compEv, @function
_ZNKSt3mapIN9ReqParser5StateENSt7__cxx1112basic_stringIcSt11char_traitsIcESaIcEEESt4lessIS1_ESaISt4pairIKS1_S7_EEE8key_compEv:
.LFB6862:
	.cfi_startproc
	pushq	%rbp
	.cfi_def_cfa_offset 16
	.cfi_offset 6, -16
	movq	%rsp, %rbp
	.cfi_def_cfa_register 6
	pushq	%rbx
	subq	$24, %rsp
	.cfi_offset 3, -24
	movq	%rdi, -24(%rbp)
	movq	-24(%rbp), %rax
	movq	%rax, %rdi
	call	_ZNKSt8_Rb_treeIN9ReqParser5StateESt4pairIKS1_NSt7__cxx1112basic_stringIcSt11char_traitsIcESaIcEEEESt10_Select1stISA_ESt4lessIS1_ESaISA_EE8key_compEv
	movl	%ebx, %eax
	addq	$24, %rsp
	popq	%rbx
	popq	%rbp
	.cfi_def_cfa 7, 8
	ret
	.cfi_endproc
.LFE6862:
	.size	_ZNKSt3mapIN9ReqParser5StateENSt7__cxx1112basic_stringIcSt11char_traitsIcESaIcEEESt4lessIS1_ESaISt4pairIKS1_S7_EEE8key_compEv, .-_ZNKSt3mapIN9ReqParser5StateENSt7__cxx1112basic_stringIcSt11char_traitsIcESaIcEEESt4lessIS1_ESaISt4pairIKS1_S7_EEE8key_compEv
	.section	.text._ZNKSt17_Rb_tree_iteratorISt4pairIKN9ReqParser5StateENSt7__cxx1112basic_stringIcSt11char_traitsIcESaIcEEEEEdeEv,"axG",@progbits,_ZNKSt17_Rb_tree_iteratorISt4pairIKN9ReqParser5StateENSt7__cxx1112basic_stringIcSt11char_traitsIcESaIcEEEEEdeEv,comdat
	.align 2
	.weak	_ZNKSt17_Rb_tree_iteratorISt4pairIKN9ReqParser5StateENSt7__cxx1112basic_stringIcSt11char_traitsIcESaIcEEEEEdeEv
	.type	_ZNKSt17_Rb_tree_iteratorISt4pairIKN9ReqParser5StateENSt7__cxx1112basic_stringIcSt11char_traitsIcESaIcEEEEEdeEv, @function
_ZNKSt17_Rb_tree_iteratorISt4pairIKN9ReqParser5StateENSt7__cxx1112basic_stringIcSt11char_traitsIcESaIcEEEEEdeEv:
.LFB6863:
	.cfi_startproc
	pushq	%rbp
	.cfi_def_cfa_offset 16
	.cfi_offset 6, -16
	movq	%rsp, %rbp
	.cfi_def_cfa_register 6
	subq	$16, %rsp
	movq	%rdi, -8(%rbp)
	movq	-8(%rbp), %rax
	movq	(%rax), %rax
	movq	%rax, %rdi
	call	_ZNSt13_Rb_tree_nodeISt4pairIKN9ReqParser5StateENSt7__cxx1112basic_stringIcSt11char_traitsIcESaIcEEEEE9_M_valptrEv
	leave
	.cfi_def_cfa 7, 8
	ret
	.cfi_endproc
.LFE6863:
	.size	_ZNKSt17_Rb_tree_iteratorISt4pairIKN9ReqParser5StateENSt7__cxx1112basic_stringIcSt11char_traitsIcESaIcEEEEEdeEv, .-_ZNKSt17_Rb_tree_iteratorISt4pairIKN9ReqParser5StateENSt7__cxx1112basic_stringIcSt11char_traitsIcESaIcEEEEEdeEv
	.section	.text._ZNKSt4lessIN9ReqParser5StateEEclERKS1_S4_,"axG",@progbits,_ZNKSt4lessIN9ReqParser5StateEEclERKS1_S4_,comdat
	.align 2
	.weak	_ZNKSt4lessIN9ReqParser5StateEEclERKS1_S4_
	.type	_ZNKSt4lessIN9ReqParser5StateEEclERKS1_S4_, @function
_ZNKSt4lessIN9ReqParser5StateEEclERKS1_S4_:
.LFB6864:
	.cfi_startproc
	pushq	%rbp
	.cfi_def_cfa_offset 16
	.cfi_offset 6, -16
	movq	%rsp, %rbp
	.cfi_def_cfa_register 6
	movq	%rdi, -8(%rbp)
	movq	%rsi, -16(%rbp)
	movq	%rdx, -24(%rbp)
	movq	-16(%rbp), %rax
	movl	(%rax), %eax
	movl	%eax, %edx
	movq	-24(%rbp), %rax
	movl	(%rax), %eax
	cmpl	%eax, %edx
	setl	%al
	popq	%rbp
	.cfi_def_cfa 7, 8
	ret
	.cfi_endproc
.LFE6864:
	.size	_ZNKSt4lessIN9ReqParser5StateEEclERKS1_S4_, .-_ZNKSt4lessIN9ReqParser5StateEEclERKS1_S4_
	.section	.text._ZSt4moveIRN9ReqParser5StateEEONSt16remove_referenceIT_E4typeEOS4_,"axG",@progbits,_ZSt4moveIRN9ReqParser5StateEEONSt16remove_referenceIT_E4typeEOS4_,comdat
	.weak	_ZSt4moveIRN9ReqParser5StateEEONSt16remove_referenceIT_E4typeEOS4_
	.type	_ZSt4moveIRN9ReqParser5StateEEONSt16remove_referenceIT_E4typeEOS4_, @function
_ZSt4moveIRN9ReqParser5StateEEONSt16remove_referenceIT_E4typeEOS4_:
.LFB6865:
	.cfi_startproc
	pushq	%rbp
	.cfi_def_cfa_offset 16
	.cfi_offset 6, -16
	movq	%rsp, %rbp
	.cfi_def_cfa_register 6
	movq	%rdi, -8(%rbp)
	movq	-8(%rbp), %rax
	popq	%rbp
	.cfi_def_cfa 7, 8
	ret
	.cfi_endproc
.LFE6865:
	.size	_ZSt4moveIRN9ReqParser5StateEEONSt16remove_referenceIT_E4typeEOS4_, .-_ZSt4moveIRN9ReqParser5StateEEONSt16remove_referenceIT_E4typeEOS4_
	.section	.text._ZNSt5tupleIJON9ReqParser5StateEEEC2EOS3_,"axG",@progbits,_ZNSt5tupleIJON9ReqParser5StateEEEC5EOS3_,comdat
	.align 2
	.weak	_ZNSt5tupleIJON9ReqParser5StateEEEC2EOS3_
	.type	_ZNSt5tupleIJON9ReqParser5StateEEEC2EOS3_, @function
_ZNSt5tupleIJON9ReqParser5StateEEEC2EOS3_:
.LFB6880:
	.cfi_startproc
	pushq	%rbp
	.cfi_def_cfa_offset 16
	.cfi_offset 6, -16
	movq	%rsp, %rbp
	.cfi_def_cfa_register 6
	subq	$16, %rsp
	movq	%rdi, -8(%rbp)
	movq	%rsi, -16(%rbp)
	movq	-8(%rbp), %rax
	movq	-16(%rbp), %rdx
	movq	%rdx, %rsi
	movq	%rax, %rdi
	call	_ZNSt11_Tuple_implILm0EJON9ReqParser5StateEEEC2EOS3_
	nop
	leave
	.cfi_def_cfa 7, 8
	ret
	.cfi_endproc
.LFE6880:
	.size	_ZNSt5tupleIJON9ReqParser5StateEEEC2EOS3_, .-_ZNSt5tupleIJON9ReqParser5StateEEEC2EOS3_
	.weak	_ZNSt5tupleIJON9ReqParser5StateEEEC1EOS3_
	.set	_ZNSt5tupleIJON9ReqParser5StateEEEC1EOS3_,_ZNSt5tupleIJON9ReqParser5StateEEEC2EOS3_
	.section	.text._ZSt16forward_as_tupleIJN9ReqParser5StateEEESt5tupleIJDpOT_EES5_,"axG",@progbits,_ZSt16forward_as_tupleIJN9ReqParser5StateEEESt5tupleIJDpOT_EES5_,comdat
	.weak	_ZSt16forward_as_tupleIJN9ReqParser5StateEEESt5tupleIJDpOT_EES5_
	.type	_ZSt16forward_as_tupleIJN9ReqParser5StateEEESt5tupleIJDpOT_EES5_, @function
_ZSt16forward_as_tupleIJN9ReqParser5StateEEESt5tupleIJDpOT_EES5_:
.LFB6866:
	.cfi_startproc
	.cfi_personality 0x3,__gxx_personality_v0
	.cfi_lsda 0x3,.LLSDA6866
	pushq	%rbp
	.cfi_def_cfa_offset 16
	.cfi_offset 6, -16
	movq	%rsp, %rbp
	.cfi_def_cfa_register 6
	subq	$16, %rsp
	movq	%rdi, -8(%rbp)
	movq	%rsi, -16(%rbp)
	movq	-16(%rbp), %rax
	movq	%rax, %rdi
	call	_ZSt7forwardIN9ReqParser5StateEEOT_RNSt16remove_referenceIS2_E4typeE
	movq	%rax, %rdx
	movq	-8(%rbp), %rax
	movq	%rdx, %rsi
	movq	%rax, %rdi
	call	_ZNSt5tupleIJON9ReqParser5StateEEEC1IJS1_ELb1EEEDpOT_
	movq	-8(%rbp), %rax
	leave
	.cfi_def_cfa 7, 8
	ret
	.cfi_endproc
.LFE6866:
	.section	.gcc_except_table
.LLSDA6866:
	.byte	0xff
	.byte	0xff
	.byte	0x1
	.uleb128 .LLSDACSE6866-.LLSDACSB6866
.LLSDACSB6866:
.LLSDACSE6866:
	.section	.text._ZSt16forward_as_tupleIJN9ReqParser5StateEEESt5tupleIJDpOT_EES5_,"axG",@progbits,_ZSt16forward_as_tupleIJN9ReqParser5StateEEESt5tupleIJDpOT_EES5_,comdat
	.size	_ZSt16forward_as_tupleIJN9ReqParser5StateEEESt5tupleIJDpOT_EES5_, .-_ZSt16forward_as_tupleIJN9ReqParser5StateEEESt5tupleIJDpOT_EES5_
	.section	.text._ZNSt23_Rb_tree_const_iteratorISt4pairIKN9ReqParser5StateENSt7__cxx1112basic_stringIcSt11char_traitsIcESaIcEEEEEC2ERKSt17_Rb_tree_iteratorISA_E,"axG",@progbits,_ZNSt23_Rb_tree_const_iteratorISt4pairIKN9ReqParser5StateENSt7__cxx1112basic_stringIcSt11char_traitsIcESaIcEEEEEC5ERKSt17_Rb_tree_iteratorISA_E,comdat
	.align 2
	.weak	_ZNSt23_Rb_tree_const_iteratorISt4pairIKN9ReqParser5StateENSt7__cxx1112basic_stringIcSt11char_traitsIcESaIcEEEEEC2ERKSt17_Rb_tree_iteratorISA_E
	.type	_ZNSt23_Rb_tree_const_iteratorISt4pairIKN9ReqParser5StateENSt7__cxx1112basic_stringIcSt11char_traitsIcESaIcEEEEEC2ERKSt17_Rb_tree_iteratorISA_E, @function
_ZNSt23_Rb_tree_const_iteratorISt4pairIKN9ReqParser5StateENSt7__cxx1112basic_stringIcSt11char_traitsIcESaIcEEEEEC2ERKSt17_Rb_tree_iteratorISA_E:
.LFB6883:
	.cfi_startproc
	pushq	%rbp
	.cfi_def_cfa_offset 16
	.cfi_offset 6, -16
	movq	%rsp, %rbp
	.cfi_def_cfa_register 6
	movq	%rdi, -8(%rbp)
	movq	%rsi, -16(%rbp)
	movq	-16(%rbp), %rax
	movq	(%rax), %rdx
	movq	-8(%rbp), %rax
	movq	%rdx, (%rax)
	nop
	popq	%rbp
	.cfi_def_cfa 7, 8
	ret
	.cfi_endproc
.LFE6883:
	.size	_ZNSt23_Rb_tree_const_iteratorISt4pairIKN9ReqParser5StateENSt7__cxx1112basic_stringIcSt11char_traitsIcESaIcEEEEEC2ERKSt17_Rb_tree_iteratorISA_E, .-_ZNSt23_Rb_tree_const_iteratorISt4pairIKN9ReqParser5StateENSt7__cxx1112basic_stringIcSt11char_traitsIcESaIcEEEEEC2ERKSt17_Rb_tree_iteratorISA_E
	.weak	_ZNSt23_Rb_tree_const_iteratorISt4pairIKN9ReqParser5StateENSt7__cxx1112basic_stringIcSt11char_traitsIcESaIcEEEEEC1ERKSt17_Rb_tree_iteratorISA_E
	.set	_ZNSt23_Rb_tree_const_iteratorISt4pairIKN9ReqParser5StateENSt7__cxx1112basic_stringIcSt11char_traitsIcESaIcEEEEEC1ERKSt17_Rb_tree_iteratorISA_E,_ZNSt23_Rb_tree_const_iteratorISt4pairIKN9ReqParser5StateENSt7__cxx1112basic_stringIcSt11char_traitsIcESaIcEEEEEC2ERKSt17_Rb_tree_iteratorISA_E
	.section	.text._ZNSt8_Rb_treeIN9ReqParser5StateESt4pairIKS1_NSt7__cxx1112basic_stringIcSt11char_traitsIcESaIcEEEESt10_Select1stISA_ESt4lessIS1_ESaISA_EE22_M_emplace_hint_uniqueIJRKSt21piecewise_construct_tSt5tupleIJOS1_EESL_IJEEEEESt17_Rb_tree_iteratorISA_ESt23_Rb_tree_const_iteratorISA_EDpOT_,"axG",@progbits,_ZNSt8_Rb_treeIN9ReqParser5StateESt4pairIKS1_NSt7__cxx1112basic_stringIcSt11char_traitsIcESaIcEEEESt10_Select1stISA_ESt4lessIS1_ESaISA_EE22_M_emplace_hint_uniqueIJRKSt21piecewise_construct_tSt5tupleIJOS1_EESL_IJEEEEESt17_Rb_tree_iteratorISA_ESt23_Rb_tree_const_iteratorISA_EDpOT_,comdat
	.align 2
	.weak	_ZNSt8_Rb_treeIN9ReqParser5StateESt4pairIKS1_NSt7__cxx1112basic_stringIcSt11char_traitsIcESaIcEEEESt10_Select1stISA_ESt4lessIS1_ESaISA_EE22_M_emplace_hint_uniqueIJRKSt21piecewise_construct_tSt5tupleIJOS1_EESL_IJEEEEESt17_Rb_tree_iteratorISA_ESt23_Rb_tree_const_iteratorISA_EDpOT_
	.type	_ZNSt8_Rb_treeIN9ReqParser5StateESt4pairIKS1_NSt7__cxx1112basic_stringIcSt11char_traitsIcESaIcEEEESt10_Select1stISA_ESt4lessIS1_ESaISA_EE22_M_emplace_hint_uniqueIJRKSt21piecewise_construct_tSt5tupleIJOS1_EESL_IJEEEEESt17_Rb_tree_iteratorISA_ESt23_Rb_tree_const_iteratorISA_EDpOT_, @function
_ZNSt8_Rb_treeIN9ReqParser5StateESt4pairIKS1_NSt7__cxx1112basic_stringIcSt11char_traitsIcESaIcEEEESt10_Select1stISA_ESt4lessIS1_ESaISA_EE22_M_emplace_hint_uniqueIJRKSt21piecewise_construct_tSt5tupleIJOS1_EESL_IJEEEEESt17_Rb_tree_iteratorISA_ESt23_Rb_tree_const_iteratorISA_EDpOT_:
.LFB6885:
	.cfi_startproc
	.cfi_personality 0x3,__gxx_personality_v0
	.cfi_lsda 0x3,.LLSDA6885
	pushq	%rbp
	.cfi_def_cfa_offset 16
	.cfi_offset 6, -16
	movq	%rsp, %rbp
	.cfi_def_cfa_register 6
	pushq	%r12
	pushq	%rbx
	subq	$80, %rsp
	.cfi_offset 12, -24
	.cfi_offset 3, -32
	movq	%rdi, -56(%rbp)
	movq	%rsi, -64(%rbp)
	movq	%rdx, -72(%rbp)
	movq	%rcx, -80(%rbp)
	movq	%r8, -88(%rbp)
	movq	-88(%rbp), %rax
	movq	%rax, %rdi
	call	_ZSt7forwardISt5tupleIJEEEOT_RNSt16remove_referenceIS2_E4typeE
	movq	%rax, %r12
	movq	-80(%rbp), %rax
	movq	%rax, %rdi
	call	_ZSt7forwardISt5tupleIJON9ReqParser5StateEEEEOT_RNSt16remove_referenceIS5_E4typeE
	movq	%rax, %rbx
	movq	-72(%rbp), %rax
	movq	%rax, %rdi
	call	_ZSt7forwardIRKSt21piecewise_construct_tEOT_RNSt16remove_referenceIS3_E4typeE
	movq	%rax, %rsi
	movq	-56(%rbp), %rax
	movq	%r12, %rcx
	movq	%rbx, %rdx
	movq	%rax, %rdi
.LEHB51:
	call	_ZNSt8_Rb_treeIN9ReqParser5StateESt4pairIKS1_NSt7__cxx1112basic_stringIcSt11char_traitsIcESaIcEEEESt10_Select1stISA_ESt4lessIS1_ESaISA_EE14_M_create_nodeIJRKSt21piecewise_construct_tSt5tupleIJOS1_EESL_IJEEEEEPSt13_Rb_tree_nodeISA_EDpOT_
.LEHE51:
	movq	%rax, -24(%rbp)
	movq	-24(%rbp), %rax
	movq	%rax, %rdi
.LEHB52:
	call	_ZNSt8_Rb_treeIN9ReqParser5StateESt4pairIKS1_NSt7__cxx1112basic_stringIcSt11char_traitsIcESaIcEEEESt10_Select1stISA_ESt4lessIS1_ESaISA_EE6_S_keyEPKSt13_Rb_tree_nodeISA_E
	movq	%rax, %rdx
	movq	-64(%rbp), %rcx
	movq	-56(%rbp), %rax
	movq	%rcx, %rsi
	movq	%rax, %rdi
	call	_ZNSt8_Rb_treeIN9ReqParser5StateESt4pairIKS1_NSt7__cxx1112basic_stringIcSt11char_traitsIcESaIcEEEESt10_Select1stISA_ESt4lessIS1_ESaISA_EE29_M_get_insert_hint_unique_posESt23_Rb_tree_const_iteratorISA_ERS3_
	movq	%rax, -48(%rbp)
	movq	%rdx, -40(%rbp)
	movq	-40(%rbp), %rax
	testq	%rax, %rax
	je	.L283
	movq	-40(%rbp), %rdx
	movq	-48(%rbp), %rsi
	movq	-24(%rbp), %rcx
	movq	-56(%rbp), %rax
	movq	%rax, %rdi
	call	_ZNSt8_Rb_treeIN9ReqParser5StateESt4pairIKS1_NSt7__cxx1112basic_stringIcSt11char_traitsIcESaIcEEEESt10_Select1stISA_ESt4lessIS1_ESaISA_EE14_M_insert_nodeEPSt18_Rb_tree_node_baseSI_PSt13_Rb_tree_nodeISA_E
.LEHE52:
	jmp	.L290
.L283:
	movq	-24(%rbp), %rdx
	movq	-56(%rbp), %rax
	movq	%rdx, %rsi
	movq	%rax, %rdi
	call	_ZNSt8_Rb_treeIN9ReqParser5StateESt4pairIKS1_NSt7__cxx1112basic_stringIcSt11char_traitsIcESaIcEEEESt10_Select1stISA_ESt4lessIS1_ESaISA_EE12_M_drop_nodeEPSt13_Rb_tree_nodeISA_E
	movq	-48(%rbp), %rdx
	leaq	-32(%rbp), %rax
	movq	%rdx, %rsi
	movq	%rax, %rdi
	call	_ZNSt17_Rb_tree_iteratorISt4pairIKN9ReqParser5StateENSt7__cxx1112basic_stringIcSt11char_traitsIcESaIcEEEEEC1EPSt18_Rb_tree_node_base
	movq	-32(%rbp), %rax
	jmp	.L290
.L288:
	movq	%rax, %rdi
	call	__cxa_begin_catch
	movq	-24(%rbp), %rdx
	movq	-56(%rbp), %rax
	movq	%rdx, %rsi
	movq	%rax, %rdi
	call	_ZNSt8_Rb_treeIN9ReqParser5StateESt4pairIKS1_NSt7__cxx1112basic_stringIcSt11char_traitsIcESaIcEEEESt10_Select1stISA_ESt4lessIS1_ESaISA_EE12_M_drop_nodeEPSt13_Rb_tree_nodeISA_E
.LEHB53:
	call	__cxa_rethrow
.LEHE53:
.L289:
	movq	%rax, %rbx
	call	__cxa_end_catch
	movq	%rbx, %rax
	movq	%rax, %rdi
.LEHB54:
	call	_Unwind_Resume
.LEHE54:
.L290:
	addq	$80, %rsp
	popq	%rbx
	popq	%r12
	popq	%rbp
	.cfi_def_cfa 7, 8
	ret
	.cfi_endproc
.LFE6885:
	.section	.gcc_except_table
	.align 4
.LLSDA6885:
	.byte	0xff
	.byte	0x3
	.uleb128 .LLSDATT6885-.LLSDATTD6885
.LLSDATTD6885:
	.byte	0x1
	.uleb128 .LLSDACSE6885-.LLSDACSB6885
.LLSDACSB6885:
	.uleb128 .LEHB51-.LFB6885
	.uleb128 .LEHE51-.LEHB51
	.uleb128 0
	.uleb128 0
	.uleb128 .LEHB52-.LFB6885
	.uleb128 .LEHE52-.LEHB52
	.uleb128 .L288-.LFB6885
	.uleb128 0x1
	.uleb128 .LEHB53-.LFB6885
	.uleb128 .LEHE53-.LEHB53
	.uleb128 .L289-.LFB6885
	.uleb128 0
	.uleb128 .LEHB54-.LFB6885
	.uleb128 .LEHE54-.LEHB54
	.uleb128 0
	.uleb128 0
.LLSDACSE6885:
	.byte	0x1
	.byte	0
	.align 4
	.long	0

.LLSDATT6885:
	.section	.text._ZNSt8_Rb_treeIN9ReqParser5StateESt4pairIKS1_NSt7__cxx1112basic_stringIcSt11char_traitsIcESaIcEEEESt10_Select1stISA_ESt4lessIS1_ESaISA_EE22_M_emplace_hint_uniqueIJRKSt21piecewise_construct_tSt5tupleIJOS1_EESL_IJEEEEESt17_Rb_tree_iteratorISA_ESt23_Rb_tree_const_iteratorISA_EDpOT_,"axG",@progbits,_ZNSt8_Rb_treeIN9ReqParser5StateESt4pairIKS1_NSt7__cxx1112basic_stringIcSt11char_traitsIcESaIcEEEESt10_Select1stISA_ESt4lessIS1_ESaISA_EE22_M_emplace_hint_uniqueIJRKSt21piecewise_construct_tSt5tupleIJOS1_EESL_IJEEEEESt17_Rb_tree_iteratorISA_ESt23_Rb_tree_const_iteratorISA_EDpOT_,comdat
	.size	_ZNSt8_Rb_treeIN9ReqParser5StateESt4pairIKS1_NSt7__cxx1112basic_stringIcSt11char_traitsIcESaIcEEEESt10_Select1stISA_ESt4lessIS1_ESaISA_EE22_M_emplace_hint_uniqueIJRKSt21piecewise_construct_tSt5tupleIJOS1_EESL_IJEEEEESt17_Rb_tree_iteratorISA_ESt23_Rb_tree_const_iteratorISA_EDpOT_, .-_ZNSt8_Rb_treeIN9ReqParser5StateESt4pairIKS1_NSt7__cxx1112basic_stringIcSt11char_traitsIcESaIcEEEESt10_Select1stISA_ESt4lessIS1_ESaISA_EE22_M_emplace_hint_uniqueIJRKSt21piecewise_construct_tSt5tupleIJOS1_EESL_IJEEEEESt17_Rb_tree_iteratorISA_ESt23_Rb_tree_const_iteratorISA_EDpOT_
	.section	.text._ZNSt5tupleIJRKN9ReqParser5StateEEEC2IvLb1EEES3_,"axG",@progbits,_ZNSt5tupleIJRKN9ReqParser5StateEEEC5IvLb1EEES3_,comdat
	.align 2
	.weak	_ZNSt5tupleIJRKN9ReqParser5StateEEEC2IvLb1EEES3_
	.type	_ZNSt5tupleIJRKN9ReqParser5StateEEEC2IvLb1EEES3_, @function
_ZNSt5tupleIJRKN9ReqParser5StateEEEC2IvLb1EEES3_:
.LFB6892:
	.cfi_startproc
	pushq	%rbp
	.cfi_def_cfa_offset 16
	.cfi_offset 6, -16
	movq	%rsp, %rbp
	.cfi_def_cfa_register 6
	subq	$16, %rsp
	movq	%rdi, -8(%rbp)
	movq	%rsi, -16(%rbp)
	movq	-8(%rbp), %rax
	movq	-16(%rbp), %rdx
	movq	%rdx, %rsi
	movq	%rax, %rdi
	call	_ZNSt11_Tuple_implILm0EJRKN9ReqParser5StateEEEC2ES3_
	nop
	leave
	.cfi_def_cfa 7, 8
	ret
	.cfi_endproc
.LFE6892:
	.size	_ZNSt5tupleIJRKN9ReqParser5StateEEEC2IvLb1EEES3_, .-_ZNSt5tupleIJRKN9ReqParser5StateEEEC2IvLb1EEES3_
	.weak	_ZNSt5tupleIJRKN9ReqParser5StateEEEC1IvLb1EEES3_
	.set	_ZNSt5tupleIJRKN9ReqParser5StateEEEC1IvLb1EEES3_,_ZNSt5tupleIJRKN9ReqParser5StateEEEC2IvLb1EEES3_
	.section	.text._ZNSt8_Rb_treeIN9ReqParser5StateESt4pairIKS1_NSt7__cxx1112basic_stringIcSt11char_traitsIcESaIcEEEESt10_Select1stISA_ESt4lessIS1_ESaISA_EE22_M_emplace_hint_uniqueIJRKSt21piecewise_construct_tSt5tupleIJRS3_EESL_IJEEEEESt17_Rb_tree_iteratorISA_ESt23_Rb_tree_const_iteratorISA_EDpOT_,"axG",@progbits,_ZNSt8_Rb_treeIN9ReqParser5StateESt4pairIKS1_NSt7__cxx1112basic_stringIcSt11char_traitsIcESaIcEEEESt10_Select1stISA_ESt4lessIS1_ESaISA_EE22_M_emplace_hint_uniqueIJRKSt21piecewise_construct_tSt5tupleIJRS3_EESL_IJEEEEESt17_Rb_tree_iteratorISA_ESt23_Rb_tree_const_iteratorISA_EDpOT_,comdat
	.align 2
	.weak	_ZNSt8_Rb_treeIN9ReqParser5StateESt4pairIKS1_NSt7__cxx1112basic_stringIcSt11char_traitsIcESaIcEEEESt10_Select1stISA_ESt4lessIS1_ESaISA_EE22_M_emplace_hint_uniqueIJRKSt21piecewise_construct_tSt5tupleIJRS3_EESL_IJEEEEESt17_Rb_tree_iteratorISA_ESt23_Rb_tree_const_iteratorISA_EDpOT_
	.type	_ZNSt8_Rb_treeIN9ReqParser5StateESt4pairIKS1_NSt7__cxx1112basic_stringIcSt11char_traitsIcESaIcEEEESt10_Select1stISA_ESt4lessIS1_ESaISA_EE22_M_emplace_hint_uniqueIJRKSt21piecewise_construct_tSt5tupleIJRS3_EESL_IJEEEEESt17_Rb_tree_iteratorISA_ESt23_Rb_tree_const_iteratorISA_EDpOT_, @function
_ZNSt8_Rb_treeIN9ReqParser5StateESt4pairIKS1_NSt7__cxx1112basic_stringIcSt11char_traitsIcESaIcEEEESt10_Select1stISA_ESt4lessIS1_ESaISA_EE22_M_emplace_hint_uniqueIJRKSt21piecewise_construct_tSt5tupleIJRS3_EESL_IJEEEEESt17_Rb_tree_iteratorISA_ESt23_Rb_tree_const_iteratorISA_EDpOT_:
.LFB6894:
	.cfi_startproc
	.cfi_personality 0x3,__gxx_personality_v0
	.cfi_lsda 0x3,.LLSDA6894
	pushq	%rbp
	.cfi_def_cfa_offset 16
	.cfi_offset 6, -16
	movq	%rsp, %rbp
	.cfi_def_cfa_register 6
	pushq	%r12
	pushq	%rbx
	subq	$80, %rsp
	.cfi_offset 12, -24
	.cfi_offset 3, -32
	movq	%rdi, -56(%rbp)
	movq	%rsi, -64(%rbp)
	movq	%rdx, -72(%rbp)
	movq	%rcx, -80(%rbp)
	movq	%r8, -88(%rbp)
	movq	-88(%rbp), %rax
	movq	%rax, %rdi
	call	_ZSt7forwardISt5tupleIJEEEOT_RNSt16remove_referenceIS2_E4typeE
	movq	%rax, %r12
	movq	-80(%rbp), %rax
	movq	%rax, %rdi
	call	_ZSt7forwardISt5tupleIJRKN9ReqParser5StateEEEEOT_RNSt16remove_referenceIS6_E4typeE
	movq	%rax, %rbx
	movq	-72(%rbp), %rax
	movq	%rax, %rdi
	call	_ZSt7forwardIRKSt21piecewise_construct_tEOT_RNSt16remove_referenceIS3_E4typeE
	movq	%rax, %rsi
	movq	-56(%rbp), %rax
	movq	%r12, %rcx
	movq	%rbx, %rdx
	movq	%rax, %rdi
.LEHB55:
	call	_ZNSt8_Rb_treeIN9ReqParser5StateESt4pairIKS1_NSt7__cxx1112basic_stringIcSt11char_traitsIcESaIcEEEESt10_Select1stISA_ESt4lessIS1_ESaISA_EE14_M_create_nodeIJRKSt21piecewise_construct_tSt5tupleIJRS3_EESL_IJEEEEEPSt13_Rb_tree_nodeISA_EDpOT_
.LEHE55:
	movq	%rax, -24(%rbp)
	movq	-24(%rbp), %rax
	movq	%rax, %rdi
.LEHB56:
	call	_ZNSt8_Rb_treeIN9ReqParser5StateESt4pairIKS1_NSt7__cxx1112basic_stringIcSt11char_traitsIcESaIcEEEESt10_Select1stISA_ESt4lessIS1_ESaISA_EE6_S_keyEPKSt13_Rb_tree_nodeISA_E
	movq	%rax, %rdx
	movq	-64(%rbp), %rcx
	movq	-56(%rbp), %rax
	movq	%rcx, %rsi
	movq	%rax, %rdi
	call	_ZNSt8_Rb_treeIN9ReqParser5StateESt4pairIKS1_NSt7__cxx1112basic_stringIcSt11char_traitsIcESaIcEEEESt10_Select1stISA_ESt4lessIS1_ESaISA_EE29_M_get_insert_hint_unique_posESt23_Rb_tree_const_iteratorISA_ERS3_
	movq	%rax, -48(%rbp)
	movq	%rdx, -40(%rbp)
	movq	-40(%rbp), %rax
	testq	%rax, %rax
	je	.L293
	movq	-40(%rbp), %rdx
	movq	-48(%rbp), %rsi
	movq	-24(%rbp), %rcx
	movq	-56(%rbp), %rax
	movq	%rax, %rdi
	call	_ZNSt8_Rb_treeIN9ReqParser5StateESt4pairIKS1_NSt7__cxx1112basic_stringIcSt11char_traitsIcESaIcEEEESt10_Select1stISA_ESt4lessIS1_ESaISA_EE14_M_insert_nodeEPSt18_Rb_tree_node_baseSI_PSt13_Rb_tree_nodeISA_E
.LEHE56:
	jmp	.L300
.L293:
	movq	-24(%rbp), %rdx
	movq	-56(%rbp), %rax
	movq	%rdx, %rsi
	movq	%rax, %rdi
	call	_ZNSt8_Rb_treeIN9ReqParser5StateESt4pairIKS1_NSt7__cxx1112basic_stringIcSt11char_traitsIcESaIcEEEESt10_Select1stISA_ESt4lessIS1_ESaISA_EE12_M_drop_nodeEPSt13_Rb_tree_nodeISA_E
	movq	-48(%rbp), %rdx
	leaq	-32(%rbp), %rax
	movq	%rdx, %rsi
	movq	%rax, %rdi
	call	_ZNSt17_Rb_tree_iteratorISt4pairIKN9ReqParser5StateENSt7__cxx1112basic_stringIcSt11char_traitsIcESaIcEEEEEC1EPSt18_Rb_tree_node_base
	movq	-32(%rbp), %rax
	jmp	.L300
.L298:
	movq	%rax, %rdi
	call	__cxa_begin_catch
	movq	-24(%rbp), %rdx
	movq	-56(%rbp), %rax
	movq	%rdx, %rsi
	movq	%rax, %rdi
	call	_ZNSt8_Rb_treeIN9ReqParser5StateESt4pairIKS1_NSt7__cxx1112basic_stringIcSt11char_traitsIcESaIcEEEESt10_Select1stISA_ESt4lessIS1_ESaISA_EE12_M_drop_nodeEPSt13_Rb_tree_nodeISA_E
.LEHB57:
	call	__cxa_rethrow
.LEHE57:
.L299:
	movq	%rax, %rbx
	call	__cxa_end_catch
	movq	%rbx, %rax
	movq	%rax, %rdi
.LEHB58:
	call	_Unwind_Resume
.LEHE58:
.L300:
	addq	$80, %rsp
	popq	%rbx
	popq	%r12
	popq	%rbp
	.cfi_def_cfa 7, 8
	ret
	.cfi_endproc
.LFE6894:
	.section	.gcc_except_table
	.align 4
.LLSDA6894:
	.byte	0xff
	.byte	0x3
	.uleb128 .LLSDATT6894-.LLSDATTD6894
.LLSDATTD6894:
	.byte	0x1
	.uleb128 .LLSDACSE6894-.LLSDACSB6894
.LLSDACSB6894:
	.uleb128 .LEHB55-.LFB6894
	.uleb128 .LEHE55-.LEHB55
	.uleb128 0
	.uleb128 0
	.uleb128 .LEHB56-.LFB6894
	.uleb128 .LEHE56-.LEHB56
	.uleb128 .L298-.LFB6894
	.uleb128 0x1
	.uleb128 .LEHB57-.LFB6894
	.uleb128 .LEHE57-.LEHB57
	.uleb128 .L299-.LFB6894
	.uleb128 0
	.uleb128 .LEHB58-.LFB6894
	.uleb128 .LEHE58-.LEHB58
	.uleb128 0
	.uleb128 0
.LLSDACSE6894:
	.byte	0x1
	.byte	0
	.align 4
	.long	0

.LLSDATT6894:
	.section	.text._ZNSt8_Rb_treeIN9ReqParser5StateESt4pairIKS1_NSt7__cxx1112basic_stringIcSt11char_traitsIcESaIcEEEESt10_Select1stISA_ESt4lessIS1_ESaISA_EE22_M_emplace_hint_uniqueIJRKSt21piecewise_construct_tSt5tupleIJRS3_EESL_IJEEEEESt17_Rb_tree_iteratorISA_ESt23_Rb_tree_const_iteratorISA_EDpOT_,"axG",@progbits,_ZNSt8_Rb_treeIN9ReqParser5StateESt4pairIKS1_NSt7__cxx1112basic_stringIcSt11char_traitsIcESaIcEEEESt10_Select1stISA_ESt4lessIS1_ESaISA_EE22_M_emplace_hint_uniqueIJRKSt21piecewise_construct_tSt5tupleIJRS3_EESL_IJEEEEESt17_Rb_tree_iteratorISA_ESt23_Rb_tree_const_iteratorISA_EDpOT_,comdat
	.size	_ZNSt8_Rb_treeIN9ReqParser5StateESt4pairIKS1_NSt7__cxx1112basic_stringIcSt11char_traitsIcESaIcEEEESt10_Select1stISA_ESt4lessIS1_ESaISA_EE22_M_emplace_hint_uniqueIJRKSt21piecewise_construct_tSt5tupleIJRS3_EESL_IJEEEEESt17_Rb_tree_iteratorISA_ESt23_Rb_tree_const_iteratorISA_EDpOT_, .-_ZNSt8_Rb_treeIN9ReqParser5StateESt4pairIKS1_NSt7__cxx1112basic_stringIcSt11char_traitsIcESaIcEEEESt10_Select1stISA_ESt4lessIS1_ESaISA_EE22_M_emplace_hint_uniqueIJRKSt21piecewise_construct_tSt5tupleIJRS3_EESL_IJEEEEESt17_Rb_tree_iteratorISA_ESt23_Rb_tree_const_iteratorISA_EDpOT_
	.section	.text._ZNSt14__array_traitsIsLm3EE6_S_refERA3_Ksm,"axG",@progbits,_ZNSt14__array_traitsIsLm3EE6_S_refERA3_Ksm,comdat
	.weak	_ZNSt14__array_traitsIsLm3EE6_S_refERA3_Ksm
	.type	_ZNSt14__array_traitsIsLm3EE6_S_refERA3_Ksm, @function
_ZNSt14__array_traitsIsLm3EE6_S_refERA3_Ksm:
.LFB6897:
	.cfi_startproc
	pushq	%rbp
	.cfi_def_cfa_offset 16
	.cfi_offset 6, -16
	movq	%rsp, %rbp
	.cfi_def_cfa_register 6
	movq	%rdi, -8(%rbp)
	movq	%rsi, -16(%rbp)
	movq	-16(%rbp), %rax
	leaq	(%rax,%rax), %rdx
	movq	-8(%rbp), %rax
	addq	%rdx, %rax
	popq	%rbp
	.cfi_def_cfa 7, 8
	ret
	.cfi_endproc
.LFE6897:
	.size	_ZNSt14__array_traitsIsLm3EE6_S_refERA3_Ksm, .-_ZNSt14__array_traitsIsLm3EE6_S_refERA3_Ksm
	.section	.text._ZNKSt5arrayINSt7__cxx1112basic_stringIwSt11char_traitsIwESaIwEEELm2EE4dataEv,"axG",@progbits,_ZNKSt5arrayINSt7__cxx1112basic_stringIwSt11char_traitsIwESaIwEEELm2EE4dataEv,comdat
	.align 2
	.weak	_ZNKSt5arrayINSt7__cxx1112basic_stringIwSt11char_traitsIwESaIwEEELm2EE4dataEv
	.type	_ZNKSt5arrayINSt7__cxx1112basic_stringIwSt11char_traitsIwESaIwEEELm2EE4dataEv, @function
_ZNKSt5arrayINSt7__cxx1112basic_stringIwSt11char_traitsIwESaIwEEELm2EE4dataEv:
.LFB6898:
	.cfi_startproc
	pushq	%rbp
	.cfi_def_cfa_offset 16
	.cfi_offset 6, -16
	movq	%rsp, %rbp
	.cfi_def_cfa_register 6
	subq	$16, %rsp
	movq	%rdi, -8(%rbp)
	movq	-8(%rbp), %rax
	movq	%rax, %rdi
	call	_ZNSt14__array_traitsINSt7__cxx1112basic_stringIwSt11char_traitsIwESaIwEEELm2EE6_S_ptrERA2_KS5_
	leave
	.cfi_def_cfa 7, 8
	ret
	.cfi_endproc
.LFE6898:
	.size	_ZNKSt5arrayINSt7__cxx1112basic_stringIwSt11char_traitsIwESaIwEEELm2EE4dataEv, .-_ZNKSt5arrayINSt7__cxx1112basic_stringIwSt11char_traitsIwESaIwEEELm2EE4dataEv
	.section	.text._ZNSt14__array_traitsINSt7__cxx1112basic_stringIwSt11char_traitsIwESaIwEEELm2EE6_S_refERA2_KS5_m,"axG",@progbits,_ZNSt14__array_traitsINSt7__cxx1112basic_stringIwSt11char_traitsIwESaIwEEELm2EE6_S_refERA2_KS5_m,comdat
	.weak	_ZNSt14__array_traitsINSt7__cxx1112basic_stringIwSt11char_traitsIwESaIwEEELm2EE6_S_refERA2_KS5_m
	.type	_ZNSt14__array_traitsINSt7__cxx1112basic_stringIwSt11char_traitsIwESaIwEEELm2EE6_S_refERA2_KS5_m, @function
_ZNSt14__array_traitsINSt7__cxx1112basic_stringIwSt11char_traitsIwESaIwEEELm2EE6_S_refERA2_KS5_m:
.LFB6901:
	.cfi_startproc
	pushq	%rbp
	.cfi_def_cfa_offset 16
	.cfi_offset 6, -16
	movq	%rsp, %rbp
	.cfi_def_cfa_register 6
	movq	%rdi, -8(%rbp)
	movq	%rsi, -16(%rbp)
	movq	-16(%rbp), %rax
	salq	$5, %rax
	movq	%rax, %rdx
	movq	-8(%rbp), %rax
	addq	%rdx, %rax
	popq	%rbp
	.cfi_def_cfa 7, 8
	ret
	.cfi_endproc
.LFE6901:
	.size	_ZNSt14__array_traitsINSt7__cxx1112basic_stringIwSt11char_traitsIwESaIwEEELm2EE6_S_refERA2_KS5_m, .-_ZNSt14__array_traitsINSt7__cxx1112basic_stringIwSt11char_traitsIwESaIwEEELm2EE6_S_refERA2_KS5_m
	.section	.text._ZSt9has_facetIN5boost5logic18indeterminate_nameIcEEEbRKSt6locale,"axG",@progbits,_ZSt9has_facetIN5boost5logic18indeterminate_nameIcEEEbRKSt6locale,comdat
	.weak	_ZSt9has_facetIN5boost5logic18indeterminate_nameIcEEEbRKSt6locale
	.type	_ZSt9has_facetIN5boost5logic18indeterminate_nameIcEEEbRKSt6locale, @function
_ZSt9has_facetIN5boost5logic18indeterminate_nameIcEEEbRKSt6locale:
.LFB6909:
	.cfi_startproc
	pushq	%rbp
	.cfi_def_cfa_offset 16
	.cfi_offset 6, -16
	movq	%rsp, %rbp
	.cfi_def_cfa_register 6
	subq	$32, %rsp
	movq	%rdi, -24(%rbp)
	movl	$_ZN5boost5logic18indeterminate_nameIcE2idE, %edi
	call	_ZNKSt6locale2id5_M_idEv
	movq	%rax, -8(%rbp)
	movq	-24(%rbp), %rax
	movq	(%rax), %rax
	movq	8(%rax), %rax
	movq	%rax, -16(%rbp)
	movq	-24(%rbp), %rax
	movq	(%rax), %rax
	movq	16(%rax), %rax
	cmpq	%rax, -8(%rbp)
	jnb	.L308
	movq	-8(%rbp), %rax
	leaq	0(,%rax,8), %rdx
	movq	-16(%rbp), %rax
	addq	%rdx, %rax
	movq	(%rax), %rax
	testq	%rax, %rax
	je	.L308
	movl	$0, %ecx
	movl	$_ZTIN5boost5logic18indeterminate_nameIcEE, %edx
	movl	$_ZTINSt6locale5facetE, %esi
	movq	%rax, %rdi
	call	__dynamic_cast
	testq	%rax, %rax
	je	.L308
	movl	$1, %eax
	jmp	.L309
.L308:
	movl	$0, %eax
.L309:
	leave
	.cfi_def_cfa 7, 8
	ret
	.cfi_endproc
.LFE6909:
	.size	_ZSt9has_facetIN5boost5logic18indeterminate_nameIcEEEbRKSt6locale, .-_ZSt9has_facetIN5boost5logic18indeterminate_nameIcEEEbRKSt6locale
	.section	.text._ZSt9use_facetIN5boost5logic18indeterminate_nameIcEEERKT_RKSt6locale,"axG",@progbits,_ZSt9use_facetIN5boost5logic18indeterminate_nameIcEEERKT_RKSt6locale,comdat
	.weak	_ZSt9use_facetIN5boost5logic18indeterminate_nameIcEEERKT_RKSt6locale
	.type	_ZSt9use_facetIN5boost5logic18indeterminate_nameIcEEERKT_RKSt6locale, @function
_ZSt9use_facetIN5boost5logic18indeterminate_nameIcEEERKT_RKSt6locale:
.LFB6910:
	.cfi_startproc
	pushq	%rbp
	.cfi_def_cfa_offset 16
	.cfi_offset 6, -16
	movq	%rsp, %rbp
	.cfi_def_cfa_register 6
	subq	$32, %rsp
	movq	%rdi, -24(%rbp)
	movl	$_ZN5boost5logic18indeterminate_nameIcE2idE, %edi
	call	_ZNKSt6locale2id5_M_idEv
	movq	%rax, -8(%rbp)
	movq	-24(%rbp), %rax
	movq	(%rax), %rax
	movq	8(%rax), %rax
	movq	%rax, -16(%rbp)
	movq	-24(%rbp), %rax
	movq	(%rax), %rax
	movq	16(%rax), %rax
	cmpq	%rax, -8(%rbp)
	jnb	.L312
	movq	-8(%rbp), %rax
	leaq	0(,%rax,8), %rdx
	movq	-16(%rbp), %rax
	addq	%rdx, %rax
	movq	(%rax), %rax
	testq	%rax, %rax
	jne	.L313
.L312:
	call	_ZSt16__throw_bad_castv
.L313:
	movq	-8(%rbp), %rax
	leaq	0(,%rax,8), %rdx
	movq	-16(%rbp), %rax
	addq	%rdx, %rax
	movq	(%rax), %rax
	movl	$0, %ecx
	movl	$_ZTIN5boost5logic18indeterminate_nameIcEE, %edx
	movl	$_ZTINSt6locale5facetE, %esi
	movq	%rax, %rdi
	call	__dynamic_cast
	testq	%rax, %rax
	jne	.L317
	call	__cxa_bad_cast
.L317:
	leave
	.cfi_def_cfa 7, 8
	ret
	.cfi_endproc
.LFE6910:
	.size	_ZSt9use_facetIN5boost5logic18indeterminate_nameIcEEERKT_RKSt6locale, .-_ZSt9use_facetIN5boost5logic18indeterminate_nameIcEEERKT_RKSt6locale
	.section	.text._ZNK5boost5logic18indeterminate_nameIcE4nameB5cxx11Ev,"axG",@progbits,_ZNK5boost5logic18indeterminate_nameIcE4nameB5cxx11Ev,comdat
	.align 2
	.weak	_ZNK5boost5logic18indeterminate_nameIcE4nameB5cxx11Ev
	.type	_ZNK5boost5logic18indeterminate_nameIcE4nameB5cxx11Ev, @function
_ZNK5boost5logic18indeterminate_nameIcE4nameB5cxx11Ev:
.LFB6911:
	.cfi_startproc
	pushq	%rbp
	.cfi_def_cfa_offset 16
	.cfi_offset 6, -16
	movq	%rsp, %rbp
	.cfi_def_cfa_register 6
	subq	$16, %rsp
	movq	%rdi, -8(%rbp)
	movq	%rsi, -16(%rbp)
	movq	-16(%rbp), %rax
	leaq	16(%rax), %rdx
	movq	-8(%rbp), %rax
	movq	%rdx, %rsi
	movq	%rax, %rdi
	call	_ZNSt7__cxx1112basic_stringIcSt11char_traitsIcESaIcEEC1ERKS4_
	movq	-8(%rbp), %rax
	leave
	.cfi_def_cfa 7, 8
	ret
	.cfi_endproc
.LFE6911:
	.size	_ZNK5boost5logic18indeterminate_nameIcE4nameB5cxx11Ev, .-_ZNK5boost5logic18indeterminate_nameIcE4nameB5cxx11Ev
	.section	.text._ZNKSt21__ctype_abstract_baseIwE2isEtw,"axG",@progbits,_ZNKSt21__ctype_abstract_baseIwE2isEtw,comdat
	.align 2
	.weak	_ZNKSt21__ctype_abstract_baseIwE2isEtw
	.type	_ZNKSt21__ctype_abstract_baseIwE2isEtw, @function
_ZNKSt21__ctype_abstract_baseIwE2isEtw:
.LFB6912:
	.cfi_startproc
	pushq	%rbp
	.cfi_def_cfa_offset 16
	.cfi_offset 6, -16
	movq	%rsp, %rbp
	.cfi_def_cfa_register 6
	subq	$16, %rsp
	movq	%rdi, -8(%rbp)
	movl	%esi, %eax
	movl	%edx, -16(%rbp)
	movw	%ax, -12(%rbp)
	movq	-8(%rbp), %rax
	movq	(%rax), %rax
	addq	$16, %rax
	movq	(%rax), %rax
	movzwl	-12(%rbp), %esi
	movl	-16(%rbp), %edx
	movq	-8(%rbp), %rcx
	movq	%rcx, %rdi
	call	*%rax
	leave
	.cfi_def_cfa 7, 8
	ret
	.cfi_endproc
.LFE6912:
	.size	_ZNKSt21__ctype_abstract_baseIwE2isEtw, .-_ZNKSt21__ctype_abstract_baseIwE2isEtw
	.section	.text._ZNSt14__array_traitsINSt7__cxx1118basic_stringstreamIwSt11char_traitsIwESaIwEEELm3EE6_S_refERA3_KS5_m,"axG",@progbits,_ZNSt14__array_traitsINSt7__cxx1118basic_stringstreamIwSt11char_traitsIwESaIwEEELm3EE6_S_refERA3_KS5_m,comdat
	.weak	_ZNSt14__array_traitsINSt7__cxx1118basic_stringstreamIwSt11char_traitsIwESaIwEEELm3EE6_S_refERA3_KS5_m
	.type	_ZNSt14__array_traitsINSt7__cxx1118basic_stringstreamIwSt11char_traitsIwESaIwEEELm3EE6_S_refERA3_KS5_m, @function
_ZNSt14__array_traitsINSt7__cxx1118basic_stringstreamIwSt11char_traitsIwESaIwEEELm3EE6_S_refERA3_KS5_m:
.LFB6913:
	.cfi_startproc
	pushq	%rbp
	.cfi_def_cfa_offset 16
	.cfi_offset 6, -16
	movq	%rsp, %rbp
	.cfi_def_cfa_register 6
	movq	%rdi, -8(%rbp)
	movq	%rsi, -16(%rbp)
	movq	-16(%rbp), %rax
	imulq	$392, %rax, %rdx
	movq	-8(%rbp), %rax
	addq	%rdx, %rax
	popq	%rbp
	.cfi_def_cfa 7, 8
	ret
	.cfi_endproc
.LFE6913:
	.size	_ZNSt14__array_traitsINSt7__cxx1118basic_stringstreamIwSt11char_traitsIwESaIwEEELm3EE6_S_refERA3_KS5_m, .-_ZNSt14__array_traitsINSt7__cxx1118basic_stringstreamIwSt11char_traitsIwESaIwEEELm3EE6_S_refERA3_KS5_m
	.section	.text._ZNKSt21__ctype_abstract_baseIwE7toupperEw,"axG",@progbits,_ZNKSt21__ctype_abstract_baseIwE7toupperEw,comdat
	.align 2
	.weak	_ZNKSt21__ctype_abstract_baseIwE7toupperEw
	.type	_ZNKSt21__ctype_abstract_baseIwE7toupperEw, @function
_ZNKSt21__ctype_abstract_baseIwE7toupperEw:
.LFB6914:
	.cfi_startproc
	pushq	%rbp
	.cfi_def_cfa_offset 16
	.cfi_offset 6, -16
	movq	%rsp, %rbp
	.cfi_def_cfa_register 6
	subq	$16, %rsp
	movq	%rdi, -8(%rbp)
	movl	%esi, -12(%rbp)
	movq	-8(%rbp), %rax
	movq	(%rax), %rax
	addq	$48, %rax
	movq	(%rax), %rax
	movl	-12(%rbp), %ecx
	movq	-8(%rbp), %rdx
	movl	%ecx, %esi
	movq	%rdx, %rdi
	call	*%rax
	leave
	.cfi_def_cfa 7, 8
	ret
	.cfi_endproc
.LFE6914:
	.size	_ZNKSt21__ctype_abstract_baseIwE7toupperEw, .-_ZNKSt21__ctype_abstract_baseIwE7toupperEw
	.text
	.type	_ZN9__gnu_cxx5__ops11__pred_iterIZN9ReqParser7consumeER7RequestwEUlNSt7__cxx1112basic_stringIwSt11char_traitsIwESaIwEEEE_EENS0_10_Iter_predIT_EESD_, @function
_ZN9__gnu_cxx5__ops11__pred_iterIZN9ReqParser7consumeER7RequestwEUlNSt7__cxx1112basic_stringIwSt11char_traitsIwESaIwEEEE_EENS0_10_Iter_predIT_EESD_:
.LFB6915:
	.cfi_startproc
	pushq	%rbp
	.cfi_def_cfa_offset 16
	.cfi_offset 6, -16
	movq	%rsp, %rbp
	.cfi_def_cfa_register 6
	subq	$32, %rsp
	movl	%edi, -20(%rbp)
	leaq	-20(%rbp), %rax
	movq	%rax, %rdi
	call	_ZSt4moveIRZN9ReqParser7consumeER7RequestwEUlNSt7__cxx1112basic_stringIwSt11char_traitsIwESaIwEEEE_EONSt16remove_referenceIT_E4typeEOSC_
	movq	%rax, %rdx
	leaq	-4(%rbp), %rax
	movl	(%rdx), %esi
	movq	%rax, %rdi
	call	_ZN9__gnu_cxx5__ops10_Iter_predIZN9ReqParser7consumeER7RequestwEUlNSt7__cxx1112basic_stringIwSt11char_traitsIwESaIwEEEE_EC1ESB_
	movl	-4(%rbp), %eax
	leave
	.cfi_def_cfa 7, 8
	ret
	.cfi_endproc
.LFE6915:
	.size	_ZN9__gnu_cxx5__ops11__pred_iterIZN9ReqParser7consumeER7RequestwEUlNSt7__cxx1112basic_stringIwSt11char_traitsIwESaIwEEEE_EENS0_10_Iter_predIT_EESD_, .-_ZN9__gnu_cxx5__ops11__pred_iterIZN9ReqParser7consumeER7RequestwEUlNSt7__cxx1112basic_stringIwSt11char_traitsIwESaIwEEEE_EENS0_10_Iter_predIT_EESD_
	.type	_ZSt9__find_ifIPKNSt7__cxx1112basic_stringIwSt11char_traitsIwESaIwEEEN9__gnu_cxx5__ops10_Iter_predIZN9ReqParser7consumeER7RequestwEUlS5_E_EEET_SG_SG_T0_, @function
_ZSt9__find_ifIPKNSt7__cxx1112basic_stringIwSt11char_traitsIwESaIwEEEN9__gnu_cxx5__ops10_Iter_predIZN9ReqParser7consumeER7RequestwEUlS5_E_EEET_SG_SG_T0_:
.LFB6916:
	.cfi_startproc
	pushq	%rbp
	.cfi_def_cfa_offset 16
	.cfi_offset 6, -16
	movq	%rsp, %rbp
	.cfi_def_cfa_register 6
	subq	$48, %rsp
	movq	%rdi, -24(%rbp)
	movq	%rsi, -32(%rbp)
	movl	%edx, -36(%rbp)
	leaq	-24(%rbp), %rax
	movq	%rax, %rdi
	call	_ZSt19__iterator_categoryIPKNSt7__cxx1112basic_stringIwSt11char_traitsIwESaIwEEEENSt15iterator_traitsIT_E17iterator_categoryERKS9_
	movq	-24(%rbp), %rax
	movl	-36(%rbp), %edx
	movq	-32(%rbp), %rcx
	movq	%rcx, %rsi
	movq	%rax, %rdi
	call	_ZSt9__find_ifIPKNSt7__cxx1112basic_stringIwSt11char_traitsIwESaIwEEEN9__gnu_cxx5__ops10_Iter_predIZN9ReqParser7consumeER7RequestwEUlS5_E_EEET_SG_SG_T0_St26random_access_iterator_tag
	nop
	leave
	.cfi_def_cfa 7, 8
	ret
	.cfi_endproc
.LFE6916:
	.size	_ZSt9__find_ifIPKNSt7__cxx1112basic_stringIwSt11char_traitsIwESaIwEEEN9__gnu_cxx5__ops10_Iter_predIZN9ReqParser7consumeER7RequestwEUlS5_E_EEET_SG_SG_T0_, .-_ZSt9__find_ifIPKNSt7__cxx1112basic_stringIwSt11char_traitsIwESaIwEEEN9__gnu_cxx5__ops10_Iter_predIZN9ReqParser7consumeER7RequestwEUlS5_E_EEET_SG_SG_T0_
	.section	.text._ZSt9has_facetIN5boost5logic18indeterminate_nameIwEEEbRKSt6locale,"axG",@progbits,_ZSt9has_facetIN5boost5logic18indeterminate_nameIwEEEbRKSt6locale,comdat
	.weak	_ZSt9has_facetIN5boost5logic18indeterminate_nameIwEEEbRKSt6locale
	.type	_ZSt9has_facetIN5boost5logic18indeterminate_nameIwEEEbRKSt6locale, @function
_ZSt9has_facetIN5boost5logic18indeterminate_nameIwEEEbRKSt6locale:
.LFB6925:
	.cfi_startproc
	pushq	%rbp
	.cfi_def_cfa_offset 16
	.cfi_offset 6, -16
	movq	%rsp, %rbp
	.cfi_def_cfa_register 6
	subq	$32, %rsp
	movq	%rdi, -24(%rbp)
	movl	$_ZN5boost5logic18indeterminate_nameIwE2idE, %edi
	call	_ZNKSt6locale2id5_M_idEv
	movq	%rax, -8(%rbp)
	movq	-24(%rbp), %rax
	movq	(%rax), %rax
	movq	8(%rax), %rax
	movq	%rax, -16(%rbp)
	movq	-24(%rbp), %rax
	movq	(%rax), %rax
	movq	16(%rax), %rax
	cmpq	%rax, -8(%rbp)
	jnb	.L331
	movq	-8(%rbp), %rax
	leaq	0(,%rax,8), %rdx
	movq	-16(%rbp), %rax
	addq	%rdx, %rax
	movq	(%rax), %rax
	testq	%rax, %rax
	je	.L331
	movl	$0, %ecx
	movl	$_ZTIN5boost5logic18indeterminate_nameIwEE, %edx
	movl	$_ZTINSt6locale5facetE, %esi
	movq	%rax, %rdi
	call	__dynamic_cast
	testq	%rax, %rax
	je	.L331
	movl	$1, %eax
	jmp	.L332
.L331:
	movl	$0, %eax
.L332:
	leave
	.cfi_def_cfa 7, 8
	ret
	.cfi_endproc
.LFE6925:
	.size	_ZSt9has_facetIN5boost5logic18indeterminate_nameIwEEEbRKSt6locale, .-_ZSt9has_facetIN5boost5logic18indeterminate_nameIwEEEbRKSt6locale
	.section	.text._ZSt9use_facetIN5boost5logic18indeterminate_nameIwEEERKT_RKSt6locale,"axG",@progbits,_ZSt9use_facetIN5boost5logic18indeterminate_nameIwEEERKT_RKSt6locale,comdat
	.weak	_ZSt9use_facetIN5boost5logic18indeterminate_nameIwEEERKT_RKSt6locale
	.type	_ZSt9use_facetIN5boost5logic18indeterminate_nameIwEEERKT_RKSt6locale, @function
_ZSt9use_facetIN5boost5logic18indeterminate_nameIwEEERKT_RKSt6locale:
.LFB6926:
	.cfi_startproc
	pushq	%rbp
	.cfi_def_cfa_offset 16
	.cfi_offset 6, -16
	movq	%rsp, %rbp
	.cfi_def_cfa_register 6
	subq	$32, %rsp
	movq	%rdi, -24(%rbp)
	movl	$_ZN5boost5logic18indeterminate_nameIwE2idE, %edi
	call	_ZNKSt6locale2id5_M_idEv
	movq	%rax, -8(%rbp)
	movq	-24(%rbp), %rax
	movq	(%rax), %rax
	movq	8(%rax), %rax
	movq	%rax, -16(%rbp)
	movq	-24(%rbp), %rax
	movq	(%rax), %rax
	movq	16(%rax), %rax
	cmpq	%rax, -8(%rbp)
	jnb	.L335
	movq	-8(%rbp), %rax
	leaq	0(,%rax,8), %rdx
	movq	-16(%rbp), %rax
	addq	%rdx, %rax
	movq	(%rax), %rax
	testq	%rax, %rax
	jne	.L336
.L335:
	call	_ZSt16__throw_bad_castv
.L336:
	movq	-8(%rbp), %rax
	leaq	0(,%rax,8), %rdx
	movq	-16(%rbp), %rax
	addq	%rdx, %rax
	movq	(%rax), %rax
	movl	$0, %ecx
	movl	$_ZTIN5boost5logic18indeterminate_nameIwEE, %edx
	movl	$_ZTINSt6locale5facetE, %esi
	movq	%rax, %rdi
	call	__dynamic_cast
	testq	%rax, %rax
	jne	.L340
	call	__cxa_bad_cast
.L340:
	leave
	.cfi_def_cfa 7, 8
	ret
	.cfi_endproc
.LFE6926:
	.size	_ZSt9use_facetIN5boost5logic18indeterminate_nameIwEEERKT_RKSt6locale, .-_ZSt9use_facetIN5boost5logic18indeterminate_nameIwEEERKT_RKSt6locale
	.section	.text._ZNK5boost5logic18indeterminate_nameIwE4nameB5cxx11Ev,"axG",@progbits,_ZNK5boost5logic18indeterminate_nameIwE4nameB5cxx11Ev,comdat
	.align 2
	.weak	_ZNK5boost5logic18indeterminate_nameIwE4nameB5cxx11Ev
	.type	_ZNK5boost5logic18indeterminate_nameIwE4nameB5cxx11Ev, @function
_ZNK5boost5logic18indeterminate_nameIwE4nameB5cxx11Ev:
.LFB6927:
	.cfi_startproc
	pushq	%rbp
	.cfi_def_cfa_offset 16
	.cfi_offset 6, -16
	movq	%rsp, %rbp
	.cfi_def_cfa_register 6
	subq	$16, %rsp
	movq	%rdi, -8(%rbp)
	movq	%rsi, -16(%rbp)
	movq	-16(%rbp), %rax
	leaq	16(%rax), %rdx
	movq	-8(%rbp), %rax
	movq	%rdx, %rsi
	movq	%rax, %rdi
	call	_ZNSt7__cxx1112basic_stringIwSt11char_traitsIwESaIwEEC1ERKS4_
	movq	-8(%rbp), %rax
	leave
	.cfi_def_cfa 7, 8
	ret
	.cfi_endproc
.LFE6927:
	.size	_ZNK5boost5logic18indeterminate_nameIwE4nameB5cxx11Ev, .-_ZNK5boost5logic18indeterminate_nameIwE4nameB5cxx11Ev
	.section	.text._ZN9__gnu_cxx13new_allocatorISt13_Rb_tree_nodeISt4pairIKN9ReqParser5StateENSt7__cxx1112basic_stringIcSt11char_traitsIcESaIcEEEEEEC2Ev,"axG",@progbits,_ZN9__gnu_cxx13new_allocatorISt13_Rb_tree_nodeISt4pairIKN9ReqParser5StateENSt7__cxx1112basic_stringIcSt11char_traitsIcESaIcEEEEEEC5Ev,comdat
	.align 2
	.weak	_ZN9__gnu_cxx13new_allocatorISt13_Rb_tree_nodeISt4pairIKN9ReqParser5StateENSt7__cxx1112basic_stringIcSt11char_traitsIcESaIcEEEEEEC2Ev
	.type	_ZN9__gnu_cxx13new_allocatorISt13_Rb_tree_nodeISt4pairIKN9ReqParser5StateENSt7__cxx1112basic_stringIcSt11char_traitsIcESaIcEEEEEEC2Ev, @function
_ZN9__gnu_cxx13new_allocatorISt13_Rb_tree_nodeISt4pairIKN9ReqParser5StateENSt7__cxx1112basic_stringIcSt11char_traitsIcESaIcEEEEEEC2Ev:
.LFB7052:
	.cfi_startproc
	pushq	%rbp
	.cfi_def_cfa_offset 16
	.cfi_offset 6, -16
	movq	%rsp, %rbp
	.cfi_def_cfa_register 6
	movq	%rdi, -8(%rbp)
	nop
	popq	%rbp
	.cfi_def_cfa 7, 8
	ret
	.cfi_endproc
.LFE7052:
	.size	_ZN9__gnu_cxx13new_allocatorISt13_Rb_tree_nodeISt4pairIKN9ReqParser5StateENSt7__cxx1112basic_stringIcSt11char_traitsIcESaIcEEEEEEC2Ev, .-_ZN9__gnu_cxx13new_allocatorISt13_Rb_tree_nodeISt4pairIKN9ReqParser5StateENSt7__cxx1112basic_stringIcSt11char_traitsIcESaIcEEEEEEC2Ev
	.weak	_ZN9__gnu_cxx13new_allocatorISt13_Rb_tree_nodeISt4pairIKN9ReqParser5StateENSt7__cxx1112basic_stringIcSt11char_traitsIcESaIcEEEEEEC1Ev
	.set	_ZN9__gnu_cxx13new_allocatorISt13_Rb_tree_nodeISt4pairIKN9ReqParser5StateENSt7__cxx1112basic_stringIcSt11char_traitsIcESaIcEEEEEEC1Ev,_ZN9__gnu_cxx13new_allocatorISt13_Rb_tree_nodeISt4pairIKN9ReqParser5StateENSt7__cxx1112basic_stringIcSt11char_traitsIcESaIcEEEEEEC2Ev
	.section	.text._ZNSt8_Rb_treeIN9ReqParser5StateESt4pairIKS1_NSt7__cxx1112basic_stringIcSt11char_traitsIcESaIcEEEESt10_Select1stISA_ESt4lessIS1_ESaISA_EE8_S_rightEPSt18_Rb_tree_node_base,"axG",@progbits,_ZNSt8_Rb_treeIN9ReqParser5StateESt4pairIKS1_NSt7__cxx1112basic_stringIcSt11char_traitsIcESaIcEEEESt10_Select1stISA_ESt4lessIS1_ESaISA_EE8_S_rightEPSt18_Rb_tree_node_base,comdat
	.weak	_ZNSt8_Rb_treeIN9ReqParser5StateESt4pairIKS1_NSt7__cxx1112basic_stringIcSt11char_traitsIcESaIcEEEESt10_Select1stISA_ESt4lessIS1_ESaISA_EE8_S_rightEPSt18_Rb_tree_node_base
	.type	_ZNSt8_Rb_treeIN9ReqParser5StateESt4pairIKS1_NSt7__cxx1112basic_stringIcSt11char_traitsIcESaIcEEEESt10_Select1stISA_ESt4lessIS1_ESaISA_EE8_S_rightEPSt18_Rb_tree_node_base, @function
_ZNSt8_Rb_treeIN9ReqParser5StateESt4pairIKS1_NSt7__cxx1112basic_stringIcSt11char_traitsIcESaIcEEEESt10_Select1stISA_ESt4lessIS1_ESaISA_EE8_S_rightEPSt18_Rb_tree_node_base:
.LFB7054:
	.cfi_startproc
	pushq	%rbp
	.cfi_def_cfa_offset 16
	.cfi_offset 6, -16
	movq	%rsp, %rbp
	.cfi_def_cfa_register 6
	movq	%rdi, -8(%rbp)
	movq	-8(%rbp), %rax
	movq	24(%rax), %rax
	popq	%rbp
	.cfi_def_cfa 7, 8
	ret
	.cfi_endproc
.LFE7054:
	.size	_ZNSt8_Rb_treeIN9ReqParser5StateESt4pairIKS1_NSt7__cxx1112basic_stringIcSt11char_traitsIcESaIcEEEESt10_Select1stISA_ESt4lessIS1_ESaISA_EE8_S_rightEPSt18_Rb_tree_node_base, .-_ZNSt8_Rb_treeIN9ReqParser5StateESt4pairIKS1_NSt7__cxx1112basic_stringIcSt11char_traitsIcESaIcEEEESt10_Select1stISA_ESt4lessIS1_ESaISA_EE8_S_rightEPSt18_Rb_tree_node_base
	.section	.text._ZNSt8_Rb_treeIN9ReqParser5StateESt4pairIKS1_NSt7__cxx1112basic_stringIcSt11char_traitsIcESaIcEEEESt10_Select1stISA_ESt4lessIS1_ESaISA_EE7_S_leftEPSt18_Rb_tree_node_base,"axG",@progbits,_ZNSt8_Rb_treeIN9ReqParser5StateESt4pairIKS1_NSt7__cxx1112basic_stringIcSt11char_traitsIcESaIcEEEESt10_Select1stISA_ESt4lessIS1_ESaISA_EE7_S_leftEPSt18_Rb_tree_node_base,comdat
	.weak	_ZNSt8_Rb_treeIN9ReqParser5StateESt4pairIKS1_NSt7__cxx1112basic_stringIcSt11char_traitsIcESaIcEEEESt10_Select1stISA_ESt4lessIS1_ESaISA_EE7_S_leftEPSt18_Rb_tree_node_base
	.type	_ZNSt8_Rb_treeIN9ReqParser5StateESt4pairIKS1_NSt7__cxx1112basic_stringIcSt11char_traitsIcESaIcEEEESt10_Select1stISA_ESt4lessIS1_ESaISA_EE7_S_leftEPSt18_Rb_tree_node_base, @function
_ZNSt8_Rb_treeIN9ReqParser5StateESt4pairIKS1_NSt7__cxx1112basic_stringIcSt11char_traitsIcESaIcEEEESt10_Select1stISA_ESt4lessIS1_ESaISA_EE7_S_leftEPSt18_Rb_tree_node_base:
.LFB7055:
	.cfi_startproc
	pushq	%rbp
	.cfi_def_cfa_offset 16
	.cfi_offset 6, -16
	movq	%rsp, %rbp
	.cfi_def_cfa_register 6
	movq	%rdi, -8(%rbp)
	movq	-8(%rbp), %rax
	movq	16(%rax), %rax
	popq	%rbp
	.cfi_def_cfa 7, 8
	ret
	.cfi_endproc
.LFE7055:
	.size	_ZNSt8_Rb_treeIN9ReqParser5StateESt4pairIKS1_NSt7__cxx1112basic_stringIcSt11char_traitsIcESaIcEEEESt10_Select1stISA_ESt4lessIS1_ESaISA_EE7_S_leftEPSt18_Rb_tree_node_base, .-_ZNSt8_Rb_treeIN9ReqParser5StateESt4pairIKS1_NSt7__cxx1112basic_stringIcSt11char_traitsIcESaIcEEEESt10_Select1stISA_ESt4lessIS1_ESaISA_EE7_S_leftEPSt18_Rb_tree_node_base
	.section	.text._ZNSt8_Rb_treeIN9ReqParser5StateESt4pairIKS1_NSt7__cxx1112basic_stringIcSt11char_traitsIcESaIcEEEESt10_Select1stISA_ESt4lessIS1_ESaISA_EE12_M_drop_nodeEPSt13_Rb_tree_nodeISA_E,"axG",@progbits,_ZNSt8_Rb_treeIN9ReqParser5StateESt4pairIKS1_NSt7__cxx1112basic_stringIcSt11char_traitsIcESaIcEEEESt10_Select1stISA_ESt4lessIS1_ESaISA_EE12_M_drop_nodeEPSt13_Rb_tree_nodeISA_E,comdat
	.align 2
	.weak	_ZNSt8_Rb_treeIN9ReqParser5StateESt4pairIKS1_NSt7__cxx1112basic_stringIcSt11char_traitsIcESaIcEEEESt10_Select1stISA_ESt4lessIS1_ESaISA_EE12_M_drop_nodeEPSt13_Rb_tree_nodeISA_E
	.type	_ZNSt8_Rb_treeIN9ReqParser5StateESt4pairIKS1_NSt7__cxx1112basic_stringIcSt11char_traitsIcESaIcEEEESt10_Select1stISA_ESt4lessIS1_ESaISA_EE12_M_drop_nodeEPSt13_Rb_tree_nodeISA_E, @function
_ZNSt8_Rb_treeIN9ReqParser5StateESt4pairIKS1_NSt7__cxx1112basic_stringIcSt11char_traitsIcESaIcEEEESt10_Select1stISA_ESt4lessIS1_ESaISA_EE12_M_drop_nodeEPSt13_Rb_tree_nodeISA_E:
.LFB7056:
	.cfi_startproc
	pushq	%rbp
	.cfi_def_cfa_offset 16
	.cfi_offset 6, -16
	movq	%rsp, %rbp
	.cfi_def_cfa_register 6
	subq	$16, %rsp
	movq	%rdi, -8(%rbp)
	movq	%rsi, -16(%rbp)
	movq	-16(%rbp), %rdx
	movq	-8(%rbp), %rax
	movq	%rdx, %rsi
	movq	%rax, %rdi
	call	_ZNSt8_Rb_treeIN9ReqParser5StateESt4pairIKS1_NSt7__cxx1112basic_stringIcSt11char_traitsIcESaIcEEEESt10_Select1stISA_ESt4lessIS1_ESaISA_EE15_M_destroy_nodeEPSt13_Rb_tree_nodeISA_E
	movq	-16(%rbp), %rdx
	movq	-8(%rbp), %rax
	movq	%rdx, %rsi
	movq	%rax, %rdi
	call	_ZNSt8_Rb_treeIN9ReqParser5StateESt4pairIKS1_NSt7__cxx1112basic_stringIcSt11char_traitsIcESaIcEEEESt10_Select1stISA_ESt4lessIS1_ESaISA_EE11_M_put_nodeEPSt13_Rb_tree_nodeISA_E
	nop
	leave
	.cfi_def_cfa 7, 8
	ret
	.cfi_endproc
.LFE7056:
	.size	_ZNSt8_Rb_treeIN9ReqParser5StateESt4pairIKS1_NSt7__cxx1112basic_stringIcSt11char_traitsIcESaIcEEEESt10_Select1stISA_ESt4lessIS1_ESaISA_EE12_M_drop_nodeEPSt13_Rb_tree_nodeISA_E, .-_ZNSt8_Rb_treeIN9ReqParser5StateESt4pairIKS1_NSt7__cxx1112basic_stringIcSt11char_traitsIcESaIcEEEESt10_Select1stISA_ESt4lessIS1_ESaISA_EE12_M_drop_nodeEPSt13_Rb_tree_nodeISA_E
	.section	.text._ZNSt8_Rb_treeIN9ReqParser5StateESt4pairIKS1_NSt7__cxx1112basic_stringIcSt11char_traitsIcESaIcEEEESt10_Select1stISA_ESt4lessIS1_ESaISA_EE11lower_boundERS3_,"axG",@progbits,_ZNSt8_Rb_treeIN9ReqParser5StateESt4pairIKS1_NSt7__cxx1112basic_stringIcSt11char_traitsIcESaIcEEEESt10_Select1stISA_ESt4lessIS1_ESaISA_EE11lower_boundERS3_,comdat
	.align 2
	.weak	_ZNSt8_Rb_treeIN9ReqParser5StateESt4pairIKS1_NSt7__cxx1112basic_stringIcSt11char_traitsIcESaIcEEEESt10_Select1stISA_ESt4lessIS1_ESaISA_EE11lower_boundERS3_
	.type	_ZNSt8_Rb_treeIN9ReqParser5StateESt4pairIKS1_NSt7__cxx1112basic_stringIcSt11char_traitsIcESaIcEEEESt10_Select1stISA_ESt4lessIS1_ESaISA_EE11lower_boundERS3_, @function
_ZNSt8_Rb_treeIN9ReqParser5StateESt4pairIKS1_NSt7__cxx1112basic_stringIcSt11char_traitsIcESaIcEEEESt10_Select1stISA_ESt4lessIS1_ESaISA_EE11lower_boundERS3_:
.LFB7057:
	.cfi_startproc
	pushq	%rbp
	.cfi_def_cfa_offset 16
	.cfi_offset 6, -16
	movq	%rsp, %rbp
	.cfi_def_cfa_register 6
	pushq	%rbx
	subq	$24, %rsp
	.cfi_offset 3, -24
	movq	%rdi, -24(%rbp)
	movq	%rsi, -32(%rbp)
	movq	-24(%rbp), %rax
	movq	%rax, %rdi
	call	_ZNSt8_Rb_treeIN9ReqParser5StateESt4pairIKS1_NSt7__cxx1112basic_stringIcSt11char_traitsIcESaIcEEEESt10_Select1stISA_ESt4lessIS1_ESaISA_EE6_M_endEv
	movq	%rax, %rbx
	movq	-24(%rbp), %rax
	movq	%rax, %rdi
	call	_ZNSt8_Rb_treeIN9ReqParser5StateESt4pairIKS1_NSt7__cxx1112basic_stringIcSt11char_traitsIcESaIcEEEESt10_Select1stISA_ESt4lessIS1_ESaISA_EE8_M_beginEv
	movq	%rax, %rsi
	movq	-32(%rbp), %rdx
	movq	-24(%rbp), %rax
	movq	%rdx, %rcx
	movq	%rbx, %rdx
	movq	%rax, %rdi
	call	_ZNSt8_Rb_treeIN9ReqParser5StateESt4pairIKS1_NSt7__cxx1112basic_stringIcSt11char_traitsIcESaIcEEEESt10_Select1stISA_ESt4lessIS1_ESaISA_EE14_M_lower_boundEPSt13_Rb_tree_nodeISA_EPSt18_Rb_tree_node_baseRS3_
	addq	$24, %rsp
	popq	%rbx
	popq	%rbp
	.cfi_def_cfa 7, 8
	ret
	.cfi_endproc
.LFE7057:
	.size	_ZNSt8_Rb_treeIN9ReqParser5StateESt4pairIKS1_NSt7__cxx1112basic_stringIcSt11char_traitsIcESaIcEEEESt10_Select1stISA_ESt4lessIS1_ESaISA_EE11lower_boundERS3_, .-_ZNSt8_Rb_treeIN9ReqParser5StateESt4pairIKS1_NSt7__cxx1112basic_stringIcSt11char_traitsIcESaIcEEEESt10_Select1stISA_ESt4lessIS1_ESaISA_EE11lower_boundERS3_
	.section	.text._ZNSt8_Rb_treeIN9ReqParser5StateESt4pairIKS1_NSt7__cxx1112basic_stringIcSt11char_traitsIcESaIcEEEESt10_Select1stISA_ESt4lessIS1_ESaISA_EE3endEv,"axG",@progbits,_ZNSt8_Rb_treeIN9ReqParser5StateESt4pairIKS1_NSt7__cxx1112basic_stringIcSt11char_traitsIcESaIcEEEESt10_Select1stISA_ESt4lessIS1_ESaISA_EE3endEv,comdat
	.align 2
	.weak	_ZNSt8_Rb_treeIN9ReqParser5StateESt4pairIKS1_NSt7__cxx1112basic_stringIcSt11char_traitsIcESaIcEEEESt10_Select1stISA_ESt4lessIS1_ESaISA_EE3endEv
	.type	_ZNSt8_Rb_treeIN9ReqParser5StateESt4pairIKS1_NSt7__cxx1112basic_stringIcSt11char_traitsIcESaIcEEEESt10_Select1stISA_ESt4lessIS1_ESaISA_EE3endEv, @function
_ZNSt8_Rb_treeIN9ReqParser5StateESt4pairIKS1_NSt7__cxx1112basic_stringIcSt11char_traitsIcESaIcEEEESt10_Select1stISA_ESt4lessIS1_ESaISA_EE3endEv:
.LFB7058:
	.cfi_startproc
	pushq	%rbp
	.cfi_def_cfa_offset 16
	.cfi_offset 6, -16
	movq	%rsp, %rbp
	.cfi_def_cfa_register 6
	subq	$32, %rsp
	movq	%rdi, -24(%rbp)
	movq	-24(%rbp), %rax
	leaq	8(%rax), %rdx
	leaq	-8(%rbp), %rax
	movq	%rdx, %rsi
	movq	%rax, %rdi
	call	_ZNSt17_Rb_tree_iteratorISt4pairIKN9ReqParser5StateENSt7__cxx1112basic_stringIcSt11char_traitsIcESaIcEEEEEC1EPSt18_Rb_tree_node_base
	movq	-8(%rbp), %rax
	leave
	.cfi_def_cfa 7, 8
	ret
	.cfi_endproc
.LFE7058:
	.size	_ZNSt8_Rb_treeIN9ReqParser5StateESt4pairIKS1_NSt7__cxx1112basic_stringIcSt11char_traitsIcESaIcEEEESt10_Select1stISA_ESt4lessIS1_ESaISA_EE3endEv, .-_ZNSt8_Rb_treeIN9ReqParser5StateESt4pairIKS1_NSt7__cxx1112basic_stringIcSt11char_traitsIcESaIcEEEESt10_Select1stISA_ESt4lessIS1_ESaISA_EE3endEv
	.section	.text._ZNKSt8_Rb_treeIN9ReqParser5StateESt4pairIKS1_NSt7__cxx1112basic_stringIcSt11char_traitsIcESaIcEEEESt10_Select1stISA_ESt4lessIS1_ESaISA_EE8key_compEv,"axG",@progbits,_ZNKSt8_Rb_treeIN9ReqParser5StateESt4pairIKS1_NSt7__cxx1112basic_stringIcSt11char_traitsIcESaIcEEEESt10_Select1stISA_ESt4lessIS1_ESaISA_EE8key_compEv,comdat
	.align 2
	.weak	_ZNKSt8_Rb_treeIN9ReqParser5StateESt4pairIKS1_NSt7__cxx1112basic_stringIcSt11char_traitsIcESaIcEEEESt10_Select1stISA_ESt4lessIS1_ESaISA_EE8key_compEv
	.type	_ZNKSt8_Rb_treeIN9ReqParser5StateESt4pairIKS1_NSt7__cxx1112basic_stringIcSt11char_traitsIcESaIcEEEESt10_Select1stISA_ESt4lessIS1_ESaISA_EE8key_compEv, @function
_ZNKSt8_Rb_treeIN9ReqParser5StateESt4pairIKS1_NSt7__cxx1112basic_stringIcSt11char_traitsIcESaIcEEEESt10_Select1stISA_ESt4lessIS1_ESaISA_EE8key_compEv:
.LFB7059:
	.cfi_startproc
	pushq	%rbp
	.cfi_def_cfa_offset 16
	.cfi_offset 6, -16
	movq	%rsp, %rbp
	.cfi_def_cfa_register 6
	movq	%rdi, -8(%rbp)
	popq	%rbp
	.cfi_def_cfa 7, 8
	ret
	.cfi_endproc
.LFE7059:
	.size	_ZNKSt8_Rb_treeIN9ReqParser5StateESt4pairIKS1_NSt7__cxx1112basic_stringIcSt11char_traitsIcESaIcEEEESt10_Select1stISA_ESt4lessIS1_ESaISA_EE8key_compEv, .-_ZNKSt8_Rb_treeIN9ReqParser5StateESt4pairIKS1_NSt7__cxx1112basic_stringIcSt11char_traitsIcESaIcEEEESt10_Select1stISA_ESt4lessIS1_ESaISA_EE8key_compEv
	.section	.text._ZNSt13_Rb_tree_nodeISt4pairIKN9ReqParser5StateENSt7__cxx1112basic_stringIcSt11char_traitsIcESaIcEEEEE9_M_valptrEv,"axG",@progbits,_ZNSt13_Rb_tree_nodeISt4pairIKN9ReqParser5StateENSt7__cxx1112basic_stringIcSt11char_traitsIcESaIcEEEEE9_M_valptrEv,comdat
	.align 2
	.weak	_ZNSt13_Rb_tree_nodeISt4pairIKN9ReqParser5StateENSt7__cxx1112basic_stringIcSt11char_traitsIcESaIcEEEEE9_M_valptrEv
	.type	_ZNSt13_Rb_tree_nodeISt4pairIKN9ReqParser5StateENSt7__cxx1112basic_stringIcSt11char_traitsIcESaIcEEEEE9_M_valptrEv, @function
_ZNSt13_Rb_tree_nodeISt4pairIKN9ReqParser5StateENSt7__cxx1112basic_stringIcSt11char_traitsIcESaIcEEEEE9_M_valptrEv:
.LFB7060:
	.cfi_startproc
	pushq	%rbp
	.cfi_def_cfa_offset 16
	.cfi_offset 6, -16
	movq	%rsp, %rbp
	.cfi_def_cfa_register 6
	subq	$16, %rsp
	movq	%rdi, -8(%rbp)
	movq	-8(%rbp), %rax
	addq	$32, %rax
	movq	%rax, %rdi
	call	_ZN9__gnu_cxx16__aligned_membufISt4pairIKN9ReqParser5StateENSt7__cxx1112basic_stringIcSt11char_traitsIcESaIcEEEEE6_M_ptrEv
	leave
	.cfi_def_cfa 7, 8
	ret
	.cfi_endproc
.LFE7060:
	.size	_ZNSt13_Rb_tree_nodeISt4pairIKN9ReqParser5StateENSt7__cxx1112basic_stringIcSt11char_traitsIcESaIcEEEEE9_M_valptrEv, .-_ZNSt13_Rb_tree_nodeISt4pairIKN9ReqParser5StateENSt7__cxx1112basic_stringIcSt11char_traitsIcESaIcEEEEE9_M_valptrEv
	.section	.text._ZSt7forwardIN9ReqParser5StateEEOT_RNSt16remove_referenceIS2_E4typeE,"axG",@progbits,_ZSt7forwardIN9ReqParser5StateEEOT_RNSt16remove_referenceIS2_E4typeE,comdat
	.weak	_ZSt7forwardIN9ReqParser5StateEEOT_RNSt16remove_referenceIS2_E4typeE
	.type	_ZSt7forwardIN9ReqParser5StateEEOT_RNSt16remove_referenceIS2_E4typeE, @function
_ZSt7forwardIN9ReqParser5StateEEOT_RNSt16remove_referenceIS2_E4typeE:
.LFB7061:
	.cfi_startproc
	pushq	%rbp
	.cfi_def_cfa_offset 16
	.cfi_offset 6, -16
	movq	%rsp, %rbp
	.cfi_def_cfa_register 6
	movq	%rdi, -8(%rbp)
	movq	-8(%rbp), %rax
	popq	%rbp
	.cfi_def_cfa 7, 8
	ret
	.cfi_endproc
.LFE7061:
	.size	_ZSt7forwardIN9ReqParser5StateEEOT_RNSt16remove_referenceIS2_E4typeE, .-_ZSt7forwardIN9ReqParser5StateEEOT_RNSt16remove_referenceIS2_E4typeE
	.section	.text._ZNSt5tupleIJON9ReqParser5StateEEEC2IJS1_ELb1EEEDpOT_,"axG",@progbits,_ZNSt5tupleIJON9ReqParser5StateEEEC5IJS1_ELb1EEEDpOT_,comdat
	.align 2
	.weak	_ZNSt5tupleIJON9ReqParser5StateEEEC2IJS1_ELb1EEEDpOT_
	.type	_ZNSt5tupleIJON9ReqParser5StateEEEC2IJS1_ELb1EEEDpOT_, @function
_ZNSt5tupleIJON9ReqParser5StateEEEC2IJS1_ELb1EEEDpOT_:
.LFB7063:
	.cfi_startproc
	pushq	%rbp
	.cfi_def_cfa_offset 16
	.cfi_offset 6, -16
	movq	%rsp, %rbp
	.cfi_def_cfa_register 6
	pushq	%rbx
	subq	$24, %rsp
	.cfi_offset 3, -24
	movq	%rdi, -24(%rbp)
	movq	%rsi, -32(%rbp)
	movq	-24(%rbp), %rbx
	movq	-32(%rbp), %rax
	movq	%rax, %rdi
	call	_ZSt7forwardIN9ReqParser5StateEEOT_RNSt16remove_referenceIS2_E4typeE
	movq	%rax, %rsi
	movq	%rbx, %rdi
	call	_ZNSt11_Tuple_implILm0EJON9ReqParser5StateEEEC2IS1_EEOT_
	nop
	addq	$24, %rsp
	popq	%rbx
	popq	%rbp
	.cfi_def_cfa 7, 8
	ret
	.cfi_endproc
.LFE7063:
	.size	_ZNSt5tupleIJON9ReqParser5StateEEEC2IJS1_ELb1EEEDpOT_, .-_ZNSt5tupleIJON9ReqParser5StateEEEC2IJS1_ELb1EEEDpOT_
	.weak	_ZNSt5tupleIJON9ReqParser5StateEEEC1IJS1_ELb1EEEDpOT_
	.set	_ZNSt5tupleIJON9ReqParser5StateEEEC1IJS1_ELb1EEEDpOT_,_ZNSt5tupleIJON9ReqParser5StateEEEC2IJS1_ELb1EEEDpOT_
	.section	.text._ZNSt11_Tuple_implILm0EJON9ReqParser5StateEEEC2EOS3_,"axG",@progbits,_ZNSt11_Tuple_implILm0EJON9ReqParser5StateEEEC5EOS3_,comdat
	.align 2
	.weak	_ZNSt11_Tuple_implILm0EJON9ReqParser5StateEEEC2EOS3_
	.type	_ZNSt11_Tuple_implILm0EJON9ReqParser5StateEEEC2EOS3_, @function
_ZNSt11_Tuple_implILm0EJON9ReqParser5StateEEEC2EOS3_:
.LFB7066:
	.cfi_startproc
	pushq	%rbp
	.cfi_def_cfa_offset 16
	.cfi_offset 6, -16
	movq	%rsp, %rbp
	.cfi_def_cfa_register 6
	pushq	%rbx
	subq	$24, %rsp
	.cfi_offset 3, -24
	movq	%rdi, -24(%rbp)
	movq	%rsi, -32(%rbp)
	movq	-24(%rbp), %rbx
	movq	-32(%rbp), %rax
	movq	%rax, %rdi
	call	_ZNSt11_Tuple_implILm0EJON9ReqParser5StateEEE7_M_headERS3_
	movq	%rax, %rdi
	call	_ZSt7forwardION9ReqParser5StateEEOT_RNSt16remove_referenceIS3_E4typeE
	movq	%rax, %rsi
	movq	%rbx, %rdi
	call	_ZNSt10_Head_baseILm0EON9ReqParser5StateELb0EEC2IS1_EEOT_
	nop
	addq	$24, %rsp
	popq	%rbx
	popq	%rbp
	.cfi_def_cfa 7, 8
	ret
	.cfi_endproc
.LFE7066:
	.size	_ZNSt11_Tuple_implILm0EJON9ReqParser5StateEEEC2EOS3_, .-_ZNSt11_Tuple_implILm0EJON9ReqParser5StateEEEC2EOS3_
	.weak	_ZNSt11_Tuple_implILm0EJON9ReqParser5StateEEEC1EOS3_
	.set	_ZNSt11_Tuple_implILm0EJON9ReqParser5StateEEEC1EOS3_,_ZNSt11_Tuple_implILm0EJON9ReqParser5StateEEEC2EOS3_
	.section	.text._ZSt7forwardIRKSt21piecewise_construct_tEOT_RNSt16remove_referenceIS3_E4typeE,"axG",@progbits,_ZSt7forwardIRKSt21piecewise_construct_tEOT_RNSt16remove_referenceIS3_E4typeE,comdat
	.weak	_ZSt7forwardIRKSt21piecewise_construct_tEOT_RNSt16remove_referenceIS3_E4typeE
	.type	_ZSt7forwardIRKSt21piecewise_construct_tEOT_RNSt16remove_referenceIS3_E4typeE, @function
_ZSt7forwardIRKSt21piecewise_construct_tEOT_RNSt16remove_referenceIS3_E4typeE:
.LFB7068:
	.cfi_startproc
	pushq	%rbp
	.cfi_def_cfa_offset 16
	.cfi_offset 6, -16
	movq	%rsp, %rbp
	.cfi_def_cfa_register 6
	movq	%rdi, -8(%rbp)
	movq	-8(%rbp), %rax
	popq	%rbp
	.cfi_def_cfa 7, 8
	ret
	.cfi_endproc
.LFE7068:
	.size	_ZSt7forwardIRKSt21piecewise_construct_tEOT_RNSt16remove_referenceIS3_E4typeE, .-_ZSt7forwardIRKSt21piecewise_construct_tEOT_RNSt16remove_referenceIS3_E4typeE
	.section	.text._ZSt7forwardISt5tupleIJON9ReqParser5StateEEEEOT_RNSt16remove_referenceIS5_E4typeE,"axG",@progbits,_ZSt7forwardISt5tupleIJON9ReqParser5StateEEEEOT_RNSt16remove_referenceIS5_E4typeE,comdat
	.weak	_ZSt7forwardISt5tupleIJON9ReqParser5StateEEEEOT_RNSt16remove_referenceIS5_E4typeE
	.type	_ZSt7forwardISt5tupleIJON9ReqParser5StateEEEEOT_RNSt16remove_referenceIS5_E4typeE, @function
_ZSt7forwardISt5tupleIJON9ReqParser5StateEEEEOT_RNSt16remove_referenceIS5_E4typeE:
.LFB7069:
	.cfi_startproc
	pushq	%rbp
	.cfi_def_cfa_offset 16
	.cfi_offset 6, -16
	movq	%rsp, %rbp
	.cfi_def_cfa_register 6
	movq	%rdi, -8(%rbp)
	movq	-8(%rbp), %rax
	popq	%rbp
	.cfi_def_cfa 7, 8
	ret
	.cfi_endproc
.LFE7069:
	.size	_ZSt7forwardISt5tupleIJON9ReqParser5StateEEEEOT_RNSt16remove_referenceIS5_E4typeE, .-_ZSt7forwardISt5tupleIJON9ReqParser5StateEEEEOT_RNSt16remove_referenceIS5_E4typeE
	.section	.text._ZSt7forwardISt5tupleIJEEEOT_RNSt16remove_referenceIS2_E4typeE,"axG",@progbits,_ZSt7forwardISt5tupleIJEEEOT_RNSt16remove_referenceIS2_E4typeE,comdat
	.weak	_ZSt7forwardISt5tupleIJEEEOT_RNSt16remove_referenceIS2_E4typeE
	.type	_ZSt7forwardISt5tupleIJEEEOT_RNSt16remove_referenceIS2_E4typeE, @function
_ZSt7forwardISt5tupleIJEEEOT_RNSt16remove_referenceIS2_E4typeE:
.LFB7070:
	.cfi_startproc
	pushq	%rbp
	.cfi_def_cfa_offset 16
	.cfi_offset 6, -16
	movq	%rsp, %rbp
	.cfi_def_cfa_register 6
	movq	%rdi, -8(%rbp)
	movq	-8(%rbp), %rax
	popq	%rbp
	.cfi_def_cfa 7, 8
	ret
	.cfi_endproc
.LFE7070:
	.size	_ZSt7forwardISt5tupleIJEEEOT_RNSt16remove_referenceIS2_E4typeE, .-_ZSt7forwardISt5tupleIJEEEOT_RNSt16remove_referenceIS2_E4typeE
	.section	.text._ZNSt8_Rb_treeIN9ReqParser5StateESt4pairIKS1_NSt7__cxx1112basic_stringIcSt11char_traitsIcESaIcEEEESt10_Select1stISA_ESt4lessIS1_ESaISA_EE14_M_create_nodeIJRKSt21piecewise_construct_tSt5tupleIJOS1_EESL_IJEEEEEPSt13_Rb_tree_nodeISA_EDpOT_,"axG",@progbits,_ZNSt8_Rb_treeIN9ReqParser5StateESt4pairIKS1_NSt7__cxx1112basic_stringIcSt11char_traitsIcESaIcEEEESt10_Select1stISA_ESt4lessIS1_ESaISA_EE14_M_create_nodeIJRKSt21piecewise_construct_tSt5tupleIJOS1_EESL_IJEEEEEPSt13_Rb_tree_nodeISA_EDpOT_,comdat
	.align 2
	.weak	_ZNSt8_Rb_treeIN9ReqParser5StateESt4pairIKS1_NSt7__cxx1112basic_stringIcSt11char_traitsIcESaIcEEEESt10_Select1stISA_ESt4lessIS1_ESaISA_EE14_M_create_nodeIJRKSt21piecewise_construct_tSt5tupleIJOS1_EESL_IJEEEEEPSt13_Rb_tree_nodeISA_EDpOT_
	.type	_ZNSt8_Rb_treeIN9ReqParser5StateESt4pairIKS1_NSt7__cxx1112basic_stringIcSt11char_traitsIcESaIcEEEESt10_Select1stISA_ESt4lessIS1_ESaISA_EE14_M_create_nodeIJRKSt21piecewise_construct_tSt5tupleIJOS1_EESL_IJEEEEEPSt13_Rb_tree_nodeISA_EDpOT_, @function
_ZNSt8_Rb_treeIN9ReqParser5StateESt4pairIKS1_NSt7__cxx1112basic_stringIcSt11char_traitsIcESaIcEEEESt10_Select1stISA_ESt4lessIS1_ESaISA_EE14_M_create_nodeIJRKSt21piecewise_construct_tSt5tupleIJOS1_EESL_IJEEEEEPSt13_Rb_tree_nodeISA_EDpOT_:
.LFB7071:
	.cfi_startproc
	pushq	%rbp
	.cfi_def_cfa_offset 16
	.cfi_offset 6, -16
	movq	%rsp, %rbp
	.cfi_def_cfa_register 6
	pushq	%r12
	pushq	%rbx
	subq	$48, %rsp
	.cfi_offset 12, -24
	.cfi_offset 3, -32
	movq	%rdi, -40(%rbp)
	movq	%rsi, -48(%rbp)
	movq	%rdx, -56(%rbp)
	movq	%rcx, -64(%rbp)
	movq	-40(%rbp), %rax
	movq	%rax, %rdi
	call	_ZNSt8_Rb_treeIN9ReqParser5StateESt4pairIKS1_NSt7__cxx1112basic_stringIcSt11char_traitsIcESaIcEEEESt10_Select1stISA_ESt4lessIS1_ESaISA_EE11_M_get_nodeEv
	movq	%rax, -24(%rbp)
	movq	-64(%rbp), %rax
	movq	%rax, %rdi
	call	_ZSt7forwardISt5tupleIJEEEOT_RNSt16remove_referenceIS2_E4typeE
	movq	%rax, %r12
	movq	-56(%rbp), %rax
	movq	%rax, %rdi
	call	_ZSt7forwardISt5tupleIJON9ReqParser5StateEEEEOT_RNSt16remove_referenceIS5_E4typeE
	movq	%rax, %rbx
	movq	-48(%rbp), %rax
	movq	%rax, %rdi
	call	_ZSt7forwardIRKSt21piecewise_construct_tEOT_RNSt16remove_referenceIS3_E4typeE
	movq	%rax, %rdx
	movq	-24(%rbp), %rsi
	movq	-40(%rbp), %rax
	movq	%r12, %r8
	movq	%rbx, %rcx
	movq	%rax, %rdi
	call	_ZNSt8_Rb_treeIN9ReqParser5StateESt4pairIKS1_NSt7__cxx1112basic_stringIcSt11char_traitsIcESaIcEEEESt10_Select1stISA_ESt4lessIS1_ESaISA_EE17_M_construct_nodeIJRKSt21piecewise_construct_tSt5tupleIJOS1_EESL_IJEEEEEvPSt13_Rb_tree_nodeISA_EDpOT_
	movq	-24(%rbp), %rax
	addq	$48, %rsp
	popq	%rbx
	popq	%r12
	popq	%rbp
	.cfi_def_cfa 7, 8
	ret
	.cfi_endproc
.LFE7071:
	.size	_ZNSt8_Rb_treeIN9ReqParser5StateESt4pairIKS1_NSt7__cxx1112basic_stringIcSt11char_traitsIcESaIcEEEESt10_Select1stISA_ESt4lessIS1_ESaISA_EE14_M_create_nodeIJRKSt21piecewise_construct_tSt5tupleIJOS1_EESL_IJEEEEEPSt13_Rb_tree_nodeISA_EDpOT_, .-_ZNSt8_Rb_treeIN9ReqParser5StateESt4pairIKS1_NSt7__cxx1112basic_stringIcSt11char_traitsIcESaIcEEEESt10_Select1stISA_ESt4lessIS1_ESaISA_EE14_M_create_nodeIJRKSt21piecewise_construct_tSt5tupleIJOS1_EESL_IJEEEEEPSt13_Rb_tree_nodeISA_EDpOT_
	.section	.text._ZNSt8_Rb_treeIN9ReqParser5StateESt4pairIKS1_NSt7__cxx1112basic_stringIcSt11char_traitsIcESaIcEEEESt10_Select1stISA_ESt4lessIS1_ESaISA_EE29_M_get_insert_hint_unique_posESt23_Rb_tree_const_iteratorISA_ERS3_,"axG",@progbits,_ZNSt8_Rb_treeIN9ReqParser5StateESt4pairIKS1_NSt7__cxx1112basic_stringIcSt11char_traitsIcESaIcEEEESt10_Select1stISA_ESt4lessIS1_ESaISA_EE29_M_get_insert_hint_unique_posESt23_Rb_tree_const_iteratorISA_ERS3_,comdat
	.align 2
	.weak	_ZNSt8_Rb_treeIN9ReqParser5StateESt4pairIKS1_NSt7__cxx1112basic_stringIcSt11char_traitsIcESaIcEEEESt10_Select1stISA_ESt4lessIS1_ESaISA_EE29_M_get_insert_hint_unique_posESt23_Rb_tree_const_iteratorISA_ERS3_
	.type	_ZNSt8_Rb_treeIN9ReqParser5StateESt4pairIKS1_NSt7__cxx1112basic_stringIcSt11char_traitsIcESaIcEEEESt10_Select1stISA_ESt4lessIS1_ESaISA_EE29_M_get_insert_hint_unique_posESt23_Rb_tree_const_iteratorISA_ERS3_, @function
_ZNSt8_Rb_treeIN9ReqParser5StateESt4pairIKS1_NSt7__cxx1112basic_stringIcSt11char_traitsIcESaIcEEEESt10_Select1stISA_ESt4lessIS1_ESaISA_EE29_M_get_insert_hint_unique_posESt23_Rb_tree_const_iteratorISA_ERS3_:
.LFB7072:
	.cfi_startproc
	pushq	%rbp
	.cfi_def_cfa_offset 16
	.cfi_offset 6, -16
	movq	%rsp, %rbp
	.cfi_def_cfa_register 6
	pushq	%rbx
	subq	$280, %rsp
	.cfi_offset 3, -24
	movq	%rdi, -264(%rbp)
	movq	%rsi, -272(%rbp)
	movq	%rdx, -280(%rbp)
	leaq	-272(%rbp), %rax
	movq	%rax, %rdi
	call	_ZNKSt23_Rb_tree_const_iteratorISt4pairIKN9ReqParser5StateENSt7__cxx1112basic_stringIcSt11char_traitsIcESaIcEEEEE13_M_const_castEv
	movq	%rax, -232(%rbp)
	movq	-232(%rbp), %rbx
	movq	-264(%rbp), %rax
	movq	%rax, %rdi
	call	_ZNSt8_Rb_treeIN9ReqParser5StateESt4pairIKS1_NSt7__cxx1112basic_stringIcSt11char_traitsIcESaIcEEEESt10_Select1stISA_ESt4lessIS1_ESaISA_EE6_M_endEv
	cmpq	%rax, %rbx
	sete	%al
	testb	%al, %al
	je	.L370
	movq	-264(%rbp), %rax
	movq	%rax, %rdi
	call	_ZNKSt8_Rb_treeIN9ReqParser5StateESt4pairIKS1_NSt7__cxx1112basic_stringIcSt11char_traitsIcESaIcEEEESt10_Select1stISA_ESt4lessIS1_ESaISA_EE4sizeEv
	testq	%rax, %rax
	je	.L371
	movq	-264(%rbp), %rbx
	movq	-264(%rbp), %rax
	movq	%rax, %rdi
	call	_ZNSt8_Rb_treeIN9ReqParser5StateESt4pairIKS1_NSt7__cxx1112basic_stringIcSt11char_traitsIcESaIcEEEESt10_Select1stISA_ESt4lessIS1_ESaISA_EE12_M_rightmostEv
	movq	(%rax), %rax
	movq	%rax, %rdi
	call	_ZNSt8_Rb_treeIN9ReqParser5StateESt4pairIKS1_NSt7__cxx1112basic_stringIcSt11char_traitsIcESaIcEEEESt10_Select1stISA_ESt4lessIS1_ESaISA_EE6_S_keyEPKSt18_Rb_tree_node_base
	movq	%rax, %rcx
	movq	-280(%rbp), %rax
	movq	%rax, %rdx
	movq	%rcx, %rsi
	movq	%rbx, %rdi
	call	_ZNKSt4lessIN9ReqParser5StateEEclERKS1_S4_
	testb	%al, %al
	je	.L371
	movl	$1, %eax
	jmp	.L372
.L371:
	movl	$0, %eax
.L372:
	testb	%al, %al
	je	.L373
	movq	-264(%rbp), %rax
	movq	%rax, %rdi
	call	_ZNSt8_Rb_treeIN9ReqParser5StateESt4pairIKS1_NSt7__cxx1112basic_stringIcSt11char_traitsIcESaIcEEEESt10_Select1stISA_ESt4lessIS1_ESaISA_EE12_M_rightmostEv
	movq	%rax, %rdx
	movq	$0, -200(%rbp)
	leaq	-200(%rbp), %rcx
	leaq	-224(%rbp), %rax
	movq	%rcx, %rsi
	movq	%rax, %rdi
	call	_ZNSt4pairIPSt18_Rb_tree_node_baseS1_EC1IRS1_Lb1EEERKS1_OT_
	movq	-224(%rbp), %rax
	movq	-216(%rbp), %rdx
	jmp	.L385
.L373:
	movq	-280(%rbp), %rdx
	movq	-264(%rbp), %rax
	movq	%rdx, %rsi
	movq	%rax, %rdi
	call	_ZNSt8_Rb_treeIN9ReqParser5StateESt4pairIKS1_NSt7__cxx1112basic_stringIcSt11char_traitsIcESaIcEEEESt10_Select1stISA_ESt4lessIS1_ESaISA_EE24_M_get_insert_unique_posERS3_
	jmp	.L385
.L370:
	movq	-264(%rbp), %rbx
	movq	-232(%rbp), %rax
	movq	%rax, %rdi
	call	_ZNSt8_Rb_treeIN9ReqParser5StateESt4pairIKS1_NSt7__cxx1112basic_stringIcSt11char_traitsIcESaIcEEEESt10_Select1stISA_ESt4lessIS1_ESaISA_EE6_S_keyEPKSt18_Rb_tree_node_base
	movq	%rax, %rdx
	movq	-280(%rbp), %rax
	movq	%rax, %rsi
	movq	%rbx, %rdi
	call	_ZNKSt4lessIN9ReqParser5StateEEclERKS1_S4_
	testb	%al, %al
	je	.L375
	movq	-232(%rbp), %rax
	movq	%rax, -240(%rbp)
	movq	-232(%rbp), %rbx
	movq	-264(%rbp), %rax
	movq	%rax, %rdi
	call	_ZNSt8_Rb_treeIN9ReqParser5StateESt4pairIKS1_NSt7__cxx1112basic_stringIcSt11char_traitsIcESaIcEEEESt10_Select1stISA_ESt4lessIS1_ESaISA_EE11_M_leftmostEv
	movq	(%rax), %rax
	cmpq	%rax, %rbx
	sete	%al
	testb	%al, %al
	je	.L376
	movq	-264(%rbp), %rax
	movq	%rax, %rdi
	call	_ZNSt8_Rb_treeIN9ReqParser5StateESt4pairIKS1_NSt7__cxx1112basic_stringIcSt11char_traitsIcESaIcEEEESt10_Select1stISA_ESt4lessIS1_ESaISA_EE11_M_leftmostEv
	movq	%rax, %rbx
	movq	-264(%rbp), %rax
	movq	%rax, %rdi
	call	_ZNSt8_Rb_treeIN9ReqParser5StateESt4pairIKS1_NSt7__cxx1112basic_stringIcSt11char_traitsIcESaIcEEEESt10_Select1stISA_ESt4lessIS1_ESaISA_EE11_M_leftmostEv
	movq	%rax, %rcx
	leaq	-192(%rbp), %rax
	movq	%rbx, %rdx
	movq	%rcx, %rsi
	movq	%rax, %rdi
	call	_ZNSt4pairIPSt18_Rb_tree_node_baseS1_EC1IRS1_S4_Lb1EEEOT_OT0_
	movq	-192(%rbp), %rax
	movq	-184(%rbp), %rdx
	jmp	.L385
.L376:
	movq	-264(%rbp), %rbx
	leaq	-240(%rbp), %rax
	movq	%rax, %rdi
	call	_ZNSt17_Rb_tree_iteratorISt4pairIKN9ReqParser5StateENSt7__cxx1112basic_stringIcSt11char_traitsIcESaIcEEEEEmmEv
	movq	(%rax), %rax
	movq	%rax, %rdi
	call	_ZNSt8_Rb_treeIN9ReqParser5StateESt4pairIKS1_NSt7__cxx1112basic_stringIcSt11char_traitsIcESaIcEEEESt10_Select1stISA_ESt4lessIS1_ESaISA_EE6_S_keyEPKSt18_Rb_tree_node_base
	movq	%rax, %rcx
	movq	-280(%rbp), %rax
	movq	%rax, %rdx
	movq	%rcx, %rsi
	movq	%rbx, %rdi
	call	_ZNKSt4lessIN9ReqParser5StateEEclERKS1_S4_
	testb	%al, %al
	je	.L378
	movq	-240(%rbp), %rax
	movq	%rax, %rdi
	call	_ZNSt8_Rb_treeIN9ReqParser5StateESt4pairIKS1_NSt7__cxx1112basic_stringIcSt11char_traitsIcESaIcEEEESt10_Select1stISA_ESt4lessIS1_ESaISA_EE8_S_rightEPSt18_Rb_tree_node_base
	testq	%rax, %rax
	sete	%al
	testb	%al, %al
	je	.L379
	movq	$0, -152(%rbp)
	leaq	-240(%rbp), %rdx
	leaq	-152(%rbp), %rcx
	leaq	-176(%rbp), %rax
	movq	%rcx, %rsi
	movq	%rax, %rdi
	call	_ZNSt4pairIPSt18_Rb_tree_node_baseS1_EC1IRS1_Lb1EEERKS1_OT_
	movq	-176(%rbp), %rax
	movq	-168(%rbp), %rdx
	jmp	.L385
.L379:
	leaq	-232(%rbp), %rdx
	leaq	-232(%rbp), %rcx
	leaq	-144(%rbp), %rax
	movq	%rcx, %rsi
	movq	%rax, %rdi
	call	_ZNSt4pairIPSt18_Rb_tree_node_baseS1_EC1IRS1_S4_Lb1EEEOT_OT0_
	movq	-144(%rbp), %rax
	movq	-136(%rbp), %rdx
	jmp	.L385
.L378:
	movq	-280(%rbp), %rdx
	movq	-264(%rbp), %rax
	movq	%rdx, %rsi
	movq	%rax, %rdi
	call	_ZNSt8_Rb_treeIN9ReqParser5StateESt4pairIKS1_NSt7__cxx1112basic_stringIcSt11char_traitsIcESaIcEEEESt10_Select1stISA_ESt4lessIS1_ESaISA_EE24_M_get_insert_unique_posERS3_
	jmp	.L385
.L375:
	movq	-264(%rbp), %rbx
	movq	-232(%rbp), %rax
	movq	%rax, %rdi
	call	_ZNSt8_Rb_treeIN9ReqParser5StateESt4pairIKS1_NSt7__cxx1112basic_stringIcSt11char_traitsIcESaIcEEEESt10_Select1stISA_ESt4lessIS1_ESaISA_EE6_S_keyEPKSt18_Rb_tree_node_base
	movq	%rax, %rcx
	movq	-280(%rbp), %rax
	movq	%rax, %rdx
	movq	%rcx, %rsi
	movq	%rbx, %rdi
	call	_ZNKSt4lessIN9ReqParser5StateEEclERKS1_S4_
	testb	%al, %al
	je	.L380
	movq	-232(%rbp), %rax
	movq	%rax, -248(%rbp)
	movq	-232(%rbp), %rbx
	movq	-264(%rbp), %rax
	movq	%rax, %rdi
	call	_ZNSt8_Rb_treeIN9ReqParser5StateESt4pairIKS1_NSt7__cxx1112basic_stringIcSt11char_traitsIcESaIcEEEESt10_Select1stISA_ESt4lessIS1_ESaISA_EE12_M_rightmostEv
	movq	(%rax), %rax
	cmpq	%rax, %rbx
	sete	%al
	testb	%al, %al
	je	.L381
	movq	-264(%rbp), %rax
	movq	%rax, %rdi
	call	_ZNSt8_Rb_treeIN9ReqParser5StateESt4pairIKS1_NSt7__cxx1112basic_stringIcSt11char_traitsIcESaIcEEEESt10_Select1stISA_ESt4lessIS1_ESaISA_EE12_M_rightmostEv
	movq	%rax, %rdx
	movq	$0, -104(%rbp)
	leaq	-104(%rbp), %rcx
	leaq	-128(%rbp), %rax
	movq	%rcx, %rsi
	movq	%rax, %rdi
	call	_ZNSt4pairIPSt18_Rb_tree_node_baseS1_EC1IRS1_Lb1EEERKS1_OT_
	movq	-128(%rbp), %rax
	movq	-120(%rbp), %rdx
	jmp	.L385
.L381:
	movq	-264(%rbp), %rbx
	leaq	-248(%rbp), %rax
	movq	%rax, %rdi
	call	_ZNSt17_Rb_tree_iteratorISt4pairIKN9ReqParser5StateENSt7__cxx1112basic_stringIcSt11char_traitsIcESaIcEEEEEppEv
	movq	(%rax), %rax
	movq	%rax, %rdi
	call	_ZNSt8_Rb_treeIN9ReqParser5StateESt4pairIKS1_NSt7__cxx1112basic_stringIcSt11char_traitsIcESaIcEEEESt10_Select1stISA_ESt4lessIS1_ESaISA_EE6_S_keyEPKSt18_Rb_tree_node_base
	movq	%rax, %rdx
	movq	-280(%rbp), %rax
	movq	%rax, %rsi
	movq	%rbx, %rdi
	call	_ZNKSt4lessIN9ReqParser5StateEEclERKS1_S4_
	testb	%al, %al
	je	.L383
	movq	-232(%rbp), %rax
	movq	%rax, %rdi
	call	_ZNSt8_Rb_treeIN9ReqParser5StateESt4pairIKS1_NSt7__cxx1112basic_stringIcSt11char_traitsIcESaIcEEEESt10_Select1stISA_ESt4lessIS1_ESaISA_EE8_S_rightEPSt18_Rb_tree_node_base
	testq	%rax, %rax
	sete	%al
	testb	%al, %al
	je	.L384
	movq	$0, -72(%rbp)
	leaq	-232(%rbp), %rdx
	leaq	-72(%rbp), %rcx
	leaq	-96(%rbp), %rax
	movq	%rcx, %rsi
	movq	%rax, %rdi
	call	_ZNSt4pairIPSt18_Rb_tree_node_baseS1_EC1IRS1_Lb1EEERKS1_OT_
	movq	-96(%rbp), %rax
	movq	-88(%rbp), %rdx
	jmp	.L385
.L384:
	leaq	-248(%rbp), %rdx
	leaq	-248(%rbp), %rcx
	leaq	-64(%rbp), %rax
	movq	%rcx, %rsi
	movq	%rax, %rdi
	call	_ZNSt4pairIPSt18_Rb_tree_node_baseS1_EC1IRS1_S4_Lb1EEEOT_OT0_
	movq	-64(%rbp), %rax
	movq	-56(%rbp), %rdx
	jmp	.L385
.L383:
	movq	-280(%rbp), %rdx
	movq	-264(%rbp), %rax
	movq	%rdx, %rsi
	movq	%rax, %rdi
	call	_ZNSt8_Rb_treeIN9ReqParser5StateESt4pairIKS1_NSt7__cxx1112basic_stringIcSt11char_traitsIcESaIcEEEESt10_Select1stISA_ESt4lessIS1_ESaISA_EE24_M_get_insert_unique_posERS3_
	jmp	.L385
.L380:
	movq	$0, -24(%rbp)
	leaq	-24(%rbp), %rdx
	leaq	-232(%rbp), %rcx
	leaq	-48(%rbp), %rax
	movq	%rcx, %rsi
	movq	%rax, %rdi
	call	_ZNSt4pairIPSt18_Rb_tree_node_baseS1_EC1IRS1_Lb1EEEOT_RKS1_
	movq	-48(%rbp), %rax
	movq	-40(%rbp), %rdx
.L385:
	addq	$280, %rsp
	popq	%rbx
	popq	%rbp
	.cfi_def_cfa 7, 8
	ret
	.cfi_endproc
.LFE7072:
	.size	_ZNSt8_Rb_treeIN9ReqParser5StateESt4pairIKS1_NSt7__cxx1112basic_stringIcSt11char_traitsIcESaIcEEEESt10_Select1stISA_ESt4lessIS1_ESaISA_EE29_M_get_insert_hint_unique_posESt23_Rb_tree_const_iteratorISA_ERS3_, .-_ZNSt8_Rb_treeIN9ReqParser5StateESt4pairIKS1_NSt7__cxx1112basic_stringIcSt11char_traitsIcESaIcEEEESt10_Select1stISA_ESt4lessIS1_ESaISA_EE29_M_get_insert_hint_unique_posESt23_Rb_tree_const_iteratorISA_ERS3_
	.section	.text._ZNSt8_Rb_treeIN9ReqParser5StateESt4pairIKS1_NSt7__cxx1112basic_stringIcSt11char_traitsIcESaIcEEEESt10_Select1stISA_ESt4lessIS1_ESaISA_EE6_S_keyEPKSt13_Rb_tree_nodeISA_E,"axG",@progbits,_ZNSt8_Rb_treeIN9ReqParser5StateESt4pairIKS1_NSt7__cxx1112basic_stringIcSt11char_traitsIcESaIcEEEESt10_Select1stISA_ESt4lessIS1_ESaISA_EE6_S_keyEPKSt13_Rb_tree_nodeISA_E,comdat
	.weak	_ZNSt8_Rb_treeIN9ReqParser5StateESt4pairIKS1_NSt7__cxx1112basic_stringIcSt11char_traitsIcESaIcEEEESt10_Select1stISA_ESt4lessIS1_ESaISA_EE6_S_keyEPKSt13_Rb_tree_nodeISA_E
	.type	_ZNSt8_Rb_treeIN9ReqParser5StateESt4pairIKS1_NSt7__cxx1112basic_stringIcSt11char_traitsIcESaIcEEEESt10_Select1stISA_ESt4lessIS1_ESaISA_EE6_S_keyEPKSt13_Rb_tree_nodeISA_E, @function
_ZNSt8_Rb_treeIN9ReqParser5StateESt4pairIKS1_NSt7__cxx1112basic_stringIcSt11char_traitsIcESaIcEEEESt10_Select1stISA_ESt4lessIS1_ESaISA_EE6_S_keyEPKSt13_Rb_tree_nodeISA_E:
.LFB7089:
	.cfi_startproc
	pushq	%rbp
	.cfi_def_cfa_offset 16
	.cfi_offset 6, -16
	movq	%rsp, %rbp
	.cfi_def_cfa_register 6
	subq	$32, %rsp
	movq	%rdi, -24(%rbp)
	movq	-24(%rbp), %rax
	movq	%rax, %rdi
	call	_ZNSt8_Rb_treeIN9ReqParser5StateESt4pairIKS1_NSt7__cxx1112basic_stringIcSt11char_traitsIcESaIcEEEESt10_Select1stISA_ESt4lessIS1_ESaISA_EE8_S_valueEPKSt13_Rb_tree_nodeISA_E
	movq	%rax, %rdx
	leaq	-1(%rbp), %rax
	movq	%rdx, %rsi
	movq	%rax, %rdi
	call	_ZNKSt10_Select1stISt4pairIKN9ReqParser5StateENSt7__cxx1112basic_stringIcSt11char_traitsIcESaIcEEEEEclERKSA_
	nop
	leave
	.cfi_def_cfa 7, 8
	ret
	.cfi_endproc
.LFE7089:
	.size	_ZNSt8_Rb_treeIN9ReqParser5StateESt4pairIKS1_NSt7__cxx1112basic_stringIcSt11char_traitsIcESaIcEEEESt10_Select1stISA_ESt4lessIS1_ESaISA_EE6_S_keyEPKSt13_Rb_tree_nodeISA_E, .-_ZNSt8_Rb_treeIN9ReqParser5StateESt4pairIKS1_NSt7__cxx1112basic_stringIcSt11char_traitsIcESaIcEEEESt10_Select1stISA_ESt4lessIS1_ESaISA_EE6_S_keyEPKSt13_Rb_tree_nodeISA_E
	.section	.text._ZNSt8_Rb_treeIN9ReqParser5StateESt4pairIKS1_NSt7__cxx1112basic_stringIcSt11char_traitsIcESaIcEEEESt10_Select1stISA_ESt4lessIS1_ESaISA_EE14_M_insert_nodeEPSt18_Rb_tree_node_baseSI_PSt13_Rb_tree_nodeISA_E,"axG",@progbits,_ZNSt8_Rb_treeIN9ReqParser5StateESt4pairIKS1_NSt7__cxx1112basic_stringIcSt11char_traitsIcESaIcEEEESt10_Select1stISA_ESt4lessIS1_ESaISA_EE14_M_insert_nodeEPSt18_Rb_tree_node_baseSI_PSt13_Rb_tree_nodeISA_E,comdat
	.align 2
	.weak	_ZNSt8_Rb_treeIN9ReqParser5StateESt4pairIKS1_NSt7__cxx1112basic_stringIcSt11char_traitsIcESaIcEEEESt10_Select1stISA_ESt4lessIS1_ESaISA_EE14_M_insert_nodeEPSt18_Rb_tree_node_baseSI_PSt13_Rb_tree_nodeISA_E
	.type	_ZNSt8_Rb_treeIN9ReqParser5StateESt4pairIKS1_NSt7__cxx1112basic_stringIcSt11char_traitsIcESaIcEEEESt10_Select1stISA_ESt4lessIS1_ESaISA_EE14_M_insert_nodeEPSt18_Rb_tree_node_baseSI_PSt13_Rb_tree_nodeISA_E, @function
_ZNSt8_Rb_treeIN9ReqParser5StateESt4pairIKS1_NSt7__cxx1112basic_stringIcSt11char_traitsIcESaIcEEEESt10_Select1stISA_ESt4lessIS1_ESaISA_EE14_M_insert_nodeEPSt18_Rb_tree_node_baseSI_PSt13_Rb_tree_nodeISA_E:
.LFB7090:
	.cfi_startproc
	pushq	%rbp
	.cfi_def_cfa_offset 16
	.cfi_offset 6, -16
	movq	%rsp, %rbp
	.cfi_def_cfa_register 6
	pushq	%r12
	pushq	%rbx
	subq	$48, %rsp
	.cfi_offset 12, -24
	.cfi_offset 3, -32
	movq	%rdi, -40(%rbp)
	movq	%rsi, -48(%rbp)
	movq	%rdx, -56(%rbp)
	movq	%rcx, -64(%rbp)
	cmpq	$0, -48(%rbp)
	jne	.L389
	movq	-40(%rbp), %rax
	movq	%rax, %rdi
	call	_ZNSt8_Rb_treeIN9ReqParser5StateESt4pairIKS1_NSt7__cxx1112basic_stringIcSt11char_traitsIcESaIcEEEESt10_Select1stISA_ESt4lessIS1_ESaISA_EE6_M_endEv
	cmpq	%rax, -56(%rbp)
	je	.L389
	movq	-40(%rbp), %rbx
	movq	-56(%rbp), %rax
	movq	%rax, %rdi
	call	_ZNSt8_Rb_treeIN9ReqParser5StateESt4pairIKS1_NSt7__cxx1112basic_stringIcSt11char_traitsIcESaIcEEEESt10_Select1stISA_ESt4lessIS1_ESaISA_EE6_S_keyEPKSt18_Rb_tree_node_base
	movq	%rax, %r12
	movq	-64(%rbp), %rax
	movq	%rax, %rdi
	call	_ZNSt8_Rb_treeIN9ReqParser5StateESt4pairIKS1_NSt7__cxx1112basic_stringIcSt11char_traitsIcESaIcEEEESt10_Select1stISA_ESt4lessIS1_ESaISA_EE6_S_keyEPKSt13_Rb_tree_nodeISA_E
	movq	%r12, %rdx
	movq	%rax, %rsi
	movq	%rbx, %rdi
	call	_ZNKSt4lessIN9ReqParser5StateEEclERKS1_S4_
	testb	%al, %al
	je	.L390
.L389:
	movl	$1, %eax
	jmp	.L391
.L390:
	movl	$0, %eax
.L391:
	movb	%al, -17(%rbp)
	movq	-40(%rbp), %rax
	leaq	8(%rax), %rcx
	movzbl	-17(%rbp), %eax
	movq	-56(%rbp), %rdx
	movq	-64(%rbp), %rsi
	movl	%eax, %edi
	call	_ZSt29_Rb_tree_insert_and_rebalancebPSt18_Rb_tree_node_baseS0_RS_
	movq	-40(%rbp), %rax
	movq	40(%rax), %rax
	leaq	1(%rax), %rdx
	movq	-40(%rbp), %rax
	movq	%rdx, 40(%rax)
	movq	-64(%rbp), %rdx
	leaq	-32(%rbp), %rax
	movq	%rdx, %rsi
	movq	%rax, %rdi
	call	_ZNSt17_Rb_tree_iteratorISt4pairIKN9ReqParser5StateENSt7__cxx1112basic_stringIcSt11char_traitsIcESaIcEEEEEC1EPSt18_Rb_tree_node_base
	movq	-32(%rbp), %rax
	addq	$48, %rsp
	popq	%rbx
	popq	%r12
	popq	%rbp
	.cfi_def_cfa 7, 8
	ret
	.cfi_endproc
.LFE7090:
	.size	_ZNSt8_Rb_treeIN9ReqParser5StateESt4pairIKS1_NSt7__cxx1112basic_stringIcSt11char_traitsIcESaIcEEEESt10_Select1stISA_ESt4lessIS1_ESaISA_EE14_M_insert_nodeEPSt18_Rb_tree_node_baseSI_PSt13_Rb_tree_nodeISA_E, .-_ZNSt8_Rb_treeIN9ReqParser5StateESt4pairIKS1_NSt7__cxx1112basic_stringIcSt11char_traitsIcESaIcEEEESt10_Select1stISA_ESt4lessIS1_ESaISA_EE14_M_insert_nodeEPSt18_Rb_tree_node_baseSI_PSt13_Rb_tree_nodeISA_E
	.section	.text._ZNSt17_Rb_tree_iteratorISt4pairIKN9ReqParser5StateENSt7__cxx1112basic_stringIcSt11char_traitsIcESaIcEEEEEC2EPSt18_Rb_tree_node_base,"axG",@progbits,_ZNSt17_Rb_tree_iteratorISt4pairIKN9ReqParser5StateENSt7__cxx1112basic_stringIcSt11char_traitsIcESaIcEEEEEC5EPSt18_Rb_tree_node_base,comdat
	.align 2
	.weak	_ZNSt17_Rb_tree_iteratorISt4pairIKN9ReqParser5StateENSt7__cxx1112basic_stringIcSt11char_traitsIcESaIcEEEEEC2EPSt18_Rb_tree_node_base
	.type	_ZNSt17_Rb_tree_iteratorISt4pairIKN9ReqParser5StateENSt7__cxx1112basic_stringIcSt11char_traitsIcESaIcEEEEEC2EPSt18_Rb_tree_node_base, @function
_ZNSt17_Rb_tree_iteratorISt4pairIKN9ReqParser5StateENSt7__cxx1112basic_stringIcSt11char_traitsIcESaIcEEEEEC2EPSt18_Rb_tree_node_base:
.LFB7092:
	.cfi_startproc
	pushq	%rbp
	.cfi_def_cfa_offset 16
	.cfi_offset 6, -16
	movq	%rsp, %rbp
	.cfi_def_cfa_register 6
	movq	%rdi, -8(%rbp)
	movq	%rsi, -16(%rbp)
	movq	-8(%rbp), %rax
	movq	-16(%rbp), %rdx
	movq	%rdx, (%rax)
	nop
	popq	%rbp
	.cfi_def_cfa 7, 8
	ret
	.cfi_endproc
.LFE7092:
	.size	_ZNSt17_Rb_tree_iteratorISt4pairIKN9ReqParser5StateENSt7__cxx1112basic_stringIcSt11char_traitsIcESaIcEEEEEC2EPSt18_Rb_tree_node_base, .-_ZNSt17_Rb_tree_iteratorISt4pairIKN9ReqParser5StateENSt7__cxx1112basic_stringIcSt11char_traitsIcESaIcEEEEEC2EPSt18_Rb_tree_node_base
	.weak	_ZNSt17_Rb_tree_iteratorISt4pairIKN9ReqParser5StateENSt7__cxx1112basic_stringIcSt11char_traitsIcESaIcEEEEEC1EPSt18_Rb_tree_node_base
	.set	_ZNSt17_Rb_tree_iteratorISt4pairIKN9ReqParser5StateENSt7__cxx1112basic_stringIcSt11char_traitsIcESaIcEEEEEC1EPSt18_Rb_tree_node_base,_ZNSt17_Rb_tree_iteratorISt4pairIKN9ReqParser5StateENSt7__cxx1112basic_stringIcSt11char_traitsIcESaIcEEEEEC2EPSt18_Rb_tree_node_base
	.section	.text._ZNSt11_Tuple_implILm0EJRKN9ReqParser5StateEEEC2ES3_,"axG",@progbits,_ZNSt11_Tuple_implILm0EJRKN9ReqParser5StateEEEC5ES3_,comdat
	.align 2
	.weak	_ZNSt11_Tuple_implILm0EJRKN9ReqParser5StateEEEC2ES3_
	.type	_ZNSt11_Tuple_implILm0EJRKN9ReqParser5StateEEEC2ES3_, @function
_ZNSt11_Tuple_implILm0EJRKN9ReqParser5StateEEEC2ES3_:
.LFB7096:
	.cfi_startproc
	pushq	%rbp
	.cfi_def_cfa_offset 16
	.cfi_offset 6, -16
	movq	%rsp, %rbp
	.cfi_def_cfa_register 6
	subq	$16, %rsp
	movq	%rdi, -8(%rbp)
	movq	%rsi, -16(%rbp)
	movq	-8(%rbp), %rax
	movq	-16(%rbp), %rdx
	movq	%rdx, %rsi
	movq	%rax, %rdi
	call	_ZNSt10_Head_baseILm0ERKN9ReqParser5StateELb0EEC2ES3_
	nop
	leave
	.cfi_def_cfa 7, 8
	ret
	.cfi_endproc
.LFE7096:
	.size	_ZNSt11_Tuple_implILm0EJRKN9ReqParser5StateEEEC2ES3_, .-_ZNSt11_Tuple_implILm0EJRKN9ReqParser5StateEEEC2ES3_
	.weak	_ZNSt11_Tuple_implILm0EJRKN9ReqParser5StateEEEC1ES3_
	.set	_ZNSt11_Tuple_implILm0EJRKN9ReqParser5StateEEEC1ES3_,_ZNSt11_Tuple_implILm0EJRKN9ReqParser5StateEEEC2ES3_
	.section	.text._ZSt7forwardISt5tupleIJRKN9ReqParser5StateEEEEOT_RNSt16remove_referenceIS6_E4typeE,"axG",@progbits,_ZSt7forwardISt5tupleIJRKN9ReqParser5StateEEEEOT_RNSt16remove_referenceIS6_E4typeE,comdat
	.weak	_ZSt7forwardISt5tupleIJRKN9ReqParser5StateEEEEOT_RNSt16remove_referenceIS6_E4typeE
	.type	_ZSt7forwardISt5tupleIJRKN9ReqParser5StateEEEEOT_RNSt16remove_referenceIS6_E4typeE, @function
_ZSt7forwardISt5tupleIJRKN9ReqParser5StateEEEEOT_RNSt16remove_referenceIS6_E4typeE:
.LFB7098:
	.cfi_startproc
	pushq	%rbp
	.cfi_def_cfa_offset 16
	.cfi_offset 6, -16
	movq	%rsp, %rbp
	.cfi_def_cfa_register 6
	movq	%rdi, -8(%rbp)
	movq	-8(%rbp), %rax
	popq	%rbp
	.cfi_def_cfa 7, 8
	ret
	.cfi_endproc
.LFE7098:
	.size	_ZSt7forwardISt5tupleIJRKN9ReqParser5StateEEEEOT_RNSt16remove_referenceIS6_E4typeE, .-_ZSt7forwardISt5tupleIJRKN9ReqParser5StateEEEEOT_RNSt16remove_referenceIS6_E4typeE
	.section	.text._ZNSt8_Rb_treeIN9ReqParser5StateESt4pairIKS1_NSt7__cxx1112basic_stringIcSt11char_traitsIcESaIcEEEESt10_Select1stISA_ESt4lessIS1_ESaISA_EE14_M_create_nodeIJRKSt21piecewise_construct_tSt5tupleIJRS3_EESL_IJEEEEEPSt13_Rb_tree_nodeISA_EDpOT_,"axG",@progbits,_ZNSt8_Rb_treeIN9ReqParser5StateESt4pairIKS1_NSt7__cxx1112basic_stringIcSt11char_traitsIcESaIcEEEESt10_Select1stISA_ESt4lessIS1_ESaISA_EE14_M_create_nodeIJRKSt21piecewise_construct_tSt5tupleIJRS3_EESL_IJEEEEEPSt13_Rb_tree_nodeISA_EDpOT_,comdat
	.align 2
	.weak	_ZNSt8_Rb_treeIN9ReqParser5StateESt4pairIKS1_NSt7__cxx1112basic_stringIcSt11char_traitsIcESaIcEEEESt10_Select1stISA_ESt4lessIS1_ESaISA_EE14_M_create_nodeIJRKSt21piecewise_construct_tSt5tupleIJRS3_EESL_IJEEEEEPSt13_Rb_tree_nodeISA_EDpOT_
	.type	_ZNSt8_Rb_treeIN9ReqParser5StateESt4pairIKS1_NSt7__cxx1112basic_stringIcSt11char_traitsIcESaIcEEEESt10_Select1stISA_ESt4lessIS1_ESaISA_EE14_M_create_nodeIJRKSt21piecewise_construct_tSt5tupleIJRS3_EESL_IJEEEEEPSt13_Rb_tree_nodeISA_EDpOT_, @function
_ZNSt8_Rb_treeIN9ReqParser5StateESt4pairIKS1_NSt7__cxx1112basic_stringIcSt11char_traitsIcESaIcEEEESt10_Select1stISA_ESt4lessIS1_ESaISA_EE14_M_create_nodeIJRKSt21piecewise_construct_tSt5tupleIJRS3_EESL_IJEEEEEPSt13_Rb_tree_nodeISA_EDpOT_:
.LFB7099:
	.cfi_startproc
	pushq	%rbp
	.cfi_def_cfa_offset 16
	.cfi_offset 6, -16
	movq	%rsp, %rbp
	.cfi_def_cfa_register 6
	pushq	%r12
	pushq	%rbx
	subq	$48, %rsp
	.cfi_offset 12, -24
	.cfi_offset 3, -32
	movq	%rdi, -40(%rbp)
	movq	%rsi, -48(%rbp)
	movq	%rdx, -56(%rbp)
	movq	%rcx, -64(%rbp)
	movq	-40(%rbp), %rax
	movq	%rax, %rdi
	call	_ZNSt8_Rb_treeIN9ReqParser5StateESt4pairIKS1_NSt7__cxx1112basic_stringIcSt11char_traitsIcESaIcEEEESt10_Select1stISA_ESt4lessIS1_ESaISA_EE11_M_get_nodeEv
	movq	%rax, -24(%rbp)
	movq	-64(%rbp), %rax
	movq	%rax, %rdi
	call	_ZSt7forwardISt5tupleIJEEEOT_RNSt16remove_referenceIS2_E4typeE
	movq	%rax, %r12
	movq	-56(%rbp), %rax
	movq	%rax, %rdi
	call	_ZSt7forwardISt5tupleIJRKN9ReqParser5StateEEEEOT_RNSt16remove_referenceIS6_E4typeE
	movq	%rax, %rbx
	movq	-48(%rbp), %rax
	movq	%rax, %rdi
	call	_ZSt7forwardIRKSt21piecewise_construct_tEOT_RNSt16remove_referenceIS3_E4typeE
	movq	%rax, %rdx
	movq	-24(%rbp), %rsi
	movq	-40(%rbp), %rax
	movq	%r12, %r8
	movq	%rbx, %rcx
	movq	%rax, %rdi
	call	_ZNSt8_Rb_treeIN9ReqParser5StateESt4pairIKS1_NSt7__cxx1112basic_stringIcSt11char_traitsIcESaIcEEEESt10_Select1stISA_ESt4lessIS1_ESaISA_EE17_M_construct_nodeIJRKSt21piecewise_construct_tSt5tupleIJRS3_EESL_IJEEEEEvPSt13_Rb_tree_nodeISA_EDpOT_
	movq	-24(%rbp), %rax
	addq	$48, %rsp
	popq	%rbx
	popq	%r12
	popq	%rbp
	.cfi_def_cfa 7, 8
	ret
	.cfi_endproc
.LFE7099:
	.size	_ZNSt8_Rb_treeIN9ReqParser5StateESt4pairIKS1_NSt7__cxx1112basic_stringIcSt11char_traitsIcESaIcEEEESt10_Select1stISA_ESt4lessIS1_ESaISA_EE14_M_create_nodeIJRKSt21piecewise_construct_tSt5tupleIJRS3_EESL_IJEEEEEPSt13_Rb_tree_nodeISA_EDpOT_, .-_ZNSt8_Rb_treeIN9ReqParser5StateESt4pairIKS1_NSt7__cxx1112basic_stringIcSt11char_traitsIcESaIcEEEESt10_Select1stISA_ESt4lessIS1_ESaISA_EE14_M_create_nodeIJRKSt21piecewise_construct_tSt5tupleIJRS3_EESL_IJEEEEEPSt13_Rb_tree_nodeISA_EDpOT_
	.section	.text._ZNSt14__array_traitsINSt7__cxx1112basic_stringIwSt11char_traitsIwESaIwEEELm2EE6_S_ptrERA2_KS5_,"axG",@progbits,_ZNSt14__array_traitsINSt7__cxx1112basic_stringIwSt11char_traitsIwESaIwEEELm2EE6_S_ptrERA2_KS5_,comdat
	.weak	_ZNSt14__array_traitsINSt7__cxx1112basic_stringIwSt11char_traitsIwESaIwEEELm2EE6_S_ptrERA2_KS5_
	.type	_ZNSt14__array_traitsINSt7__cxx1112basic_stringIwSt11char_traitsIwESaIwEEELm2EE6_S_ptrERA2_KS5_, @function
_ZNSt14__array_traitsINSt7__cxx1112basic_stringIwSt11char_traitsIwESaIwEEELm2EE6_S_ptrERA2_KS5_:
.LFB7101:
	.cfi_startproc
	pushq	%rbp
	.cfi_def_cfa_offset 16
	.cfi_offset 6, -16
	movq	%rsp, %rbp
	.cfi_def_cfa_register 6
	movq	%rdi, -8(%rbp)
	movq	-8(%rbp), %rax
	popq	%rbp
	.cfi_def_cfa 7, 8
	ret
	.cfi_endproc
.LFE7101:
	.size	_ZNSt14__array_traitsINSt7__cxx1112basic_stringIwSt11char_traitsIwESaIwEEELm2EE6_S_ptrERA2_KS5_, .-_ZNSt14__array_traitsINSt7__cxx1112basic_stringIwSt11char_traitsIwESaIwEEELm2EE6_S_ptrERA2_KS5_
	.text
	.type	_ZSt4moveIRZN9ReqParser7consumeER7RequestwEUlNSt7__cxx1112basic_stringIwSt11char_traitsIwESaIwEEEE_EONSt16remove_referenceIT_E4typeEOSC_, @function
_ZSt4moveIRZN9ReqParser7consumeER7RequestwEUlNSt7__cxx1112basic_stringIwSt11char_traitsIwESaIwEEEE_EONSt16remove_referenceIT_E4typeEOSC_:
.LFB7107:
	.cfi_startproc
	pushq	%rbp
	.cfi_def_cfa_offset 16
	.cfi_offset 6, -16
	movq	%rsp, %rbp
	.cfi_def_cfa_register 6
	movq	%rdi, -8(%rbp)
	movq	-8(%rbp), %rax
	popq	%rbp
	.cfi_def_cfa 7, 8
	ret
	.cfi_endproc
.LFE7107:
	.size	_ZSt4moveIRZN9ReqParser7consumeER7RequestwEUlNSt7__cxx1112basic_stringIwSt11char_traitsIwESaIwEEEE_EONSt16remove_referenceIT_E4typeEOSC_, .-_ZSt4moveIRZN9ReqParser7consumeER7RequestwEUlNSt7__cxx1112basic_stringIwSt11char_traitsIwESaIwEEEE_EONSt16remove_referenceIT_E4typeEOSC_
	.align 2
	.type	_ZN9__gnu_cxx5__ops10_Iter_predIZN9ReqParser7consumeER7RequestwEUlNSt7__cxx1112basic_stringIwSt11char_traitsIwESaIwEEEE_EC2ESB_, @function
_ZN9__gnu_cxx5__ops10_Iter_predIZN9ReqParser7consumeER7RequestwEUlNSt7__cxx1112basic_stringIwSt11char_traitsIwESaIwEEEE_EC2ESB_:
.LFB7109:
	.cfi_startproc
	pushq	%rbp
	.cfi_def_cfa_offset 16
	.cfi_offset 6, -16
	movq	%rsp, %rbp
	.cfi_def_cfa_register 6
	subq	$16, %rsp
	movq	%rdi, -8(%rbp)
	movl	%esi, -12(%rbp)
	leaq	-12(%rbp), %rax
	movq	%rax, %rdi
	call	_ZSt4moveIRZN9ReqParser7consumeER7RequestwEUlNSt7__cxx1112basic_stringIwSt11char_traitsIwESaIwEEEE_EONSt16remove_referenceIT_E4typeEOSC_
	movq	%rax, %rdx
	movq	-8(%rbp), %rax
	movl	(%rdx), %edx
	movl	%edx, (%rax)
	nop
	leave
	.cfi_def_cfa 7, 8
	ret
	.cfi_endproc
.LFE7109:
	.size	_ZN9__gnu_cxx5__ops10_Iter_predIZN9ReqParser7consumeER7RequestwEUlNSt7__cxx1112basic_stringIwSt11char_traitsIwESaIwEEEE_EC2ESB_, .-_ZN9__gnu_cxx5__ops10_Iter_predIZN9ReqParser7consumeER7RequestwEUlNSt7__cxx1112basic_stringIwSt11char_traitsIwESaIwEEEE_EC2ESB_
	.set	_ZN9__gnu_cxx5__ops10_Iter_predIZN9ReqParser7consumeER7RequestwEUlNSt7__cxx1112basic_stringIwSt11char_traitsIwESaIwEEEE_EC1ESB_,_ZN9__gnu_cxx5__ops10_Iter_predIZN9ReqParser7consumeER7RequestwEUlNSt7__cxx1112basic_stringIwSt11char_traitsIwESaIwEEEE_EC2ESB_
	.section	.text._ZSt19__iterator_categoryIPKNSt7__cxx1112basic_stringIwSt11char_traitsIwESaIwEEEENSt15iterator_traitsIT_E17iterator_categoryERKS9_,"axG",@progbits,_ZSt19__iterator_categoryIPKNSt7__cxx1112basic_stringIwSt11char_traitsIwESaIwEEEENSt15iterator_traitsIT_E17iterator_categoryERKS9_,comdat
	.weak	_ZSt19__iterator_categoryIPKNSt7__cxx1112basic_stringIwSt11char_traitsIwESaIwEEEENSt15iterator_traitsIT_E17iterator_categoryERKS9_
	.type	_ZSt19__iterator_categoryIPKNSt7__cxx1112basic_stringIwSt11char_traitsIwESaIwEEEENSt15iterator_traitsIT_E17iterator_categoryERKS9_, @function
_ZSt19__iterator_categoryIPKNSt7__cxx1112basic_stringIwSt11char_traitsIwESaIwEEEENSt15iterator_traitsIT_E17iterator_categoryERKS9_:
.LFB7111:
	.cfi_startproc
	pushq	%rbp
	.cfi_def_cfa_offset 16
	.cfi_offset 6, -16
	movq	%rsp, %rbp
	.cfi_def_cfa_register 6
	movq	%rdi, -8(%rbp)
	popq	%rbp
	.cfi_def_cfa 7, 8
	ret
	.cfi_endproc
.LFE7111:
	.size	_ZSt19__iterator_categoryIPKNSt7__cxx1112basic_stringIwSt11char_traitsIwESaIwEEEENSt15iterator_traitsIT_E17iterator_categoryERKS9_, .-_ZSt19__iterator_categoryIPKNSt7__cxx1112basic_stringIwSt11char_traitsIwESaIwEEEENSt15iterator_traitsIT_E17iterator_categoryERKS9_
	.text
	.type	_ZSt9__find_ifIPKNSt7__cxx1112basic_stringIwSt11char_traitsIwESaIwEEEN9__gnu_cxx5__ops10_Iter_predIZN9ReqParser7consumeER7RequestwEUlS5_E_EEET_SG_SG_T0_St26random_access_iterator_tag, @function
_ZSt9__find_ifIPKNSt7__cxx1112basic_stringIwSt11char_traitsIwESaIwEEEN9__gnu_cxx5__ops10_Iter_predIZN9ReqParser7consumeER7RequestwEUlS5_E_EEET_SG_SG_T0_St26random_access_iterator_tag:
.LFB7112:
	.cfi_startproc
	pushq	%rbp
	.cfi_def_cfa_offset 16
	.cfi_offset 6, -16
	movq	%rsp, %rbp
	.cfi_def_cfa_register 6
	subq	$48, %rsp
	movq	%rdi, -24(%rbp)
	movq	%rsi, -32(%rbp)
	movl	%edx, -36(%rbp)
	movq	-32(%rbp), %rax
	subq	-24(%rbp), %rax
	sarq	$5, %rax
	sarq	$2, %rax
	movq	%rax, -8(%rbp)
.L413:
	cmpq	$0, -8(%rbp)
	jle	.L407
	movq	-24(%rbp), %rdx
	leaq	-36(%rbp), %rax
	movq	%rdx, %rsi
	movq	%rax, %rdi
	call	_ZN9__gnu_cxx5__ops10_Iter_predIZN9ReqParser7consumeER7RequestwEUlNSt7__cxx1112basic_stringIwSt11char_traitsIwESaIwEEEE_EclIPKSA_EEbT_
	testb	%al, %al
	je	.L408
	movq	-24(%rbp), %rax
	jmp	.L409
.L408:
	addq	$32, -24(%rbp)
	movq	-24(%rbp), %rdx
	leaq	-36(%rbp), %rax
	movq	%rdx, %rsi
	movq	%rax, %rdi
	call	_ZN9__gnu_cxx5__ops10_Iter_predIZN9ReqParser7consumeER7RequestwEUlNSt7__cxx1112basic_stringIwSt11char_traitsIwESaIwEEEE_EclIPKSA_EEbT_
	testb	%al, %al
	je	.L410
	movq	-24(%rbp), %rax
	jmp	.L409
.L410:
	addq	$32, -24(%rbp)
	movq	-24(%rbp), %rdx
	leaq	-36(%rbp), %rax
	movq	%rdx, %rsi
	movq	%rax, %rdi
	call	_ZN9__gnu_cxx5__ops10_Iter_predIZN9ReqParser7consumeER7RequestwEUlNSt7__cxx1112basic_stringIwSt11char_traitsIwESaIwEEEE_EclIPKSA_EEbT_
	testb	%al, %al
	je	.L411
	movq	-24(%rbp), %rax
	jmp	.L409
.L411:
	addq	$32, -24(%rbp)
	movq	-24(%rbp), %rdx
	leaq	-36(%rbp), %rax
	movq	%rdx, %rsi
	movq	%rax, %rdi
	call	_ZN9__gnu_cxx5__ops10_Iter_predIZN9ReqParser7consumeER7RequestwEUlNSt7__cxx1112basic_stringIwSt11char_traitsIwESaIwEEEE_EclIPKSA_EEbT_
	testb	%al, %al
	je	.L412
	movq	-24(%rbp), %rax
	jmp	.L409
.L412:
	addq	$32, -24(%rbp)
	subq	$1, -8(%rbp)
	jmp	.L413
.L407:
	movq	-32(%rbp), %rax
	subq	-24(%rbp), %rax
	sarq	$5, %rax
	cmpq	$2, %rax
	je	.L414
	cmpq	$3, %rax
	je	.L415
	cmpq	$1, %rax
	je	.L416
	jmp	.L417
.L415:
	movq	-24(%rbp), %rdx
	leaq	-36(%rbp), %rax
	movq	%rdx, %rsi
	movq	%rax, %rdi
	call	_ZN9__gnu_cxx5__ops10_Iter_predIZN9ReqParser7consumeER7RequestwEUlNSt7__cxx1112basic_stringIwSt11char_traitsIwESaIwEEEE_EclIPKSA_EEbT_
	testb	%al, %al
	je	.L418
	movq	-24(%rbp), %rax
	jmp	.L409
.L418:
	addq	$32, -24(%rbp)
.L414:
	movq	-24(%rbp), %rdx
	leaq	-36(%rbp), %rax
	movq	%rdx, %rsi
	movq	%rax, %rdi
	call	_ZN9__gnu_cxx5__ops10_Iter_predIZN9ReqParser7consumeER7RequestwEUlNSt7__cxx1112basic_stringIwSt11char_traitsIwESaIwEEEE_EclIPKSA_EEbT_
	testb	%al, %al
	je	.L419
	movq	-24(%rbp), %rax
	jmp	.L409
.L419:
	addq	$32, -24(%rbp)
.L416:
	movq	-24(%rbp), %rdx
	leaq	-36(%rbp), %rax
	movq	%rdx, %rsi
	movq	%rax, %rdi
	call	_ZN9__gnu_cxx5__ops10_Iter_predIZN9ReqParser7consumeER7RequestwEUlNSt7__cxx1112basic_stringIwSt11char_traitsIwESaIwEEEE_EclIPKSA_EEbT_
	testb	%al, %al
	je	.L420
	movq	-24(%rbp), %rax
	jmp	.L409
.L420:
	addq	$32, -24(%rbp)
.L417:
	movq	-32(%rbp), %rax
.L409:
	leave
	.cfi_def_cfa 7, 8
	ret
	.cfi_endproc
.LFE7112:
	.size	_ZSt9__find_ifIPKNSt7__cxx1112basic_stringIwSt11char_traitsIwESaIwEEEN9__gnu_cxx5__ops10_Iter_predIZN9ReqParser7consumeER7RequestwEUlS5_E_EEET_SG_SG_T0_St26random_access_iterator_tag, .-_ZSt9__find_ifIPKNSt7__cxx1112basic_stringIwSt11char_traitsIwESaIwEEEN9__gnu_cxx5__ops10_Iter_predIZN9ReqParser7consumeER7RequestwEUlS5_E_EEET_SG_SG_T0_St26random_access_iterator_tag
	.section	.text._ZNSt8_Rb_treeIN9ReqParser5StateESt4pairIKS1_NSt7__cxx1112basic_stringIcSt11char_traitsIcESaIcEEEESt10_Select1stISA_ESt4lessIS1_ESaISA_EE15_M_destroy_nodeEPSt13_Rb_tree_nodeISA_E,"axG",@progbits,_ZNSt8_Rb_treeIN9ReqParser5StateESt4pairIKS1_NSt7__cxx1112basic_stringIcSt11char_traitsIcESaIcEEEESt10_Select1stISA_ESt4lessIS1_ESaISA_EE15_M_destroy_nodeEPSt13_Rb_tree_nodeISA_E,comdat
	.align 2
	.weak	_ZNSt8_Rb_treeIN9ReqParser5StateESt4pairIKS1_NSt7__cxx1112basic_stringIcSt11char_traitsIcESaIcEEEESt10_Select1stISA_ESt4lessIS1_ESaISA_EE15_M_destroy_nodeEPSt13_Rb_tree_nodeISA_E
	.type	_ZNSt8_Rb_treeIN9ReqParser5StateESt4pairIKS1_NSt7__cxx1112basic_stringIcSt11char_traitsIcESaIcEEEESt10_Select1stISA_ESt4lessIS1_ESaISA_EE15_M_destroy_nodeEPSt13_Rb_tree_nodeISA_E, @function
_ZNSt8_Rb_treeIN9ReqParser5StateESt4pairIKS1_NSt7__cxx1112basic_stringIcSt11char_traitsIcESaIcEEEESt10_Select1stISA_ESt4lessIS1_ESaISA_EE15_M_destroy_nodeEPSt13_Rb_tree_nodeISA_E:
.LFB7190:
	.cfi_startproc
	.cfi_personality 0x3,__gxx_personality_v0
	.cfi_lsda 0x3,.LLSDA7190
	pushq	%rbp
	.cfi_def_cfa_offset 16
	.cfi_offset 6, -16
	movq	%rsp, %rbp
	.cfi_def_cfa_register 6
	pushq	%rbx
	subq	$24, %rsp
	.cfi_offset 3, -24
	movq	%rdi, -24(%rbp)
	movq	%rsi, -32(%rbp)
	movq	-32(%rbp), %rax
	movq	%rax, %rdi
	call	_ZNSt13_Rb_tree_nodeISt4pairIKN9ReqParser5StateENSt7__cxx1112basic_stringIcSt11char_traitsIcESaIcEEEEE9_M_valptrEv
	movq	%rax, %rbx
	movq	-24(%rbp), %rax
	movq	%rax, %rdi
	call	_ZNSt8_Rb_treeIN9ReqParser5StateESt4pairIKS1_NSt7__cxx1112basic_stringIcSt11char_traitsIcESaIcEEEESt10_Select1stISA_ESt4lessIS1_ESaISA_EE21_M_get_Node_allocatorEv
	movq	%rbx, %rsi
	movq	%rax, %rdi
	call	_ZNSt16allocator_traitsISaISt13_Rb_tree_nodeISt4pairIKN9ReqParser5StateENSt7__cxx1112basic_stringIcSt11char_traitsIcESaIcEEEEEEE7destroyISB_EEvRSD_PT_
	nop
	addq	$24, %rsp
	popq	%rbx
	popq	%rbp
	.cfi_def_cfa 7, 8
	ret
	.cfi_endproc
.LFE7190:
	.section	.gcc_except_table
.LLSDA7190:
	.byte	0xff
	.byte	0xff
	.byte	0x1
	.uleb128 .LLSDACSE7190-.LLSDACSB7190
.LLSDACSB7190:
.LLSDACSE7190:
